
grid_toplevel.elf:     file format elf32-littlearm

Sections:
Idx Name          Size      VMA       LMA       File off  Algn
  0 .text         0000ca18  00004000  00004000  00004000  2**4
                  CONTENTS, ALLOC, LOAD, READONLY, CODE
  1 .relocate     000005ac  20000000  00010a18  00020000  2**2
                  CONTENTS, ALLOC, LOAD, DATA
  2 .bkupram      00000000  47000000  47000000  000205ac  2**0
                  CONTENTS
  3 .qspi         00000000  04000000  04000000  000205ac  2**0
                  CONTENTS
  4 .bss          00007c60  200005b0  00010fd0  000205b0  2**4
                  ALLOC
  5 .stack        00010000  20008210  00018c30  000205b0  2**0
                  ALLOC
  6 .ARM.attributes 0000002e  00000000  00000000  000205ac  2**0
                  CONTENTS, READONLY
  7 .comment      00000059  00000000  00000000  000205da  2**0
                  CONTENTS, READONLY
  8 .debug_frame  00000ac4  00000000  00000000  00020634  2**2
                  CONTENTS, READONLY, DEBUGGING

Disassembly of section .text:

00004000 <exception_table>:
    4000:	10 82 01 20 f5 42 00 00 f1 42 00 00 f1 42 00 00     ... .B...B...B..
    4010:	f1 42 00 00 f1 42 00 00 f1 42 00 00 00 00 00 00     .B...B...B......
	...
    402c:	f1 42 00 00 f1 42 00 00 00 00 00 00 f1 42 00 00     .B...B.......B..
    403c:	f1 42 00 00 f1 42 00 00 f1 42 00 00 f1 42 00 00     .B...B...B...B..
    404c:	f1 42 00 00 f1 42 00 00 f1 42 00 00 f1 42 00 00     .B...B...B...B..
    405c:	f1 42 00 00 f1 42 00 00 f1 42 00 00 f1 42 00 00     .B...B...B...B..
    406c:	d9 a6 00 00 f1 42 00 00 f1 42 00 00 f1 42 00 00     .....B...B...B..
    407c:	f1 42 00 00 f1 42 00 00 f1 42 00 00 f1 42 00 00     .B...B...B...B..
    408c:	f1 42 00 00 f1 42 00 00 f1 42 00 00 f1 42 00 00     .B...B...B...B..
    409c:	f1 42 00 00 f1 42 00 00 f1 42 00 00 f1 42 00 00     .B...B...B...B..
    40ac:	f1 42 00 00 f1 42 00 00 0d a3 00 00 e1 a2 00 00     .B...B..........
    40bc:	0d a1 00 00 15 a1 00 00 1d a1 00 00 25 a1 00 00     ............%...
    40cc:	2d a1 00 00 f1 42 00 00 f1 42 00 00 f1 42 00 00     -....B...B...B..
    40dc:	f1 42 00 00 f1 42 00 00 f1 42 00 00 00 00 00 00     .B...B...B......
	...
    40f4:	81 a5 00 00 21 b0 00 00 19 b0 00 00 11 b0 00 00     ....!...........
    4104:	01 b0 00 00 49 b0 00 00 41 b0 00 00 39 b0 00 00     ....I...A...9...
    4114:	29 b0 00 00 f1 42 00 00 f1 42 00 00 f1 42 00 00     )....B...B...B..
    4124:	f1 42 00 00 a5 b0 00 00 9d b0 00 00 95 b0 00 00     .B..............
    4134:	51 b0 00 00 cd b0 00 00 c5 b0 00 00 bd b0 00 00     Q...............
    4144:	ad b0 00 00 49 b1 00 00 41 b1 00 00 39 b1 00 00     ....I...A...9...
    4154:	d5 b0 00 00 71 b1 00 00 69 b1 00 00 61 b1 00 00     ....q...i...a...
    4164:	51 b1 00 00 f1 42 00 00 f1 42 00 00 f1 42 00 00     Q....B...B...B..
    4174:	f1 42 00 00 00 00 00 00 00 00 00 00 c1 c7 00 00     .B..............
    4184:	c9 c7 00 00 d1 c7 00 00 d9 c7 00 00 00 00 00 00     ................
    4194:	f1 42 00 00 f1 42 00 00 f1 42 00 00 f1 42 00 00     .B...B...B...B..
    41a4:	f1 42 00 00 f1 42 00 00 f1 42 00 00 f1 42 00 00     .B...B...B...B..
    41b4:	f1 42 00 00 f1 42 00 00 f1 42 00 00 f1 42 00 00     .B...B...B...B..
    41c4:	f1 42 00 00 f1 42 00 00 f1 42 00 00 f1 42 00 00     .B...B...B...B..
    41d4:	f1 42 00 00 f1 42 00 00 f1 42 00 00 f1 42 00 00     .B...B...B...B..
    41e4:	f1 42 00 00 f1 42 00 00 05 b9 00 00 15 b9 00 00     .B...B..........
    41f4:	25 b9 00 00 35 b9 00 00 f1 42 00 00 f1 42 00 00     %...5....B...B..
    4204:	f1 42 00 00 f1 42 00 00 f1 42 00 00 f1 42 00 00     .B...B...B...B..
    4214:	f1 42 00 00 49 9e 00 00 39 9e 00 00 61 9e 00 00     .B..I...9...a...
    4224:	51 9e 00 00 f1 42 00 00 f1 42 00 00 f1 42 00 00     Q....B...B...B..
    4234:	f1 42 00 00 f1 42 00 00 f1 42 00 00 f1 42 00 00     .B...B...B...B..
    4244:	f1 42 00 00 f1 42 00 00 f1 42 00 00 f1 42 00 00     .B...B...B...B..
    4254:	f1 42 00 00 f1 42 00 00 f1 42 00 00 f1 42 00 00     .B...B...B...B..

00004264 <__do_global_dtors_aux>:
    4264:	b510      	push	{r4, lr}
    4266:	4c05      	ldr	r4, [pc, #20]	; (427c <__do_global_dtors_aux+0x18>)
    4268:	7823      	ldrb	r3, [r4, #0]
    426a:	b933      	cbnz	r3, 427a <__do_global_dtors_aux+0x16>
    426c:	4b04      	ldr	r3, [pc, #16]	; (4280 <__do_global_dtors_aux+0x1c>)
    426e:	b113      	cbz	r3, 4276 <__do_global_dtors_aux+0x12>
    4270:	4804      	ldr	r0, [pc, #16]	; (4284 <__do_global_dtors_aux+0x20>)
    4272:	f3af 8000 	nop.w
    4276:	2301      	movs	r3, #1
    4278:	7023      	strb	r3, [r4, #0]
    427a:	bd10      	pop	{r4, pc}
    427c:	200005b0 	.word	0x200005b0
    4280:	00000000 	.word	0x00000000
    4284:	00010a18 	.word	0x00010a18

00004288 <frame_dummy>:
    4288:	4b0c      	ldr	r3, [pc, #48]	; (42bc <frame_dummy+0x34>)
    428a:	b143      	cbz	r3, 429e <frame_dummy+0x16>
    428c:	480c      	ldr	r0, [pc, #48]	; (42c0 <frame_dummy+0x38>)
    428e:	490d      	ldr	r1, [pc, #52]	; (42c4 <frame_dummy+0x3c>)
    4290:	b510      	push	{r4, lr}
    4292:	f3af 8000 	nop.w
    4296:	480c      	ldr	r0, [pc, #48]	; (42c8 <frame_dummy+0x40>)
    4298:	6803      	ldr	r3, [r0, #0]
    429a:	b923      	cbnz	r3, 42a6 <frame_dummy+0x1e>
    429c:	bd10      	pop	{r4, pc}
    429e:	480a      	ldr	r0, [pc, #40]	; (42c8 <frame_dummy+0x40>)
    42a0:	6803      	ldr	r3, [r0, #0]
    42a2:	b933      	cbnz	r3, 42b2 <frame_dummy+0x2a>
    42a4:	4770      	bx	lr
    42a6:	4b09      	ldr	r3, [pc, #36]	; (42cc <frame_dummy+0x44>)
    42a8:	2b00      	cmp	r3, #0
    42aa:	d0f7      	beq.n	429c <frame_dummy+0x14>
    42ac:	e8bd 4010 	ldmia.w	sp!, {r4, lr}
    42b0:	4718      	bx	r3
    42b2:	4b06      	ldr	r3, [pc, #24]	; (42cc <frame_dummy+0x44>)
    42b4:	2b00      	cmp	r3, #0
    42b6:	d0f5      	beq.n	42a4 <frame_dummy+0x1c>
    42b8:	4718      	bx	r3
    42ba:	bf00      	nop
    42bc:	00000000 	.word	0x00000000
    42c0:	00010a18 	.word	0x00010a18
    42c4:	200005b4 	.word	0x200005b4
    42c8:	00010a18 	.word	0x00010a18
    42cc:	00000000 	.word	0x00000000

000042d0 <atmel_start_init>:
    42d0:	b510      	push	{r4, lr}
    42d2:	4b04      	ldr	r3, [pc, #16]	; (42e4 <atmel_start_init+0x14>)
    42d4:	4798      	blx	r3
    42d6:	4b04      	ldr	r3, [pc, #16]	; (42e8 <atmel_start_init+0x18>)
    42d8:	4798      	blx	r3
    42da:	4b04      	ldr	r3, [pc, #16]	; (42ec <atmel_start_init+0x1c>)
    42dc:	e8bd 4010 	ldmia.w	sp!, {r4, lr}
    42e0:	4718      	bx	r3
    42e2:	bf00      	nop
    42e4:	00004c4d 	.word	0x00004c4d
    42e8:	0000e1c5 	.word	0x0000e1c5
    42ec:	0000d069 	.word	0x0000d069

000042f0 <Dummy_Handler>:
    42f0:	e7fe      	b.n	42f0 <Dummy_Handler>
	...

000042f4 <Reset_Handler>:
    42f4:	b508      	push	{r3, lr}
    42f6:	4a14      	ldr	r2, [pc, #80]	; (4348 <Reset_Handler+0x54>)
    42f8:	4b14      	ldr	r3, [pc, #80]	; (434c <Reset_Handler+0x58>)
    42fa:	429a      	cmp	r2, r3
    42fc:	d118      	bne.n	4330 <Reset_Handler+0x3c>
    42fe:	4b14      	ldr	r3, [pc, #80]	; (4350 <Reset_Handler+0x5c>)
    4300:	4a14      	ldr	r2, [pc, #80]	; (4354 <Reset_Handler+0x60>)
    4302:	2100      	movs	r1, #0
    4304:	4293      	cmp	r3, r2
    4306:	d31c      	bcc.n	4342 <Reset_Handler+0x4e>
    4308:	4a13      	ldr	r2, [pc, #76]	; (4358 <Reset_Handler+0x64>)
    430a:	4b14      	ldr	r3, [pc, #80]	; (435c <Reset_Handler+0x68>)
    430c:	f022 027f 	bic.w	r2, r2, #127	; 0x7f
    4310:	609a      	str	r2, [r3, #8]
    4312:	f8d3 2088 	ldr.w	r2, [r3, #136]	; 0x88
    4316:	f442 0270 	orr.w	r2, r2, #15728640	; 0xf00000
    431a:	f8c3 2088 	str.w	r2, [r3, #136]	; 0x88
    431e:	f3bf 8f4f 	dsb	sy
    4322:	f3bf 8f6f 	isb	sy
    4326:	4b0e      	ldr	r3, [pc, #56]	; (4360 <Reset_Handler+0x6c>)
    4328:	4798      	blx	r3
    432a:	4b0e      	ldr	r3, [pc, #56]	; (4364 <Reset_Handler+0x70>)
    432c:	4798      	blx	r3
    432e:	e7fe      	b.n	432e <Reset_Handler+0x3a>
    4330:	490d      	ldr	r1, [pc, #52]	; (4368 <Reset_Handler+0x74>)
    4332:	3a04      	subs	r2, #4
    4334:	428b      	cmp	r3, r1
    4336:	d2e2      	bcs.n	42fe <Reset_Handler+0xa>
    4338:	f852 0f04 	ldr.w	r0, [r2, #4]!
    433c:	f843 0b04 	str.w	r0, [r3], #4
    4340:	e7f8      	b.n	4334 <Reset_Handler+0x40>
    4342:	f843 1b04 	str.w	r1, [r3], #4
    4346:	e7dd      	b.n	4304 <Reset_Handler+0x10>
    4348:	00010a18 	.word	0x00010a18
    434c:	20000000 	.word	0x20000000
    4350:	200005b0 	.word	0x200005b0
    4354:	20008210 	.word	0x20008210
    4358:	00004000 	.word	0x00004000
    435c:	e000ed00 	.word	0xe000ed00
    4360:	0000e9a1 	.word	0x0000e9a1
    4364:	0000c991 	.word	0x0000c991
    4368:	200005ac 	.word	0x200005ac

0000436c <_gpio_set_pin_function>:
    436c:	b530      	push	{r4, r5, lr}
    436e:	1c4a      	adds	r2, r1, #1
    4370:	b2c4      	uxtb	r4, r0
    4372:	f3c0 1247 	ubfx	r2, r0, #5, #8
    4376:	4816      	ldr	r0, [pc, #88]	; (43d0 <_gpio_set_pin_function+0x64>)
    4378:	f004 031f 	and.w	r3, r4, #31
    437c:	eb00 10c2 	add.w	r0, r0, r2, lsl #7
    4380:	d107      	bne.n	4392 <_gpio_set_pin_function+0x26>
    4382:	4418      	add	r0, r3
    4384:	f890 3040 	ldrb.w	r3, [r0, #64]	; 0x40
    4388:	f003 03fe 	and.w	r3, r3, #254	; 0xfe
    438c:	f880 3040 	strb.w	r3, [r0, #64]	; 0x40
    4390:	bd30      	pop	{r4, r5, pc}
    4392:	18c5      	adds	r5, r0, r3
    4394:	085b      	lsrs	r3, r3, #1
    4396:	f895 2040 	ldrb.w	r2, [r5, #64]	; 0x40
    439a:	f002 02fe 	and.w	r2, r2, #254	; 0xfe
    439e:	4418      	add	r0, r3
    43a0:	f042 0201 	orr.w	r2, r2, #1
    43a4:	f885 2040 	strb.w	r2, [r5, #64]	; 0x40
    43a8:	f890 3030 	ldrb.w	r3, [r0, #48]	; 0x30
    43ac:	f014 0f01 	tst.w	r4, #1
    43b0:	bf19      	ittee	ne
    43b2:	f003 030f 	andne.w	r3, r3, #15
    43b6:	ea43 1101 	orrne.w	r1, r3, r1, lsl #4
    43ba:	f001 010f 	andeq.w	r1, r1, #15
    43be:	f003 03f0 	andeq.w	r3, r3, #240	; 0xf0
    43c2:	bf14      	ite	ne
    43c4:	b2c9      	uxtbne	r1, r1
    43c6:	4319      	orreq	r1, r3
    43c8:	f880 1030 	strb.w	r1, [r0, #48]	; 0x30
    43cc:	bd30      	pop	{r4, r5, pc}
    43ce:	bf00      	nop
    43d0:	41008000 	.word	0x41008000

000043d4 <gpio_set_pin_direction>:
    43d4:	2201      	movs	r2, #1
    43d6:	0943      	lsrs	r3, r0, #5
    43d8:	4291      	cmp	r1, r2
    43da:	f000 001f 	and.w	r0, r0, #31
    43de:	fa02 f000 	lsl.w	r0, r2, r0
    43e2:	d011      	beq.n	4408 <gpio_set_pin_direction+0x34>
    43e4:	d302      	bcc.n	43ec <gpio_set_pin_direction+0x18>
    43e6:	2902      	cmp	r1, #2
    43e8:	d01f      	beq.n	442a <gpio_set_pin_direction+0x56>
    43ea:	4770      	bx	lr
    43ec:	01db      	lsls	r3, r3, #7
    43ee:	f103 4382 	add.w	r3, r3, #1090519040	; 0x41000000
    43f2:	f503 4300 	add.w	r3, r3, #32768	; 0x8000
    43f6:	6058      	str	r0, [r3, #4]
    43f8:	b282      	uxth	r2, r0
    43fa:	f042 4280 	orr.w	r2, r2, #1073741824	; 0x40000000
    43fe:	0c00      	lsrs	r0, r0, #16
    4400:	629a      	str	r2, [r3, #40]	; 0x28
    4402:	f040 4040 	orr.w	r0, r0, #3221225472	; 0xc0000000
    4406:	e00e      	b.n	4426 <gpio_set_pin_direction+0x52>
    4408:	01db      	lsls	r3, r3, #7
    440a:	b282      	uxth	r2, r0
    440c:	f103 4382 	add.w	r3, r3, #1090519040	; 0x41000000
    4410:	f503 4300 	add.w	r3, r3, #32768	; 0x8000
    4414:	f042 4280 	orr.w	r2, r2, #1073741824	; 0x40000000
    4418:	f442 3200 	orr.w	r2, r2, #131072	; 0x20000
    441c:	6058      	str	r0, [r3, #4]
    441e:	629a      	str	r2, [r3, #40]	; 0x28
    4420:	4a05      	ldr	r2, [pc, #20]	; (4438 <gpio_set_pin_direction+0x64>)
    4422:	ea42 4010 	orr.w	r0, r2, r0, lsr #16
    4426:	6298      	str	r0, [r3, #40]	; 0x28
    4428:	4770      	bx	lr
    442a:	01db      	lsls	r3, r3, #7
    442c:	f103 4382 	add.w	r3, r3, #1090519040	; 0x41000000
    4430:	f503 4300 	add.w	r3, r3, #32768	; 0x8000
    4434:	6098      	str	r0, [r3, #8]
    4436:	e7df      	b.n	43f8 <gpio_set_pin_direction+0x24>
    4438:	c0020000 	.word	0xc0020000

0000443c <ADC_0_init>:
    443c:	b5f0      	push	{r4, r5, r6, r7, lr}
    443e:	4a14      	ldr	r2, [pc, #80]	; (4490 <ADC_0_init+0x54>)
    4440:	4e14      	ldr	r6, [pc, #80]	; (4494 <ADC_0_init+0x58>)
    4442:	6a13      	ldr	r3, [r2, #32]
    4444:	4d14      	ldr	r5, [pc, #80]	; (4498 <ADC_0_init+0x5c>)
    4446:	4915      	ldr	r1, [pc, #84]	; (449c <ADC_0_init+0x60>)
    4448:	4f15      	ldr	r7, [pc, #84]	; (44a0 <ADC_0_init+0x64>)
    444a:	f043 0380 	orr.w	r3, r3, #128	; 0x80
    444e:	6213      	str	r3, [r2, #32]
    4450:	4b14      	ldr	r3, [pc, #80]	; (44a4 <ADC_0_init+0x68>)
    4452:	b085      	sub	sp, #20
    4454:	2241      	movs	r2, #65	; 0x41
    4456:	f8c3 2120 	str.w	r2, [r3, #288]	; 0x120
    445a:	4b13      	ldr	r3, [pc, #76]	; (44a8 <ADC_0_init+0x6c>)
    445c:	9301      	str	r3, [sp, #4]
    445e:	2400      	movs	r4, #0
    4460:	2301      	movs	r3, #1
    4462:	9300      	str	r3, [sp, #0]
    4464:	4632      	mov	r2, r6
    4466:	4623      	mov	r3, r4
    4468:	9402      	str	r4, [sp, #8]
    446a:	4628      	mov	r0, r5
    446c:	47b8      	blx	r7
    446e:	1c72      	adds	r2, r6, #1
    4470:	4621      	mov	r1, r4
    4472:	2310      	movs	r3, #16
    4474:	4628      	mov	r0, r5
    4476:	4d0d      	ldr	r5, [pc, #52]	; (44ac <ADC_0_init+0x70>)
    4478:	47a8      	blx	r5
    447a:	4621      	mov	r1, r4
    447c:	2007      	movs	r0, #7
    447e:	4b0c      	ldr	r3, [pc, #48]	; (44b0 <ADC_0_init+0x74>)
    4480:	4798      	blx	r3
    4482:	490c      	ldr	r1, [pc, #48]	; (44b4 <ADC_0_init+0x78>)
    4484:	4b0c      	ldr	r3, [pc, #48]	; (44b8 <ADC_0_init+0x7c>)
    4486:	2007      	movs	r0, #7
    4488:	b005      	add	sp, #20
    448a:	e8bd 40f0 	ldmia.w	sp!, {r4, r5, r6, r7, lr}
    448e:	4718      	bx	r3
    4490:	40000800 	.word	0x40000800
    4494:	200005cc 	.word	0x200005cc
    4498:	20001044 	.word	0x20001044
    449c:	43001c00 	.word	0x43001c00
    44a0:	00008b6d 	.word	0x00008b6d
    44a4:	40001c00 	.word	0x40001c00
    44a8:	20001140 	.word	0x20001140
    44ac:	00008bb9 	.word	0x00008bb9
    44b0:	000043d5 	.word	0x000043d5
    44b4:	00070001 	.word	0x00070001
    44b8:	0000436d 	.word	0x0000436d

000044bc <ADC_1_init>:
    44bc:	b5f0      	push	{r4, r5, r6, r7, lr}
    44be:	4a15      	ldr	r2, [pc, #84]	; (4514 <ADC_1_init+0x58>)
    44c0:	4e15      	ldr	r6, [pc, #84]	; (4518 <ADC_1_init+0x5c>)
    44c2:	6a13      	ldr	r3, [r2, #32]
    44c4:	4d15      	ldr	r5, [pc, #84]	; (451c <ADC_1_init+0x60>)
    44c6:	4916      	ldr	r1, [pc, #88]	; (4520 <ADC_1_init+0x64>)
    44c8:	4f16      	ldr	r7, [pc, #88]	; (4524 <ADC_1_init+0x68>)
    44ca:	f443 7380 	orr.w	r3, r3, #256	; 0x100
    44ce:	6213      	str	r3, [r2, #32]
    44d0:	4b15      	ldr	r3, [pc, #84]	; (4528 <ADC_1_init+0x6c>)
    44d2:	b085      	sub	sp, #20
    44d4:	2241      	movs	r2, #65	; 0x41
    44d6:	f8c3 2124 	str.w	r2, [r3, #292]	; 0x124
    44da:	4b14      	ldr	r3, [pc, #80]	; (452c <ADC_1_init+0x70>)
    44dc:	9301      	str	r3, [sp, #4]
    44de:	2400      	movs	r4, #0
    44e0:	2301      	movs	r3, #1
    44e2:	9300      	str	r3, [sp, #0]
    44e4:	f106 0211 	add.w	r2, r6, #17
    44e8:	4623      	mov	r3, r4
    44ea:	9402      	str	r4, [sp, #8]
    44ec:	4628      	mov	r0, r5
    44ee:	47b8      	blx	r7
    44f0:	f106 0212 	add.w	r2, r6, #18
    44f4:	4621      	mov	r1, r4
    44f6:	2310      	movs	r3, #16
    44f8:	4628      	mov	r0, r5
    44fa:	4d0d      	ldr	r5, [pc, #52]	; (4530 <ADC_1_init+0x74>)
    44fc:	47a8      	blx	r5
    44fe:	4621      	mov	r1, r4
    4500:	2042      	movs	r0, #66	; 0x42
    4502:	4b0c      	ldr	r3, [pc, #48]	; (4534 <ADC_1_init+0x78>)
    4504:	4798      	blx	r3
    4506:	490c      	ldr	r1, [pc, #48]	; (4538 <ADC_1_init+0x7c>)
    4508:	4b0c      	ldr	r3, [pc, #48]	; (453c <ADC_1_init+0x80>)
    450a:	2042      	movs	r0, #66	; 0x42
    450c:	b005      	add	sp, #20
    450e:	e8bd 40f0 	ldmia.w	sp!, {r4, r5, r6, r7, lr}
    4512:	4718      	bx	r3
    4514:	40000800 	.word	0x40000800
    4518:	200005cc 	.word	0x200005cc
    451c:	20001218 	.word	0x20001218
    4520:	43002000 	.word	0x43002000
    4524:	00008b6d 	.word	0x00008b6d
    4528:	40001c00 	.word	0x40001c00
    452c:	20000fe0 	.word	0x20000fe0
    4530:	00008bb9 	.word	0x00008bb9
    4534:	000043d5 	.word	0x000043d5
    4538:	00420001 	.word	0x00420001
    453c:	0000436d 	.word	0x0000436d

00004540 <CRC_0_init>:
    4540:	4a04      	ldr	r2, [pc, #16]	; (4554 <CRC_0_init+0x14>)
    4542:	4905      	ldr	r1, [pc, #20]	; (4558 <CRC_0_init+0x18>)
    4544:	6993      	ldr	r3, [r2, #24]
    4546:	4805      	ldr	r0, [pc, #20]	; (455c <CRC_0_init+0x1c>)
    4548:	f043 0302 	orr.w	r3, r3, #2
    454c:	6193      	str	r3, [r2, #24]
    454e:	4b04      	ldr	r3, [pc, #16]	; (4560 <CRC_0_init+0x20>)
    4550:	4718      	bx	r3
    4552:	bf00      	nop
    4554:	40000800 	.word	0x40000800
    4558:	41002000 	.word	0x41002000
    455c:	20000fdc 	.word	0x20000fdc
    4560:	00008d11 	.word	0x00008d11

00004564 <EVENT_SYSTEM_0_init>:
    4564:	4b08      	ldr	r3, [pc, #32]	; (4588 <EVENT_SYSTEM_0_init+0x24>)
    4566:	2240      	movs	r2, #64	; 0x40
    4568:	f8c3 20ac 	str.w	r2, [r3, #172]	; 0xac
    456c:	f8c3 20b0 	str.w	r2, [r3, #176]	; 0xb0
    4570:	f8c3 20b4 	str.w	r2, [r3, #180]	; 0xb4
    4574:	f8c3 20b8 	str.w	r2, [r3, #184]	; 0xb8
    4578:	4a04      	ldr	r2, [pc, #16]	; (458c <EVENT_SYSTEM_0_init+0x28>)
    457a:	6993      	ldr	r3, [r2, #24]
    457c:	f043 0380 	orr.w	r3, r3, #128	; 0x80
    4580:	6193      	str	r3, [r2, #24]
    4582:	4b03      	ldr	r3, [pc, #12]	; (4590 <EVENT_SYSTEM_0_init+0x2c>)
    4584:	4718      	bx	r3
    4586:	bf00      	nop
    4588:	40001c00 	.word	0x40001c00
    458c:	40000800 	.word	0x40000800
    4590:	00008d71 	.word	0x00008d71

00004594 <FLASH_0_CLOCK_init>:
    4594:	4a02      	ldr	r2, [pc, #8]	; (45a0 <FLASH_0_CLOCK_init+0xc>)
    4596:	6913      	ldr	r3, [r2, #16]
    4598:	f043 0340 	orr.w	r3, r3, #64	; 0x40
    459c:	6113      	str	r3, [r2, #16]
    459e:	4770      	bx	lr
    45a0:	40000800 	.word	0x40000800

000045a4 <FLASH_0_init>:
    45a4:	b510      	push	{r4, lr}
    45a6:	4b04      	ldr	r3, [pc, #16]	; (45b8 <FLASH_0_init+0x14>)
    45a8:	4798      	blx	r3
    45aa:	4904      	ldr	r1, [pc, #16]	; (45bc <FLASH_0_init+0x18>)
    45ac:	4804      	ldr	r0, [pc, #16]	; (45c0 <FLASH_0_init+0x1c>)
    45ae:	4b05      	ldr	r3, [pc, #20]	; (45c4 <FLASH_0_init+0x20>)
    45b0:	e8bd 4010 	ldmia.w	sp!, {r4, lr}
    45b4:	4718      	bx	r3
    45b6:	bf00      	nop
    45b8:	00004595 	.word	0x00004595
    45bc:	41004000 	.word	0x41004000
    45c0:	20000fc0 	.word	0x20000fc0
    45c4:	00008d89 	.word	0x00008d89

000045c8 <QSPI_INSTANCE_PORT_init>:
    45c8:	b570      	push	{r4, r5, r6, lr}
    45ca:	4c2d      	ldr	r4, [pc, #180]	; (4680 <QSPI_INSTANCE_PORT_init+0xb8>)
    45cc:	4e2d      	ldr	r6, [pc, #180]	; (4684 <QSPI_INSTANCE_PORT_init+0xbc>)
    45ce:	4d2e      	ldr	r5, [pc, #184]	; (4688 <QSPI_INSTANCE_PORT_init+0xc0>)
    45d0:	2101      	movs	r1, #1
    45d2:	202b      	movs	r0, #43	; 0x2b
    45d4:	47b0      	blx	r6
    45d6:	f894 30cb 	ldrb.w	r3, [r4, #203]	; 0xcb
    45da:	492c      	ldr	r1, [pc, #176]	; (468c <QSPI_INSTANCE_PORT_init+0xc4>)
    45dc:	f003 03fb 	and.w	r3, r3, #251	; 0xfb
    45e0:	f884 30cb 	strb.w	r3, [r4, #203]	; 0xcb
    45e4:	202b      	movs	r0, #43	; 0x2b
    45e6:	47a8      	blx	r5
    45e8:	2102      	movs	r1, #2
    45ea:	2008      	movs	r0, #8
    45ec:	47b0      	blx	r6
    45ee:	f44f 7380 	mov.w	r3, #256	; 0x100
    45f2:	6163      	str	r3, [r4, #20]
    45f4:	f894 3048 	ldrb.w	r3, [r4, #72]	; 0x48
    45f8:	4925      	ldr	r1, [pc, #148]	; (4690 <QSPI_INSTANCE_PORT_init+0xc8>)
    45fa:	f003 03fb 	and.w	r3, r3, #251	; 0xfb
    45fe:	f884 3048 	strb.w	r3, [r4, #72]	; 0x48
    4602:	2008      	movs	r0, #8
    4604:	47a8      	blx	r5
    4606:	2102      	movs	r1, #2
    4608:	2009      	movs	r0, #9
    460a:	47b0      	blx	r6
    460c:	f44f 7300 	mov.w	r3, #512	; 0x200
    4610:	6163      	str	r3, [r4, #20]
    4612:	f894 3049 	ldrb.w	r3, [r4, #73]	; 0x49
    4616:	491f      	ldr	r1, [pc, #124]	; (4694 <QSPI_INSTANCE_PORT_init+0xcc>)
    4618:	f003 03fb 	and.w	r3, r3, #251	; 0xfb
    461c:	f884 3049 	strb.w	r3, [r4, #73]	; 0x49
    4620:	2009      	movs	r0, #9
    4622:	47a8      	blx	r5
    4624:	2102      	movs	r1, #2
    4626:	200a      	movs	r0, #10
    4628:	47b0      	blx	r6
    462a:	f44f 6380 	mov.w	r3, #1024	; 0x400
    462e:	6163      	str	r3, [r4, #20]
    4630:	f894 304a 	ldrb.w	r3, [r4, #74]	; 0x4a
    4634:	4918      	ldr	r1, [pc, #96]	; (4698 <QSPI_INSTANCE_PORT_init+0xd0>)
    4636:	f003 03fb 	and.w	r3, r3, #251	; 0xfb
    463a:	f884 304a 	strb.w	r3, [r4, #74]	; 0x4a
    463e:	200a      	movs	r0, #10
    4640:	47a8      	blx	r5
    4642:	2102      	movs	r1, #2
    4644:	200b      	movs	r0, #11
    4646:	47b0      	blx	r6
    4648:	f44f 6300 	mov.w	r3, #2048	; 0x800
    464c:	6163      	str	r3, [r4, #20]
    464e:	f894 304b 	ldrb.w	r3, [r4, #75]	; 0x4b
    4652:	4912      	ldr	r1, [pc, #72]	; (469c <QSPI_INSTANCE_PORT_init+0xd4>)
    4654:	f003 03fb 	and.w	r3, r3, #251	; 0xfb
    4658:	f884 304b 	strb.w	r3, [r4, #75]	; 0x4b
    465c:	200b      	movs	r0, #11
    465e:	47a8      	blx	r5
    4660:	2101      	movs	r1, #1
    4662:	202a      	movs	r0, #42	; 0x2a
    4664:	47b0      	blx	r6
    4666:	f894 30ca 	ldrb.w	r3, [r4, #202]	; 0xca
    466a:	490d      	ldr	r1, [pc, #52]	; (46a0 <QSPI_INSTANCE_PORT_init+0xd8>)
    466c:	f003 03fb 	and.w	r3, r3, #251	; 0xfb
    4670:	f884 30ca 	strb.w	r3, [r4, #202]	; 0xca
    4674:	202a      	movs	r0, #42	; 0x2a
    4676:	462b      	mov	r3, r5
    4678:	e8bd 4070 	ldmia.w	sp!, {r4, r5, r6, lr}
    467c:	4718      	bx	r3
    467e:	bf00      	nop
    4680:	41008000 	.word	0x41008000
    4684:	000043d5 	.word	0x000043d5
    4688:	0000436d 	.word	0x0000436d
    468c:	002b0007 	.word	0x002b0007
    4690:	00080007 	.word	0x00080007
    4694:	00090007 	.word	0x00090007
    4698:	000a0007 	.word	0x000a0007
    469c:	000b0007 	.word	0x000b0007
    46a0:	002a0007 	.word	0x002a0007

000046a4 <QSPI_INSTANCE_CLOCK_init>:
    46a4:	4b06      	ldr	r3, [pc, #24]	; (46c0 <QSPI_INSTANCE_CLOCK_init+0x1c>)
    46a6:	691a      	ldr	r2, [r3, #16]
    46a8:	f442 5200 	orr.w	r2, r2, #8192	; 0x2000
    46ac:	611a      	str	r2, [r3, #16]
    46ae:	691a      	ldr	r2, [r3, #16]
    46b0:	f442 1200 	orr.w	r2, r2, #2097152	; 0x200000
    46b4:	611a      	str	r2, [r3, #16]
    46b6:	69da      	ldr	r2, [r3, #28]
    46b8:	f442 5200 	orr.w	r2, r2, #8192	; 0x2000
    46bc:	61da      	str	r2, [r3, #28]
    46be:	4770      	bx	lr
    46c0:	40000800 	.word	0x40000800

000046c4 <QSPI_INSTANCE_init>:
    46c4:	b510      	push	{r4, lr}
    46c6:	4b05      	ldr	r3, [pc, #20]	; (46dc <QSPI_INSTANCE_init+0x18>)
    46c8:	4798      	blx	r3
    46ca:	4b05      	ldr	r3, [pc, #20]	; (46e0 <QSPI_INSTANCE_init+0x1c>)
    46cc:	4905      	ldr	r1, [pc, #20]	; (46e4 <QSPI_INSTANCE_init+0x20>)
    46ce:	4806      	ldr	r0, [pc, #24]	; (46e8 <QSPI_INSTANCE_init+0x24>)
    46d0:	4798      	blx	r3
    46d2:	4b06      	ldr	r3, [pc, #24]	; (46ec <QSPI_INSTANCE_init+0x28>)
    46d4:	e8bd 4010 	ldmia.w	sp!, {r4, lr}
    46d8:	4718      	bx	r3
    46da:	bf00      	nop
    46dc:	000046a5 	.word	0x000046a5
    46e0:	00008e85 	.word	0x00008e85
    46e4:	42003400 	.word	0x42003400
    46e8:	20001284 	.word	0x20001284
    46ec:	000045c9 	.word	0x000045c9

000046f0 <USART_EAST_CLOCK_init>:
    46f0:	4b06      	ldr	r3, [pc, #24]	; (470c <USART_EAST_CLOCK_init+0x1c>)
    46f2:	2241      	movs	r2, #65	; 0x41
    46f4:	f8c3 209c 	str.w	r2, [r3, #156]	; 0x9c
    46f8:	2242      	movs	r2, #66	; 0x42
    46fa:	f8c3 208c 	str.w	r2, [r3, #140]	; 0x8c
    46fe:	4a04      	ldr	r2, [pc, #16]	; (4710 <USART_EAST_CLOCK_init+0x20>)
    4700:	6953      	ldr	r3, [r2, #20]
    4702:	f443 5380 	orr.w	r3, r3, #4096	; 0x1000
    4706:	6153      	str	r3, [r2, #20]
    4708:	4770      	bx	lr
    470a:	bf00      	nop
    470c:	40001c00 	.word	0x40001c00
    4710:	40000800 	.word	0x40000800

00004714 <USART_EAST_PORT_init>:
    4714:	b510      	push	{r4, lr}
    4716:	4c05      	ldr	r4, [pc, #20]	; (472c <USART_EAST_PORT_init+0x18>)
    4718:	4905      	ldr	r1, [pc, #20]	; (4730 <USART_EAST_PORT_init+0x1c>)
    471a:	2051      	movs	r0, #81	; 0x51
    471c:	47a0      	blx	r4
    471e:	4623      	mov	r3, r4
    4720:	4904      	ldr	r1, [pc, #16]	; (4734 <USART_EAST_PORT_init+0x20>)
    4722:	2050      	movs	r0, #80	; 0x50
    4724:	e8bd 4010 	ldmia.w	sp!, {r4, lr}
    4728:	4718      	bx	r3
    472a:	bf00      	nop
    472c:	0000436d 	.word	0x0000436d
    4730:	00510003 	.word	0x00510003
    4734:	00500003 	.word	0x00500003

00004738 <USART_EAST_init>:
    4738:	b513      	push	{r0, r1, r4, lr}
    473a:	4b07      	ldr	r3, [pc, #28]	; (4758 <USART_EAST_init+0x20>)
    473c:	4c07      	ldr	r4, [pc, #28]	; (475c <USART_EAST_init+0x24>)
    473e:	4798      	blx	r3
    4740:	2300      	movs	r3, #0
    4742:	9300      	str	r3, [sp, #0]
    4744:	4a06      	ldr	r2, [pc, #24]	; (4760 <USART_EAST_init+0x28>)
    4746:	4907      	ldr	r1, [pc, #28]	; (4764 <USART_EAST_init+0x2c>)
    4748:	4807      	ldr	r0, [pc, #28]	; (4768 <USART_EAST_init+0x30>)
    474a:	2310      	movs	r3, #16
    474c:	47a0      	blx	r4
    474e:	4b07      	ldr	r3, [pc, #28]	; (476c <USART_EAST_init+0x34>)
    4750:	b002      	add	sp, #8
    4752:	e8bd 4010 	ldmia.w	sp!, {r4, lr}
    4756:	4718      	bx	r3
    4758:	000046f1 	.word	0x000046f1
    475c:	000093fd 	.word	0x000093fd
    4760:	200005ee 	.word	0x200005ee
    4764:	40003000 	.word	0x40003000
    4768:	20001070 	.word	0x20001070
    476c:	00004715 	.word	0x00004715

00004770 <USART_NORTH_CLOCK_init>:
    4770:	4b06      	ldr	r3, [pc, #24]	; (478c <USART_NORTH_CLOCK_init+0x1c>)
    4772:	2241      	movs	r2, #65	; 0x41
    4774:	f8c3 20a0 	str.w	r2, [r3, #160]	; 0xa0
    4778:	2242      	movs	r2, #66	; 0x42
    477a:	f8c3 208c 	str.w	r2, [r3, #140]	; 0x8c
    477e:	4a04      	ldr	r2, [pc, #16]	; (4790 <USART_NORTH_CLOCK_init+0x20>)
    4780:	6953      	ldr	r3, [r2, #20]
    4782:	f443 5300 	orr.w	r3, r3, #8192	; 0x2000
    4786:	6153      	str	r3, [r2, #20]
    4788:	4770      	bx	lr
    478a:	bf00      	nop
    478c:	40001c00 	.word	0x40001c00
    4790:	40000800 	.word	0x40000800

00004794 <USART_NORTH_PORT_init>:
    4794:	b510      	push	{r4, lr}
    4796:	4c05      	ldr	r4, [pc, #20]	; (47ac <USART_NORTH_PORT_init+0x18>)
    4798:	4905      	ldr	r1, [pc, #20]	; (47b0 <USART_NORTH_PORT_init+0x1c>)
    479a:	205b      	movs	r0, #91	; 0x5b
    479c:	47a0      	blx	r4
    479e:	4623      	mov	r3, r4
    47a0:	4904      	ldr	r1, [pc, #16]	; (47b4 <USART_NORTH_PORT_init+0x20>)
    47a2:	205c      	movs	r0, #92	; 0x5c
    47a4:	e8bd 4010 	ldmia.w	sp!, {r4, lr}
    47a8:	4718      	bx	r3
    47aa:	bf00      	nop
    47ac:	0000436d 	.word	0x0000436d
    47b0:	005b0002 	.word	0x005b0002
    47b4:	005c0002 	.word	0x005c0002

000047b8 <USART_NORTH_init>:
    47b8:	b513      	push	{r0, r1, r4, lr}
    47ba:	4b07      	ldr	r3, [pc, #28]	; (47d8 <USART_NORTH_init+0x20>)
    47bc:	4c07      	ldr	r4, [pc, #28]	; (47dc <USART_NORTH_init+0x24>)
    47be:	4798      	blx	r3
    47c0:	2300      	movs	r3, #0
    47c2:	9300      	str	r3, [sp, #0]
    47c4:	4a06      	ldr	r2, [pc, #24]	; (47e0 <USART_NORTH_init+0x28>)
    47c6:	4907      	ldr	r1, [pc, #28]	; (47e4 <USART_NORTH_init+0x2c>)
    47c8:	4807      	ldr	r0, [pc, #28]	; (47e8 <USART_NORTH_init+0x30>)
    47ca:	2310      	movs	r3, #16
    47cc:	47a0      	blx	r4
    47ce:	4b07      	ldr	r3, [pc, #28]	; (47ec <USART_NORTH_init+0x34>)
    47d0:	b002      	add	sp, #8
    47d2:	e8bd 4010 	ldmia.w	sp!, {r4, lr}
    47d6:	4718      	bx	r3
    47d8:	00004771 	.word	0x00004771
    47dc:	000093fd 	.word	0x000093fd
    47e0:	200005fe 	.word	0x200005fe
    47e4:	40003400 	.word	0x40003400
    47e8:	200010c4 	.word	0x200010c4
    47ec:	00004795 	.word	0x00004795

000047f0 <GRID_AUX_PORT_init>:
    47f0:	b510      	push	{r4, lr}
    47f2:	4c05      	ldr	r4, [pc, #20]	; (4808 <GRID_AUX_PORT_init+0x18>)
    47f4:	4905      	ldr	r1, [pc, #20]	; (480c <GRID_AUX_PORT_init+0x1c>)
    47f6:	2039      	movs	r0, #57	; 0x39
    47f8:	47a0      	blx	r4
    47fa:	4623      	mov	r3, r4
    47fc:	4904      	ldr	r1, [pc, #16]	; (4810 <GRID_AUX_PORT_init+0x20>)
    47fe:	2038      	movs	r0, #56	; 0x38
    4800:	e8bd 4010 	ldmia.w	sp!, {r4, lr}
    4804:	4718      	bx	r3
    4806:	bf00      	nop
    4808:	0000436d 	.word	0x0000436d
    480c:	00390003 	.word	0x00390003
    4810:	00380003 	.word	0x00380003

00004814 <GRID_AUX_CLOCK_init>:
    4814:	4b06      	ldr	r3, [pc, #24]	; (4830 <GRID_AUX_CLOCK_init+0x1c>)
    4816:	2241      	movs	r2, #65	; 0x41
    4818:	f8c3 20dc 	str.w	r2, [r3, #220]	; 0xdc
    481c:	2242      	movs	r2, #66	; 0x42
    481e:	f8c3 208c 	str.w	r2, [r3, #140]	; 0x8c
    4822:	4a04      	ldr	r2, [pc, #16]	; (4834 <GRID_AUX_CLOCK_init+0x20>)
    4824:	6993      	ldr	r3, [r2, #24]
    4826:	f443 7300 	orr.w	r3, r3, #512	; 0x200
    482a:	6193      	str	r3, [r2, #24]
    482c:	4770      	bx	lr
    482e:	bf00      	nop
    4830:	40001c00 	.word	0x40001c00
    4834:	40000800 	.word	0x40000800

00004838 <GRID_AUX_init>:
    4838:	b510      	push	{r4, lr}
    483a:	4b05      	ldr	r3, [pc, #20]	; (4850 <GRID_AUX_init+0x18>)
    483c:	4798      	blx	r3
    483e:	4b05      	ldr	r3, [pc, #20]	; (4854 <GRID_AUX_init+0x1c>)
    4840:	4905      	ldr	r1, [pc, #20]	; (4858 <GRID_AUX_init+0x20>)
    4842:	4806      	ldr	r0, [pc, #24]	; (485c <GRID_AUX_init+0x24>)
    4844:	2200      	movs	r2, #0
    4846:	4798      	blx	r3
    4848:	4b05      	ldr	r3, [pc, #20]	; (4860 <GRID_AUX_init+0x28>)
    484a:	e8bd 4010 	ldmia.w	sp!, {r4, lr}
    484e:	4718      	bx	r3
    4850:	00004815 	.word	0x00004815
    4854:	00009561 	.word	0x00009561
    4858:	41012000 	.word	0x41012000
    485c:	20001038 	.word	0x20001038
    4860:	000047f1 	.word	0x000047f1

00004864 <UI_SPI_PORT_init>:
    4864:	b570      	push	{r4, r5, r6, lr}
    4866:	4c13      	ldr	r4, [pc, #76]	; (48b4 <UI_SPI_PORT_init+0x50>)
    4868:	4e13      	ldr	r6, [pc, #76]	; (48b8 <UI_SPI_PORT_init+0x54>)
    486a:	4d14      	ldr	r5, [pc, #80]	; (48bc <UI_SPI_PORT_init+0x58>)
    486c:	f44f 1380 	mov.w	r3, #1048576	; 0x100000
    4870:	f8c4 3094 	str.w	r3, [r4, #148]	; 0x94
    4874:	2102      	movs	r1, #2
    4876:	2034      	movs	r0, #52	; 0x34
    4878:	47b0      	blx	r6
    487a:	4911      	ldr	r1, [pc, #68]	; (48c0 <UI_SPI_PORT_init+0x5c>)
    487c:	2034      	movs	r0, #52	; 0x34
    487e:	47a8      	blx	r5
    4880:	f44f 1300 	mov.w	r3, #2097152	; 0x200000
    4884:	f8c4 3094 	str.w	r3, [r4, #148]	; 0x94
    4888:	2102      	movs	r1, #2
    488a:	2035      	movs	r0, #53	; 0x35
    488c:	47b0      	blx	r6
    488e:	490d      	ldr	r1, [pc, #52]	; (48c4 <UI_SPI_PORT_init+0x60>)
    4890:	2035      	movs	r0, #53	; 0x35
    4892:	47a8      	blx	r5
    4894:	2101      	movs	r1, #1
    4896:	2014      	movs	r0, #20
    4898:	47b0      	blx	r6
    489a:	f894 3054 	ldrb.w	r3, [r4, #84]	; 0x54
    489e:	490a      	ldr	r1, [pc, #40]	; (48c8 <UI_SPI_PORT_init+0x64>)
    48a0:	f003 03fb 	and.w	r3, r3, #251	; 0xfb
    48a4:	f884 3054 	strb.w	r3, [r4, #84]	; 0x54
    48a8:	2014      	movs	r0, #20
    48aa:	462b      	mov	r3, r5
    48ac:	e8bd 4070 	ldmia.w	sp!, {r4, r5, r6, lr}
    48b0:	4718      	bx	r3
    48b2:	bf00      	nop
    48b4:	41008000 	.word	0x41008000
    48b8:	000043d5 	.word	0x000043d5
    48bc:	0000436d 	.word	0x0000436d
    48c0:	00340002 	.word	0x00340002
    48c4:	00350002 	.word	0x00350002
    48c8:	00140003 	.word	0x00140003

000048cc <UI_SPI_CLOCK_init>:
    48cc:	4b06      	ldr	r3, [pc, #24]	; (48e8 <UI_SPI_CLOCK_init+0x1c>)
    48ce:	2241      	movs	r2, #65	; 0x41
    48d0:	f8c3 20e0 	str.w	r2, [r3, #224]	; 0xe0
    48d4:	2243      	movs	r2, #67	; 0x43
    48d6:	f8c3 208c 	str.w	r2, [r3, #140]	; 0x8c
    48da:	4a04      	ldr	r2, [pc, #16]	; (48ec <UI_SPI_CLOCK_init+0x20>)
    48dc:	6993      	ldr	r3, [r2, #24]
    48de:	f443 6380 	orr.w	r3, r3, #1024	; 0x400
    48e2:	6193      	str	r3, [r2, #24]
    48e4:	4770      	bx	lr
    48e6:	bf00      	nop
    48e8:	40001c00 	.word	0x40001c00
    48ec:	40000800 	.word	0x40000800

000048f0 <UI_SPI_init>:
    48f0:	b510      	push	{r4, lr}
    48f2:	4b05      	ldr	r3, [pc, #20]	; (4908 <UI_SPI_init+0x18>)
    48f4:	4798      	blx	r3
    48f6:	4b05      	ldr	r3, [pc, #20]	; (490c <UI_SPI_init+0x1c>)
    48f8:	4905      	ldr	r1, [pc, #20]	; (4910 <UI_SPI_init+0x20>)
    48fa:	4806      	ldr	r0, [pc, #24]	; (4914 <UI_SPI_init+0x24>)
    48fc:	4798      	blx	r3
    48fe:	4b06      	ldr	r3, [pc, #24]	; (4918 <UI_SPI_init+0x28>)
    4900:	e8bd 4010 	ldmia.w	sp!, {r4, lr}
    4904:	4718      	bx	r3
    4906:	bf00      	nop
    4908:	000048cd 	.word	0x000048cd
    490c:	00009011 	.word	0x00009011
    4910:	41014000 	.word	0x41014000
    4914:	20000f38 	.word	0x20000f38
    4918:	00004865 	.word	0x00004865

0000491c <USART_WEST_CLOCK_init>:
    491c:	4b06      	ldr	r3, [pc, #24]	; (4938 <USART_WEST_CLOCK_init+0x1c>)
    491e:	2241      	movs	r2, #65	; 0x41
    4920:	f8c3 2108 	str.w	r2, [r3, #264]	; 0x108
    4924:	2242      	movs	r2, #66	; 0x42
    4926:	f8c3 208c 	str.w	r2, [r3, #140]	; 0x8c
    492a:	4a04      	ldr	r2, [pc, #16]	; (493c <USART_WEST_CLOCK_init+0x20>)
    492c:	6a13      	ldr	r3, [r2, #32]
    492e:	f043 0301 	orr.w	r3, r3, #1
    4932:	6213      	str	r3, [r2, #32]
    4934:	4770      	bx	lr
    4936:	bf00      	nop
    4938:	40001c00 	.word	0x40001c00
    493c:	40000800 	.word	0x40000800

00004940 <USART_WEST_PORT_init>:
    4940:	b510      	push	{r4, lr}
    4942:	4c05      	ldr	r4, [pc, #20]	; (4958 <USART_WEST_PORT_init+0x18>)
    4944:	4905      	ldr	r1, [pc, #20]	; (495c <USART_WEST_PORT_init+0x1c>)
    4946:	2028      	movs	r0, #40	; 0x28
    4948:	47a0      	blx	r4
    494a:	4623      	mov	r3, r4
    494c:	4904      	ldr	r1, [pc, #16]	; (4960 <USART_WEST_PORT_init+0x20>)
    494e:	2029      	movs	r0, #41	; 0x29
    4950:	e8bd 4010 	ldmia.w	sp!, {r4, lr}
    4954:	4718      	bx	r3
    4956:	bf00      	nop
    4958:	0000436d 	.word	0x0000436d
    495c:	00280003 	.word	0x00280003
    4960:	00290003 	.word	0x00290003

00004964 <USART_WEST_init>:
    4964:	b513      	push	{r0, r1, r4, lr}
    4966:	4b08      	ldr	r3, [pc, #32]	; (4988 <USART_WEST_init+0x24>)
    4968:	4c08      	ldr	r4, [pc, #32]	; (498c <USART_WEST_init+0x28>)
    496a:	4798      	blx	r3
    496c:	2300      	movs	r3, #0
    496e:	9300      	str	r3, [sp, #0]
    4970:	4a07      	ldr	r2, [pc, #28]	; (4990 <USART_WEST_init+0x2c>)
    4972:	4808      	ldr	r0, [pc, #32]	; (4994 <USART_WEST_init+0x30>)
    4974:	2310      	movs	r3, #16
    4976:	f04f 4186 	mov.w	r1, #1124073472	; 0x43000000
    497a:	47a0      	blx	r4
    497c:	4b06      	ldr	r3, [pc, #24]	; (4998 <USART_WEST_init+0x34>)
    497e:	b002      	add	sp, #8
    4980:	e8bd 4010 	ldmia.w	sp!, {r4, lr}
    4984:	4718      	bx	r3
    4986:	bf00      	nop
    4988:	0000491d 	.word	0x0000491d
    498c:	000093fd 	.word	0x000093fd
    4990:	2000060e 	.word	0x2000060e
    4994:	20001178 	.word	0x20001178
    4998:	00004941 	.word	0x00004941

0000499c <SYS_I2C_PORT_init>:
    499c:	b570      	push	{r4, r5, r6, lr}
    499e:	4c0b      	ldr	r4, [pc, #44]	; (49cc <SYS_I2C_PORT_init+0x30>)
    49a0:	4d0b      	ldr	r5, [pc, #44]	; (49d0 <SYS_I2C_PORT_init+0x34>)
    49a2:	f894 3057 	ldrb.w	r3, [r4, #87]	; 0x57
    49a6:	490b      	ldr	r1, [pc, #44]	; (49d4 <SYS_I2C_PORT_init+0x38>)
    49a8:	f003 03fb 	and.w	r3, r3, #251	; 0xfb
    49ac:	f884 3057 	strb.w	r3, [r4, #87]	; 0x57
    49b0:	2017      	movs	r0, #23
    49b2:	47a8      	blx	r5
    49b4:	f894 3056 	ldrb.w	r3, [r4, #86]	; 0x56
    49b8:	4907      	ldr	r1, [pc, #28]	; (49d8 <SYS_I2C_PORT_init+0x3c>)
    49ba:	f003 03fb 	and.w	r3, r3, #251	; 0xfb
    49be:	f884 3056 	strb.w	r3, [r4, #86]	; 0x56
    49c2:	2016      	movs	r0, #22
    49c4:	462b      	mov	r3, r5
    49c6:	e8bd 4070 	ldmia.w	sp!, {r4, r5, r6, lr}
    49ca:	4718      	bx	r3
    49cc:	41008000 	.word	0x41008000
    49d0:	0000436d 	.word	0x0000436d
    49d4:	00170003 	.word	0x00170003
    49d8:	00160003 	.word	0x00160003

000049dc <SYS_I2C_CLOCK_init>:
    49dc:	4b06      	ldr	r3, [pc, #24]	; (49f8 <SYS_I2C_CLOCK_init+0x1c>)
    49de:	2241      	movs	r2, #65	; 0x41
    49e0:	f8c3 210c 	str.w	r2, [r3, #268]	; 0x10c
    49e4:	2242      	movs	r2, #66	; 0x42
    49e6:	f8c3 208c 	str.w	r2, [r3, #140]	; 0x8c
    49ea:	4a04      	ldr	r2, [pc, #16]	; (49fc <SYS_I2C_CLOCK_init+0x20>)
    49ec:	6a13      	ldr	r3, [r2, #32]
    49ee:	f043 0302 	orr.w	r3, r3, #2
    49f2:	6213      	str	r3, [r2, #32]
    49f4:	4770      	bx	lr
    49f6:	bf00      	nop
    49f8:	40001c00 	.word	0x40001c00
    49fc:	40000800 	.word	0x40000800

00004a00 <SYS_I2C_init>:
    4a00:	b510      	push	{r4, lr}
    4a02:	4b05      	ldr	r3, [pc, #20]	; (4a18 <SYS_I2C_init+0x18>)
    4a04:	4798      	blx	r3
    4a06:	4b05      	ldr	r3, [pc, #20]	; (4a1c <SYS_I2C_init+0x1c>)
    4a08:	4905      	ldr	r1, [pc, #20]	; (4a20 <SYS_I2C_init+0x20>)
    4a0a:	4806      	ldr	r0, [pc, #24]	; (4a24 <SYS_I2C_init+0x24>)
    4a0c:	4798      	blx	r3
    4a0e:	4b06      	ldr	r3, [pc, #24]	; (4a28 <SYS_I2C_init+0x28>)
    4a10:	e8bd 4010 	ldmia.w	sp!, {r4, lr}
    4a14:	4718      	bx	r3
    4a16:	bf00      	nop
    4a18:	000049dd 	.word	0x000049dd
    4a1c:	00008e2d 	.word	0x00008e2d
    4a20:	43000400 	.word	0x43000400
    4a24:	20000ff8 	.word	0x20000ff8
    4a28:	0000499d 	.word	0x0000499d

00004a2c <USART_SOUTH_CLOCK_init>:
    4a2c:	4b06      	ldr	r3, [pc, #24]	; (4a48 <USART_SOUTH_CLOCK_init+0x1c>)
    4a2e:	2241      	movs	r2, #65	; 0x41
    4a30:	f8c3 2110 	str.w	r2, [r3, #272]	; 0x110
    4a34:	2242      	movs	r2, #66	; 0x42
    4a36:	f8c3 208c 	str.w	r2, [r3, #140]	; 0x8c
    4a3a:	4a04      	ldr	r2, [pc, #16]	; (4a4c <USART_SOUTH_CLOCK_init+0x20>)
    4a3c:	6a13      	ldr	r3, [r2, #32]
    4a3e:	f043 0304 	orr.w	r3, r3, #4
    4a42:	6213      	str	r3, [r2, #32]
    4a44:	4770      	bx	lr
    4a46:	bf00      	nop
    4a48:	40001c00 	.word	0x40001c00
    4a4c:	40000800 	.word	0x40000800

00004a50 <USART_SOUTH_PORT_init>:
    4a50:	b510      	push	{r4, lr}
    4a52:	4c05      	ldr	r4, [pc, #20]	; (4a68 <USART_SOUTH_PORT_init+0x18>)
    4a54:	4905      	ldr	r1, [pc, #20]	; (4a6c <USART_SOUTH_PORT_init+0x1c>)
    4a56:	204d      	movs	r0, #77	; 0x4d
    4a58:	47a0      	blx	r4
    4a5a:	4623      	mov	r3, r4
    4a5c:	4904      	ldr	r1, [pc, #16]	; (4a70 <USART_SOUTH_PORT_init+0x20>)
    4a5e:	204c      	movs	r0, #76	; 0x4c
    4a60:	e8bd 4010 	ldmia.w	sp!, {r4, lr}
    4a64:	4718      	bx	r3
    4a66:	bf00      	nop
    4a68:	0000436d 	.word	0x0000436d
    4a6c:	004d0003 	.word	0x004d0003
    4a70:	004c0003 	.word	0x004c0003

00004a74 <USART_SOUTH_init>:
    4a74:	b513      	push	{r0, r1, r4, lr}
    4a76:	4b07      	ldr	r3, [pc, #28]	; (4a94 <USART_SOUTH_init+0x20>)
    4a78:	4c07      	ldr	r4, [pc, #28]	; (4a98 <USART_SOUTH_init+0x24>)
    4a7a:	4798      	blx	r3
    4a7c:	2300      	movs	r3, #0
    4a7e:	9300      	str	r3, [sp, #0]
    4a80:	4a06      	ldr	r2, [pc, #24]	; (4a9c <USART_SOUTH_init+0x28>)
    4a82:	4907      	ldr	r1, [pc, #28]	; (4aa0 <USART_SOUTH_init+0x2c>)
    4a84:	4807      	ldr	r0, [pc, #28]	; (4aa4 <USART_SOUTH_init+0x30>)
    4a86:	2310      	movs	r3, #16
    4a88:	47a0      	blx	r4
    4a8a:	4b07      	ldr	r3, [pc, #28]	; (4aa8 <USART_SOUTH_init+0x34>)
    4a8c:	b002      	add	sp, #8
    4a8e:	e8bd 4010 	ldmia.w	sp!, {r4, lr}
    4a92:	4718      	bx	r3
    4a94:	00004a2d 	.word	0x00004a2d
    4a98:	000093fd 	.word	0x000093fd
    4a9c:	2000061e 	.word	0x2000061e
    4aa0:	43000800 	.word	0x43000800
    4aa4:	200011c8 	.word	0x200011c8
    4aa8:	00004a51 	.word	0x00004a51

00004aac <GRID_LED_PORT_init>:
    4aac:	b570      	push	{r4, r5, r6, lr}
    4aae:	4c13      	ldr	r4, [pc, #76]	; (4afc <GRID_LED_PORT_init+0x50>)
    4ab0:	4e13      	ldr	r6, [pc, #76]	; (4b00 <GRID_LED_PORT_init+0x54>)
    4ab2:	4d14      	ldr	r5, [pc, #80]	; (4b04 <GRID_LED_PORT_init+0x58>)
    4ab4:	f04f 4380 	mov.w	r3, #1073741824	; 0x40000000
    4ab8:	f8c4 3094 	str.w	r3, [r4, #148]	; 0x94
    4abc:	2102      	movs	r1, #2
    4abe:	203e      	movs	r0, #62	; 0x3e
    4ac0:	47b0      	blx	r6
    4ac2:	4911      	ldr	r1, [pc, #68]	; (4b08 <GRID_LED_PORT_init+0x5c>)
    4ac4:	203e      	movs	r0, #62	; 0x3e
    4ac6:	47a8      	blx	r5
    4ac8:	f04f 4300 	mov.w	r3, #2147483648	; 0x80000000
    4acc:	f8c4 3094 	str.w	r3, [r4, #148]	; 0x94
    4ad0:	2102      	movs	r1, #2
    4ad2:	203f      	movs	r0, #63	; 0x3f
    4ad4:	47b0      	blx	r6
    4ad6:	490d      	ldr	r1, [pc, #52]	; (4b0c <GRID_LED_PORT_init+0x60>)
    4ad8:	203f      	movs	r0, #63	; 0x3f
    4ada:	47a8      	blx	r5
    4adc:	2101      	movs	r1, #1
    4ade:	201e      	movs	r0, #30
    4ae0:	47b0      	blx	r6
    4ae2:	f894 305e 	ldrb.w	r3, [r4, #94]	; 0x5e
    4ae6:	490a      	ldr	r1, [pc, #40]	; (4b10 <GRID_LED_PORT_init+0x64>)
    4ae8:	f003 03fb 	and.w	r3, r3, #251	; 0xfb
    4aec:	f884 305e 	strb.w	r3, [r4, #94]	; 0x5e
    4af0:	201e      	movs	r0, #30
    4af2:	462b      	mov	r3, r5
    4af4:	e8bd 4070 	ldmia.w	sp!, {r4, r5, r6, lr}
    4af8:	4718      	bx	r3
    4afa:	bf00      	nop
    4afc:	41008000 	.word	0x41008000
    4b00:	000043d5 	.word	0x000043d5
    4b04:	0000436d 	.word	0x0000436d
    4b08:	003e0002 	.word	0x003e0002
    4b0c:	003f0002 	.word	0x003f0002
    4b10:	001e0002 	.word	0x001e0002

00004b14 <GRID_LED_CLOCK_init>:
    4b14:	4b06      	ldr	r3, [pc, #24]	; (4b30 <GRID_LED_CLOCK_init+0x1c>)
    4b16:	2241      	movs	r2, #65	; 0x41
    4b18:	f8c3 2114 	str.w	r2, [r3, #276]	; 0x114
    4b1c:	2242      	movs	r2, #66	; 0x42
    4b1e:	f8c3 208c 	str.w	r2, [r3, #140]	; 0x8c
    4b22:	4a04      	ldr	r2, [pc, #16]	; (4b34 <GRID_LED_CLOCK_init+0x20>)
    4b24:	6a13      	ldr	r3, [r2, #32]
    4b26:	f043 0308 	orr.w	r3, r3, #8
    4b2a:	6213      	str	r3, [r2, #32]
    4b2c:	4770      	bx	lr
    4b2e:	bf00      	nop
    4b30:	40001c00 	.word	0x40001c00
    4b34:	40000800 	.word	0x40000800

00004b38 <GRID_LED_init>:
    4b38:	b510      	push	{r4, lr}
    4b3a:	4b05      	ldr	r3, [pc, #20]	; (4b50 <GRID_LED_init+0x18>)
    4b3c:	4798      	blx	r3
    4b3e:	4b05      	ldr	r3, [pc, #20]	; (4b54 <GRID_LED_init+0x1c>)
    4b40:	4905      	ldr	r1, [pc, #20]	; (4b58 <GRID_LED_init+0x20>)
    4b42:	4806      	ldr	r0, [pc, #24]	; (4b5c <GRID_LED_init+0x24>)
    4b44:	4798      	blx	r3
    4b46:	4b06      	ldr	r3, [pc, #24]	; (4b60 <GRID_LED_init+0x28>)
    4b48:	e8bd 4010 	ldmia.w	sp!, {r4, lr}
    4b4c:	4718      	bx	r3
    4b4e:	bf00      	nop
    4b50:	00004b15 	.word	0x00004b15
    4b54:	0000914d 	.word	0x0000914d
    4b58:	43000c00 	.word	0x43000c00
    4b5c:	20001114 	.word	0x20001114
    4b60:	00004aad 	.word	0x00004aad

00004b64 <delay_driver_init>:
    4b64:	4801      	ldr	r0, [pc, #4]	; (4b6c <delay_driver_init+0x8>)
    4b66:	4b02      	ldr	r3, [pc, #8]	; (4b70 <delay_driver_init+0xc>)
    4b68:	4718      	bx	r3
    4b6a:	bf00      	nop
    4b6c:	e000e010 	.word	0xe000e010
    4b70:	00008d19 	.word	0x00008d19

00004b74 <USB_DEVICE_INSTANCE_PORT_init>:
    4b74:	b570      	push	{r4, r5, r6, lr}
    4b76:	2102      	movs	r1, #2
    4b78:	4c11      	ldr	r4, [pc, #68]	; (4bc0 <USB_DEVICE_INSTANCE_PORT_init+0x4c>)
    4b7a:	4e12      	ldr	r6, [pc, #72]	; (4bc4 <USB_DEVICE_INSTANCE_PORT_init+0x50>)
    4b7c:	4d12      	ldr	r5, [pc, #72]	; (4bc8 <USB_DEVICE_INSTANCE_PORT_init+0x54>)
    4b7e:	2018      	movs	r0, #24
    4b80:	47b0      	blx	r6
    4b82:	f04f 7380 	mov.w	r3, #16777216	; 0x1000000
    4b86:	6163      	str	r3, [r4, #20]
    4b88:	f894 3058 	ldrb.w	r3, [r4, #88]	; 0x58
    4b8c:	490f      	ldr	r1, [pc, #60]	; (4bcc <USB_DEVICE_INSTANCE_PORT_init+0x58>)
    4b8e:	f003 03fb 	and.w	r3, r3, #251	; 0xfb
    4b92:	f884 3058 	strb.w	r3, [r4, #88]	; 0x58
    4b96:	2018      	movs	r0, #24
    4b98:	47a8      	blx	r5
    4b9a:	2102      	movs	r1, #2
    4b9c:	2019      	movs	r0, #25
    4b9e:	47b0      	blx	r6
    4ba0:	f04f 7300 	mov.w	r3, #33554432	; 0x2000000
    4ba4:	6163      	str	r3, [r4, #20]
    4ba6:	f894 3059 	ldrb.w	r3, [r4, #89]	; 0x59
    4baa:	4909      	ldr	r1, [pc, #36]	; (4bd0 <USB_DEVICE_INSTANCE_PORT_init+0x5c>)
    4bac:	f003 03fb 	and.w	r3, r3, #251	; 0xfb
    4bb0:	f884 3059 	strb.w	r3, [r4, #89]	; 0x59
    4bb4:	2019      	movs	r0, #25
    4bb6:	462b      	mov	r3, r5
    4bb8:	e8bd 4070 	ldmia.w	sp!, {r4, r5, r6, lr}
    4bbc:	4718      	bx	r3
    4bbe:	bf00      	nop
    4bc0:	41008000 	.word	0x41008000
    4bc4:	000043d5 	.word	0x000043d5
    4bc8:	0000436d 	.word	0x0000436d
    4bcc:	00180007 	.word	0x00180007
    4bd0:	00190007 	.word	0x00190007

00004bd4 <USB_DEVICE_INSTANCE_CLOCK_init>:
    4bd4:	4b07      	ldr	r3, [pc, #28]	; (4bf4 <USB_DEVICE_INSTANCE_CLOCK_init+0x20>)
    4bd6:	2241      	movs	r2, #65	; 0x41
    4bd8:	f8c3 20a8 	str.w	r2, [r3, #168]	; 0xa8
    4bdc:	f5a3 53a0 	sub.w	r3, r3, #5120	; 0x1400
    4be0:	691a      	ldr	r2, [r3, #16]
    4be2:	f442 6280 	orr.w	r2, r2, #1024	; 0x400
    4be6:	611a      	str	r2, [r3, #16]
    4be8:	699a      	ldr	r2, [r3, #24]
    4bea:	f042 0201 	orr.w	r2, r2, #1
    4bee:	619a      	str	r2, [r3, #24]
    4bf0:	4770      	bx	lr
    4bf2:	bf00      	nop
    4bf4:	40001c00 	.word	0x40001c00

00004bf8 <USB_DEVICE_INSTANCE_init>:
    4bf8:	b510      	push	{r4, lr}
    4bfa:	4b04      	ldr	r3, [pc, #16]	; (4c0c <USB_DEVICE_INSTANCE_init+0x14>)
    4bfc:	4798      	blx	r3
    4bfe:	4b04      	ldr	r3, [pc, #16]	; (4c10 <USB_DEVICE_INSTANCE_init+0x18>)
    4c00:	4798      	blx	r3
    4c02:	4b04      	ldr	r3, [pc, #16]	; (4c14 <USB_DEVICE_INSTANCE_init+0x1c>)
    4c04:	e8bd 4010 	ldmia.w	sp!, {r4, lr}
    4c08:	4718      	bx	r3
    4c0a:	bf00      	nop
    4c0c:	00004bd5 	.word	0x00004bd5
    4c10:	0000978d 	.word	0x0000978d
    4c14:	00004b75 	.word	0x00004b75

00004c18 <WDT_0_CLOCK_init>:
    4c18:	4a02      	ldr	r2, [pc, #8]	; (4c24 <WDT_0_CLOCK_init+0xc>)
    4c1a:	6953      	ldr	r3, [r2, #20]
    4c1c:	f443 7380 	orr.w	r3, r3, #256	; 0x100
    4c20:	6153      	str	r3, [r2, #20]
    4c22:	4770      	bx	lr
    4c24:	40000800 	.word	0x40000800

00004c28 <WDT_0_init>:
    4c28:	b510      	push	{r4, lr}
    4c2a:	4b04      	ldr	r3, [pc, #16]	; (4c3c <WDT_0_init+0x14>)
    4c2c:	4798      	blx	r3
    4c2e:	4804      	ldr	r0, [pc, #16]	; (4c40 <WDT_0_init+0x18>)
    4c30:	4b04      	ldr	r3, [pc, #16]	; (4c44 <WDT_0_init+0x1c>)
    4c32:	6003      	str	r3, [r0, #0]
    4c34:	e8bd 4010 	ldmia.w	sp!, {r4, lr}
    4c38:	4b03      	ldr	r3, [pc, #12]	; (4c48 <WDT_0_init+0x20>)
    4c3a:	4718      	bx	r3
    4c3c:	00004c19 	.word	0x00004c19
    4c40:	200010c0 	.word	0x200010c0
    4c44:	40002000 	.word	0x40002000
    4c48:	0000c7e1 	.word	0x0000c7e1

00004c4c <system_init>:
    4c4c:	e92d 41f0 	stmdb	sp!, {r4, r5, r6, r7, r8, lr}
    4c50:	4b85      	ldr	r3, [pc, #532]	; (4e68 <system_init+0x21c>)
    4c52:	4c86      	ldr	r4, [pc, #536]	; (4e6c <system_init+0x220>)
    4c54:	4d86      	ldr	r5, [pc, #536]	; (4e70 <system_init+0x224>)
    4c56:	4f87      	ldr	r7, [pc, #540]	; (4e74 <system_init+0x228>)
    4c58:	4798      	blx	r3
    4c5a:	2320      	movs	r3, #32
    4c5c:	6163      	str	r3, [r4, #20]
    4c5e:	2102      	movs	r1, #2
    4c60:	2005      	movs	r0, #5
    4c62:	47a8      	blx	r5
    4c64:	f894 3045 	ldrb.w	r3, [r4, #69]	; 0x45
    4c68:	f003 03fe 	and.w	r3, r3, #254	; 0xfe
    4c6c:	f884 3045 	strb.w	r3, [r4, #69]	; 0x45
    4c70:	2101      	movs	r1, #1
    4c72:	2015      	movs	r0, #21
    4c74:	47a8      	blx	r5
    4c76:	f894 3055 	ldrb.w	r3, [r4, #85]	; 0x55
    4c7a:	f003 03fb 	and.w	r3, r3, #251	; 0xfb
    4c7e:	f884 3055 	strb.w	r3, [r4, #85]	; 0x55
    4c82:	f894 3055 	ldrb.w	r3, [r4, #85]	; 0x55
    4c86:	f003 03fe 	and.w	r3, r3, #254	; 0xfe
    4c8a:	f884 3055 	strb.w	r3, [r4, #85]	; 0x55
    4c8e:	2101      	movs	r1, #1
    4c90:	2027      	movs	r0, #39	; 0x27
    4c92:	47a8      	blx	r5
    4c94:	f894 30c7 	ldrb.w	r3, [r4, #199]	; 0xc7
    4c98:	f003 03fb 	and.w	r3, r3, #251	; 0xfb
    4c9c:	f884 30c7 	strb.w	r3, [r4, #199]	; 0xc7
    4ca0:	f894 30c7 	ldrb.w	r3, [r4, #199]	; 0xc7
    4ca4:	f003 03fe 	and.w	r3, r3, #254	; 0xfe
    4ca8:	f884 30c7 	strb.w	r3, [r4, #199]	; 0xc7
    4cac:	f44f 5300 	mov.w	r3, #8192	; 0x2000
    4cb0:	f8c4 3094 	str.w	r3, [r4, #148]	; 0x94
    4cb4:	2102      	movs	r1, #2
    4cb6:	202d      	movs	r0, #45	; 0x2d
    4cb8:	47a8      	blx	r5
    4cba:	f894 30cd 	ldrb.w	r3, [r4, #205]	; 0xcd
    4cbe:	f44f 4680 	mov.w	r6, #16384	; 0x4000
    4cc2:	f003 03fe 	and.w	r3, r3, #254	; 0xfe
    4cc6:	f884 30cd 	strb.w	r3, [r4, #205]	; 0xcd
    4cca:	2102      	movs	r1, #2
    4ccc:	f8c4 6094 	str.w	r6, [r4, #148]	; 0x94
    4cd0:	202e      	movs	r0, #46	; 0x2e
    4cd2:	47a8      	blx	r5
    4cd4:	f894 30ce 	ldrb.w	r3, [r4, #206]	; 0xce
    4cd8:	f003 03fe 	and.w	r3, r3, #254	; 0xfe
    4cdc:	f884 30ce 	strb.w	r3, [r4, #206]	; 0xce
    4ce0:	2101      	movs	r1, #1
    4ce2:	202f      	movs	r0, #47	; 0x2f
    4ce4:	47a8      	blx	r5
    4ce6:	f894 30cf 	ldrb.w	r3, [r4, #207]	; 0xcf
    4cea:	f003 03fb 	and.w	r3, r3, #251	; 0xfb
    4cee:	f884 30cf 	strb.w	r3, [r4, #207]	; 0xcf
    4cf2:	f894 30cf 	ldrb.w	r3, [r4, #207]	; 0xcf
    4cf6:	f003 03fe 	and.w	r3, r3, #254	; 0xfe
    4cfa:	f884 30cf 	strb.w	r3, [r4, #207]	; 0xcf
    4cfe:	2101      	movs	r1, #1
    4d00:	204b      	movs	r0, #75	; 0x4b
    4d02:	47a8      	blx	r5
    4d04:	f44f 6200 	mov.w	r2, #2048	; 0x800
    4d08:	f8c4 2104 	str.w	r2, [r4, #260]	; 0x104
    4d0c:	f894 314b 	ldrb.w	r3, [r4, #331]	; 0x14b
    4d10:	f043 0304 	orr.w	r3, r3, #4
    4d14:	f884 314b 	strb.w	r3, [r4, #331]	; 0x14b
    4d18:	f8c4 2118 	str.w	r2, [r4, #280]	; 0x118
    4d1c:	f894 314b 	ldrb.w	r3, [r4, #331]	; 0x14b
    4d20:	f003 03fe 	and.w	r3, r3, #254	; 0xfe
    4d24:	f884 314b 	strb.w	r3, [r4, #331]	; 0x14b
    4d28:	2102      	movs	r1, #2
    4d2a:	f8c4 6114 	str.w	r6, [r4, #276]	; 0x114
    4d2e:	204e      	movs	r0, #78	; 0x4e
    4d30:	47a8      	blx	r5
    4d32:	f894 314e 	ldrb.w	r3, [r4, #334]	; 0x14e
    4d36:	f003 03fe 	and.w	r3, r3, #254	; 0xfe
    4d3a:	f884 314e 	strb.w	r3, [r4, #334]	; 0x14e
    4d3e:	2101      	movs	r1, #1
    4d40:	2052      	movs	r0, #82	; 0x52
    4d42:	47a8      	blx	r5
    4d44:	f894 3152 	ldrb.w	r3, [r4, #338]	; 0x152
    4d48:	f003 03fb 	and.w	r3, r3, #251	; 0xfb
    4d4c:	f884 3152 	strb.w	r3, [r4, #338]	; 0x152
    4d50:	f894 3152 	ldrb.w	r3, [r4, #338]	; 0x152
    4d54:	f003 03fe 	and.w	r3, r3, #254	; 0xfe
    4d58:	f884 3152 	strb.w	r3, [r4, #338]	; 0x152
    4d5c:	f44f 2300 	mov.w	r3, #524288	; 0x80000
    4d60:	f8c4 3114 	str.w	r3, [r4, #276]	; 0x114
    4d64:	2102      	movs	r1, #2
    4d66:	2053      	movs	r0, #83	; 0x53
    4d68:	47a8      	blx	r5
    4d6a:	f894 3153 	ldrb.w	r3, [r4, #339]	; 0x153
    4d6e:	f003 03fe 	and.w	r3, r3, #254	; 0xfe
    4d72:	f884 3153 	strb.w	r3, [r4, #339]	; 0x153
    4d76:	f44f 1380 	mov.w	r3, #1048576	; 0x100000
    4d7a:	f8c4 3114 	str.w	r3, [r4, #276]	; 0x114
    4d7e:	2102      	movs	r1, #2
    4d80:	2054      	movs	r0, #84	; 0x54
    4d82:	47a8      	blx	r5
    4d84:	f894 3154 	ldrb.w	r3, [r4, #340]	; 0x154
    4d88:	f003 03fe 	and.w	r3, r3, #254	; 0xfe
    4d8c:	f884 3154 	strb.w	r3, [r4, #340]	; 0x154
    4d90:	f44f 1300 	mov.w	r3, #2097152	; 0x200000
    4d94:	2102      	movs	r1, #2
    4d96:	2055      	movs	r0, #85	; 0x55
    4d98:	f8c4 3114 	str.w	r3, [r4, #276]	; 0x114
    4d9c:	47a8      	blx	r5
    4d9e:	f894 3155 	ldrb.w	r3, [r4, #341]	; 0x155
    4da2:	4d35      	ldr	r5, [pc, #212]	; (4e78 <system_init+0x22c>)
    4da4:	f003 03fe 	and.w	r3, r3, #254	; 0xfe
    4da8:	f884 3155 	strb.w	r3, [r4, #341]	; 0x155
    4dac:	4b33      	ldr	r3, [pc, #204]	; (4e7c <system_init+0x230>)
    4dae:	4c34      	ldr	r4, [pc, #208]	; (4e80 <system_init+0x234>)
    4db0:	4798      	blx	r3
    4db2:	4b34      	ldr	r3, [pc, #208]	; (4e84 <system_init+0x238>)
    4db4:	4798      	blx	r3
    4db6:	4b34      	ldr	r3, [pc, #208]	; (4e88 <system_init+0x23c>)
    4db8:	4798      	blx	r3
    4dba:	4b34      	ldr	r3, [pc, #208]	; (4e8c <system_init+0x240>)
    4dbc:	4798      	blx	r3
    4dbe:	4b34      	ldr	r3, [pc, #208]	; (4e90 <system_init+0x244>)
    4dc0:	4798      	blx	r3
    4dc2:	4b34      	ldr	r3, [pc, #208]	; (4e94 <system_init+0x248>)
    4dc4:	4798      	blx	r3
    4dc6:	6963      	ldr	r3, [r4, #20]
    4dc8:	f443 7300 	orr.w	r3, r3, #512	; 0x200
    4dcc:	6163      	str	r3, [r4, #20]
    4dce:	4b32      	ldr	r3, [pc, #200]	; (4e98 <system_init+0x24c>)
    4dd0:	4798      	blx	r3
    4dd2:	4932      	ldr	r1, [pc, #200]	; (4e9c <system_init+0x250>)
    4dd4:	4602      	mov	r2, r0
    4dd6:	4832      	ldr	r0, [pc, #200]	; (4ea0 <system_init+0x254>)
    4dd8:	47a8      	blx	r5
    4dda:	4b32      	ldr	r3, [pc, #200]	; (4ea4 <system_init+0x258>)
    4ddc:	4798      	blx	r3
    4dde:	4b32      	ldr	r3, [pc, #200]	; (4ea8 <system_init+0x25c>)
    4de0:	4798      	blx	r3
    4de2:	4b32      	ldr	r3, [pc, #200]	; (4eac <system_init+0x260>)
    4de4:	4798      	blx	r3
    4de6:	4b32      	ldr	r3, [pc, #200]	; (4eb0 <system_init+0x264>)
    4de8:	4798      	blx	r3
    4dea:	4b32      	ldr	r3, [pc, #200]	; (4eb4 <system_init+0x268>)
    4dec:	4798      	blx	r3
    4dee:	4b32      	ldr	r3, [pc, #200]	; (4eb8 <system_init+0x26c>)
    4df0:	4798      	blx	r3
    4df2:	4b32      	ldr	r3, [pc, #200]	; (4ebc <system_init+0x270>)
    4df4:	4798      	blx	r3
    4df6:	4b32      	ldr	r3, [pc, #200]	; (4ec0 <system_init+0x274>)
    4df8:	4798      	blx	r3
    4dfa:	4b32      	ldr	r3, [pc, #200]	; (4ec4 <system_init+0x278>)
    4dfc:	4798      	blx	r3
    4dfe:	6963      	ldr	r3, [r4, #20]
    4e00:	f04f 0840 	mov.w	r8, #64	; 0x40
    4e04:	4333      	orrs	r3, r6
    4e06:	6163      	str	r3, [r4, #20]
    4e08:	4e2f      	ldr	r6, [pc, #188]	; (4ec8 <system_init+0x27c>)
    4e0a:	f8c7 80a4 	str.w	r8, [r7, #164]	; 0xa4
    4e0e:	47b0      	blx	r6
    4e10:	492e      	ldr	r1, [pc, #184]	; (4ecc <system_init+0x280>)
    4e12:	4602      	mov	r2, r0
    4e14:	482e      	ldr	r0, [pc, #184]	; (4ed0 <system_init+0x284>)
    4e16:	47a8      	blx	r5
    4e18:	6963      	ldr	r3, [r4, #20]
    4e1a:	f443 4300 	orr.w	r3, r3, #32768	; 0x8000
    4e1e:	6163      	str	r3, [r4, #20]
    4e20:	f8c7 80a4 	str.w	r8, [r7, #164]	; 0xa4
    4e24:	47b0      	blx	r6
    4e26:	492b      	ldr	r1, [pc, #172]	; (4ed4 <system_init+0x288>)
    4e28:	4602      	mov	r2, r0
    4e2a:	482b      	ldr	r0, [pc, #172]	; (4ed8 <system_init+0x28c>)
    4e2c:	47a8      	blx	r5
    4e2e:	69a3      	ldr	r3, [r4, #24]
    4e30:	f443 5300 	orr.w	r3, r3, #8192	; 0x2000
    4e34:	61a3      	str	r3, [r4, #24]
    4e36:	f8c7 80e8 	str.w	r8, [r7, #232]	; 0xe8
    4e3a:	47b0      	blx	r6
    4e3c:	4927      	ldr	r1, [pc, #156]	; (4edc <system_init+0x290>)
    4e3e:	4602      	mov	r2, r0
    4e40:	4827      	ldr	r0, [pc, #156]	; (4ee0 <system_init+0x294>)
    4e42:	47a8      	blx	r5
    4e44:	69a3      	ldr	r3, [r4, #24]
    4e46:	f443 4380 	orr.w	r3, r3, #16384	; 0x4000
    4e4a:	61a3      	str	r3, [r4, #24]
    4e4c:	f8c7 80e8 	str.w	r8, [r7, #232]	; 0xe8
    4e50:	47b0      	blx	r6
    4e52:	4924      	ldr	r1, [pc, #144]	; (4ee4 <system_init+0x298>)
    4e54:	4602      	mov	r2, r0
    4e56:	4824      	ldr	r0, [pc, #144]	; (4ee8 <system_init+0x29c>)
    4e58:	47a8      	blx	r5
    4e5a:	4b24      	ldr	r3, [pc, #144]	; (4eec <system_init+0x2a0>)
    4e5c:	4798      	blx	r3
    4e5e:	4b24      	ldr	r3, [pc, #144]	; (4ef0 <system_init+0x2a4>)
    4e60:	e8bd 41f0 	ldmia.w	sp!, {r4, r5, r6, r7, r8, lr}
    4e64:	4718      	bx	r3
    4e66:	bf00      	nop
    4e68:	00009e99 	.word	0x00009e99
    4e6c:	41008000 	.word	0x41008000
    4e70:	000043d5 	.word	0x000043d5
    4e74:	40001c00 	.word	0x40001c00
    4e78:	00009249 	.word	0x00009249
    4e7c:	0000443d 	.word	0x0000443d
    4e80:	40000800 	.word	0x40000800
    4e84:	000044bd 	.word	0x000044bd
    4e88:	00004541 	.word	0x00004541
    4e8c:	00004565 	.word	0x00004565
    4e90:	000045a5 	.word	0x000045a5
    4e94:	000046c5 	.word	0x000046c5
    4e98:	0000a6d1 	.word	0x0000a6d1
    4e9c:	40002400 	.word	0x40002400
    4ea0:	20000f80 	.word	0x20000f80
    4ea4:	00004739 	.word	0x00004739
    4ea8:	000047b9 	.word	0x000047b9
    4eac:	00004839 	.word	0x00004839
    4eb0:	000048f1 	.word	0x000048f1
    4eb4:	00004965 	.word	0x00004965
    4eb8:	00004a01 	.word	0x00004a01
    4ebc:	00004a75 	.word	0x00004a75
    4ec0:	00004b39 	.word	0x00004b39
    4ec4:	00004b65 	.word	0x00004b65
    4ec8:	0000b8fd 	.word	0x0000b8fd
    4ecc:	40003800 	.word	0x40003800
    4ed0:	20001264 	.word	0x20001264
    4ed4:	40003c00 	.word	0x40003c00
    4ed8:	20001158 	.word	0x20001158
    4edc:	4101a000 	.word	0x4101a000
    4ee0:	20000fa0 	.word	0x20000fa0
    4ee4:	4101c000 	.word	0x4101c000
    4ee8:	20001244 	.word	0x20001244
    4eec:	00004bf9 	.word	0x00004bf9
    4ef0:	00004c29 	.word	0x00004c29

00004ef4 <grid_d51_bitmap_write_bit>:
    4ef4:	b530      	push	{r4, r5, lr}
    4ef6:	08cc      	lsrs	r4, r1, #3
    4ef8:	f001 0107 	and.w	r1, r1, #7
    4efc:	b15a      	cbz	r2, 4f16 <grid_d51_bitmap_write_bit+0x22>
    4efe:	5d05      	ldrb	r5, [r0, r4]
    4f00:	fa45 f201 	asr.w	r2, r5, r1
    4f04:	07d2      	lsls	r2, r2, #31
    4f06:	d411      	bmi.n	4f2c <grid_d51_bitmap_write_bit+0x38>
    4f08:	2201      	movs	r2, #1
    4f0a:	fa02 f101 	lsl.w	r1, r2, r1
    4f0e:	4329      	orrs	r1, r5
    4f10:	5501      	strb	r1, [r0, r4]
    4f12:	701a      	strb	r2, [r3, #0]
    4f14:	bd30      	pop	{r4, r5, pc}
    4f16:	5d02      	ldrb	r2, [r0, r4]
    4f18:	2501      	movs	r5, #1
    4f1a:	fa05 f101 	lsl.w	r1, r5, r1
    4f1e:	ea31 0e02 	bics.w	lr, r1, r2
    4f22:	bf02      	ittt	eq
    4f24:	ea22 0101 	biceq.w	r1, r2, r1
    4f28:	5501      	strbeq	r1, [r0, r4]
    4f2a:	701d      	strbeq	r5, [r3, #0]
    4f2c:	bd30      	pop	{r4, r5, pc}
	...

00004f30 <grid_d51_verify_user_row>:
    4f30:	b570      	push	{r4, r5, r6, lr}
    4f32:	2500      	movs	r5, #0
    4f34:	f5ad 7d02 	sub.w	sp, sp, #520	; 0x208
    4f38:	f44f 7300 	mov.w	r3, #512	; 0x200
    4f3c:	aa02      	add	r2, sp, #8
    4f3e:	4c55      	ldr	r4, [pc, #340]	; (5094 <grid_d51_verify_user_row+0x164>)
    4f40:	4855      	ldr	r0, [pc, #340]	; (5098 <grid_d51_verify_user_row+0x168>)
    4f42:	4e56      	ldr	r6, [pc, #344]	; (509c <grid_d51_verify_user_row+0x16c>)
    4f44:	f88d 5007 	strb.w	r5, [sp, #7]
    4f48:	4629      	mov	r1, r5
    4f4a:	47a0      	blx	r4
    4f4c:	4954      	ldr	r1, [pc, #336]	; (50a0 <grid_d51_verify_user_row+0x170>)
    4f4e:	4855      	ldr	r0, [pc, #340]	; (50a4 <grid_d51_verify_user_row+0x174>)
    4f50:	47b0      	blx	r6
    4f52:	f44f 7300 	mov.w	r3, #512	; 0x200
    4f56:	aa02      	add	r2, sp, #8
    4f58:	4629      	mov	r1, r5
    4f5a:	484f      	ldr	r0, [pc, #316]	; (5098 <grid_d51_verify_user_row+0x168>)
    4f5c:	47a0      	blx	r4
    4f5e:	4952      	ldr	r1, [pc, #328]	; (50a8 <grid_d51_verify_user_row+0x178>)
    4f60:	4850      	ldr	r0, [pc, #320]	; (50a4 <grid_d51_verify_user_row+0x174>)
    4f62:	4c52      	ldr	r4, [pc, #328]	; (50ac <grid_d51_verify_user_row+0x17c>)
    4f64:	47b0      	blx	r6
    4f66:	f10d 0307 	add.w	r3, sp, #7
    4f6a:	462a      	mov	r2, r5
    4f6c:	4629      	mov	r1, r5
    4f6e:	a802      	add	r0, sp, #8
    4f70:	47a0      	blx	r4
    4f72:	2201      	movs	r2, #1
    4f74:	4611      	mov	r1, r2
    4f76:	f10d 0307 	add.w	r3, sp, #7
    4f7a:	a802      	add	r0, sp, #8
    4f7c:	47a0      	blx	r4
    4f7e:	f10d 0307 	add.w	r3, sp, #7
    4f82:	462a      	mov	r2, r5
    4f84:	2102      	movs	r1, #2
    4f86:	a802      	add	r0, sp, #8
    4f88:	47a0      	blx	r4
    4f8a:	f10d 0307 	add.w	r3, sp, #7
    4f8e:	462a      	mov	r2, r5
    4f90:	2103      	movs	r1, #3
    4f92:	a802      	add	r0, sp, #8
    4f94:	47a0      	blx	r4
    4f96:	f10d 0307 	add.w	r3, sp, #7
    4f9a:	462a      	mov	r2, r5
    4f9c:	2104      	movs	r1, #4
    4f9e:	a802      	add	r0, sp, #8
    4fa0:	47a0      	blx	r4
    4fa2:	f10d 0307 	add.w	r3, sp, #7
    4fa6:	462a      	mov	r2, r5
    4fa8:	2105      	movs	r1, #5
    4faa:	a802      	add	r0, sp, #8
    4fac:	47a0      	blx	r4
    4fae:	f10d 0307 	add.w	r3, sp, #7
    4fb2:	2201      	movs	r2, #1
    4fb4:	2106      	movs	r1, #6
    4fb6:	a802      	add	r0, sp, #8
    4fb8:	47a0      	blx	r4
    4fba:	f10d 0307 	add.w	r3, sp, #7
    4fbe:	2201      	movs	r2, #1
    4fc0:	2107      	movs	r1, #7
    4fc2:	a802      	add	r0, sp, #8
    4fc4:	47a0      	blx	r4
    4fc6:	2108      	movs	r1, #8
    4fc8:	eb0d 0001 	add.w	r0, sp, r1
    4fcc:	f10d 0307 	add.w	r3, sp, #7
    4fd0:	2201      	movs	r2, #1
    4fd2:	47a0      	blx	r4
    4fd4:	f10d 0307 	add.w	r3, sp, #7
    4fd8:	2201      	movs	r2, #1
    4fda:	2109      	movs	r1, #9
    4fdc:	a802      	add	r0, sp, #8
    4fde:	47a0      	blx	r4
    4fe0:	f10d 0307 	add.w	r3, sp, #7
    4fe4:	462a      	mov	r2, r5
    4fe6:	210a      	movs	r1, #10
    4fe8:	a802      	add	r0, sp, #8
    4fea:	47a0      	blx	r4
    4fec:	f10d 0307 	add.w	r3, sp, #7
    4ff0:	2201      	movs	r2, #1
    4ff2:	210b      	movs	r1, #11
    4ff4:	a802      	add	r0, sp, #8
    4ff6:	47a0      	blx	r4
    4ff8:	f10d 0307 	add.w	r3, sp, #7
    4ffc:	2201      	movs	r2, #1
    4ffe:	210c      	movs	r1, #12
    5000:	a802      	add	r0, sp, #8
    5002:	47a0      	blx	r4
    5004:	f10d 0307 	add.w	r3, sp, #7
    5008:	2201      	movs	r2, #1
    500a:	210d      	movs	r1, #13
    500c:	a802      	add	r0, sp, #8
    500e:	47a0      	blx	r4
    5010:	f10d 0307 	add.w	r3, sp, #7
    5014:	2201      	movs	r2, #1
    5016:	210e      	movs	r1, #14
    5018:	a802      	add	r0, sp, #8
    501a:	47a0      	blx	r4
    501c:	f10d 0307 	add.w	r3, sp, #7
    5020:	2201      	movs	r2, #1
    5022:	211a      	movs	r1, #26
    5024:	a802      	add	r0, sp, #8
    5026:	47a0      	blx	r4
    5028:	f10d 0307 	add.w	r3, sp, #7
    502c:	462a      	mov	r2, r5
    502e:	211b      	movs	r1, #27
    5030:	a802      	add	r0, sp, #8
    5032:	47a0      	blx	r4
    5034:	f10d 0307 	add.w	r3, sp, #7
    5038:	2201      	movs	r2, #1
    503a:	211c      	movs	r1, #28
    503c:	a802      	add	r0, sp, #8
    503e:	47a0      	blx	r4
    5040:	f10d 0307 	add.w	r3, sp, #7
    5044:	2201      	movs	r2, #1
    5046:	211d      	movs	r1, #29
    5048:	a802      	add	r0, sp, #8
    504a:	47a0      	blx	r4
    504c:	f89d 3007 	ldrb.w	r3, [sp, #7]
    5050:	2b01      	cmp	r3, #1
    5052:	d119      	bne.n	5088 <grid_d51_verify_user_row+0x158>
    5054:	4916      	ldr	r1, [pc, #88]	; (50b0 <grid_d51_verify_user_row+0x180>)
    5056:	4813      	ldr	r0, [pc, #76]	; (50a4 <grid_d51_verify_user_row+0x174>)
    5058:	4c16      	ldr	r4, [pc, #88]	; (50b4 <grid_d51_verify_user_row+0x184>)
    505a:	47b0      	blx	r6
    505c:	f44f 7300 	mov.w	r3, #512	; 0x200
    5060:	aa02      	add	r2, sp, #8
    5062:	4629      	mov	r1, r5
    5064:	480c      	ldr	r0, [pc, #48]	; (5098 <grid_d51_verify_user_row+0x168>)
    5066:	47a0      	blx	r4
    5068:	4913      	ldr	r1, [pc, #76]	; (50b8 <grid_d51_verify_user_row+0x188>)
    506a:	480e      	ldr	r0, [pc, #56]	; (50a4 <grid_d51_verify_user_row+0x174>)
    506c:	47b0      	blx	r6
    506e:	f3bf 8f4f 	dsb	sy
    5072:	4912      	ldr	r1, [pc, #72]	; (50bc <grid_d51_verify_user_row+0x18c>)
    5074:	4b12      	ldr	r3, [pc, #72]	; (50c0 <grid_d51_verify_user_row+0x190>)
    5076:	68ca      	ldr	r2, [r1, #12]
    5078:	f402 62e0 	and.w	r2, r2, #1792	; 0x700
    507c:	4313      	orrs	r3, r2
    507e:	60cb      	str	r3, [r1, #12]
    5080:	f3bf 8f4f 	dsb	sy
    5084:	bf00      	nop
    5086:	e7fd      	b.n	5084 <grid_d51_verify_user_row+0x154>
    5088:	490e      	ldr	r1, [pc, #56]	; (50c4 <grid_d51_verify_user_row+0x194>)
    508a:	4806      	ldr	r0, [pc, #24]	; (50a4 <grid_d51_verify_user_row+0x174>)
    508c:	47b0      	blx	r6
    508e:	f50d 7d02 	add.w	sp, sp, #520	; 0x208
    5092:	bd70      	pop	{r4, r5, r6, pc}
    5094:	0000a315 	.word	0x0000a315
    5098:	00804000 	.word	0x00804000
    509c:	0000eb79 	.word	0x0000eb79
    50a0:	0000fe86 	.word	0x0000fe86
    50a4:	0000fe97 	.word	0x0000fe97
    50a8:	0000feb8 	.word	0x0000feb8
    50ac:	00004ef5 	.word	0x00004ef5
    50b0:	0000fecb 	.word	0x0000fecb
    50b4:	0000a375 	.word	0x0000a375
    50b8:	0000fedd 	.word	0x0000fedd
    50bc:	e000ed00 	.word	0xe000ed00
    50c0:	05fa0004 	.word	0x05fa0004
    50c4:	0000feea 	.word	0x0000feea

000050c8 <grid_d51_init>:
    50c8:	b570      	push	{r4, r5, r6, lr}
    50ca:	4b0a      	ldr	r3, [pc, #40]	; (50f4 <grid_d51_init+0x2c>)
    50cc:	4d0a      	ldr	r5, [pc, #40]	; (50f8 <grid_d51_init+0x30>)
    50ce:	4c0b      	ldr	r4, [pc, #44]	; (50fc <grid_d51_init+0x34>)
    50d0:	4798      	blx	r3
    50d2:	4601      	mov	r1, r0
    50d4:	480a      	ldr	r0, [pc, #40]	; (5100 <grid_d51_init+0x38>)
    50d6:	47a0      	blx	r4
    50d8:	490a      	ldr	r1, [pc, #40]	; (5104 <grid_d51_init+0x3c>)
    50da:	4628      	mov	r0, r5
    50dc:	47a0      	blx	r4
    50de:	4b0a      	ldr	r3, [pc, #40]	; (5108 <grid_d51_init+0x40>)
    50e0:	4798      	blx	r3
    50e2:	490a      	ldr	r1, [pc, #40]	; (510c <grid_d51_init+0x44>)
    50e4:	4628      	mov	r0, r5
    50e6:	47a0      	blx	r4
    50e8:	4628      	mov	r0, r5
    50ea:	4623      	mov	r3, r4
    50ec:	4908      	ldr	r1, [pc, #32]	; (5110 <grid_d51_init+0x48>)
    50ee:	e8bd 4070 	ldmia.w	sp!, {r4, r5, r6, lr}
    50f2:	4718      	bx	r3
    50f4:	0000818d 	.word	0x0000818d
    50f8:	0000ff2e 	.word	0x0000ff2e
    50fc:	0000eb79 	.word	0x0000eb79
    5100:	0000fefd 	.word	0x0000fefd
    5104:	0000ff1e 	.word	0x0000ff1e
    5108:	00004f31 	.word	0x00004f31
    510c:	0000ff53 	.word	0x0000ff53
    5110:	0000ff60 	.word	0x0000ff60

00005114 <grid_nvm_clear_read_buffer>:
    5114:	f100 0309 	add.w	r3, r0, #9
    5118:	f200 2109 	addw	r1, r0, #521	; 0x209
    511c:	2200      	movs	r2, #0
    511e:	f803 2b01 	strb.w	r2, [r3], #1
    5122:	428b      	cmp	r3, r1
    5124:	d1fb      	bne.n	511e <grid_nvm_clear_read_buffer+0xa>
    5126:	2302      	movs	r3, #2
    5128:	f880 3210 	strb.w	r3, [r0, #528]	; 0x210
    512c:	f04f 33ff 	mov.w	r3, #4294967295
    5130:	f8c0 220c 	str.w	r2, [r0, #524]	; 0x20c
    5134:	f8c0 3214 	str.w	r3, [r0, #532]	; 0x214
    5138:	4770      	bx	lr

0000513a <grid_nvm_clear_write_buffer>:
    513a:	f500 7306 	add.w	r3, r0, #536	; 0x218
    513e:	f500 6183 	add.w	r1, r0, #1048	; 0x418
    5142:	2200      	movs	r2, #0
    5144:	f803 2b01 	strb.w	r2, [r3], #1
    5148:	428b      	cmp	r3, r1
    514a:	d1fb      	bne.n	5144 <grid_nvm_clear_write_buffer+0xa>
    514c:	2302      	movs	r3, #2
    514e:	f880 341c 	strb.w	r3, [r0, #1052]	; 0x41c
    5152:	f04f 33ff 	mov.w	r3, #4294967295
    5156:	f8c0 2418 	str.w	r2, [r0, #1048]	; 0x418
    515a:	f8c0 3420 	str.w	r3, [r0, #1056]	; 0x420
    515e:	4770      	bx	lr

00005160 <grid_nvm_init>:
    5160:	b510      	push	{r4, lr}
    5162:	f44f 23fe 	mov.w	r3, #520192	; 0x7f000
    5166:	e880 000a 	stmia.w	r0, {r1, r3}
    516a:	2301      	movs	r3, #1
    516c:	7203      	strb	r3, [r0, #8]
    516e:	2300      	movs	r3, #0
    5170:	f880 3210 	strb.w	r3, [r0, #528]	; 0x210
    5174:	f880 341c 	strb.w	r3, [r0, #1052]	; 0x41c
    5178:	4b02      	ldr	r3, [pc, #8]	; (5184 <grid_nvm_init+0x24>)
    517a:	4798      	blx	r3
    517c:	4b02      	ldr	r3, [pc, #8]	; (5188 <grid_nvm_init+0x28>)
    517e:	e8bd 4010 	ldmia.w	sp!, {r4, lr}
    5182:	4718      	bx	r3
    5184:	00005115 	.word	0x00005115
    5188:	0000513b 	.word	0x0000513b

0000518c <grid_ain_channel_init>:
    518c:	b570      	push	{r4, r5, r6, lr}
    518e:	004d      	lsls	r5, r1, #1
    5190:	2600      	movs	r6, #0
    5192:	7183      	strb	r3, [r0, #6]
    5194:	4604      	mov	r4, r0
    5196:	7101      	strb	r1, [r0, #4]
    5198:	7142      	strb	r2, [r0, #5]
    519a:	8146      	strh	r6, [r0, #10]
    519c:	4b07      	ldr	r3, [pc, #28]	; (51bc <grid_ain_channel_init+0x30>)
    519e:	4628      	mov	r0, r5
    51a0:	4798      	blx	r3
    51a2:	4633      	mov	r3, r6
    51a4:	6020      	str	r0, [r4, #0]
    51a6:	4405      	add	r5, r0
    51a8:	42a8      	cmp	r0, r5
    51aa:	d103      	bne.n	51b4 <grid_ain_channel_init+0x28>
    51ac:	81a3      	strh	r3, [r4, #12]
    51ae:	8123      	strh	r3, [r4, #8]
    51b0:	2000      	movs	r0, #0
    51b2:	bd70      	pop	{r4, r5, r6, pc}
    51b4:	f820 3b02 	strh.w	r3, [r0], #2
    51b8:	e7f6      	b.n	51a8 <grid_ain_channel_init+0x1c>
    51ba:	bf00      	nop
    51bc:	0000e9e9 	.word	0x0000e9e9

000051c0 <grid_ain_init>:
    51c0:	e92d 47f0 	stmdb	sp!, {r4, r5, r6, r7, r8, r9, sl, lr}
    51c4:	4606      	mov	r6, r0
    51c6:	4699      	mov	r9, r3
    51c8:	0100      	lsls	r0, r0, #4
    51ca:	4b0b      	ldr	r3, [pc, #44]	; (51f8 <grid_ain_init+0x38>)
    51cc:	4d0b      	ldr	r5, [pc, #44]	; (51fc <grid_ain_init+0x3c>)
    51ce:	f8df a030 	ldr.w	sl, [pc, #48]	; 5200 <grid_ain_init+0x40>
    51d2:	460f      	mov	r7, r1
    51d4:	4690      	mov	r8, r2
    51d6:	4798      	blx	r3
    51d8:	2400      	movs	r4, #0
    51da:	6028      	str	r0, [r5, #0]
    51dc:	42a6      	cmp	r6, r4
    51de:	d102      	bne.n	51e6 <grid_ain_init+0x26>
    51e0:	2000      	movs	r0, #0
    51e2:	e8bd 87f0 	ldmia.w	sp!, {r4, r5, r6, r7, r8, r9, sl, pc}
    51e6:	6828      	ldr	r0, [r5, #0]
    51e8:	464b      	mov	r3, r9
    51ea:	eb00 1004 	add.w	r0, r0, r4, lsl #4
    51ee:	4642      	mov	r2, r8
    51f0:	4639      	mov	r1, r7
    51f2:	47d0      	blx	sl
    51f4:	3401      	adds	r4, #1
    51f6:	e7f1      	b.n	51dc <grid_ain_init+0x1c>
    51f8:	0000e9e9 	.word	0x0000e9e9
    51fc:	200022bc 	.word	0x200022bc
    5200:	0000518d 	.word	0x0000518d

00005204 <grid_ain_add_sample>:
    5204:	4b32      	ldr	r3, [pc, #200]	; (52d0 <grid_ain_add_sample+0xcc>)
    5206:	e92d 47f0 	stmdb	sp!, {r4, r5, r6, r7, r8, r9, sl, lr}
    520a:	f8d3 8000 	ldr.w	r8, [r3]
    520e:	ea4f 1c00 	mov.w	ip, r0, lsl #4
    5212:	eb08 020c 	add.w	r2, r8, ip
    5216:	2400      	movs	r4, #0
    5218:	7915      	ldrb	r5, [r2, #4]
    521a:	4620      	mov	r0, r4
    521c:	4626      	mov	r6, r4
    521e:	46a2      	mov	sl, r4
    5220:	f64f 79ff 	movw	r9, #65535	; 0xffff
    5224:	4623      	mov	r3, r4
    5226:	fa5f fe84 	uxtb.w	lr, r4
    522a:	45ae      	cmp	lr, r5
    522c:	d33f      	bcc.n	52ae <grid_ain_add_sample+0xaa>
    522e:	fbb3 f5f5 	udiv	r5, r3, r5
    5232:	b2ad      	uxth	r5, r5
    5234:	428d      	cmp	r5, r1
    5236:	bf38      	it	cc
    5238:	b230      	sxthcc	r0, r6
    523a:	f858 400c 	ldr.w	r4, [r8, ip]
    523e:	bf28      	it	cs
    5240:	b200      	sxthcs	r0, r0
    5242:	440b      	add	r3, r1
    5244:	f834 5010 	ldrh.w	r5, [r4, r0, lsl #1]
    5248:	f824 1010 	strh.w	r1, [r4, r0, lsl #1]
    524c:	7990      	ldrb	r0, [r2, #6]
    524e:	7954      	ldrb	r4, [r2, #5]
    5250:	7911      	ldrb	r1, [r2, #4]
    5252:	8957      	ldrh	r7, [r2, #10]
    5254:	f8b2 c008 	ldrh.w	ip, [r2, #8]
    5258:	1b5b      	subs	r3, r3, r5
    525a:	f1c0 0510 	rsb	r5, r0, #16
    525e:	fbb3 f3f1 	udiv	r3, r3, r1
    5262:	b2ed      	uxtb	r5, r5
    5264:	b29e      	uxth	r6, r3
    5266:	fa46 f105 	asr.w	r1, r6, r5
    526a:	1a20      	subs	r0, r4, r0
    526c:	b2c0      	uxtb	r0, r0
    526e:	b289      	uxth	r1, r1
    5270:	1bbf      	subs	r7, r7, r6
    5272:	4081      	lsls	r1, r0
    5274:	2f00      	cmp	r7, #0
    5276:	fa1f fe81 	uxth.w	lr, r1
    527a:	bfb8      	it	lt
    527c:	427f      	neglt	r7, r7
    527e:	2601      	movs	r6, #1
    5280:	45f4      	cmp	ip, lr
    5282:	fa06 f505 	lsl.w	r5, r6, r5
    5286:	d020      	beq.n	52ca <grid_ain_add_sample+0xc6>
    5288:	42af      	cmp	r7, r5
    528a:	dc09      	bgt.n	52a0 <grid_ain_add_sample+0x9c>
    528c:	fa06 f404 	lsl.w	r4, r6, r4
    5290:	fa06 f000 	lsl.w	r0, r6, r0
    5294:	1a24      	subs	r4, r4, r0
    5296:	45a6      	cmp	lr, r4
    5298:	d002      	beq.n	52a0 <grid_ain_add_sample+0x9c>
    529a:	f1be 0f00 	cmp.w	lr, #0
    529e:	d114      	bne.n	52ca <grid_ain_add_sample+0xc6>
    52a0:	2001      	movs	r0, #1
    52a2:	8153      	strh	r3, [r2, #10]
    52a4:	f8a2 e008 	strh.w	lr, [r2, #8]
    52a8:	8190      	strh	r0, [r2, #12]
    52aa:	e8bd 87f0 	ldmia.w	sp!, {r4, r5, r6, r7, r8, r9, sl, pc}
    52ae:	6817      	ldr	r7, [r2, #0]
    52b0:	f837 7014 	ldrh.w	r7, [r7, r4, lsl #1]
    52b4:	45ba      	cmp	sl, r7
    52b6:	bf3c      	itt	cc
    52b8:	4670      	movcc	r0, lr
    52ba:	46ba      	movcc	sl, r7
    52bc:	45b9      	cmp	r9, r7
    52be:	443b      	add	r3, r7
    52c0:	bf84      	itt	hi
    52c2:	4676      	movhi	r6, lr
    52c4:	46b9      	movhi	r9, r7
    52c6:	3401      	adds	r4, #1
    52c8:	e7ad      	b.n	5226 <grid_ain_add_sample+0x22>
    52ca:	2000      	movs	r0, #0
    52cc:	e8bd 87f0 	ldmia.w	sp!, {r4, r5, r6, r7, r8, r9, sl, pc}
    52d0:	200022bc 	.word	0x200022bc

000052d4 <grid_ain_get_changed>:
    52d4:	4b02      	ldr	r3, [pc, #8]	; (52e0 <grid_ain_get_changed+0xc>)
    52d6:	681b      	ldr	r3, [r3, #0]
    52d8:	eb03 1000 	add.w	r0, r3, r0, lsl #4
    52dc:	7b00      	ldrb	r0, [r0, #12]
    52de:	4770      	bx	lr
    52e0:	200022bc 	.word	0x200022bc

000052e4 <grid_ain_get_average>:
    52e4:	4b08      	ldr	r3, [pc, #32]	; (5308 <grid_ain_get_average+0x24>)
    52e6:	681a      	ldr	r2, [r3, #0]
    52e8:	1fcb      	subs	r3, r1, #7
    52ea:	eb02 1200 	add.w	r2, r2, r0, lsl #4
    52ee:	2b07      	cmp	r3, #7
    52f0:	f04f 0000 	mov.w	r0, #0
    52f4:	8190      	strh	r0, [r2, #12]
    52f6:	bf9f      	itttt	ls
    52f8:	7950      	ldrbls	r0, [r2, #5]
    52fa:	8913      	ldrhls	r3, [r2, #8]
    52fc:	1a40      	subls	r0, r0, r1
    52fe:	fa43 f000 	asrls.w	r0, r3, r0
    5302:	b280      	uxth	r0, r0
    5304:	4770      	bx	lr
    5306:	bf00      	nop
    5308:	200022bc 	.word	0x200022bc

0000530c <grid_port_reset_receiver>:
    530c:	e92d 41f0 	stmdb	sp!, {r4, r5, r6, r7, r8, lr}
    5310:	4b1c      	ldr	r3, [pc, #112]	; (5384 <grid_port_reset_receiver+0x78>)
    5312:	4e1d      	ldr	r6, [pc, #116]	; (5388 <grid_port_reset_receiver+0x7c>)
    5314:	4604      	mov	r4, r0
    5316:	6840      	ldr	r0, [r0, #4]
    5318:	4798      	blx	r3
    531a:	f241 031b 	movw	r3, #4123	; 0x101b
    531e:	2500      	movs	r5, #0
    5320:	6265      	str	r5, [r4, #36]	; 0x24
    5322:	62a5      	str	r5, [r4, #40]	; 0x28
    5324:	f241 0701 	movw	r7, #4097	; 0x1001
    5328:	54e5      	strb	r5, [r4, r3]
    532a:	f241 0302 	movw	r3, #4098	; 0x1002
    532e:	22ff      	movs	r2, #255	; 0xff
    5330:	f504 5080 	add.w	r0, r4, #4096	; 0x1000
    5334:	54e2      	strb	r2, [r4, r3]
    5336:	2102      	movs	r1, #2
    5338:	55e2      	strb	r2, [r4, r7]
    533a:	300b      	adds	r0, #11
    533c:	47b0      	blx	r6
    533e:	f504 5080 	add.w	r0, r4, #4096	; 0x1000
    5342:	5de2      	ldrb	r2, [r4, r7]
    5344:	2102      	movs	r1, #2
    5346:	3009      	adds	r0, #9
    5348:	47b0      	blx	r6
    534a:	f241 0317 	movw	r3, #4119	; 0x1017
    534e:	f504 5680 	add.w	r6, r4, #4096	; 0x1000
    5352:	5ce7      	ldrb	r7, [r4, r3]
    5354:	4b0d      	ldr	r3, [pc, #52]	; (538c <grid_port_reset_receiver+0x80>)
    5356:	3603      	adds	r6, #3
    5358:	4639      	mov	r1, r7
    535a:	4630      	mov	r0, r6
    535c:	4798      	blx	r3
    535e:	4639      	mov	r1, r7
    5360:	4602      	mov	r2, r0
    5362:	4b0b      	ldr	r3, [pc, #44]	; (5390 <grid_port_reset_receiver+0x84>)
    5364:	4630      	mov	r0, r6
    5366:	4798      	blx	r3
    5368:	61e5      	str	r5, [r4, #28]
    536a:	4620      	mov	r0, r4
    536c:	4b09      	ldr	r3, [pc, #36]	; (5394 <grid_port_reset_receiver+0x88>)
    536e:	4798      	blx	r3
    5370:	6a63      	ldr	r3, [r4, #36]	; 0x24
    5372:	4423      	add	r3, r4
    5374:	f883 57fc 	strb.w	r5, [r3, #2044]	; 0x7fc
    5378:	6860      	ldr	r0, [r4, #4]
    537a:	4b07      	ldr	r3, [pc, #28]	; (5398 <grid_port_reset_receiver+0x8c>)
    537c:	e8bd 41f0 	ldmia.w	sp!, {r4, r5, r6, r7, r8, lr}
    5380:	4718      	bx	r3
    5382:	bf00      	nop
    5384:	0000946d 	.word	0x0000946d
    5388:	00008159 	.word	0x00008159
    538c:	00008271 	.word	0x00008271
    5390:	000082a9 	.word	0x000082a9
    5394:	00007ce1 	.word	0x00007ce1
    5398:	0000945d 	.word	0x0000945d

0000539c <grid_port_receive_task>:
    539c:	b5f7      	push	{r0, r1, r2, r4, r5, r6, r7, lr}
    539e:	6a05      	ldr	r5, [r0, #32]
    53a0:	4604      	mov	r4, r0
    53a2:	bb5d      	cbnz	r5, 53fc <grid_port_receive_task+0x60>
    53a4:	69c3      	ldr	r3, [r0, #28]
    53a6:	f5b3 7f7a 	cmp.w	r3, #1000	; 0x3e8
    53aa:	d936      	bls.n	541a <grid_port_receive_task+0x7e>
    53ac:	f241 031b 	movw	r3, #4123	; 0x101b
    53b0:	5cc3      	ldrb	r3, [r0, r3]
    53b2:	2b01      	cmp	r3, #1
    53b4:	d124      	bne.n	5400 <grid_port_receive_task+0x64>
    53b6:	4935      	ldr	r1, [pc, #212]	; (548c <grid_port_receive_task+0xf0>)
    53b8:	4b35      	ldr	r3, [pc, #212]	; (5490 <grid_port_receive_task+0xf4>)
    53ba:	4836      	ldr	r0, [pc, #216]	; (5494 <grid_port_receive_task+0xf8>)
    53bc:	4798      	blx	r3
    53be:	4620      	mov	r0, r4
    53c0:	4b35      	ldr	r3, [pc, #212]	; (5498 <grid_port_receive_task+0xfc>)
    53c2:	4798      	blx	r3
    53c4:	f44f 73fa 	mov.w	r3, #500	; 0x1f4
    53c8:	9301      	str	r3, [sp, #4]
    53ca:	23ff      	movs	r3, #255	; 0xff
    53cc:	9500      	str	r5, [sp, #0]
    53ce:	461a      	mov	r2, r3
    53d0:	4619      	mov	r1, r3
    53d2:	4832      	ldr	r0, [pc, #200]	; (549c <grid_port_receive_task+0x100>)
    53d4:	4d32      	ldr	r5, [pc, #200]	; (54a0 <grid_port_receive_task+0x104>)
    53d6:	47a8      	blx	r5
    53d8:	f44f 71f5 	mov.w	r1, #490	; 0x1ea
    53dc:	f240 76cf 	movw	r6, #1999	; 0x7cf
    53e0:	f44f 60fa 	mov.w	r0, #2000	; 0x7d0
    53e4:	f240 77ce 	movw	r7, #1998	; 0x7ce
    53e8:	6a62      	ldr	r2, [r4, #36]	; 0x24
    53ea:	18a3      	adds	r3, r4, r2
    53ec:	f893 37fc 	ldrb.w	r3, [r3, #2044]	; 0x7fc
    53f0:	2b0a      	cmp	r3, #10
    53f2:	d115      	bne.n	5420 <grid_port_receive_task+0x84>
    53f4:	2301      	movs	r3, #1
    53f6:	6223      	str	r3, [r4, #32]
    53f8:	2300      	movs	r3, #0
    53fa:	61e3      	str	r3, [r4, #28]
    53fc:	b003      	add	sp, #12
    53fe:	bdf0      	pop	{r4, r5, r6, r7, pc}
    5400:	6a83      	ldr	r3, [r0, #40]	; 0x28
    5402:	b913      	cbnz	r3, 540a <grid_port_receive_task+0x6e>
    5404:	6a43      	ldr	r3, [r0, #36]	; 0x24
    5406:	2b00      	cmp	r3, #0
    5408:	d0e6      	beq.n	53d8 <grid_port_receive_task+0x3c>
    540a:	4926      	ldr	r1, [pc, #152]	; (54a4 <grid_port_receive_task+0x108>)
    540c:	4b20      	ldr	r3, [pc, #128]	; (5490 <grid_port_receive_task+0xf4>)
    540e:	4821      	ldr	r0, [pc, #132]	; (5494 <grid_port_receive_task+0xf8>)
    5410:	4798      	blx	r3
    5412:	4620      	mov	r0, r4
    5414:	4b20      	ldr	r3, [pc, #128]	; (5498 <grid_port_receive_task+0xfc>)
    5416:	4798      	blx	r3
    5418:	e7de      	b.n	53d8 <grid_port_receive_task+0x3c>
    541a:	3301      	adds	r3, #1
    541c:	61c3      	str	r3, [r0, #28]
    541e:	e7db      	b.n	53d8 <grid_port_receive_task+0x3c>
    5420:	2b00      	cmp	r3, #0
    5422:	d0eb      	beq.n	53fc <grid_port_receive_task+0x60>
    5424:	6aa5      	ldr	r5, [r4, #40]	; 0x28
    5426:	1e6b      	subs	r3, r5, #1
    5428:	429a      	cmp	r2, r3
    542a:	d111      	bne.n	5450 <grid_port_receive_task+0xb4>
    542c:	491e      	ldr	r1, [pc, #120]	; (54a8 <grid_port_receive_task+0x10c>)
    542e:	4b18      	ldr	r3, [pc, #96]	; (5490 <grid_port_receive_task+0xf4>)
    5430:	4818      	ldr	r0, [pc, #96]	; (5494 <grid_port_receive_task+0xf8>)
    5432:	4798      	blx	r3
    5434:	4620      	mov	r0, r4
    5436:	4b18      	ldr	r3, [pc, #96]	; (5498 <grid_port_receive_task+0xfc>)
    5438:	4c19      	ldr	r4, [pc, #100]	; (54a0 <grid_port_receive_task+0x104>)
    543a:	4798      	blx	r3
    543c:	2202      	movs	r2, #2
    543e:	23c8      	movs	r3, #200	; 0xc8
    5440:	e88d 000c 	stmia.w	sp, {r2, r3}
    5444:	2300      	movs	r3, #0
    5446:	461a      	mov	r2, r3
    5448:	21ff      	movs	r1, #255	; 0xff
    544a:	4814      	ldr	r0, [pc, #80]	; (549c <grid_port_receive_task+0x100>)
    544c:	47a0      	blx	r4
    544e:	e7d5      	b.n	53fc <grid_port_receive_task+0x60>
    5450:	42b2      	cmp	r2, r6
    5452:	d102      	bne.n	545a <grid_port_receive_task+0xbe>
    5454:	b90d      	cbnz	r5, 545a <grid_port_receive_task+0xbe>
    5456:	4915      	ldr	r1, [pc, #84]	; (54ac <grid_port_receive_task+0x110>)
    5458:	e7e9      	b.n	542e <grid_port_receive_task+0x92>
    545a:	f205 75cf 	addw	r5, r5, #1999	; 0x7cf
    545e:	fbb5 f3f0 	udiv	r3, r5, r0
    5462:	fb00 5513 	mls	r5, r0, r3, r5
    5466:	4425      	add	r5, r4
    5468:	f895 37fc 	ldrb.w	r3, [r5, #2044]	; 0x7fc
    546c:	b10b      	cbz	r3, 5472 <grid_port_receive_task+0xd6>
    546e:	4910      	ldr	r1, [pc, #64]	; (54b0 <grid_port_receive_task+0x114>)
    5470:	e7dd      	b.n	542e <grid_port_receive_task+0x92>
    5472:	42ba      	cmp	r2, r7
    5474:	f101 31ff 	add.w	r1, r1, #4294967295
    5478:	bf98      	it	ls
    547a:	3201      	addls	r2, #1
    547c:	b289      	uxth	r1, r1
    547e:	61e3      	str	r3, [r4, #28]
    5480:	bf94      	ite	ls
    5482:	6262      	strls	r2, [r4, #36]	; 0x24
    5484:	6263      	strhi	r3, [r4, #36]	; 0x24
    5486:	2900      	cmp	r1, #0
    5488:	d1ae      	bne.n	53e8 <grid_port_receive_task+0x4c>
    548a:	e7b7      	b.n	53fc <grid_port_receive_task+0x60>
    548c:	0000ff71 	.word	0x0000ff71
    5490:	0000eb79 	.word	0x0000eb79
    5494:	0000ff2e 	.word	0x0000ff2e
    5498:	0000530d 	.word	0x0000530d
    549c:	200032ec 	.word	0x200032ec
    54a0:	000080db 	.word	0x000080db
    54a4:	0000ff95 	.word	0x0000ff95
    54a8:	0000ffae 	.word	0x0000ffae
    54ac:	0000ffc9 	.word	0x0000ffc9
    54b0:	0000ffe4 	.word	0x0000ffe4

000054b4 <grid_buffer_init>:
    54b4:	b538      	push	{r3, r4, r5, lr}
    54b6:	2400      	movs	r4, #0
    54b8:	4605      	mov	r5, r0
    54ba:	8001      	strh	r1, [r0, #0]
    54bc:	81c4      	strh	r4, [r0, #14]
    54be:	8104      	strh	r4, [r0, #8]
    54c0:	8144      	strh	r4, [r0, #10]
    54c2:	8184      	strh	r4, [r0, #12]
    54c4:	8204      	strh	r4, [r0, #16]
    54c6:	8244      	strh	r4, [r0, #18]
    54c8:	8284      	strh	r4, [r0, #20]
    54ca:	4b0a      	ldr	r3, [pc, #40]	; (54f4 <grid_buffer_init+0x40>)
    54cc:	4608      	mov	r0, r1
    54ce:	4798      	blx	r3
    54d0:	6068      	str	r0, [r5, #4]
    54d2:	b900      	cbnz	r0, 54d6 <grid_buffer_init+0x22>
    54d4:	e7fe      	b.n	54d4 <grid_buffer_init+0x20>
    54d6:	4620      	mov	r0, r4
    54d8:	882a      	ldrh	r2, [r5, #0]
    54da:	b2a3      	uxth	r3, r4
    54dc:	429a      	cmp	r2, r3
    54de:	f104 0101 	add.w	r1, r4, #1
    54e2:	d801      	bhi.n	54e8 <grid_buffer_init+0x34>
    54e4:	2001      	movs	r0, #1
    54e6:	bd38      	pop	{r3, r4, r5, pc}
    54e8:	b2a4      	uxth	r4, r4
    54ea:	686b      	ldr	r3, [r5, #4]
    54ec:	5518      	strb	r0, [r3, r4]
    54ee:	460c      	mov	r4, r1
    54f0:	e7f2      	b.n	54d8 <grid_buffer_init+0x24>
    54f2:	bf00      	nop
    54f4:	0000e9e9 	.word	0x0000e9e9

000054f8 <grid_buffer_write_size>:
    54f8:	8903      	ldrh	r3, [r0, #8]
    54fa:	8a02      	ldrh	r2, [r0, #16]
    54fc:	4293      	cmp	r3, r2
    54fe:	bf9b      	ittet	ls
    5500:	8800      	ldrhls	r0, [r0, #0]
    5502:	18c0      	addls	r0, r0, r3
    5504:	1a98      	subhi	r0, r3, r2
    5506:	1a80      	subls	r0, r0, r2
    5508:	b280      	uxth	r0, r0
    550a:	4770      	bx	lr

0000550c <grid_buffer_write_init>:
    550c:	8a02      	ldrh	r2, [r0, #16]
    550e:	8903      	ldrh	r3, [r0, #8]
    5510:	4293      	cmp	r3, r2
    5512:	b510      	push	{r4, lr}
    5514:	bf9c      	itt	ls
    5516:	8804      	ldrhls	r4, [r0, #0]
    5518:	191b      	addls	r3, r3, r4
    551a:	1a9b      	subs	r3, r3, r2
    551c:	b29b      	uxth	r3, r3
    551e:	428b      	cmp	r3, r1
    5520:	bf85      	ittet	hi
    5522:	8804      	ldrhhi	r4, [r0, #0]
    5524:	1852      	addhi	r2, r2, r1
    5526:	2100      	movls	r1, #0
    5528:	fb92 f3f4 	sdivhi	r3, r2, r4
    552c:	bf84      	itt	hi
    552e:	fb04 2213 	mlshi	r2, r4, r3, r2
    5532:	8242      	strhhi	r2, [r0, #18]
    5534:	4608      	mov	r0, r1
    5536:	bd10      	pop	{r4, pc}

00005538 <grid_buffer_write_character>:
    5538:	8a83      	ldrh	r3, [r0, #20]
    553a:	6842      	ldr	r2, [r0, #4]
    553c:	54d1      	strb	r1, [r2, r3]
    553e:	8a83      	ldrh	r3, [r0, #20]
    5540:	8801      	ldrh	r1, [r0, #0]
    5542:	3301      	adds	r3, #1
    5544:	b29b      	uxth	r3, r3
    5546:	fbb3 f2f1 	udiv	r2, r3, r1
    554a:	fb01 3312 	mls	r3, r1, r2, r3
    554e:	8283      	strh	r3, [r0, #20]
    5550:	2001      	movs	r0, #1
    5552:	4770      	bx	lr

00005554 <grid_buffer_write_acknowledge>:
    5554:	8a82      	ldrh	r2, [r0, #20]
    5556:	8a43      	ldrh	r3, [r0, #18]
    5558:	4293      	cmp	r3, r2
    555a:	d000      	beq.n	555e <grid_buffer_write_acknowledge+0xa>
    555c:	e7fe      	b.n	555c <grid_buffer_write_acknowledge+0x8>
    555e:	8203      	strh	r3, [r0, #16]
    5560:	2001      	movs	r0, #1
    5562:	4770      	bx	lr

00005564 <grid_port_receive_decode>:
    5564:	e92d 4ff0 	stmdb	sp!, {r4, r5, r6, r7, r8, r9, sl, fp, lr}
    5568:	1dd3      	adds	r3, r2, #7
    556a:	b08d      	sub	sp, #52	; 0x34
    556c:	f023 0307 	bic.w	r3, r3, #7
    5570:	af02      	add	r7, sp, #8
    5572:	ebad 0d03 	sub.w	sp, sp, r3
    5576:	f10d 0808 	add.w	r8, sp, #8
    557a:	4604      	mov	r4, r0
    557c:	4693      	mov	fp, r2
    557e:	4641      	mov	r1, r8
    5580:	f44f 60fa 	mov.w	r0, #2000	; 0x7d0
    5584:	2500      	movs	r5, #0
    5586:	eba1 0308 	sub.w	r3, r1, r8
    558a:	b29a      	uxth	r2, r3
    558c:	4593      	cmp	fp, r2
    558e:	f200 80e4 	bhi.w	575a <grid_port_receive_decode+0x1f6>
    5592:	2200      	movs	r2, #0
    5594:	4645      	mov	r5, r8
    5596:	f44f 60fa 	mov.w	r0, #2000	; 0x7d0
    559a:	4616      	mov	r6, r2
    559c:	b293      	uxth	r3, r2
    559e:	459b      	cmp	fp, r3
    55a0:	6aa3      	ldr	r3, [r4, #40]	; 0x28
    55a2:	f200 80e8 	bhi.w	5776 <grid_port_receive_decode+0x212>
    55a6:	445b      	add	r3, fp
    55a8:	fbb3 f2f0 	udiv	r2, r3, r0
    55ac:	fb00 3312 	mls	r3, r0, r2, r3
    55b0:	62a3      	str	r3, [r4, #40]	; 0x28
    55b2:	6263      	str	r3, [r4, #36]	; 0x24
    55b4:	f8df 9258 	ldr.w	r9, [pc, #600]	; 5810 <grid_port_receive_decode+0x2ac>
    55b8:	f8df a258 	ldr.w	sl, [pc, #600]	; 5814 <grid_port_receive_decode+0x2b0>
    55bc:	4a8b      	ldr	r2, [pc, #556]	; (57ec <grid_port_receive_decode+0x288>)
    55be:	2300      	movs	r3, #0
    55c0:	6223      	str	r3, [r4, #32]
    55c2:	2601      	movs	r6, #1
    55c4:	45b3      	cmp	fp, r6
    55c6:	f200 80e0 	bhi.w	578a <grid_port_receive_decode+0x226>
    55ca:	f895 8000 	ldrb.w	r8, [r5]
    55ce:	f1b8 0f01 	cmp.w	r8, #1
    55d2:	f040 823c 	bne.w	5a4e <grid_port_receive_decode+0x4ea>
    55d6:	eb05 030b 	add.w	r3, r5, fp
    55da:	f813 9c01 	ldrb.w	r9, [r3, #-1]
    55de:	f1b9 0f0a 	cmp.w	r9, #10
    55e2:	f040 8234 	bne.w	5a4e <grid_port_receive_decode+0x4ea>
    55e6:	4659      	mov	r1, fp
    55e8:	4b81      	ldr	r3, [pc, #516]	; (57f0 <grid_port_receive_decode+0x28c>)
    55ea:	4e82      	ldr	r6, [pc, #520]	; (57f4 <grid_port_receive_decode+0x290>)
    55ec:	4628      	mov	r0, r5
    55ee:	4798      	blx	r3
    55f0:	4659      	mov	r1, fp
    55f2:	4682      	mov	sl, r0
    55f4:	4628      	mov	r0, r5
    55f6:	47b0      	blx	r6
    55f8:	4582      	cmp	sl, r0
    55fa:	f040 821d 	bne.w	5a38 <grid_port_receive_decode+0x4d4>
    55fe:	786b      	ldrb	r3, [r5, #1]
    5600:	2b0f      	cmp	r3, #15
    5602:	f040 810f 	bne.w	5824 <grid_port_receive_decode+0x2c0>
    5606:	f107 0628 	add.w	r6, r7, #40	; 0x28
    560a:	f04f 0300 	mov.w	r3, #0
    560e:	f806 3d01 	strb.w	r3, [r6, #-1]!
    5612:	f8df 8204 	ldr.w	r8, [pc, #516]	; 5818 <grid_port_receive_decode+0x2b4>
    5616:	4633      	mov	r3, r6
    5618:	2202      	movs	r2, #2
    561a:	2104      	movs	r1, #4
    561c:	4628      	mov	r0, r5
    561e:	47c0      	blx	r8
    5620:	4649      	mov	r1, r9
    5622:	6178      	str	r0, [r7, #20]
    5624:	4633      	mov	r3, r6
    5626:	2202      	movs	r2, #2
    5628:	4628      	mov	r0, r5
    562a:	47c0      	blx	r8
    562c:	4633      	mov	r3, r6
    562e:	6138      	str	r0, [r7, #16]
    5630:	2202      	movs	r2, #2
    5632:	2106      	movs	r1, #6
    5634:	4628      	mov	r0, r5
    5636:	47c0      	blx	r8
    5638:	b2c3      	uxtb	r3, r0
    563a:	61fb      	str	r3, [r7, #28]
    563c:	3b7f      	subs	r3, #127	; 0x7f
    563e:	b2db      	uxtb	r3, r3
    5640:	60fb      	str	r3, [r7, #12]
    5642:	2202      	movs	r2, #2
    5644:	4633      	mov	r3, r6
    5646:	2108      	movs	r1, #8
    5648:	4628      	mov	r0, r5
    564a:	f997 900c 	ldrsb.w	r9, [r7, #12]
    564e:	47c0      	blx	r8
    5650:	b2c3      	uxtb	r3, r0
    5652:	61bb      	str	r3, [r7, #24]
    5654:	3b7f      	subs	r3, #127	; 0x7f
    5656:	b2db      	uxtb	r3, r3
    5658:	60bb      	str	r3, [r7, #8]
    565a:	2202      	movs	r2, #2
    565c:	4633      	mov	r3, r6
    565e:	210c      	movs	r1, #12
    5660:	4628      	mov	r0, r5
    5662:	f997 a008 	ldrsb.w	sl, [r7, #8]
    5666:	47c0      	blx	r8
    5668:	f504 5380 	add.w	r3, r4, #4096	; 0x1000
    566c:	781b      	ldrb	r3, [r3, #0]
    566e:	4418      	add	r0, r3
    5670:	f000 0203 	and.w	r2, r0, #3
    5674:	607a      	str	r2, [r7, #4]
    5676:	b143      	cbz	r3, 568a <grid_port_receive_decode+0x126>
    5678:	2b01      	cmp	r3, #1
    567a:	f040 8098 	bne.w	57ae <grid_port_receive_decode+0x24a>
    567e:	69bb      	ldr	r3, [r7, #24]
    5680:	f1c3 087f 	rsb	r8, r3, #127	; 0x7f
    5684:	46ca      	mov	sl, r9
    5686:	fa4f f988 	sxtb.w	r9, r8
    568a:	f241 0319 	movw	r3, #4121	; 0x1019
    568e:	f814 8003 	ldrb.w	r8, [r4, r3]
    5692:	f241 031a 	movw	r3, #4122	; 0x101a
    5696:	f108 087f 	add.w	r8, r8, #127	; 0x7f
    569a:	44c1      	add	r9, r8
    569c:	f814 8003 	ldrb.w	r8, [r4, r3]
    56a0:	68fb      	ldr	r3, [r7, #12]
    56a2:	f108 087f 	add.w	r8, r8, #127	; 0x7f
    56a6:	44d0      	add	r8, sl
    56a8:	2b81      	cmp	r3, #129	; 0x81
    56aa:	fa5f f989 	uxtb.w	r9, r9
    56ae:	fa5f f888 	uxtb.w	r8, r8
    56b2:	d102      	bne.n	56ba <grid_port_receive_decode+0x156>
    56b4:	68bb      	ldr	r3, [r7, #8]
    56b6:	2b81      	cmp	r3, #129	; 0x81
    56b8:	d01f      	beq.n	56fa <grid_port_receive_decode+0x196>
    56ba:	f8df a160 	ldr.w	sl, [pc, #352]	; 581c <grid_port_receive_decode+0x2b8>
    56be:	7d3b      	ldrb	r3, [r7, #20]
    56c0:	9600      	str	r6, [sp, #0]
    56c2:	2202      	movs	r2, #2
    56c4:	2104      	movs	r1, #4
    56c6:	4628      	mov	r0, r5
    56c8:	47d0      	blx	sl
    56ca:	464b      	mov	r3, r9
    56cc:	2202      	movs	r2, #2
    56ce:	2106      	movs	r1, #6
    56d0:	9600      	str	r6, [sp, #0]
    56d2:	4628      	mov	r0, r5
    56d4:	47d0      	blx	sl
    56d6:	4643      	mov	r3, r8
    56d8:	2202      	movs	r2, #2
    56da:	2108      	movs	r1, #8
    56dc:	9600      	str	r6, [sp, #0]
    56de:	4628      	mov	r0, r5
    56e0:	47d0      	blx	sl
    56e2:	7c3b      	ldrb	r3, [r7, #16]
    56e4:	9600      	str	r6, [sp, #0]
    56e6:	2202      	movs	r2, #2
    56e8:	210a      	movs	r1, #10
    56ea:	4628      	mov	r0, r5
    56ec:	47d0      	blx	sl
    56ee:	9600      	str	r6, [sp, #0]
    56f0:	687b      	ldr	r3, [r7, #4]
    56f2:	2202      	movs	r2, #2
    56f4:	210c      	movs	r1, #12
    56f6:	4628      	mov	r0, r5
    56f8:	47d0      	blx	sl
    56fa:	7d3b      	ldrb	r3, [r7, #20]
    56fc:	483e      	ldr	r0, [pc, #248]	; (57f8 <grid_port_receive_decode+0x294>)
    56fe:	eb09 2903 	add.w	r9, r9, r3, lsl #8
    5702:	eb08 2909 	add.w	r9, r8, r9, lsl #8
    5706:	f897 8010 	ldrb.w	r8, [r7, #16]
    570a:	4b3c      	ldr	r3, [pc, #240]	; (57fc <grid_port_receive_decode+0x298>)
    570c:	eb08 2809 	add.w	r8, r8, r9, lsl #8
    5710:	4641      	mov	r1, r8
    5712:	4798      	blx	r3
    5714:	b9e8      	cbnz	r0, 5752 <grid_port_receive_decode+0x1ee>
    5716:	4659      	mov	r1, fp
    5718:	4b36      	ldr	r3, [pc, #216]	; (57f4 <grid_port_receive_decode+0x290>)
    571a:	4628      	mov	r0, r5
    571c:	4798      	blx	r3
    571e:	f604 74e4 	addw	r4, r4, #4068	; 0xfe4
    5722:	4602      	mov	r2, r0
    5724:	4659      	mov	r1, fp
    5726:	4628      	mov	r0, r5
    5728:	4b35      	ldr	r3, [pc, #212]	; (5800 <grid_port_receive_decode+0x29c>)
    572a:	4798      	blx	r3
    572c:	4659      	mov	r1, fp
    572e:	4620      	mov	r0, r4
    5730:	4b34      	ldr	r3, [pc, #208]	; (5804 <grid_port_receive_decode+0x2a0>)
    5732:	4798      	blx	r3
    5734:	b168      	cbz	r0, 5752 <grid_port_receive_decode+0x1ee>
    5736:	f8df 90e8 	ldr.w	r9, [pc, #232]	; 5820 <grid_port_receive_decode+0x2bc>
    573a:	462e      	mov	r6, r5
    573c:	1b73      	subs	r3, r6, r5
    573e:	b29b      	uxth	r3, r3
    5740:	459b      	cmp	fp, r3
    5742:	d84e      	bhi.n	57e2 <grid_port_receive_decode+0x27e>
    5744:	4b30      	ldr	r3, [pc, #192]	; (5808 <grid_port_receive_decode+0x2a4>)
    5746:	4620      	mov	r0, r4
    5748:	4798      	blx	r3
    574a:	4641      	mov	r1, r8
    574c:	482a      	ldr	r0, [pc, #168]	; (57f8 <grid_port_receive_decode+0x294>)
    574e:	4b2f      	ldr	r3, [pc, #188]	; (580c <grid_port_receive_decode+0x2a8>)
    5750:	4798      	blx	r3
    5752:	372c      	adds	r7, #44	; 0x2c
    5754:	46bd      	mov	sp, r7
    5756:	e8bd 8ff0 	ldmia.w	sp!, {r4, r5, r6, r7, r8, r9, sl, fp, pc}
    575a:	6aa2      	ldr	r2, [r4, #40]	; 0x28
    575c:	441a      	add	r2, r3
    575e:	fbb2 f3f0 	udiv	r3, r2, r0
    5762:	fb00 2313 	mls	r3, r0, r3, r2
    5766:	4423      	add	r3, r4
    5768:	f893 27fc 	ldrb.w	r2, [r3, #2044]	; 0x7fc
    576c:	f801 2b01 	strb.w	r2, [r1], #1
    5770:	f883 57fc 	strb.w	r5, [r3, #2044]	; 0x7fc
    5774:	e707      	b.n	5586 <grid_port_receive_decode+0x22>
    5776:	4413      	add	r3, r2
    5778:	fbb3 f1f0 	udiv	r1, r3, r0
    577c:	fb00 3311 	mls	r3, r0, r1, r3
    5780:	4423      	add	r3, r4
    5782:	3201      	adds	r2, #1
    5784:	f883 67fc 	strb.w	r6, [r3, #2044]	; 0x7fc
    5788:	e708      	b.n	559c <grid_port_receive_decode+0x38>
    578a:	f818 3006 	ldrb.w	r3, [r8, r6]
    578e:	2b01      	cmp	r3, #1
    5790:	d10a      	bne.n	57a8 <grid_port_receive_decode+0x244>
    5792:	ebab 0006 	sub.w	r0, fp, r6
    5796:	fa1f fb80 	uxth.w	fp, r0
    579a:	4649      	mov	r1, r9
    579c:	4650      	mov	r0, sl
    579e:	61fa      	str	r2, [r7, #28]
    57a0:	4790      	blx	r2
    57a2:	69fa      	ldr	r2, [r7, #28]
    57a4:	eb08 0506 	add.w	r5, r8, r6
    57a8:	3601      	adds	r6, #1
    57aa:	b2b6      	uxth	r6, r6
    57ac:	e70a      	b.n	55c4 <grid_port_receive_decode+0x60>
    57ae:	2b02      	cmp	r3, #2
    57b0:	d10a      	bne.n	57c8 <grid_port_receive_decode+0x264>
    57b2:	69fb      	ldr	r3, [r7, #28]
    57b4:	f1c3 097f 	rsb	r9, r3, #127	; 0x7f
    57b8:	69bb      	ldr	r3, [r7, #24]
    57ba:	f1c3 0a7f 	rsb	sl, r3, #127	; 0x7f
    57be:	fa4f f989 	sxtb.w	r9, r9
    57c2:	fa4f fa8a 	sxtb.w	sl, sl
    57c6:	e760      	b.n	568a <grid_port_receive_decode+0x126>
    57c8:	2b03      	cmp	r3, #3
    57ca:	bf09      	itett	eq
    57cc:	69fb      	ldreq	r3, [r7, #28]
    57ce:	f04f 0a00 	movne.w	sl, #0
    57d2:	f1c3 037f 	rsbeq	r3, r3, #127	; 0x7f
    57d6:	46d1      	moveq	r9, sl
    57d8:	bf14      	ite	ne
    57da:	46d1      	movne	r9, sl
    57dc:	fa4f fa83 	sxtbeq.w	sl, r3
    57e0:	e753      	b.n	568a <grid_port_receive_decode+0x126>
    57e2:	f816 1b01 	ldrb.w	r1, [r6], #1
    57e6:	4620      	mov	r0, r4
    57e8:	47c8      	blx	r9
    57ea:	e7a7      	b.n	573c <grid_port_receive_decode+0x1d8>
    57ec:	0000eb79 	.word	0x0000eb79
    57f0:	0000828d 	.word	0x0000828d
    57f4:	00008271 	.word	0x00008271
    57f8:	200032ec 	.word	0x200032ec
    57fc:	000082e5 	.word	0x000082e5
    5800:	000082a9 	.word	0x000082a9
    5804:	0000550d 	.word	0x0000550d
    5808:	00005555 	.word	0x00005555
    580c:	000082ff 	.word	0x000082ff
    5810:	0000ffff 	.word	0x0000ffff
    5814:	0000ff2e 	.word	0x0000ff2e
    5818:	000082b9 	.word	0x000082b9
    581c:	000082d1 	.word	0x000082d1
    5820:	00005539 	.word	0x00005539
    5824:	2b0e      	cmp	r3, #14
    5826:	f040 80f9 	bne.w	5a1c <grid_port_receive_decode+0x4b8>
    582a:	78ab      	ldrb	r3, [r5, #2]
    582c:	2b07      	cmp	r3, #7
    582e:	d190      	bne.n	5752 <grid_port_receive_decode+0x1ee>
    5830:	2200      	movs	r2, #0
    5832:	2102      	movs	r1, #2
    5834:	f8df 922c 	ldr.w	r9, [pc, #556]	; 5a64 <grid_port_receive_decode+0x500>
    5838:	f105 0008 	add.w	r0, r5, #8
    583c:	47c8      	blx	r9
    583e:	2200      	movs	r2, #0
    5840:	fa5f fa80 	uxtb.w	sl, r0
    5844:	2102      	movs	r1, #2
    5846:	1da8      	adds	r0, r5, #6
    5848:	47c8      	blx	r9
    584a:	f241 031b 	movw	r3, #4123	; 0x101b
    584e:	fa5f f880 	uxtb.w	r8, r0
    5852:	5ce3      	ldrb	r3, [r4, r3]
    5854:	2b00      	cmp	r3, #0
    5856:	d17a      	bne.n	594e <grid_port_receive_decode+0x3ea>
    5858:	f241 0901 	movw	r9, #4097	; 0x1001
    585c:	f814 3009 	ldrb.w	r3, [r4, r9]
    5860:	2bff      	cmp	r3, #255	; 0xff
    5862:	d11d      	bne.n	58a0 <grid_port_receive_decode+0x33c>
    5864:	4b7b      	ldr	r3, [pc, #492]	; (5a54 <grid_port_receive_decode+0x4f0>)
    5866:	487c      	ldr	r0, [pc, #496]	; (5a58 <grid_port_receive_decode+0x4f4>)
    5868:	4798      	blx	r3
    586a:	f000 027f 	and.w	r2, r0, #127	; 0x7f
    586e:	f504 5080 	add.w	r0, r4, #4096	; 0x1000
    5872:	f804 2009 	strb.w	r2, [r4, r9]
    5876:	2102      	movs	r1, #2
    5878:	4b78      	ldr	r3, [pc, #480]	; (5a5c <grid_port_receive_decode+0x4f8>)
    587a:	3009      	adds	r0, #9
    587c:	4798      	blx	r3
    587e:	f241 0317 	movw	r3, #4119	; 0x1017
    5882:	f504 5980 	add.w	r9, r4, #4096	; 0x1000
    5886:	5ce3      	ldrb	r3, [r4, r3]
    5888:	61fb      	str	r3, [r7, #28]
    588a:	f109 0903 	add.w	r9, r9, #3
    588e:	4619      	mov	r1, r3
    5890:	4648      	mov	r0, r9
    5892:	47b0      	blx	r6
    5894:	69fb      	ldr	r3, [r7, #28]
    5896:	4602      	mov	r2, r0
    5898:	4619      	mov	r1, r3
    589a:	4648      	mov	r0, r9
    589c:	4b70      	ldr	r3, [pc, #448]	; (5a60 <grid_port_receive_decode+0x4fc>)
    589e:	4798      	blx	r3
    58a0:	f241 0302 	movw	r3, #4098	; 0x1002
    58a4:	5ce2      	ldrb	r2, [r4, r3]
    58a6:	4542      	cmp	r2, r8
    58a8:	d018      	beq.n	58dc <grid_port_receive_decode+0x378>
    58aa:	f504 5080 	add.w	r0, r4, #4096	; 0x1000
    58ae:	4642      	mov	r2, r8
    58b0:	f804 8003 	strb.w	r8, [r4, r3]
    58b4:	2102      	movs	r1, #2
    58b6:	4b69      	ldr	r3, [pc, #420]	; (5a5c <grid_port_receive_decode+0x4f8>)
    58b8:	300b      	adds	r0, #11
    58ba:	4798      	blx	r3
    58bc:	f241 0317 	movw	r3, #4119	; 0x1017
    58c0:	f504 5880 	add.w	r8, r4, #4096	; 0x1000
    58c4:	f814 9003 	ldrb.w	r9, [r4, r3]
    58c8:	f108 0803 	add.w	r8, r8, #3
    58cc:	4649      	mov	r1, r9
    58ce:	4640      	mov	r0, r8
    58d0:	47b0      	blx	r6
    58d2:	4649      	mov	r1, r9
    58d4:	4602      	mov	r2, r0
    58d6:	4b62      	ldr	r3, [pc, #392]	; (5a60 <grid_port_receive_decode+0x4fc>)
    58d8:	4640      	mov	r0, r8
    58da:	4798      	blx	r3
    58dc:	f241 0301 	movw	r3, #4097	; 0x1001
    58e0:	5ce3      	ldrb	r3, [r4, r3]
    58e2:	4553      	cmp	r3, sl
    58e4:	d12e      	bne.n	5944 <grid_port_receive_decode+0x3e0>
    58e6:	7a61      	ldrb	r1, [r4, #9]
    58e8:	78eb      	ldrb	r3, [r5, #3]
    58ea:	1a5b      	subs	r3, r3, r1
    58ec:	3306      	adds	r3, #6
    58ee:	4259      	negs	r1, r3
    58f0:	f504 5280 	add.w	r2, r4, #4096	; 0x1000
    58f4:	f001 0103 	and.w	r1, r1, #3
    58f8:	f003 0303 	and.w	r3, r3, #3
    58fc:	f1ab 000a 	sub.w	r0, fp, #10
    5900:	bf58      	it	pl
    5902:	424b      	negpl	r3, r1
    5904:	7013      	strb	r3, [r2, #0]
    5906:	2102      	movs	r1, #2
    5908:	2200      	movs	r2, #0
    590a:	4428      	add	r0, r5
    590c:	4b55      	ldr	r3, [pc, #340]	; (5a64 <grid_port_receive_decode+0x500>)
    590e:	4d52      	ldr	r5, [pc, #328]	; (5a58 <grid_port_receive_decode+0x4f4>)
    5910:	4798      	blx	r3
    5912:	f241 031b 	movw	r3, #4123	; 0x101b
    5916:	2201      	movs	r2, #1
    5918:	f8c4 0ffc 	str.w	r0, [r4, #4092]	; 0xffc
    591c:	54e2      	strb	r2, [r4, r3]
    591e:	4628      	mov	r0, r5
    5920:	4b4c      	ldr	r3, [pc, #304]	; (5a54 <grid_port_receive_decode+0x4f0>)
    5922:	4798      	blx	r3
    5924:	b2c0      	uxtb	r0, r0
    5926:	7028      	strb	r0, [r5, #0]
    5928:	494f      	ldr	r1, [pc, #316]	; (5a68 <grid_port_receive_decode+0x504>)
    592a:	4b50      	ldr	r3, [pc, #320]	; (5a6c <grid_port_receive_decode+0x508>)
    592c:	4850      	ldr	r0, [pc, #320]	; (5a70 <grid_port_receive_decode+0x50c>)
    592e:	4798      	blx	r3
    5930:	f44f 73fa 	mov.w	r3, #500	; 0x1f4
    5934:	9301      	str	r3, [sp, #4]
    5936:	2300      	movs	r3, #0
    5938:	4628      	mov	r0, r5
    593a:	9300      	str	r3, [sp, #0]
    593c:	22ff      	movs	r2, #255	; 0xff
    593e:	4619      	mov	r1, r3
    5940:	4d4c      	ldr	r5, [pc, #304]	; (5a74 <grid_port_receive_decode+0x510>)
    5942:	47a8      	blx	r5
    5944:	f241 0318 	movw	r3, #4120	; 0x1018
    5948:	2201      	movs	r2, #1
    594a:	54e2      	strb	r2, [r4, r3]
    594c:	e701      	b.n	5752 <grid_port_receive_decode+0x1ee>
    594e:	7a62      	ldrb	r2, [r4, #9]
    5950:	78eb      	ldrb	r3, [r5, #3]
    5952:	1a9b      	subs	r3, r3, r2
    5954:	3306      	adds	r3, #6
    5956:	425a      	negs	r2, r3
    5958:	f002 0203 	and.w	r2, r2, #3
    595c:	f003 0303 	and.w	r3, r3, #3
    5960:	bf58      	it	pl
    5962:	4253      	negpl	r3, r2
    5964:	f504 5280 	add.w	r2, r4, #4096	; 0x1000
    5968:	f241 0002 	movw	r0, #4098	; 0x1002
    596c:	7811      	ldrb	r1, [r2, #0]
    596e:	5c20      	ldrb	r0, [r4, r0]
    5970:	f241 0201 	movw	r2, #4097	; 0x1001
    5974:	5ca2      	ldrb	r2, [r4, r2]
    5976:	4552      	cmp	r2, sl
    5978:	bf08      	it	eq
    597a:	4540      	cmpeq	r0, r8
    597c:	bf0c      	ite	eq
    597e:	f04f 0801 	moveq.w	r8, #1
    5982:	f04f 0800 	movne.w	r8, #0
    5986:	f1ab 000a 	sub.w	r0, fp, #10
    598a:	428b      	cmp	r3, r1
    598c:	bf14      	ite	ne
    598e:	f04f 0800 	movne.w	r8, #0
    5992:	f008 0801 	andeq.w	r8, r8, #1
    5996:	2200      	movs	r2, #0
    5998:	2102      	movs	r1, #2
    599a:	4428      	add	r0, r5
    599c:	f8d4 affc 	ldr.w	sl, [r4, #4092]	; 0xffc
    59a0:	47c8      	blx	r9
    59a2:	4550      	cmp	r0, sl
    59a4:	d103      	bne.n	59ae <grid_port_receive_decode+0x44a>
    59a6:	f1b8 0f00 	cmp.w	r8, #0
    59aa:	f47f aed2 	bne.w	5752 <grid_port_receive_decode+0x1ee>
    59ae:	f241 031b 	movw	r3, #4123	; 0x101b
    59b2:	f04f 0900 	mov.w	r9, #0
    59b6:	f804 9003 	strb.w	r9, [r4, r3]
    59ba:	f241 0a01 	movw	sl, #4097	; 0x1001
    59be:	f241 0302 	movw	r3, #4098	; 0x1002
    59c2:	25ff      	movs	r5, #255	; 0xff
    59c4:	f504 5080 	add.w	r0, r4, #4096	; 0x1000
    59c8:	54e5      	strb	r5, [r4, r3]
    59ca:	f8df 8090 	ldr.w	r8, [pc, #144]	; 5a5c <grid_port_receive_decode+0x4f8>
    59ce:	f804 500a 	strb.w	r5, [r4, sl]
    59d2:	462a      	mov	r2, r5
    59d4:	2102      	movs	r1, #2
    59d6:	300b      	adds	r0, #11
    59d8:	47c0      	blx	r8
    59da:	f504 5080 	add.w	r0, r4, #4096	; 0x1000
    59de:	f814 200a 	ldrb.w	r2, [r4, sl]
    59e2:	2102      	movs	r1, #2
    59e4:	3009      	adds	r0, #9
    59e6:	47c0      	blx	r8
    59e8:	f241 0317 	movw	r3, #4119	; 0x1017
    59ec:	f504 5880 	add.w	r8, r4, #4096	; 0x1000
    59f0:	5ce4      	ldrb	r4, [r4, r3]
    59f2:	f108 0803 	add.w	r8, r8, #3
    59f6:	4621      	mov	r1, r4
    59f8:	4640      	mov	r0, r8
    59fa:	47b0      	blx	r6
    59fc:	4621      	mov	r1, r4
    59fe:	4602      	mov	r2, r0
    5a00:	4b17      	ldr	r3, [pc, #92]	; (5a60 <grid_port_receive_decode+0x4fc>)
    5a02:	4640      	mov	r0, r8
    5a04:	4798      	blx	r3
    5a06:	2102      	movs	r1, #2
    5a08:	23c8      	movs	r3, #200	; 0xc8
    5a0a:	e88d 000a 	stmia.w	sp, {r1, r3}
    5a0e:	464a      	mov	r2, r9
    5a10:	462b      	mov	r3, r5
    5a12:	4629      	mov	r1, r5
    5a14:	4810      	ldr	r0, [pc, #64]	; (5a58 <grid_port_receive_decode+0x4f4>)
    5a16:	4c17      	ldr	r4, [pc, #92]	; (5a74 <grid_port_receive_decode+0x510>)
    5a18:	47a0      	blx	r4
    5a1a:	e69a      	b.n	5752 <grid_port_receive_decode+0x1ee>
    5a1c:	2202      	movs	r2, #2
    5a1e:	23c8      	movs	r3, #200	; 0xc8
    5a20:	e88d 000c 	stmia.w	sp, {r2, r3}
    5a24:	2300      	movs	r3, #0
    5a26:	480c      	ldr	r0, [pc, #48]	; (5a58 <grid_port_receive_decode+0x4f4>)
    5a28:	4c12      	ldr	r4, [pc, #72]	; (5a74 <grid_port_receive_decode+0x510>)
    5a2a:	461a      	mov	r2, r3
    5a2c:	21ff      	movs	r1, #255	; 0xff
    5a2e:	47a0      	blx	r4
    5a30:	4811      	ldr	r0, [pc, #68]	; (5a78 <grid_port_receive_decode+0x514>)
    5a32:	4b12      	ldr	r3, [pc, #72]	; (5a7c <grid_port_receive_decode+0x518>)
    5a34:	4798      	blx	r3
    5a36:	e68c      	b.n	5752 <grid_port_receive_decode+0x1ee>
    5a38:	4b10      	ldr	r3, [pc, #64]	; (5a7c <grid_port_receive_decode+0x518>)
    5a3a:	4811      	ldr	r0, [pc, #68]	; (5a80 <grid_port_receive_decode+0x51c>)
    5a3c:	4798      	blx	r3
    5a3e:	23c8      	movs	r3, #200	; 0xc8
    5a40:	9301      	str	r3, [sp, #4]
    5a42:	f8cd 8000 	str.w	r8, [sp]
    5a46:	23ff      	movs	r3, #255	; 0xff
    5a48:	2200      	movs	r2, #0
    5a4a:	2114      	movs	r1, #20
    5a4c:	e7e2      	b.n	5a14 <grid_port_receive_decode+0x4b0>
    5a4e:	480d      	ldr	r0, [pc, #52]	; (5a84 <grid_port_receive_decode+0x520>)
    5a50:	e7ef      	b.n	5a32 <grid_port_receive_decode+0x4ce>
    5a52:	bf00      	nop
    5a54:	0000807d 	.word	0x0000807d
    5a58:	200032ec 	.word	0x200032ec
    5a5c:	00008159 	.word	0x00008159
    5a60:	000082a9 	.word	0x000082a9
    5a64:	00008129 	.word	0x00008129
    5a68:	00010012 	.word	0x00010012
    5a6c:	0000eb79 	.word	0x0000eb79
    5a70:	0000ff2e 	.word	0x0000ff2e
    5a74:	000080db 	.word	0x000080db
    5a78:	0001001a 	.word	0x0001001a
    5a7c:	0000ec61 	.word	0x0000ec61
    5a80:	00010050 	.word	0x00010050
    5a84:	00010083 	.word	0x00010083

00005a88 <grid_port_receive_complete_task>:
    5a88:	b537      	push	{r0, r1, r2, r4, r5, lr}
    5a8a:	7e03      	ldrb	r3, [r0, #24]
    5a8c:	2b01      	cmp	r3, #1
    5a8e:	4604      	mov	r4, r0
    5a90:	d110      	bne.n	5ab4 <grid_port_receive_complete_task+0x2c>
    5a92:	2500      	movs	r5, #0
    5a94:	7605      	strb	r5, [r0, #24]
    5a96:	4b12      	ldr	r3, [pc, #72]	; (5ae0 <grid_port_receive_complete_task+0x58>)
    5a98:	4798      	blx	r3
    5a9a:	f44f 73fa 	mov.w	r3, #500	; 0x1f4
    5a9e:	9301      	str	r3, [sp, #4]
    5aa0:	23ff      	movs	r3, #255	; 0xff
    5aa2:	9500      	str	r5, [sp, #0]
    5aa4:	461a      	mov	r2, r3
    5aa6:	4619      	mov	r1, r3
    5aa8:	480e      	ldr	r0, [pc, #56]	; (5ae4 <grid_port_receive_complete_task+0x5c>)
    5aaa:	4d0f      	ldr	r5, [pc, #60]	; (5ae8 <grid_port_receive_complete_task+0x60>)
    5aac:	47a8      	blx	r5
    5aae:	480f      	ldr	r0, [pc, #60]	; (5aec <grid_port_receive_complete_task+0x64>)
    5ab0:	4b0f      	ldr	r3, [pc, #60]	; (5af0 <grid_port_receive_complete_task+0x68>)
    5ab2:	4798      	blx	r3
    5ab4:	4b0f      	ldr	r3, [pc, #60]	; (5af4 <grid_port_receive_complete_task+0x6c>)
    5ab6:	4620      	mov	r0, r4
    5ab8:	4798      	blx	r3
    5aba:	6a23      	ldr	r3, [r4, #32]
    5abc:	b173      	cbz	r3, 5adc <grid_port_receive_complete_task+0x54>
    5abe:	6a62      	ldr	r2, [r4, #36]	; 0x24
    5ac0:	6aa1      	ldr	r1, [r4, #40]	; 0x28
    5ac2:	4b0d      	ldr	r3, [pc, #52]	; (5af8 <grid_port_receive_complete_task+0x70>)
    5ac4:	4291      	cmp	r1, r2
    5ac6:	bf34      	ite	cc
    5ac8:	3201      	addcc	r2, #1
    5aca:	f202 72d1 	addwcs	r2, r2, #2001	; 0x7d1
    5ace:	1a52      	subs	r2, r2, r1
    5ad0:	b292      	uxth	r2, r2
    5ad2:	b289      	uxth	r1, r1
    5ad4:	4620      	mov	r0, r4
    5ad6:	4798      	blx	r3
    5ad8:	2300      	movs	r3, #0
    5ada:	6223      	str	r3, [r4, #32]
    5adc:	b003      	add	sp, #12
    5ade:	bd30      	pop	{r4, r5, pc}
    5ae0:	0000530d 	.word	0x0000530d
    5ae4:	200032ec 	.word	0x200032ec
    5ae8:	000080db 	.word	0x000080db
    5aec:	000100af 	.word	0x000100af
    5af0:	0000ec61 	.word	0x0000ec61
    5af4:	0000539d 	.word	0x0000539d
    5af8:	00005565 	.word	0x00005565

00005afc <grid_buffer_read_size>:
    5afc:	b5f0      	push	{r4, r5, r6, r7, lr}
    5afe:	8943      	ldrh	r3, [r0, #10]
    5b00:	8985      	ldrh	r5, [r0, #12]
    5b02:	42ab      	cmp	r3, r5
    5b04:	d000      	beq.n	5b08 <grid_buffer_read_size+0xc>
    5b06:	e7fe      	b.n	5b06 <grid_buffer_read_size+0xa>
    5b08:	8902      	ldrh	r2, [r0, #8]
    5b0a:	429a      	cmp	r2, r3
    5b0c:	d000      	beq.n	5b10 <grid_buffer_read_size+0x14>
    5b0e:	e7fe      	b.n	5b0e <grid_buffer_read_size+0x12>
    5b10:	8a06      	ldrh	r6, [r0, #16]
    5b12:	42b5      	cmp	r5, r6
    5b14:	d016      	beq.n	5b44 <grid_buffer_read_size+0x48>
    5b16:	8804      	ldrh	r4, [r0, #0]
    5b18:	2200      	movs	r2, #0
    5b1a:	b293      	uxth	r3, r2
    5b1c:	42a3      	cmp	r3, r4
    5b1e:	d300      	bcc.n	5b22 <grid_buffer_read_size+0x26>
    5b20:	e7fe      	b.n	5b20 <grid_buffer_read_size+0x24>
    5b22:	18af      	adds	r7, r5, r2
    5b24:	fb97 f1f4 	sdiv	r1, r7, r4
    5b28:	fb04 7111 	mls	r1, r4, r1, r7
    5b2c:	b28f      	uxth	r7, r1
    5b2e:	42be      	cmp	r6, r7
    5b30:	d008      	beq.n	5b44 <grid_buffer_read_size+0x48>
    5b32:	6847      	ldr	r7, [r0, #4]
    5b34:	5c79      	ldrb	r1, [r7, r1]
    5b36:	290a      	cmp	r1, #10
    5b38:	f102 0201 	add.w	r2, r2, #1
    5b3c:	d1ed      	bne.n	5b1a <grid_buffer_read_size+0x1e>
    5b3e:	1c58      	adds	r0, r3, #1
    5b40:	b280      	uxth	r0, r0
    5b42:	bdf0      	pop	{r4, r5, r6, r7, pc}
    5b44:	2000      	movs	r0, #0
    5b46:	bdf0      	pop	{r4, r5, r6, r7, pc}

00005b48 <grid_buffer_read_init>:
    5b48:	b5f0      	push	{r4, r5, r6, r7, lr}
    5b4a:	8943      	ldrh	r3, [r0, #10]
    5b4c:	8985      	ldrh	r5, [r0, #12]
    5b4e:	42ab      	cmp	r3, r5
    5b50:	d000      	beq.n	5b54 <grid_buffer_read_init+0xc>
    5b52:	e7fe      	b.n	5b52 <grid_buffer_read_init+0xa>
    5b54:	8902      	ldrh	r2, [r0, #8]
    5b56:	429a      	cmp	r2, r3
    5b58:	d000      	beq.n	5b5c <grid_buffer_read_init+0x14>
    5b5a:	e7fe      	b.n	5b5a <grid_buffer_read_init+0x12>
    5b5c:	8a06      	ldrh	r6, [r0, #16]
    5b5e:	42b5      	cmp	r5, r6
    5b60:	d01e      	beq.n	5ba0 <grid_buffer_read_init+0x58>
    5b62:	8801      	ldrh	r1, [r0, #0]
    5b64:	2400      	movs	r4, #0
    5b66:	b2a2      	uxth	r2, r4
    5b68:	428a      	cmp	r2, r1
    5b6a:	d300      	bcc.n	5b6e <grid_buffer_read_init+0x26>
    5b6c:	e7fe      	b.n	5b6c <grid_buffer_read_init+0x24>
    5b6e:	192f      	adds	r7, r5, r4
    5b70:	fb97 f3f1 	sdiv	r3, r7, r1
    5b74:	fb01 7313 	mls	r3, r1, r3, r7
    5b78:	b29f      	uxth	r7, r3
    5b7a:	42be      	cmp	r6, r7
    5b7c:	d010      	beq.n	5ba0 <grid_buffer_read_init+0x58>
    5b7e:	6847      	ldr	r7, [r0, #4]
    5b80:	5cff      	ldrb	r7, [r7, r3]
    5b82:	2f0a      	cmp	r7, #10
    5b84:	f104 0401 	add.w	r4, r4, #1
    5b88:	d1ed      	bne.n	5b66 <grid_buffer_read_init+0x1e>
    5b8a:	3301      	adds	r3, #1
    5b8c:	fb93 f4f1 	sdiv	r4, r3, r1
    5b90:	fb01 3314 	mls	r3, r1, r4, r3
    5b94:	8143      	strh	r3, [r0, #10]
    5b96:	1c53      	adds	r3, r2, #1
    5b98:	b29b      	uxth	r3, r3
    5b9a:	81c3      	strh	r3, [r0, #14]
    5b9c:	4618      	mov	r0, r3
    5b9e:	bdf0      	pop	{r4, r5, r6, r7, pc}
    5ba0:	2300      	movs	r3, #0
    5ba2:	e7fb      	b.n	5b9c <grid_buffer_read_init+0x54>

00005ba4 <grid_buffer_read_character>:
    5ba4:	8983      	ldrh	r3, [r0, #12]
    5ba6:	8941      	ldrh	r1, [r0, #10]
    5ba8:	4299      	cmp	r1, r3
    5baa:	b510      	push	{r4, lr}
    5bac:	4602      	mov	r2, r0
    5bae:	d100      	bne.n	5bb2 <grid_buffer_read_character+0xe>
    5bb0:	e7fe      	b.n	5bb0 <grid_buffer_read_character+0xc>
    5bb2:	6841      	ldr	r1, [r0, #4]
    5bb4:	8814      	ldrh	r4, [r2, #0]
    5bb6:	5cc8      	ldrb	r0, [r1, r3]
    5bb8:	3301      	adds	r3, #1
    5bba:	b29b      	uxth	r3, r3
    5bbc:	fbb3 f1f4 	udiv	r1, r3, r4
    5bc0:	fb04 3311 	mls	r3, r4, r1, r3
    5bc4:	8193      	strh	r3, [r2, #12]
    5bc6:	bd10      	pop	{r4, pc}

00005bc8 <grid_buffer_read_acknowledge>:
    5bc8:	8982      	ldrh	r2, [r0, #12]
    5bca:	8943      	ldrh	r3, [r0, #10]
    5bcc:	4293      	cmp	r3, r2
    5bce:	d000      	beq.n	5bd2 <grid_buffer_read_acknowledge+0xa>
    5bd0:	e7fe      	b.n	5bd0 <grid_buffer_read_acknowledge+0x8>
    5bd2:	8103      	strh	r3, [r0, #8]
    5bd4:	2001      	movs	r0, #1
    5bd6:	4770      	bx	lr

00005bd8 <grid_port_init>:
    5bd8:	e92d 43f0 	stmdb	sp!, {r4, r5, r6, r7, r8, r9, lr}
    5bdc:	b087      	sub	sp, #28
    5bde:	4604      	mov	r4, r0
    5be0:	4617      	mov	r7, r2
    5be2:	4d4c      	ldr	r5, [pc, #304]	; (5d14 <grid_port_init+0x13c>)
    5be4:	f89d 8038 	ldrb.w	r8, [sp, #56]	; 0x38
    5be8:	f600 70cc 	addw	r0, r0, #4044	; 0xfcc
    5bec:	461e      	mov	r6, r3
    5bee:	47a8      	blx	r5
    5bf0:	4639      	mov	r1, r7
    5bf2:	f604 70e4 	addw	r0, r4, #4068	; 0xfe4
    5bf6:	47a8      	blx	r5
    5bf8:	2200      	movs	r2, #0
    5bfa:	f89d 3040 	ldrb.w	r3, [sp, #64]	; 0x40
    5bfe:	6022      	str	r2, [r4, #0]
    5c00:	72a3      	strb	r3, [r4, #10]
    5c02:	f89d 303c 	ldrb.w	r3, [sp, #60]	; 0x3c
    5c06:	7263      	strb	r3, [r4, #9]
    5c08:	4611      	mov	r1, r2
    5c0a:	6066      	str	r6, [r4, #4]
    5c0c:	4613      	mov	r3, r2
    5c0e:	f884 8008 	strb.w	r8, [r4, #8]
    5c12:	81a2      	strh	r2, [r4, #12]
    5c14:	6222      	str	r2, [r4, #32]
    5c16:	18e2      	adds	r2, r4, r3
    5c18:	3301      	adds	r3, #1
    5c1a:	f5b3 6ffa 	cmp.w	r3, #2000	; 0x7d0
    5c1e:	f882 102c 	strb.w	r1, [r2, #44]	; 0x2c
    5c22:	d1f8      	bne.n	5c16 <grid_port_init+0x3e>
    5c24:	2300      	movs	r3, #0
    5c26:	461d      	mov	r5, r3
    5c28:	18e2      	adds	r2, r4, r3
    5c2a:	3301      	adds	r3, #1
    5c2c:	f5b3 6ffa 	cmp.w	r3, #2000	; 0x7d0
    5c30:	f882 57fc 	strb.w	r5, [r2, #2044]	; 0x7fc
    5c34:	d1f8      	bne.n	5c28 <grid_port_init+0x50>
    5c36:	f241 0001 	movw	r0, #4097	; 0x1001
    5c3a:	f504 5180 	add.w	r1, r4, #4096	; 0x1000
    5c3e:	f241 031b 	movw	r3, #4123	; 0x101b
    5c42:	2201      	movs	r2, #1
    5c44:	26ff      	movs	r6, #255	; 0xff
    5c46:	700d      	strb	r5, [r1, #0]
    5c48:	f8c4 5ffc 	str.w	r5, [r4, #4092]	; 0xffc
    5c4c:	54e2      	strb	r2, [r4, r3]
    5c4e:	5426      	strb	r6, [r4, r0]
    5c50:	f241 0002 	movw	r0, #4098	; 0x1002
    5c54:	4590      	cmp	r8, r2
    5c56:	5426      	strb	r6, [r4, r0]
    5c58:	f241 0018 	movw	r0, #4120	; 0x1018
    5c5c:	5425      	strb	r5, [r4, r0]
    5c5e:	d156      	bne.n	5d0e <grid_port_init+0x136>
    5c60:	54e5      	strb	r5, [r4, r3]
    5c62:	700d      	strb	r5, [r1, #0]
    5c64:	4b2c      	ldr	r3, [pc, #176]	; (5d18 <grid_port_init+0x140>)
    5c66:	f894 9009 	ldrb.w	r9, [r4, #9]
    5c6a:	460f      	mov	r7, r1
    5c6c:	4798      	blx	r3
    5c6e:	2304      	movs	r3, #4
    5c70:	3703      	adds	r7, #3
    5c72:	fa5f f989 	uxtb.w	r9, r9
    5c76:	9305      	str	r3, [sp, #20]
    5c78:	2307      	movs	r3, #7
    5c7a:	4642      	mov	r2, r8
    5c7c:	4927      	ldr	r1, [pc, #156]	; (5d1c <grid_port_init+0x144>)
    5c7e:	9002      	str	r0, [sp, #8]
    5c80:	f8cd 9004 	str.w	r9, [sp, #4]
    5c84:	9300      	str	r3, [sp, #0]
    5c86:	f8df 90a4 	ldr.w	r9, [pc, #164]	; 5d2c <grid_port_init+0x154>
    5c8a:	9604      	str	r6, [sp, #16]
    5c8c:	230e      	movs	r3, #14
    5c8e:	9603      	str	r6, [sp, #12]
    5c90:	4638      	mov	r0, r7
    5c92:	47c8      	blx	r9
    5c94:	4b22      	ldr	r3, [pc, #136]	; (5d20 <grid_port_init+0x148>)
    5c96:	4638      	mov	r0, r7
    5c98:	4798      	blx	r3
    5c9a:	f241 0317 	movw	r3, #4119	; 0x1017
    5c9e:	b2c0      	uxtb	r0, r0
    5ca0:	54e0      	strb	r0, [r4, r3]
    5ca2:	4638      	mov	r0, r7
    5ca4:	f814 9003 	ldrb.w	r9, [r4, r3]
    5ca8:	5ce1      	ldrb	r1, [r4, r3]
    5caa:	4b1e      	ldr	r3, [pc, #120]	; (5d24 <grid_port_init+0x14c>)
    5cac:	4798      	blx	r3
    5cae:	fa5f f989 	uxtb.w	r9, r9
    5cb2:	4602      	mov	r2, r0
    5cb4:	4b1c      	ldr	r3, [pc, #112]	; (5d28 <grid_port_init+0x150>)
    5cb6:	4649      	mov	r1, r9
    5cb8:	4638      	mov	r0, r7
    5cba:	4798      	blx	r3
    5cbc:	7a63      	ldrb	r3, [r4, #9]
    5cbe:	2b11      	cmp	r3, #17
    5cc0:	d109      	bne.n	5cd6 <grid_port_init+0xfe>
    5cc2:	f241 0319 	movw	r3, #4121	; 0x1019
    5cc6:	54e5      	strb	r5, [r4, r3]
    5cc8:	f241 031a 	movw	r3, #4122	; 0x101a
    5ccc:	f804 8003 	strb.w	r8, [r4, r3]
    5cd0:	b007      	add	sp, #28
    5cd2:	e8bd 83f0 	ldmia.w	sp!, {r4, r5, r6, r7, r8, r9, pc}
    5cd6:	7a63      	ldrb	r3, [r4, #9]
    5cd8:	2b12      	cmp	r3, #18
    5cda:	d107      	bne.n	5cec <grid_port_init+0x114>
    5cdc:	f241 0319 	movw	r3, #4121	; 0x1019
    5ce0:	f804 8003 	strb.w	r8, [r4, r3]
    5ce4:	f241 031a 	movw	r3, #4122	; 0x101a
    5ce8:	54e5      	strb	r5, [r4, r3]
    5cea:	e7f1      	b.n	5cd0 <grid_port_init+0xf8>
    5cec:	7a63      	ldrb	r3, [r4, #9]
    5cee:	2b13      	cmp	r3, #19
    5cf0:	d106      	bne.n	5d00 <grid_port_init+0x128>
    5cf2:	f241 0319 	movw	r3, #4121	; 0x1019
    5cf6:	54e5      	strb	r5, [r4, r3]
    5cf8:	f241 031a 	movw	r3, #4122	; 0x101a
    5cfc:	54e6      	strb	r6, [r4, r3]
    5cfe:	e7e7      	b.n	5cd0 <grid_port_init+0xf8>
    5d00:	7a63      	ldrb	r3, [r4, #9]
    5d02:	2b14      	cmp	r3, #20
    5d04:	d1e4      	bne.n	5cd0 <grid_port_init+0xf8>
    5d06:	f241 0319 	movw	r3, #4121	; 0x1019
    5d0a:	54e6      	strb	r6, [r4, r3]
    5d0c:	e7ea      	b.n	5ce4 <grid_port_init+0x10c>
    5d0e:	54e2      	strb	r2, [r4, r3]
    5d10:	e7de      	b.n	5cd0 <grid_port_init+0xf8>
    5d12:	bf00      	nop
    5d14:	000054b5 	.word	0x000054b5
    5d18:	0000818d 	.word	0x0000818d
    5d1c:	000100dc 	.word	0x000100dc
    5d20:	0000ee55 	.word	0x0000ee55
    5d24:	00008271 	.word	0x00008271
    5d28:	000082a9 	.word	0x000082a9
    5d2c:	0000edfd 	.word	0x0000edfd

00005d30 <grid_port_init_all>:
    5d30:	e92d 47ff 	stmdb	sp!, {r0, r1, r2, r3, r4, r5, r6, r7, r8, r9, sl, lr}
    5d34:	2401      	movs	r4, #1
    5d36:	2600      	movs	r6, #0
    5d38:	f44f 627a 	mov.w	r2, #4000	; 0xfa0
    5d3c:	2311      	movs	r3, #17
    5d3e:	4d26      	ldr	r5, [pc, #152]	; (5dd8 <grid_port_init_all+0xa8>)
    5d40:	9301      	str	r3, [sp, #4]
    5d42:	4611      	mov	r1, r2
    5d44:	9602      	str	r6, [sp, #8]
    5d46:	9400      	str	r4, [sp, #0]
    5d48:	4b24      	ldr	r3, [pc, #144]	; (5ddc <grid_port_init_all+0xac>)
    5d4a:	4825      	ldr	r0, [pc, #148]	; (5de0 <grid_port_init_all+0xb0>)
    5d4c:	f8df 80b0 	ldr.w	r8, [pc, #176]	; 5e00 <grid_port_init_all+0xd0>
    5d50:	47a8      	blx	r5
    5d52:	f44f 627a 	mov.w	r2, #4000	; 0xfa0
    5d56:	2312      	movs	r3, #18
    5d58:	9301      	str	r3, [sp, #4]
    5d5a:	4611      	mov	r1, r2
    5d5c:	9402      	str	r4, [sp, #8]
    5d5e:	9400      	str	r4, [sp, #0]
    5d60:	4b20      	ldr	r3, [pc, #128]	; (5de4 <grid_port_init_all+0xb4>)
    5d62:	4821      	ldr	r0, [pc, #132]	; (5de8 <grid_port_init_all+0xb8>)
    5d64:	47a8      	blx	r5
    5d66:	f04f 0902 	mov.w	r9, #2
    5d6a:	f44f 627a 	mov.w	r2, #4000	; 0xfa0
    5d6e:	2313      	movs	r3, #19
    5d70:	9301      	str	r3, [sp, #4]
    5d72:	4611      	mov	r1, r2
    5d74:	f8cd 9008 	str.w	r9, [sp, #8]
    5d78:	9400      	str	r4, [sp, #0]
    5d7a:	4b1c      	ldr	r3, [pc, #112]	; (5dec <grid_port_init_all+0xbc>)
    5d7c:	481c      	ldr	r0, [pc, #112]	; (5df0 <grid_port_init_all+0xc0>)
    5d7e:	47a8      	blx	r5
    5d80:	2703      	movs	r7, #3
    5d82:	f44f 627a 	mov.w	r2, #4000	; 0xfa0
    5d86:	2314      	movs	r3, #20
    5d88:	9702      	str	r7, [sp, #8]
    5d8a:	9301      	str	r3, [sp, #4]
    5d8c:	4611      	mov	r1, r2
    5d8e:	9400      	str	r4, [sp, #0]
    5d90:	4b18      	ldr	r3, [pc, #96]	; (5df4 <grid_port_init_all+0xc4>)
    5d92:	4819      	ldr	r0, [pc, #100]	; (5df8 <grid_port_init_all+0xc8>)
    5d94:	47a8      	blx	r5
    5d96:	f04f 0aff 	mov.w	sl, #255	; 0xff
    5d9a:	f44f 627a 	mov.w	r2, #4000	; 0xfa0
    5d9e:	9700      	str	r7, [sp, #0]
    5da0:	4633      	mov	r3, r6
    5da2:	4611      	mov	r1, r2
    5da4:	4640      	mov	r0, r8
    5da6:	4f15      	ldr	r7, [pc, #84]	; (5dfc <grid_port_init_all+0xcc>)
    5da8:	f8cd a008 	str.w	sl, [sp, #8]
    5dac:	9601      	str	r6, [sp, #4]
    5dae:	47a8      	blx	r5
    5db0:	f44f 627a 	mov.w	r2, #4000	; 0xfa0
    5db4:	4633      	mov	r3, r6
    5db6:	f8cd a008 	str.w	sl, [sp, #8]
    5dba:	9601      	str	r6, [sp, #4]
    5dbc:	f8cd 9000 	str.w	r9, [sp]
    5dc0:	4611      	mov	r1, r2
    5dc2:	4638      	mov	r0, r7
    5dc4:	47a8      	blx	r5
    5dc6:	f241 031b 	movw	r3, #4123	; 0x101b
    5dca:	f808 4003 	strb.w	r4, [r8, r3]
    5dce:	54fc      	strb	r4, [r7, r3]
    5dd0:	b004      	add	sp, #16
    5dd2:	e8bd 87f0 	ldmia.w	sp!, {r4, r5, r6, r7, r8, r9, sl, pc}
    5dd6:	bf00      	nop
    5dd8:	00005bd9 	.word	0x00005bd9
    5ddc:	200010c4 	.word	0x200010c4
    5de0:	20001298 	.word	0x20001298
    5de4:	20001070 	.word	0x20001070
    5de8:	20006d38 	.word	0x20006d38
    5dec:	200011c8 	.word	0x200011c8
    5df0:	20004bfc 	.word	0x20004bfc
    5df4:	20001178 	.word	0x20001178
    5df8:	20003bdc 	.word	0x20003bdc
    5dfc:	20005c1c 	.word	0x20005c1c
    5e00:	200022c4 	.word	0x200022c4

00005e04 <grid_port_process_inbound>:
    5e04:	e92d 4ff0 	stmdb	sp!, {r4, r5, r6, r7, r8, r9, sl, fp, lr}
    5e08:	b093      	sub	sp, #76	; 0x4c
    5e0a:	f600 78e4 	addw	r8, r0, #4068	; 0xfe4
    5e0e:	af02      	add	r7, sp, #8
    5e10:	4606      	mov	r6, r0
    5e12:	4b57      	ldr	r3, [pc, #348]	; (5f70 <grid_port_process_inbound+0x16c>)
    5e14:	60f9      	str	r1, [r7, #12]
    5e16:	4640      	mov	r0, r8
    5e18:	4798      	blx	r3
    5e1a:	4604      	mov	r4, r0
    5e1c:	2800      	cmp	r0, #0
    5e1e:	f000 80a5 	beq.w	5f6c <grid_port_process_inbound+0x168>
    5e22:	4b54      	ldr	r3, [pc, #336]	; (5f74 <grid_port_process_inbound+0x170>)
    5e24:	613b      	str	r3, [r7, #16]
    5e26:	4b54      	ldr	r3, [pc, #336]	; (5f78 <grid_port_process_inbound+0x174>)
    5e28:	617b      	str	r3, [r7, #20]
    5e2a:	4b54      	ldr	r3, [pc, #336]	; (5f7c <grid_port_process_inbound+0x178>)
    5e2c:	61bb      	str	r3, [r7, #24]
    5e2e:	4b54      	ldr	r3, [pc, #336]	; (5f80 <grid_port_process_inbound+0x17c>)
    5e30:	61fb      	str	r3, [r7, #28]
    5e32:	4b54      	ldr	r3, [pc, #336]	; (5f84 <grid_port_process_inbound+0x180>)
    5e34:	623b      	str	r3, [r7, #32]
    5e36:	4b54      	ldr	r3, [pc, #336]	; (5f88 <grid_port_process_inbound+0x184>)
    5e38:	627b      	str	r3, [r7, #36]	; 0x24
    5e3a:	2300      	movs	r3, #0
    5e3c:	f8c7 d008 	str.w	sp, [r7, #8]
    5e40:	461d      	mov	r5, r3
    5e42:	f107 0110 	add.w	r1, r7, #16
    5e46:	f241 001b 	movw	r0, #4123	; 0x101b
    5e4a:	f851 2023 	ldr.w	r2, [r1, r3, lsl #2]
    5e4e:	f812 e000 	ldrb.w	lr, [r2, r0]
    5e52:	f1be 0f00 	cmp.w	lr, #0
    5e56:	d007      	beq.n	5e68 <grid_port_process_inbound+0x64>
    5e58:	f107 0e40 	add.w	lr, r7, #64	; 0x40
    5e5c:	eb0e 0e85 	add.w	lr, lr, r5, lsl #2
    5e60:	3501      	adds	r5, #1
    5e62:	f84e 2c18 	str.w	r2, [lr, #-24]
    5e66:	b2ed      	uxtb	r5, r5
    5e68:	3301      	adds	r3, #1
    5e6a:	2b06      	cmp	r3, #6
    5e6c:	d1ed      	bne.n	5e4a <grid_port_process_inbound+0x46>
    5e6e:	f8df a134 	ldr.w	sl, [pc, #308]	; 5fa4 <grid_port_process_inbound+0x1a0>
    5e72:	2100      	movs	r1, #0
    5e74:	f107 0928 	add.w	r9, r7, #40	; 0x28
    5e78:	b2cb      	uxtb	r3, r1
    5e7a:	429d      	cmp	r5, r3
    5e7c:	d821      	bhi.n	5ec2 <grid_port_process_inbound+0xbe>
    5e7e:	4640      	mov	r0, r8
    5e80:	4b42      	ldr	r3, [pc, #264]	; (5f8c <grid_port_process_inbound+0x188>)
    5e82:	4798      	blx	r3
    5e84:	4284      	cmp	r4, r0
    5e86:	d13a      	bne.n	5efe <grid_port_process_inbound+0xfa>
    5e88:	f8df b11c 	ldr.w	fp, [pc, #284]	; 5fa8 <grid_port_process_inbound+0x1a4>
    5e8c:	f04f 0900 	mov.w	r9, #0
    5e90:	f107 0a28 	add.w	sl, r7, #40	; 0x28
    5e94:	fa5f f389 	uxtb.w	r3, r9
    5e98:	429d      	cmp	r5, r3
    5e9a:	d831      	bhi.n	5f00 <grid_port_process_inbound+0xfc>
    5e9c:	f04f 0a00 	mov.w	sl, #0
    5ea0:	fa1f f38a 	uxth.w	r3, sl
    5ea4:	429c      	cmp	r4, r3
    5ea6:	4640      	mov	r0, r8
    5ea8:	d837      	bhi.n	5f1a <grid_port_process_inbound+0x116>
    5eaa:	4b39      	ldr	r3, [pc, #228]	; (5f90 <grid_port_process_inbound+0x18c>)
    5eac:	f8df 80fc 	ldr.w	r8, [pc, #252]	; 5fac <grid_port_process_inbound+0x1a8>
    5eb0:	4798      	blx	r3
    5eb2:	f107 0428 	add.w	r4, r7, #40	; 0x28
    5eb6:	2100      	movs	r1, #0
    5eb8:	b2cb      	uxtb	r3, r1
    5eba:	429d      	cmp	r5, r3
    5ebc:	d84b      	bhi.n	5f56 <grid_port_process_inbound+0x152>
    5ebe:	2001      	movs	r0, #1
    5ec0:	e015      	b.n	5eee <grid_port_process_inbound+0xea>
    5ec2:	f859 0021 	ldr.w	r0, [r9, r1, lsl #2]
    5ec6:	4286      	cmp	r6, r0
    5ec8:	d101      	bne.n	5ece <grid_port_process_inbound+0xca>
    5eca:	68fb      	ldr	r3, [r7, #12]
    5ecc:	b1ab      	cbz	r3, 5efa <grid_port_process_inbound+0xf6>
    5ece:	f600 70cc 	addw	r0, r0, #4044	; 0xfcc
    5ed2:	47d0      	blx	sl
    5ed4:	4284      	cmp	r4, r0
    5ed6:	d910      	bls.n	5efa <grid_port_process_inbound+0xf6>
    5ed8:	2202      	movs	r2, #2
    5eda:	23c8      	movs	r3, #200	; 0xc8
    5edc:	e88d 000c 	stmia.w	sp, {r2, r3}
    5ee0:	2264      	movs	r2, #100	; 0x64
    5ee2:	482c      	ldr	r0, [pc, #176]	; (5f94 <grid_port_process_inbound+0x190>)
    5ee4:	4c2c      	ldr	r4, [pc, #176]	; (5f98 <grid_port_process_inbound+0x194>)
    5ee6:	2300      	movs	r3, #0
    5ee8:	4611      	mov	r1, r2
    5eea:	47a0      	blx	r4
    5eec:	2000      	movs	r0, #0
    5eee:	f8d7 d008 	ldr.w	sp, [r7, #8]
    5ef2:	3744      	adds	r7, #68	; 0x44
    5ef4:	46bd      	mov	sp, r7
    5ef6:	e8bd 8ff0 	ldmia.w	sp!, {r4, r5, r6, r7, r8, r9, sl, fp, pc}
    5efa:	3101      	adds	r1, #1
    5efc:	e7bc      	b.n	5e78 <grid_port_process_inbound+0x74>
    5efe:	e7fe      	b.n	5efe <grid_port_process_inbound+0xfa>
    5f00:	f85a 0029 	ldr.w	r0, [sl, r9, lsl #2]
    5f04:	4286      	cmp	r6, r0
    5f06:	d101      	bne.n	5f0c <grid_port_process_inbound+0x108>
    5f08:	68fb      	ldr	r3, [r7, #12]
    5f0a:	b11b      	cbz	r3, 5f14 <grid_port_process_inbound+0x110>
    5f0c:	4621      	mov	r1, r4
    5f0e:	f600 70cc 	addw	r0, r0, #4044	; 0xfcc
    5f12:	47d8      	blx	fp
    5f14:	f109 0901 	add.w	r9, r9, #1
    5f18:	e7bc      	b.n	5e94 <grid_port_process_inbound+0x90>
    5f1a:	4b20      	ldr	r3, [pc, #128]	; (5f9c <grid_port_process_inbound+0x198>)
    5f1c:	4798      	blx	r3
    5f1e:	f04f 0900 	mov.w	r9, #0
    5f22:	4683      	mov	fp, r0
    5f24:	f107 0228 	add.w	r2, r7, #40	; 0x28
    5f28:	fa5f f189 	uxtb.w	r1, r9
    5f2c:	428d      	cmp	r5, r1
    5f2e:	d802      	bhi.n	5f36 <grid_port_process_inbound+0x132>
    5f30:	f10a 0a01 	add.w	sl, sl, #1
    5f34:	e7b4      	b.n	5ea0 <grid_port_process_inbound+0x9c>
    5f36:	f852 0029 	ldr.w	r0, [r2, r9, lsl #2]
    5f3a:	4286      	cmp	r6, r0
    5f3c:	d101      	bne.n	5f42 <grid_port_process_inbound+0x13e>
    5f3e:	68fb      	ldr	r3, [r7, #12]
    5f40:	b133      	cbz	r3, 5f50 <grid_port_process_inbound+0x14c>
    5f42:	4659      	mov	r1, fp
    5f44:	f600 70cc 	addw	r0, r0, #4044	; 0xfcc
    5f48:	4b15      	ldr	r3, [pc, #84]	; (5fa0 <grid_port_process_inbound+0x19c>)
    5f4a:	607a      	str	r2, [r7, #4]
    5f4c:	4798      	blx	r3
    5f4e:	687a      	ldr	r2, [r7, #4]
    5f50:	f109 0901 	add.w	r9, r9, #1
    5f54:	e7e8      	b.n	5f28 <grid_port_process_inbound+0x124>
    5f56:	f854 0021 	ldr.w	r0, [r4, r1, lsl #2]
    5f5a:	4286      	cmp	r6, r0
    5f5c:	d101      	bne.n	5f62 <grid_port_process_inbound+0x15e>
    5f5e:	68fb      	ldr	r3, [r7, #12]
    5f60:	b113      	cbz	r3, 5f68 <grid_port_process_inbound+0x164>
    5f62:	f600 70cc 	addw	r0, r0, #4044	; 0xfcc
    5f66:	47c0      	blx	r8
    5f68:	3101      	adds	r1, #1
    5f6a:	e7a5      	b.n	5eb8 <grid_port_process_inbound+0xb4>
    5f6c:	e7c1      	b.n	5ef2 <grid_port_process_inbound+0xee>
    5f6e:	bf00      	nop
    5f70:	00005afd 	.word	0x00005afd
    5f74:	20001298 	.word	0x20001298
    5f78:	20006d38 	.word	0x20006d38
    5f7c:	20004bfc 	.word	0x20004bfc
    5f80:	20003bdc 	.word	0x20003bdc
    5f84:	200022c4 	.word	0x200022c4
    5f88:	20005c1c 	.word	0x20005c1c
    5f8c:	00005b49 	.word	0x00005b49
    5f90:	00005bc9 	.word	0x00005bc9
    5f94:	200032ec 	.word	0x200032ec
    5f98:	000080db 	.word	0x000080db
    5f9c:	00005ba5 	.word	0x00005ba5
    5fa0:	00005539 	.word	0x00005539
    5fa4:	000054f9 	.word	0x000054f9
    5fa8:	0000550d 	.word	0x0000550d
    5fac:	00005555 	.word	0x00005555

00005fb0 <grid_port_process_outbound_usb>:
    5fb0:	e92d 4ff0 	stmdb	sp!, {r4, r5, r6, r7, r8, r9, sl, fp, lr}
    5fb4:	f600 75cc 	addw	r5, r0, #4044	; 0xfcc
    5fb8:	b0cf      	sub	sp, #316	; 0x13c
    5fba:	4681      	mov	r9, r0
    5fbc:	4b56      	ldr	r3, [pc, #344]	; (6118 <grid_port_process_outbound_usb+0x168>)
    5fbe:	4628      	mov	r0, r5
    5fc0:	4798      	blx	r3
    5fc2:	4606      	mov	r6, r0
    5fc4:	b910      	cbnz	r0, 5fcc <grid_port_process_outbound_usb+0x1c>
    5fc6:	b04f      	add	sp, #316	; 0x13c
    5fc8:	e8bd 8ff0 	ldmia.w	sp!, {r4, r5, r6, r7, r8, r9, sl, fp, pc}
    5fcc:	f109 082c 	add.w	r8, r9, #44	; 0x2c
    5fd0:	f209 72fc 	addw	r2, r9, #2044	; 0x7fc
    5fd4:	4643      	mov	r3, r8
    5fd6:	2100      	movs	r1, #0
    5fd8:	f803 1b01 	strb.w	r1, [r3], #1
    5fdc:	4293      	cmp	r3, r2
    5fde:	d1fb      	bne.n	5fd8 <grid_port_process_outbound_usb+0x28>
    5fe0:	ac03      	add	r4, sp, #12
    5fe2:	f44f 7296 	mov.w	r2, #300	; 0x12c
    5fe6:	2100      	movs	r1, #0
    5fe8:	4b4c      	ldr	r3, [pc, #304]	; (611c <grid_port_process_outbound_usb+0x16c>)
    5fea:	f8df a150 	ldr.w	sl, [pc, #336]	; 613c <grid_port_process_outbound_usb+0x18c>
    5fee:	4620      	mov	r0, r4
    5ff0:	4798      	blx	r3
    5ff2:	4628      	mov	r0, r5
    5ff4:	4b4a      	ldr	r3, [pc, #296]	; (6120 <grid_port_process_outbound_usb+0x170>)
    5ff6:	4798      	blx	r3
    5ff8:	2700      	movs	r7, #0
    5ffa:	b2bb      	uxth	r3, r7
    5ffc:	429e      	cmp	r6, r3
    5ffe:	4628      	mov	r0, r5
    6000:	d82b      	bhi.n	605a <grid_port_process_outbound_usb+0xaa>
    6002:	4b48      	ldr	r3, [pc, #288]	; (6124 <grid_port_process_outbound_usb+0x174>)
    6004:	4f48      	ldr	r7, [pc, #288]	; (6128 <grid_port_process_outbound_usb+0x178>)
    6006:	4798      	blx	r3
    6008:	2500      	movs	r5, #0
    600a:	f10d 030a 	add.w	r3, sp, #10
    600e:	2202      	movs	r2, #2
    6010:	2106      	movs	r1, #6
    6012:	4620      	mov	r0, r4
    6014:	f88d 500a 	strb.w	r5, [sp, #10]
    6018:	47b8      	blx	r7
    601a:	387f      	subs	r0, #127	; 0x7f
    601c:	b243      	sxtb	r3, r0
    601e:	9300      	str	r3, [sp, #0]
    6020:	4620      	mov	r0, r4
    6022:	f10d 030a 	add.w	r3, sp, #10
    6026:	2202      	movs	r2, #2
    6028:	2108      	movs	r1, #8
    602a:	47b8      	blx	r7
    602c:	387f      	subs	r0, #127	; 0x7f
    602e:	b243      	sxtb	r3, r0
    6030:	9301      	str	r3, [sp, #4]
    6032:	f88d 500b 	strb.w	r5, [sp, #11]
    6036:	462c      	mov	r4, r5
    6038:	f10d 080c 	add.w	r8, sp, #12
    603c:	f815 1008 	ldrb.w	r1, [r5, r8]
    6040:	2902      	cmp	r1, #2
    6042:	d110      	bne.n	6066 <grid_port_process_outbound_usb+0xb6>
    6044:	b2ec      	uxtb	r4, r5
    6046:	3501      	adds	r5, #1
    6048:	b2ab      	uxth	r3, r5
    604a:	42b3      	cmp	r3, r6
    604c:	d3f4      	bcc.n	6038 <grid_port_process_outbound_usb+0x88>
    604e:	4631      	mov	r1, r6
    6050:	f109 002c 	add.w	r0, r9, #44	; 0x2c
    6054:	4b35      	ldr	r3, [pc, #212]	; (612c <grid_port_process_outbound_usb+0x17c>)
    6056:	4798      	blx	r3
    6058:	e7b5      	b.n	5fc6 <grid_port_process_outbound_usb+0x16>
    605a:	47d0      	blx	sl
    605c:	55e0      	strb	r0, [r4, r7]
    605e:	f808 0b01 	strb.w	r0, [r8], #1
    6062:	3701      	adds	r7, #1
    6064:	e7c9      	b.n	5ffa <grid_port_process_outbound_usb+0x4a>
    6066:	2903      	cmp	r1, #3
    6068:	d1ed      	bne.n	6046 <grid_port_process_outbound_usb+0x96>
    606a:	b90c      	cbnz	r4, 6070 <grid_port_process_outbound_usb+0xc0>
    606c:	2400      	movs	r4, #0
    606e:	e7ea      	b.n	6046 <grid_port_process_outbound_usb+0x96>
    6070:	1c60      	adds	r0, r4, #1
    6072:	f10d 020b 	add.w	r2, sp, #11
    6076:	4b2e      	ldr	r3, [pc, #184]	; (6130 <grid_port_process_outbound_usb+0x180>)
    6078:	4440      	add	r0, r8
    607a:	4798      	blx	r3
    607c:	fa5f fa80 	uxtb.w	sl, r0
    6080:	1d20      	adds	r0, r4, #4
    6082:	f10d 020b 	add.w	r2, sp, #11
    6086:	2101      	movs	r1, #1
    6088:	4440      	add	r0, r8
    608a:	4b29      	ldr	r3, [pc, #164]	; (6130 <grid_port_process_outbound_usb+0x180>)
    608c:	4798      	blx	r3
    608e:	f1ba 0f00 	cmp.w	sl, #0
    6092:	d1eb      	bne.n	606c <grid_port_process_outbound_usb+0xbc>
    6094:	b2c0      	uxtb	r0, r0
    6096:	280f      	cmp	r0, #15
    6098:	d1e8      	bne.n	606c <grid_port_process_outbound_usb+0xbc>
    609a:	4444      	add	r4, r8
    609c:	f10d 030a 	add.w	r3, sp, #10
    60a0:	2202      	movs	r2, #2
    60a2:	2105      	movs	r1, #5
    60a4:	4620      	mov	r0, r4
    60a6:	47b8      	blx	r7
    60a8:	f10d 030a 	add.w	r3, sp, #10
    60ac:	2202      	movs	r2, #2
    60ae:	2107      	movs	r1, #7
    60b0:	4620      	mov	r0, r4
    60b2:	47b8      	blx	r7
    60b4:	f10d 030a 	add.w	r3, sp, #10
    60b8:	fa5f fb80 	uxtb.w	fp, r0
    60bc:	2202      	movs	r2, #2
    60be:	2109      	movs	r1, #9
    60c0:	4620      	mov	r0, r4
    60c2:	47b8      	blx	r7
    60c4:	f10d 030a 	add.w	r3, sp, #10
    60c8:	4680      	mov	r8, r0
    60ca:	2202      	movs	r2, #2
    60cc:	210b      	movs	r1, #11
    60ce:	4620      	mov	r0, r4
    60d0:	47b8      	blx	r7
    60d2:	f8bd 4000 	ldrh.w	r4, [sp]
    60d6:	4b17      	ldr	r3, [pc, #92]	; (6134 <grid_port_process_outbound_usb+0x184>)
    60d8:	fa5f f288 	uxtb.w	r2, r8
    60dc:	2110      	movs	r1, #16
    60de:	32e0      	adds	r2, #224	; 0xe0
    60e0:	fb11 2204 	smlabb	r2, r1, r4, r2
    60e4:	2160      	movs	r1, #96	; 0x60
    60e6:	fb92 f8f1 	sdiv	r8, r2, r1
    60ea:	fb01 2218 	mls	r2, r1, r8, r2
    60ee:	9901      	ldr	r1, [sp, #4]
    60f0:	7a5b      	ldrb	r3, [r3, #9]
    60f2:	4c11      	ldr	r4, [pc, #68]	; (6138 <grid_port_process_outbound_usb+0x188>)
    60f4:	f5c1 7180 	rsb	r1, r1, #256	; 0x100
    60f8:	f001 0103 	and.w	r1, r1, #3
    60fc:	eb01 0183 	add.w	r1, r1, r3, lsl #2
    6100:	f001 010f 	and.w	r1, r1, #15
    6104:	b2c3      	uxtb	r3, r0
    6106:	b2d2      	uxtb	r2, r2
    6108:	ea4b 0101 	orr.w	r1, fp, r1
    610c:	ea4f 101b 	mov.w	r0, fp, lsr #4
    6110:	47a0      	blx	r4
    6112:	4654      	mov	r4, sl
    6114:	e797      	b.n	6046 <grid_port_process_outbound_usb+0x96>
    6116:	bf00      	nop
    6118:	00005afd 	.word	0x00005afd
    611c:	0000ea0f 	.word	0x0000ea0f
    6120:	00005b49 	.word	0x00005b49
    6124:	00005bc9 	.word	0x00005bc9
    6128:	000082b9 	.word	0x000082b9
    612c:	0000d30d 	.word	0x0000d30d
    6130:	00008129 	.word	0x00008129
    6134:	200032ec 	.word	0x200032ec
    6138:	0000da15 	.word	0x0000da15
    613c:	00005ba5 	.word	0x00005ba5

00006140 <grid_port_process_outbound_ui>:
    6140:	e92d 4ff0 	stmdb	sp!, {r4, r5, r6, r7, r8, r9, sl, fp, lr}
    6144:	f600 74cc 	addw	r4, r0, #4044	; 0xfcc
    6148:	b0d1      	sub	sp, #324	; 0x144
    614a:	4620      	mov	r0, r4
    614c:	4b9e      	ldr	r3, [pc, #632]	; (63c8 <grid_port_process_outbound_ui+0x288>)
    614e:	4798      	blx	r3
    6150:	4680      	mov	r8, r0
    6152:	b910      	cbnz	r0, 615a <grid_port_process_outbound_ui+0x1a>
    6154:	b051      	add	sp, #324	; 0x144
    6156:	e8bd 8ff0 	ldmia.w	sp!, {r4, r5, r6, r7, r8, r9, sl, fp, pc}
    615a:	ad05      	add	r5, sp, #20
    615c:	f44f 7296 	mov.w	r2, #300	; 0x12c
    6160:	2100      	movs	r1, #0
    6162:	4b9a      	ldr	r3, [pc, #616]	; (63cc <grid_port_process_outbound_ui+0x28c>)
    6164:	4f9a      	ldr	r7, [pc, #616]	; (63d0 <grid_port_process_outbound_ui+0x290>)
    6166:	4628      	mov	r0, r5
    6168:	4798      	blx	r3
    616a:	4620      	mov	r0, r4
    616c:	4b99      	ldr	r3, [pc, #612]	; (63d4 <grid_port_process_outbound_ui+0x294>)
    616e:	4798      	blx	r3
    6170:	2600      	movs	r6, #0
    6172:	b2b3      	uxth	r3, r6
    6174:	4598      	cmp	r8, r3
    6176:	4620      	mov	r0, r4
    6178:	d82c      	bhi.n	61d4 <grid_port_process_outbound_ui+0x94>
    617a:	4b97      	ldr	r3, [pc, #604]	; (63d8 <grid_port_process_outbound_ui+0x298>)
    617c:	4e97      	ldr	r6, [pc, #604]	; (63dc <grid_port_process_outbound_ui+0x29c>)
    617e:	4798      	blx	r3
    6180:	f04f 0a00 	mov.w	sl, #0
    6184:	f10d 0312 	add.w	r3, sp, #18
    6188:	2202      	movs	r2, #2
    618a:	2106      	movs	r1, #6
    618c:	4628      	mov	r0, r5
    618e:	f88d a012 	strb.w	sl, [sp, #18]
    6192:	47b0      	blx	r6
    6194:	4604      	mov	r4, r0
    6196:	f10d 0312 	add.w	r3, sp, #18
    619a:	2202      	movs	r2, #2
    619c:	2108      	movs	r1, #8
    619e:	4628      	mov	r0, r5
    61a0:	b2e4      	uxtb	r4, r4
    61a2:	47b0      	blx	r6
    61a4:	2c7f      	cmp	r4, #127	; 0x7f
    61a6:	d107      	bne.n	61b8 <grid_port_process_outbound_ui+0x78>
    61a8:	fa5f fa80 	uxtb.w	sl, r0
    61ac:	f1aa 037f 	sub.w	r3, sl, #127	; 0x7f
    61b0:	f1d3 0a00 	rsbs	sl, r3, #0
    61b4:	eb4a 0a03 	adc.w	sl, sl, r3
    61b8:	2700      	movs	r7, #0
    61ba:	4e89      	ldr	r6, [pc, #548]	; (63e0 <grid_port_process_outbound_ui+0x2a0>)
    61bc:	f88d 7013 	strb.w	r7, [sp, #19]
    61c0:	463c      	mov	r4, r7
    61c2:	5de9      	ldrb	r1, [r5, r7]
    61c4:	2902      	cmp	r1, #2
    61c6:	d109      	bne.n	61dc <grid_port_process_outbound_ui+0x9c>
    61c8:	b2fc      	uxtb	r4, r7
    61ca:	3701      	adds	r7, #1
    61cc:	b2bb      	uxth	r3, r7
    61ce:	4598      	cmp	r8, r3
    61d0:	d8f7      	bhi.n	61c2 <grid_port_process_outbound_ui+0x82>
    61d2:	e7bf      	b.n	6154 <grid_port_process_outbound_ui+0x14>
    61d4:	47b8      	blx	r7
    61d6:	55a8      	strb	r0, [r5, r6]
    61d8:	3601      	adds	r6, #1
    61da:	e7ca      	b.n	6172 <grid_port_process_outbound_ui+0x32>
    61dc:	2903      	cmp	r1, #3
    61de:	d1f4      	bne.n	61ca <grid_port_process_outbound_ui+0x8a>
    61e0:	b90c      	cbnz	r4, 61e6 <grid_port_process_outbound_ui+0xa6>
    61e2:	2400      	movs	r4, #0
    61e4:	e7f1      	b.n	61ca <grid_port_process_outbound_ui+0x8a>
    61e6:	1c60      	adds	r0, r4, #1
    61e8:	f10d 0213 	add.w	r2, sp, #19
    61ec:	4428      	add	r0, r5
    61ee:	47b0      	blx	r6
    61f0:	fa5f f980 	uxtb.w	r9, r0
    61f4:	1d20      	adds	r0, r4, #4
    61f6:	f10d 0213 	add.w	r2, sp, #19
    61fa:	2101      	movs	r1, #1
    61fc:	4428      	add	r0, r5
    61fe:	47b0      	blx	r6
    6200:	f1b9 0f30 	cmp.w	r9, #48	; 0x30
    6204:	fa5f fb80 	uxtb.w	fp, r0
    6208:	d14b      	bne.n	62a2 <grid_port_process_outbound_ui+0x162>
    620a:	1d60      	adds	r0, r4, #5
    620c:	f10d 0213 	add.w	r2, sp, #19
    6210:	2102      	movs	r1, #2
    6212:	4428      	add	r0, r5
    6214:	47b0      	blx	r6
    6216:	f1bb 0f0f 	cmp.w	fp, #15
    621a:	4681      	mov	r9, r0
    621c:	d121      	bne.n	6262 <grid_port_process_outbound_ui+0x122>
    621e:	4871      	ldr	r0, [pc, #452]	; (63e4 <grid_port_process_outbound_ui+0x2a4>)
    6220:	4b71      	ldr	r3, [pc, #452]	; (63e8 <grid_port_process_outbound_ui+0x2a8>)
    6222:	4798      	blx	r3
    6224:	28ff      	cmp	r0, #255	; 0xff
    6226:	d116      	bne.n	6256 <grid_port_process_outbound_ui+0x116>
    6228:	f8df b1e4 	ldr.w	fp, [pc, #484]	; 6410 <grid_port_process_outbound_ui+0x2d0>
    622c:	4b6f      	ldr	r3, [pc, #444]	; (63ec <grid_port_process_outbound_ui+0x2ac>)
    622e:	f8db 0004 	ldr.w	r0, [fp, #4]
    6232:	2101      	movs	r1, #1
    6234:	4798      	blx	r3
    6236:	4604      	mov	r4, r0
    6238:	4621      	mov	r1, r4
    623a:	4b6d      	ldr	r3, [pc, #436]	; (63f0 <grid_port_process_outbound_ui+0x2b0>)
    623c:	f8db 0004 	ldr.w	r0, [fp, #4]
    6240:	4798      	blx	r3
    6242:	f8db 3004 	ldr.w	r3, [fp, #4]
    6246:	b224      	sxth	r4, r4
    6248:	68d8      	ldr	r0, [r3, #12]
    624a:	4b6a      	ldr	r3, [pc, #424]	; (63f4 <grid_port_process_outbound_ui+0x2b4>)
    624c:	ebc4 04c4 	rsb	r4, r4, r4, lsl #3
    6250:	eb00 0084 	add.w	r0, r0, r4, lsl #2
    6254:	4798      	blx	r3
    6256:	fa5f f189 	uxtb.w	r1, r9
    625a:	4862      	ldr	r0, [pc, #392]	; (63e4 <grid_port_process_outbound_ui+0x2a4>)
    625c:	4b66      	ldr	r3, [pc, #408]	; (63f8 <grid_port_process_outbound_ui+0x2b8>)
    625e:	4798      	blx	r3
    6260:	e7bf      	b.n	61e2 <grid_port_process_outbound_ui+0xa2>
    6262:	f1bb 0f0e 	cmp.w	fp, #14
    6266:	d1bc      	bne.n	61e2 <grid_port_process_outbound_ui+0xa2>
    6268:	485e      	ldr	r0, [pc, #376]	; (63e4 <grid_port_process_outbound_ui+0x2a4>)
    626a:	4b5f      	ldr	r3, [pc, #380]	; (63e8 <grid_port_process_outbound_ui+0x2a8>)
    626c:	4798      	blx	r3
    626e:	28ff      	cmp	r0, #255	; 0xff
    6270:	d0b7      	beq.n	61e2 <grid_port_process_outbound_ui+0xa2>
    6272:	f8df 919c 	ldr.w	r9, [pc, #412]	; 6410 <grid_port_process_outbound_ui+0x2d0>
    6276:	4b5d      	ldr	r3, [pc, #372]	; (63ec <grid_port_process_outbound_ui+0x2ac>)
    6278:	f8d9 0004 	ldr.w	r0, [r9, #4]
    627c:	210a      	movs	r1, #10
    627e:	4798      	blx	r3
    6280:	4604      	mov	r4, r0
    6282:	4621      	mov	r1, r4
    6284:	f8d9 0004 	ldr.w	r0, [r9, #4]
    6288:	4b59      	ldr	r3, [pc, #356]	; (63f0 <grid_port_process_outbound_ui+0x2b0>)
    628a:	4798      	blx	r3
    628c:	f8d9 3004 	ldr.w	r3, [r9, #4]
    6290:	b224      	sxth	r4, r4
    6292:	68d8      	ldr	r0, [r3, #12]
    6294:	4b57      	ldr	r3, [pc, #348]	; (63f4 <grid_port_process_outbound_ui+0x2b4>)
    6296:	ebc4 04c4 	rsb	r4, r4, r4, lsl #3
    629a:	eb00 0084 	add.w	r0, r0, r4, lsl #2
    629e:	4798      	blx	r3
    62a0:	e79f      	b.n	61e2 <grid_port_process_outbound_ui+0xa2>
    62a2:	f1b9 0f31 	cmp.w	r9, #49	; 0x31
    62a6:	d128      	bne.n	62fa <grid_port_process_outbound_ui+0x1ba>
    62a8:	f1bb 0f0f 	cmp.w	fp, #15
    62ac:	d199      	bne.n	61e2 <grid_port_process_outbound_ui+0xa2>
    62ae:	1d60      	adds	r0, r4, #5
    62b0:	f10d 0213 	add.w	r2, sp, #19
    62b4:	2102      	movs	r1, #2
    62b6:	4428      	add	r0, r5
    62b8:	47b0      	blx	r6
    62ba:	fa5f f980 	uxtb.w	r9, r0
    62be:	1de0      	adds	r0, r4, #7
    62c0:	f10d 0213 	add.w	r2, sp, #19
    62c4:	2102      	movs	r1, #2
    62c6:	4428      	add	r0, r5
    62c8:	47b0      	blx	r6
    62ca:	b2c4      	uxtb	r4, r0
    62cc:	2c01      	cmp	r4, #1
    62ce:	d104      	bne.n	62da <grid_port_process_outbound_ui+0x19a>
    62d0:	4649      	mov	r1, r9
    62d2:	4b4a      	ldr	r3, [pc, #296]	; (63fc <grid_port_process_outbound_ui+0x2bc>)
    62d4:	4843      	ldr	r0, [pc, #268]	; (63e4 <grid_port_process_outbound_ui+0x2a4>)
    62d6:	4798      	blx	r3
    62d8:	e783      	b.n	61e2 <grid_port_process_outbound_ui+0xa2>
    62da:	2c00      	cmp	r4, #0
    62dc:	d181      	bne.n	61e2 <grid_port_process_outbound_ui+0xa2>
    62de:	4841      	ldr	r0, [pc, #260]	; (63e4 <grid_port_process_outbound_ui+0x2a4>)
    62e0:	4b41      	ldr	r3, [pc, #260]	; (63e8 <grid_port_process_outbound_ui+0x2a8>)
    62e2:	4798      	blx	r3
    62e4:	4581      	cmp	r9, r0
    62e6:	d103      	bne.n	62f0 <grid_port_process_outbound_ui+0x1b0>
    62e8:	21ff      	movs	r1, #255	; 0xff
    62ea:	483e      	ldr	r0, [pc, #248]	; (63e4 <grid_port_process_outbound_ui+0x2a4>)
    62ec:	4b42      	ldr	r3, [pc, #264]	; (63f8 <grid_port_process_outbound_ui+0x2b8>)
    62ee:	4798      	blx	r3
    62f0:	4649      	mov	r1, r9
    62f2:	4b43      	ldr	r3, [pc, #268]	; (6400 <grid_port_process_outbound_ui+0x2c0>)
    62f4:	483b      	ldr	r0, [pc, #236]	; (63e4 <grid_port_process_outbound_ui+0x2a4>)
    62f6:	4798      	blx	r3
    62f8:	e767      	b.n	61ca <grid_port_process_outbound_ui+0x8a>
    62fa:	f1b9 0f32 	cmp.w	r9, #50	; 0x32
    62fe:	d139      	bne.n	6374 <grid_port_process_outbound_ui+0x234>
    6300:	f1bb 0f0f 	cmp.w	fp, #15
    6304:	f47f af6d 	bne.w	61e2 <grid_port_process_outbound_ui+0xa2>
    6308:	1d60      	adds	r0, r4, #5
    630a:	f10d 0213 	add.w	r2, sp, #19
    630e:	2102      	movs	r1, #2
    6310:	4428      	add	r0, r5
    6312:	47b0      	blx	r6
    6314:	fa5f f980 	uxtb.w	r9, r0
    6318:	1de0      	adds	r0, r4, #7
    631a:	f10d 0213 	add.w	r2, sp, #19
    631e:	2102      	movs	r1, #2
    6320:	4428      	add	r0, r5
    6322:	47b0      	blx	r6
    6324:	9002      	str	r0, [sp, #8]
    6326:	f104 0009 	add.w	r0, r4, #9
    632a:	f10d 0213 	add.w	r2, sp, #19
    632e:	2102      	movs	r1, #2
    6330:	4428      	add	r0, r5
    6332:	47b0      	blx	r6
    6334:	4683      	mov	fp, r0
    6336:	f104 000b 	add.w	r0, r4, #11
    633a:	f10d 0213 	add.w	r2, sp, #19
    633e:	2102      	movs	r1, #2
    6340:	4428      	add	r0, r5
    6342:	47b0      	blx	r6
    6344:	9b02      	ldr	r3, [sp, #8]
    6346:	4c2f      	ldr	r4, [pc, #188]	; (6404 <grid_port_process_outbound_ui+0x2c4>)
    6348:	041a      	lsls	r2, r3, #16
    634a:	ea4f 2b0b 	mov.w	fp, fp, lsl #8
    634e:	f402 027f 	and.w	r2, r2, #16711680	; 0xff0000
    6352:	fa1f fb8b 	uxth.w	fp, fp
    6356:	ea42 020b 	orr.w	r2, r2, fp
    635a:	fa52 f280 	uxtab	r2, r2, r0
    635e:	4649      	mov	r1, r9
    6360:	4820      	ldr	r0, [pc, #128]	; (63e4 <grid_port_process_outbound_ui+0x2a4>)
    6362:	47a0      	blx	r4
    6364:	481f      	ldr	r0, [pc, #124]	; (63e4 <grid_port_process_outbound_ui+0x2a4>)
    6366:	4a20      	ldr	r2, [pc, #128]	; (63e8 <grid_port_process_outbound_ui+0x2a8>)
    6368:	4790      	blx	r2
    636a:	4581      	cmp	r9, r0
    636c:	f47f af39 	bne.w	61e2 <grid_port_process_outbound_ui+0xa2>
    6370:	4649      	mov	r1, r9
    6372:	e772      	b.n	625a <grid_port_process_outbound_ui+0x11a>
    6374:	f1b9 0f40 	cmp.w	r9, #64	; 0x40
    6378:	d14c      	bne.n	6414 <grid_port_process_outbound_ui+0x2d4>
    637a:	f1bb 0f0f 	cmp.w	fp, #15
    637e:	f47f af30 	bne.w	61e2 <grid_port_process_outbound_ui+0xa2>
    6382:	f1ba 0f00 	cmp.w	sl, #0
    6386:	f43f af2c 	beq.w	61e2 <grid_port_process_outbound_ui+0xa2>
    638a:	1d60      	adds	r0, r4, #5
    638c:	f10d 0213 	add.w	r2, sp, #19
    6390:	2102      	movs	r1, #2
    6392:	4428      	add	r0, r5
    6394:	47b0      	blx	r6
    6396:	4681      	mov	r9, r0
    6398:	1de0      	adds	r0, r4, #7
    639a:	f10d 0213 	add.w	r2, sp, #19
    639e:	2102      	movs	r1, #2
    63a0:	4428      	add	r0, r5
    63a2:	47b0      	blx	r6
    63a4:	4683      	mov	fp, r0
    63a6:	f104 0009 	add.w	r0, r4, #9
    63aa:	f10d 0213 	add.w	r2, sp, #19
    63ae:	2102      	movs	r1, #2
    63b0:	4428      	add	r0, r5
    63b2:	47b0      	blx	r6
    63b4:	4c14      	ldr	r4, [pc, #80]	; (6408 <grid_port_process_outbound_ui+0x2c8>)
    63b6:	b2c3      	uxtb	r3, r0
    63b8:	fa5f f28b 	uxtb.w	r2, fp
    63bc:	fa5f f189 	uxtb.w	r1, r9
    63c0:	4812      	ldr	r0, [pc, #72]	; (640c <grid_port_process_outbound_ui+0x2cc>)
    63c2:	47a0      	blx	r4
    63c4:	e70d      	b.n	61e2 <grid_port_process_outbound_ui+0xa2>
    63c6:	bf00      	nop
    63c8:	00005afd 	.word	0x00005afd
    63cc:	0000ea0f 	.word	0x0000ea0f
    63d0:	00005ba5 	.word	0x00005ba5
    63d4:	00005b49 	.word	0x00005b49
    63d8:	00005bc9 	.word	0x00005bc9
    63dc:	000082b9 	.word	0x000082b9
    63e0:	00008129 	.word	0x00008129
    63e4:	200032ec 	.word	0x200032ec
    63e8:	00007f4d 	.word	0x00007f4d
    63ec:	00008567 	.word	0x00008567
    63f0:	00008965 	.word	0x00008965
    63f4:	0000858d 	.word	0x0000858d
    63f8:	00007f81 	.word	0x00007f81
    63fc:	00007f15 	.word	0x00007f15
    6400:	00007f25 	.word	0x00007f25
    6404:	00007f37 	.word	0x00007f37
    6408:	00006691 	.word	0x00006691
    640c:	20007dcc 	.word	0x20007dcc
    6410:	20007d58 	.word	0x20007d58
    6414:	f1b9 0f41 	cmp.w	r9, #65	; 0x41
    6418:	f47f aee3 	bne.w	61e2 <grid_port_process_outbound_ui+0xa2>
    641c:	f1bb 0f0f 	cmp.w	fp, #15
    6420:	f47f aedf 	bne.w	61e2 <grid_port_process_outbound_ui+0xa2>
    6424:	f1ba 0f00 	cmp.w	sl, #0
    6428:	f43f aedb 	beq.w	61e2 <grid_port_process_outbound_ui+0xa2>
    642c:	1d60      	adds	r0, r4, #5
    642e:	f10d 0213 	add.w	r2, sp, #19
    6432:	2102      	movs	r1, #2
    6434:	4428      	add	r0, r5
    6436:	47b0      	blx	r6
    6438:	9002      	str	r0, [sp, #8]
    643a:	1de0      	adds	r0, r4, #7
    643c:	f10d 0213 	add.w	r2, sp, #19
    6440:	2102      	movs	r1, #2
    6442:	4428      	add	r0, r5
    6444:	47b0      	blx	r6
    6446:	9003      	str	r0, [sp, #12]
    6448:	f104 0009 	add.w	r0, r4, #9
    644c:	f10d 0213 	add.w	r2, sp, #19
    6450:	2102      	movs	r1, #2
    6452:	4428      	add	r0, r5
    6454:	47b0      	blx	r6
    6456:	4683      	mov	fp, r0
    6458:	f104 000b 	add.w	r0, r4, #11
    645c:	f10d 0213 	add.w	r2, sp, #19
    6460:	2102      	movs	r1, #2
    6462:	4428      	add	r0, r5
    6464:	47b0      	blx	r6
    6466:	4681      	mov	r9, r0
    6468:	f104 000d 	add.w	r0, r4, #13
    646c:	f10d 0213 	add.w	r2, sp, #19
    6470:	2102      	movs	r1, #2
    6472:	4428      	add	r0, r5
    6474:	47b0      	blx	r6
    6476:	fa5f f389 	uxtb.w	r3, r9
    647a:	b2c0      	uxtb	r0, r0
    647c:	9001      	str	r0, [sp, #4]
    647e:	9300      	str	r3, [sp, #0]
    6480:	f89d 200c 	ldrb.w	r2, [sp, #12]
    6484:	f89d 1008 	ldrb.w	r1, [sp, #8]
    6488:	4802      	ldr	r0, [pc, #8]	; (6494 <grid_port_process_outbound_ui+0x354>)
    648a:	4c03      	ldr	r4, [pc, #12]	; (6498 <grid_port_process_outbound_ui+0x358>)
    648c:	fa5f f38b 	uxtb.w	r3, fp
    6490:	47a0      	blx	r4
    6492:	e6a6      	b.n	61e2 <grid_port_process_outbound_ui+0xa2>
    6494:	20007dcc 	.word	0x20007dcc
    6498:	00006625 	.word	0x00006625

0000649c <grid_port_process_outbound_usart>:
    649c:	e92d 43f8 	stmdb	sp!, {r3, r4, r5, r6, r7, r8, r9, lr}
    64a0:	8983      	ldrh	r3, [r0, #12]
    64a2:	4605      	mov	r5, r0
    64a4:	bb13      	cbnz	r3, 64ec <grid_port_process_outbound_usart+0x50>
    64a6:	f600 76cc 	addw	r6, r0, #4044	; 0xfcc
    64aa:	4630      	mov	r0, r6
    64ac:	4b11      	ldr	r3, [pc, #68]	; (64f4 <grid_port_process_outbound_usart+0x58>)
    64ae:	4798      	blx	r3
    64b0:	4604      	mov	r4, r0
    64b2:	b1d8      	cbz	r0, 64ec <grid_port_process_outbound_usart+0x50>
    64b4:	4630      	mov	r0, r6
    64b6:	4b10      	ldr	r3, [pc, #64]	; (64f8 <grid_port_process_outbound_usart+0x5c>)
    64b8:	f8df 9048 	ldr.w	r9, [pc, #72]	; 6504 <grid_port_process_outbound_usart+0x68>
    64bc:	4798      	blx	r3
    64be:	f105 072c 	add.w	r7, r5, #44	; 0x2c
    64c2:	81ac      	strh	r4, [r5, #12]
    64c4:	342c      	adds	r4, #44	; 0x2c
    64c6:	442c      	add	r4, r5
    64c8:	46b8      	mov	r8, r7
    64ca:	42a7      	cmp	r7, r4
    64cc:	4630      	mov	r0, r6
    64ce:	d109      	bne.n	64e4 <grid_port_process_outbound_usart+0x48>
    64d0:	4b0a      	ldr	r3, [pc, #40]	; (64fc <grid_port_process_outbound_usart+0x60>)
    64d2:	4798      	blx	r3
    64d4:	89aa      	ldrh	r2, [r5, #12]
    64d6:	6868      	ldr	r0, [r5, #4]
    64d8:	4b09      	ldr	r3, [pc, #36]	; (6500 <grid_port_process_outbound_usart+0x64>)
    64da:	4641      	mov	r1, r8
    64dc:	4798      	blx	r3
    64de:	2001      	movs	r0, #1
    64e0:	e8bd 83f8 	ldmia.w	sp!, {r3, r4, r5, r6, r7, r8, r9, pc}
    64e4:	47c8      	blx	r9
    64e6:	f807 0b01 	strb.w	r0, [r7], #1
    64ea:	e7ee      	b.n	64ca <grid_port_process_outbound_usart+0x2e>
    64ec:	2000      	movs	r0, #0
    64ee:	e8bd 83f8 	ldmia.w	sp!, {r3, r4, r5, r6, r7, r8, r9, pc}
    64f2:	bf00      	nop
    64f4:	00005afd 	.word	0x00005afd
    64f8:	00005b49 	.word	0x00005b49
    64fc:	00005bc9 	.word	0x00005bc9
    6500:	00008e7d 	.word	0x00008e7d
    6504:	00005ba5 	.word	0x00005ba5

00006508 <grid_led_lowlevel_hardware_transfer_complete_cb>:
    6508:	4b01      	ldr	r3, [pc, #4]	; (6510 <grid_led_lowlevel_hardware_transfer_complete_cb+0x8>)
    650a:	2201      	movs	r2, #1
    650c:	701a      	strb	r2, [r3, #0]
    650e:	4770      	bx	lr
    6510:	20001294 	.word	0x20001294

00006514 <grid_led_lowlevel_set_color>:
    6514:	b510      	push	{r4, lr}
    6516:	7844      	ldrb	r4, [r0, #1]
    6518:	428c      	cmp	r4, r1
    651a:	d91c      	bls.n	6556 <grid_led_lowlevel_set_color+0x42>
    651c:	2bff      	cmp	r3, #255	; 0xff
    651e:	f04f 040c 	mov.w	r4, #12
    6522:	fb04 f101 	mul.w	r1, r4, r1
    6526:	bf28      	it	cs
    6528:	23ff      	movcs	r3, #255	; 0xff
    652a:	4c0c      	ldr	r4, [pc, #48]	; (655c <grid_led_lowlevel_set_color+0x48>)
    652c:	68c0      	ldr	r0, [r0, #12]
    652e:	f854 3023 	ldr.w	r3, [r4, r3, lsl #2]
    6532:	5043      	str	r3, [r0, r1]
    6534:	2aff      	cmp	r2, #255	; 0xff
    6536:	bf28      	it	cs
    6538:	22ff      	movcs	r2, #255	; 0xff
    653a:	4401      	add	r1, r0
    653c:	f854 3022 	ldr.w	r3, [r4, r2, lsl #2]
    6540:	604b      	str	r3, [r1, #4]
    6542:	f8bd 3008 	ldrh.w	r3, [sp, #8]
    6546:	2bff      	cmp	r3, #255	; 0xff
    6548:	bf28      	it	cs
    654a:	23ff      	movcs	r3, #255	; 0xff
    654c:	2000      	movs	r0, #0
    654e:	f854 3023 	ldr.w	r3, [r4, r3, lsl #2]
    6552:	608b      	str	r3, [r1, #8]
    6554:	bd10      	pop	{r4, pc}
    6556:	20ff      	movs	r0, #255	; 0xff
    6558:	bd10      	pop	{r4, pc}
    655a:	bf00      	nop
    655c:	200037b8 	.word	0x200037b8

00006560 <grid_led_hardware_init>:
    6560:	b510      	push	{r4, lr}
    6562:	4c06      	ldr	r4, [pc, #24]	; (657c <grid_led_hardware_init+0x1c>)
    6564:	4b06      	ldr	r3, [pc, #24]	; (6580 <grid_led_hardware_init+0x20>)
    6566:	f100 0114 	add.w	r1, r0, #20
    656a:	4620      	mov	r0, r4
    656c:	4798      	blx	r3
    656e:	4620      	mov	r0, r4
    6570:	4a04      	ldr	r2, [pc, #16]	; (6584 <grid_led_hardware_init+0x24>)
    6572:	4b05      	ldr	r3, [pc, #20]	; (6588 <grid_led_hardware_init+0x28>)
    6574:	2100      	movs	r1, #0
    6576:	e8bd 4010 	ldmia.w	sp!, {r4, lr}
    657a:	4718      	bx	r3
    657c:	20001114 	.word	0x20001114
    6580:	00009189 	.word	0x00009189
    6584:	00006509 	.word	0x00006509
    6588:	0000917d 	.word	0x0000917d

0000658c <grid_led_get_led_number>:
    658c:	7840      	ldrb	r0, [r0, #1]
    658e:	4770      	bx	lr

00006590 <grid_led_tick>:
    6590:	b5f0      	push	{r4, r5, r6, r7, lr}
    6592:	260d      	movs	r6, #13
    6594:	7845      	ldrb	r5, [r0, #1]
    6596:	2100      	movs	r1, #0
    6598:	4637      	mov	r7, r6
    659a:	b2cb      	uxtb	r3, r1
    659c:	429d      	cmp	r5, r3
    659e:	d910      	bls.n	65c2 <grid_led_tick+0x32>
    65a0:	6903      	ldr	r3, [r0, #16]
    65a2:	2203      	movs	r2, #3
    65a4:	fb07 3301 	mla	r3, r7, r1, r3
    65a8:	7adc      	ldrb	r4, [r3, #11]
    65aa:	f893 e00c 	ldrb.w	lr, [r3, #12]
    65ae:	3a01      	subs	r2, #1
    65b0:	4474      	add	r4, lr
    65b2:	f012 02ff 	ands.w	r2, r2, #255	; 0xff
    65b6:	72dc      	strb	r4, [r3, #11]
    65b8:	fb16 3305 	smlabb	r3, r6, r5, r3
    65bc:	d1f4      	bne.n	65a8 <grid_led_tick+0x18>
    65be:	3101      	adds	r1, #1
    65c0:	e7eb      	b.n	659a <grid_led_tick+0xa>
    65c2:	bdf0      	pop	{r4, r5, r6, r7, pc}

000065c4 <grid_led_set_min>:
    65c4:	b510      	push	{r4, lr}
    65c6:	7844      	ldrb	r4, [r0, #1]
    65c8:	6900      	ldr	r0, [r0, #16]
    65ca:	fb04 1202 	mla	r2, r4, r2, r1
    65ce:	240d      	movs	r4, #13
    65d0:	4362      	muls	r2, r4
    65d2:	1881      	adds	r1, r0, r2
    65d4:	5483      	strb	r3, [r0, r2]
    65d6:	f89d 3008 	ldrb.w	r3, [sp, #8]
    65da:	704b      	strb	r3, [r1, #1]
    65dc:	f89d 300c 	ldrb.w	r3, [sp, #12]
    65e0:	708b      	strb	r3, [r1, #2]
    65e2:	bd10      	pop	{r4, pc}

000065e4 <grid_led_set_mid>:
    65e4:	b510      	push	{r4, lr}
    65e6:	7844      	ldrb	r4, [r0, #1]
    65e8:	fb04 1202 	mla	r2, r4, r2, r1
    65ec:	6901      	ldr	r1, [r0, #16]
    65ee:	200d      	movs	r0, #13
    65f0:	fb00 1202 	mla	r2, r0, r2, r1
    65f4:	70d3      	strb	r3, [r2, #3]
    65f6:	f89d 3008 	ldrb.w	r3, [sp, #8]
    65fa:	7113      	strb	r3, [r2, #4]
    65fc:	f89d 300c 	ldrb.w	r3, [sp, #12]
    6600:	7153      	strb	r3, [r2, #5]
    6602:	bd10      	pop	{r4, pc}

00006604 <grid_led_set_max>:
    6604:	b510      	push	{r4, lr}
    6606:	7844      	ldrb	r4, [r0, #1]
    6608:	fb04 1202 	mla	r2, r4, r2, r1
    660c:	6901      	ldr	r1, [r0, #16]
    660e:	200d      	movs	r0, #13
    6610:	fb00 1202 	mla	r2, r0, r2, r1
    6614:	7193      	strb	r3, [r2, #6]
    6616:	f89d 3008 	ldrb.w	r3, [sp, #8]
    661a:	71d3      	strb	r3, [r2, #7]
    661c:	f89d 300c 	ldrb.w	r3, [sp, #12]
    6620:	7213      	strb	r3, [r2, #8]
    6622:	bd10      	pop	{r4, pc}

00006624 <grid_led_set_color>:
    6624:	e92d 47f3 	stmdb	sp!, {r0, r1, r4, r5, r6, r7, r8, r9, sl, lr}
    6628:	f89d 602c 	ldrb.w	r6, [sp, #44]	; 0x2c
    662c:	f89d 5028 	ldrb.w	r5, [sp, #40]	; 0x28
    6630:	f8df a054 	ldr.w	sl, [pc, #84]	; 6688 <grid_led_set_color+0x64>
    6634:	461c      	mov	r4, r3
    6636:	2314      	movs	r3, #20
    6638:	fbb6 fef3 	udiv	lr, r6, r3
    663c:	f8cd e004 	str.w	lr, [sp, #4]
    6640:	fbb5 fef3 	udiv	lr, r5, r3
    6644:	fbb4 f3f3 	udiv	r3, r4, r3
    6648:	f8cd e000 	str.w	lr, [sp]
    664c:	4607      	mov	r7, r0
    664e:	4688      	mov	r8, r1
    6650:	4691      	mov	r9, r2
    6652:	47d0      	blx	sl
    6654:	0873      	lsrs	r3, r6, #1
    6656:	9301      	str	r3, [sp, #4]
    6658:	086b      	lsrs	r3, r5, #1
    665a:	9300      	str	r3, [sp, #0]
    665c:	464a      	mov	r2, r9
    665e:	0863      	lsrs	r3, r4, #1
    6660:	4641      	mov	r1, r8
    6662:	4638      	mov	r0, r7
    6664:	f8df a024 	ldr.w	sl, [pc, #36]	; 668c <grid_led_set_color+0x68>
    6668:	47d0      	blx	sl
    666a:	4623      	mov	r3, r4
    666c:	4c05      	ldr	r4, [pc, #20]	; (6684 <grid_led_set_color+0x60>)
    666e:	960b      	str	r6, [sp, #44]	; 0x2c
    6670:	464a      	mov	r2, r9
    6672:	4641      	mov	r1, r8
    6674:	4638      	mov	r0, r7
    6676:	46a4      	mov	ip, r4
    6678:	950a      	str	r5, [sp, #40]	; 0x28
    667a:	b002      	add	sp, #8
    667c:	e8bd 47f0 	ldmia.w	sp!, {r4, r5, r6, r7, r8, r9, sl, lr}
    6680:	4760      	bx	ip
    6682:	bf00      	nop
    6684:	00006605 	.word	0x00006605
    6688:	000065c5 	.word	0x000065c5
    668c:	000065e5 	.word	0x000065e5

00006690 <grid_led_set_phase>:
    6690:	b510      	push	{r4, lr}
    6692:	7844      	ldrb	r4, [r0, #1]
    6694:	fb04 1202 	mla	r2, r4, r2, r1
    6698:	6901      	ldr	r1, [r0, #16]
    669a:	240d      	movs	r4, #13
    669c:	fb04 1202 	mla	r2, r4, r2, r1
    66a0:	72d3      	strb	r3, [r2, #11]
    66a2:	bd10      	pop	{r4, pc}

000066a4 <grid_led_set_frequency>:
    66a4:	b510      	push	{r4, lr}
    66a6:	7844      	ldrb	r4, [r0, #1]
    66a8:	fb04 1202 	mla	r2, r4, r2, r1
    66ac:	6901      	ldr	r1, [r0, #16]
    66ae:	240d      	movs	r4, #13
    66b0:	fb04 1202 	mla	r2, r4, r2, r1
    66b4:	7313      	strb	r3, [r2, #12]
    66b6:	bd10      	pop	{r4, pc}

000066b8 <grid_led_buffer_init>:
    66b8:	e92d 4ff7 	stmdb	sp!, {r0, r1, r2, r4, r5, r6, r7, r8, r9, sl, fp, lr}
    66bc:	4605      	mov	r5, r0
    66be:	7041      	strb	r1, [r0, #1]
    66c0:	b2cc      	uxtb	r4, r1
    66c2:	200c      	movs	r0, #12
    66c4:	4360      	muls	r0, r4
    66c6:	3090      	adds	r0, #144	; 0x90
    66c8:	6068      	str	r0, [r5, #4]
    66ca:	4f4f      	ldr	r7, [pc, #316]	; (6808 <grid_led_buffer_init+0x150>)
    66cc:	47b8      	blx	r7
    66ce:	4606      	mov	r6, r0
    66d0:	f100 0390 	add.w	r3, r0, #144	; 0x90
    66d4:	60a8      	str	r0, [r5, #8]
    66d6:	2027      	movs	r0, #39	; 0x27
    66d8:	60eb      	str	r3, [r5, #12]
    66da:	4360      	muls	r0, r4
    66dc:	47b8      	blx	r7
    66de:	b106      	cbz	r6, 66e2 <grid_led_buffer_init+0x2a>
    66e0:	b900      	cbnz	r0, 66e4 <grid_led_buffer_init+0x2c>
    66e2:	e7fe      	b.n	66e2 <grid_led_buffer_init+0x2a>
    66e4:	2300      	movs	r3, #0
    66e6:	6128      	str	r0, [r5, #16]
    66e8:	4619      	mov	r1, r3
    66ea:	68aa      	ldr	r2, [r5, #8]
    66ec:	54d1      	strb	r1, [r2, r3]
    66ee:	3301      	adds	r3, #1
    66f0:	2b90      	cmp	r3, #144	; 0x90
    66f2:	d1fa      	bne.n	66ea <grid_led_buffer_init+0x32>
    66f4:	2400      	movs	r4, #0
    66f6:	4f45      	ldr	r7, [pc, #276]	; (680c <grid_led_buffer_init+0x154>)
    66f8:	4626      	mov	r6, r4
    66fa:	786b      	ldrb	r3, [r5, #1]
    66fc:	429c      	cmp	r4, r3
    66fe:	d30d      	bcc.n	671c <grid_led_buffer_init+0x64>
    6700:	f8df b114 	ldr.w	fp, [pc, #276]	; 6818 <grid_led_buffer_init+0x160>
    6704:	f04f 0a00 	mov.w	sl, #0
    6708:	786b      	ldrb	r3, [r5, #1]
    670a:	fa5f f68a 	uxtb.w	r6, sl
    670e:	42b3      	cmp	r3, r6
    6710:	f10a 0a01 	add.w	sl, sl, #1
    6714:	d80a      	bhi.n	672c <grid_led_buffer_init+0x74>
    6716:	b003      	add	sp, #12
    6718:	e8bd 8ff0 	ldmia.w	sp!, {r4, r5, r6, r7, r8, r9, sl, fp, pc}
    671c:	2300      	movs	r3, #0
    671e:	4621      	mov	r1, r4
    6720:	9600      	str	r6, [sp, #0]
    6722:	461a      	mov	r2, r3
    6724:	4628      	mov	r0, r5
    6726:	47b8      	blx	r7
    6728:	3401      	adds	r4, #1
    672a:	e7e6      	b.n	66fa <grid_led_buffer_init+0x42>
    672c:	2400      	movs	r4, #0
    672e:	4623      	mov	r3, r4
    6730:	4631      	mov	r1, r6
    6732:	4628      	mov	r0, r5
    6734:	9401      	str	r4, [sp, #4]
    6736:	9400      	str	r4, [sp, #0]
    6738:	2201      	movs	r2, #1
    673a:	47d8      	blx	fp
    673c:	237f      	movs	r3, #127	; 0x7f
    673e:	9300      	str	r3, [sp, #0]
    6740:	4631      	mov	r1, r6
    6742:	4623      	mov	r3, r4
    6744:	4628      	mov	r0, r5
    6746:	9401      	str	r4, [sp, #4]
    6748:	2201      	movs	r2, #1
    674a:	4f31      	ldr	r7, [pc, #196]	; (6810 <grid_led_buffer_init+0x158>)
    674c:	f8df 90cc 	ldr.w	r9, [pc, #204]	; 681c <grid_led_buffer_init+0x164>
    6750:	f8df 80cc 	ldr.w	r8, [pc, #204]	; 6820 <grid_led_buffer_init+0x168>
    6754:	47b8      	blx	r7
    6756:	23ff      	movs	r3, #255	; 0xff
    6758:	9300      	str	r3, [sp, #0]
    675a:	4631      	mov	r1, r6
    675c:	4623      	mov	r3, r4
    675e:	4628      	mov	r0, r5
    6760:	9401      	str	r4, [sp, #4]
    6762:	2201      	movs	r2, #1
    6764:	4f2b      	ldr	r7, [pc, #172]	; (6814 <grid_led_buffer_init+0x15c>)
    6766:	47b8      	blx	r7
    6768:	4623      	mov	r3, r4
    676a:	4631      	mov	r1, r6
    676c:	4628      	mov	r0, r5
    676e:	2201      	movs	r2, #1
    6770:	47c8      	blx	r9
    6772:	4623      	mov	r3, r4
    6774:	4631      	mov	r1, r6
    6776:	4628      	mov	r0, r5
    6778:	2201      	movs	r2, #1
    677a:	47c0      	blx	r8
    677c:	4623      	mov	r3, r4
    677e:	4631      	mov	r1, r6
    6780:	4628      	mov	r0, r5
    6782:	9401      	str	r4, [sp, #4]
    6784:	9400      	str	r4, [sp, #0]
    6786:	2202      	movs	r2, #2
    6788:	47d8      	blx	fp
    678a:	237f      	movs	r3, #127	; 0x7f
    678c:	9300      	str	r3, [sp, #0]
    678e:	4631      	mov	r1, r6
    6790:	4623      	mov	r3, r4
    6792:	4628      	mov	r0, r5
    6794:	9401      	str	r4, [sp, #4]
    6796:	2202      	movs	r2, #2
    6798:	4f1d      	ldr	r7, [pc, #116]	; (6810 <grid_led_buffer_init+0x158>)
    679a:	47b8      	blx	r7
    679c:	23ff      	movs	r3, #255	; 0xff
    679e:	9300      	str	r3, [sp, #0]
    67a0:	4631      	mov	r1, r6
    67a2:	4623      	mov	r3, r4
    67a4:	4628      	mov	r0, r5
    67a6:	9401      	str	r4, [sp, #4]
    67a8:	2202      	movs	r2, #2
    67aa:	4f1a      	ldr	r7, [pc, #104]	; (6814 <grid_led_buffer_init+0x15c>)
    67ac:	47b8      	blx	r7
    67ae:	4623      	mov	r3, r4
    67b0:	4631      	mov	r1, r6
    67b2:	4628      	mov	r0, r5
    67b4:	2202      	movs	r2, #2
    67b6:	47c8      	blx	r9
    67b8:	4623      	mov	r3, r4
    67ba:	4631      	mov	r1, r6
    67bc:	4628      	mov	r0, r5
    67be:	2202      	movs	r2, #2
    67c0:	47c0      	blx	r8
    67c2:	4623      	mov	r3, r4
    67c4:	4622      	mov	r2, r4
    67c6:	4631      	mov	r1, r6
    67c8:	4628      	mov	r0, r5
    67ca:	9401      	str	r4, [sp, #4]
    67cc:	9400      	str	r4, [sp, #0]
    67ce:	47d8      	blx	fp
    67d0:	4f0f      	ldr	r7, [pc, #60]	; (6810 <grid_led_buffer_init+0x158>)
    67d2:	9401      	str	r4, [sp, #4]
    67d4:	4623      	mov	r3, r4
    67d6:	4622      	mov	r2, r4
    67d8:	4631      	mov	r1, r6
    67da:	4628      	mov	r0, r5
    67dc:	9400      	str	r4, [sp, #0]
    67de:	47b8      	blx	r7
    67e0:	4623      	mov	r3, r4
    67e2:	4622      	mov	r2, r4
    67e4:	4631      	mov	r1, r6
    67e6:	4628      	mov	r0, r5
    67e8:	9401      	str	r4, [sp, #4]
    67ea:	9400      	str	r4, [sp, #0]
    67ec:	4f09      	ldr	r7, [pc, #36]	; (6814 <grid_led_buffer_init+0x15c>)
    67ee:	47b8      	blx	r7
    67f0:	4623      	mov	r3, r4
    67f2:	4622      	mov	r2, r4
    67f4:	4631      	mov	r1, r6
    67f6:	4628      	mov	r0, r5
    67f8:	47c8      	blx	r9
    67fa:	4623      	mov	r3, r4
    67fc:	4622      	mov	r2, r4
    67fe:	4631      	mov	r1, r6
    6800:	4628      	mov	r0, r5
    6802:	47c0      	blx	r8
    6804:	e780      	b.n	6708 <grid_led_buffer_init+0x50>
    6806:	bf00      	nop
    6808:	0000e9e9 	.word	0x0000e9e9
    680c:	00006515 	.word	0x00006515
    6810:	000065e5 	.word	0x000065e5
    6814:	00006605 	.word	0x00006605
    6818:	000065c5 	.word	0x000065c5
    681c:	000066a5 	.word	0x000066a5
    6820:	00006691 	.word	0x00006691

00006824 <grid_led_lowlevel_init>:
    6824:	b570      	push	{r4, r5, r6, lr}
    6826:	4e28      	ldr	r6, [pc, #160]	; (68c8 <grid_led_lowlevel_init+0xa4>)
    6828:	4605      	mov	r5, r0
    682a:	2200      	movs	r2, #0
    682c:	b293      	uxth	r3, r2
    682e:	f013 0f01 	tst.w	r3, #1
    6832:	bf14      	ite	ne
    6834:	f04f 6060 	movne.w	r0, #234881024	; 0xe000000
    6838:	f04f 6000 	moveq.w	r0, #134217728	; 0x8000000
    683c:	f013 0f02 	tst.w	r3, #2
    6840:	bf0c      	ite	eq
    6842:	f04f 4400 	moveq.w	r4, #2147483648	; 0x80000000
    6846:	f04f 4460 	movne.w	r4, #3758096384	; 0xe0000000
    684a:	f013 0f04 	tst.w	r3, #4
    684e:	ea44 0400 	orr.w	r4, r4, r0
    6852:	bf0c      	ite	eq
    6854:	f44f 2000 	moveq.w	r0, #524288	; 0x80000
    6858:	f44f 2060 	movne.w	r0, #917504	; 0xe0000
    685c:	f013 0f08 	tst.w	r3, #8
    6860:	ea40 0004 	orr.w	r0, r0, r4
    6864:	bf0c      	ite	eq
    6866:	f44f 0400 	moveq.w	r4, #8388608	; 0x800000
    686a:	f44f 0460 	movne.w	r4, #14680064	; 0xe00000
    686e:	f013 0f10 	tst.w	r3, #16
    6872:	ea40 0004 	orr.w	r0, r0, r4
    6876:	bf0c      	ite	eq
    6878:	f44f 6400 	moveq.w	r4, #2048	; 0x800
    687c:	f44f 6460 	movne.w	r4, #3584	; 0xe00
    6880:	f013 0f20 	tst.w	r3, #32
    6884:	ea44 0400 	orr.w	r4, r4, r0
    6888:	bf0c      	ite	eq
    688a:	f44f 4000 	moveq.w	r0, #32768	; 0x8000
    688e:	f44f 4060 	movne.w	r0, #57344	; 0xe000
    6892:	f013 0f40 	tst.w	r3, #64	; 0x40
    6896:	ea44 0400 	orr.w	r4, r4, r0
    689a:	bf0c      	ite	eq
    689c:	2008      	moveq	r0, #8
    689e:	200e      	movne	r0, #14
    68a0:	09db      	lsrs	r3, r3, #7
    68a2:	bf14      	ite	ne
    68a4:	23e0      	movne	r3, #224	; 0xe0
    68a6:	2380      	moveq	r3, #128	; 0x80
    68a8:	4320      	orrs	r0, r4
    68aa:	4303      	orrs	r3, r0
    68ac:	f846 3022 	str.w	r3, [r6, r2, lsl #2]
    68b0:	3201      	adds	r2, #1
    68b2:	f5b2 7f80 	cmp.w	r2, #256	; 0x100
    68b6:	d1b9      	bne.n	682c <grid_led_lowlevel_init+0x8>
    68b8:	4628      	mov	r0, r5
    68ba:	4b04      	ldr	r3, [pc, #16]	; (68cc <grid_led_lowlevel_init+0xa8>)
    68bc:	4798      	blx	r3
    68be:	4628      	mov	r0, r5
    68c0:	4b03      	ldr	r3, [pc, #12]	; (68d0 <grid_led_lowlevel_init+0xac>)
    68c2:	4798      	blx	r3
    68c4:	2000      	movs	r0, #0
    68c6:	bd70      	pop	{r4, r5, r6, pc}
    68c8:	200037b8 	.word	0x200037b8
    68cc:	000066b9 	.word	0x000066b9
    68d0:	00006561 	.word	0x00006561

000068d4 <grid_led_lowlevel_render>:
    68d4:	e92d 4ff0 	stmdb	sp!, {r4, r5, r6, r7, r8, r9, sl, fp, lr}
    68d8:	6904      	ldr	r4, [r0, #16]
    68da:	7843      	ldrb	r3, [r0, #1]
    68dc:	f8df a0a0 	ldr.w	sl, [pc, #160]	; 6980 <grid_led_lowlevel_render+0xac>
    68e0:	b085      	sub	sp, #20
    68e2:	2500      	movs	r5, #0
    68e4:	f04f 090d 	mov.w	r9, #13
    68e8:	9303      	str	r3, [sp, #12]
    68ea:	fb09 4401 	mla	r4, r9, r1, r4
    68ee:	2603      	movs	r6, #3
    68f0:	462b      	mov	r3, r5
    68f2:	462a      	mov	r2, r5
    68f4:	7ae7      	ldrb	r7, [r4, #11]
    68f6:	f894 c003 	ldrb.w	ip, [r4, #3]
    68fa:	f81a e007 	ldrb.w	lr, [sl, r7]
    68fe:	f894 b000 	ldrb.w	fp, [r4]
    6902:	4457      	add	r7, sl
    6904:	3e01      	subs	r6, #1
    6906:	f897 8100 	ldrb.w	r8, [r7, #256]	; 0x100
    690a:	f897 7200 	ldrb.w	r7, [r7, #512]	; 0x200
    690e:	fb1c fc08 	smulbb	ip, ip, r8
    6912:	fb0b cc0e 	mla	ip, fp, lr, ip
    6916:	f894 b006 	ldrb.w	fp, [r4, #6]
    691a:	fb0b cc07 	mla	ip, fp, r7, ip
    691e:	4462      	add	r2, ip
    6920:	f894 c004 	ldrb.w	ip, [r4, #4]
    6924:	f894 b001 	ldrb.w	fp, [r4, #1]
    6928:	fb1c fc08 	smulbb	ip, ip, r8
    692c:	fb0b cc0e 	mla	ip, fp, lr, ip
    6930:	f894 b007 	ldrb.w	fp, [r4, #7]
    6934:	fb0b cc07 	mla	ip, fp, r7, ip
    6938:	4463      	add	r3, ip
    693a:	f894 c005 	ldrb.w	ip, [r4, #5]
    693e:	f894 b002 	ldrb.w	fp, [r4, #2]
    6942:	fb1c f808 	smulbb	r8, ip, r8
    6946:	fb0b 8e0e 	mla	lr, fp, lr, r8
    694a:	f894 b008 	ldrb.w	fp, [r4, #8]
    694e:	fb0b e707 	mla	r7, fp, r7, lr
    6952:	443d      	add	r5, r7
    6954:	f8bd 700c 	ldrh.w	r7, [sp, #12]
    6958:	f016 06ff 	ands.w	r6, r6, #255	; 0xff
    695c:	fb19 4407 	smlabb	r4, r9, r7, r4
    6960:	d1c8      	bne.n	68f4 <grid_led_lowlevel_render+0x20>
    6962:	f3c5 254f 	ubfx	r5, r5, #9, #16
    6966:	9500      	str	r5, [sp, #0]
    6968:	f3c3 234f 	ubfx	r3, r3, #9, #16
    696c:	f3c2 224f 	ubfx	r2, r2, #9, #16
    6970:	4c02      	ldr	r4, [pc, #8]	; (697c <grid_led_lowlevel_render+0xa8>)
    6972:	47a0      	blx	r4
    6974:	b005      	add	sp, #20
    6976:	e8bd 8ff0 	ldmia.w	sp!, {r4, r5, r6, r7, r8, r9, sl, fp, pc}
    697a:	bf00      	nop
    697c:	00006515 	.word	0x00006515
    6980:	20000000 	.word	0x20000000

00006984 <grid_led_lowlevel_render_all>:
    6984:	b570      	push	{r4, r5, r6, lr}
    6986:	4e06      	ldr	r6, [pc, #24]	; (69a0 <grid_led_lowlevel_render_all+0x1c>)
    6988:	4605      	mov	r5, r0
    698a:	2400      	movs	r4, #0
    698c:	786b      	ldrb	r3, [r5, #1]
    698e:	429c      	cmp	r4, r3
    6990:	d300      	bcc.n	6994 <grid_led_lowlevel_render_all+0x10>
    6992:	bd70      	pop	{r4, r5, r6, pc}
    6994:	4621      	mov	r1, r4
    6996:	4628      	mov	r0, r5
    6998:	47b0      	blx	r6
    699a:	3401      	adds	r4, #1
    699c:	e7f6      	b.n	698c <grid_led_lowlevel_render_all+0x8>
    699e:	bf00      	nop
    69a0:	000068d5 	.word	0x000068d5

000069a4 <grid_led_lowlevel_hardware_start_transfer>:
    69a4:	b510      	push	{r4, lr}
    69a6:	4b07      	ldr	r3, [pc, #28]	; (69c4 <grid_led_lowlevel_hardware_start_transfer+0x20>)
    69a8:	4604      	mov	r4, r0
    69aa:	2200      	movs	r2, #0
    69ac:	701a      	strb	r2, [r3, #0]
    69ae:	4806      	ldr	r0, [pc, #24]	; (69c8 <grid_led_lowlevel_hardware_start_transfer+0x24>)
    69b0:	4b06      	ldr	r3, [pc, #24]	; (69cc <grid_led_lowlevel_hardware_start_transfer+0x28>)
    69b2:	4798      	blx	r3
    69b4:	88a2      	ldrh	r2, [r4, #4]
    69b6:	68a1      	ldr	r1, [r4, #8]
    69b8:	6960      	ldr	r0, [r4, #20]
    69ba:	4b05      	ldr	r3, [pc, #20]	; (69d0 <grid_led_lowlevel_hardware_start_transfer+0x2c>)
    69bc:	e8bd 4010 	ldmia.w	sp!, {r4, lr}
    69c0:	4718      	bx	r3
    69c2:	bf00      	nop
    69c4:	20001294 	.word	0x20001294
    69c8:	20001114 	.word	0x20001114
    69cc:	00009171 	.word	0x00009171
    69d0:	00008e7d 	.word	0x00008e7d

000069d4 <grid_module_common_init>:
    69d4:	e92d 4ff0 	stmdb	sp!, {r4, r5, r6, r7, r8, r9, sl, fp, lr}
    69d8:	4d6a      	ldr	r5, [pc, #424]	; (6b84 <grid_module_common_init+0x1b0>)
    69da:	4b6b      	ldr	r3, [pc, #428]	; (6b88 <grid_module_common_init+0x1b4>)
    69dc:	f8df 9228 	ldr.w	r9, [pc, #552]	; 6c08 <grid_module_common_init+0x234>
    69e0:	4f6a      	ldr	r7, [pc, #424]	; (6b8c <grid_module_common_init+0x1b8>)
    69e2:	4c6b      	ldr	r4, [pc, #428]	; (6b90 <grid_module_common_init+0x1bc>)
    69e4:	f8df b224 	ldr.w	fp, [pc, #548]	; 6c0c <grid_module_common_init+0x238>
    69e8:	b09d      	sub	sp, #116	; 0x74
    69ea:	4628      	mov	r0, r5
    69ec:	2101      	movs	r1, #1
    69ee:	4798      	blx	r3
    69f0:	2200      	movs	r2, #0
    69f2:	4611      	mov	r1, r2
    69f4:	4628      	mov	r0, r5
    69f6:	4b67      	ldr	r3, [pc, #412]	; (6b94 <grid_module_common_init+0x1c0>)
    69f8:	4798      	blx	r3
    69fa:	2264      	movs	r2, #100	; 0x64
    69fc:	2100      	movs	r1, #0
    69fe:	a803      	add	r0, sp, #12
    6a00:	47c8      	blx	r9
    6a02:	4965      	ldr	r1, [pc, #404]	; (6b98 <grid_module_common_init+0x1c4>)
    6a04:	4b65      	ldr	r3, [pc, #404]	; (6b9c <grid_module_common_init+0x1c8>)
    6a06:	a803      	add	r0, sp, #12
    6a08:	4798      	blx	r3
    6a0a:	a803      	add	r0, sp, #12
    6a0c:	47b8      	blx	r7
    6a0e:	ab03      	add	r3, sp, #12
    6a10:	fa53 f880 	uxtab	r8, r3, r0
    6a14:	ae1c      	add	r6, sp, #112	; 0x70
    6a16:	2303      	movs	r3, #3
    6a18:	f04f 0a00 	mov.w	sl, #0
    6a1c:	9300      	str	r3, [sp, #0]
    6a1e:	2202      	movs	r2, #2
    6a20:	2310      	movs	r3, #16
    6a22:	495f      	ldr	r1, [pc, #380]	; (6ba0 <grid_module_common_init+0x1cc>)
    6a24:	4640      	mov	r0, r8
    6a26:	47a0      	blx	r4
    6a28:	f806 ad65 	strb.w	sl, [r6, #-101]!
    6a2c:	230f      	movs	r3, #15
    6a2e:	2201      	movs	r2, #1
    6a30:	2104      	movs	r1, #4
    6a32:	9600      	str	r6, [sp, #0]
    6a34:	4c5b      	ldr	r4, [pc, #364]	; (6ba4 <grid_module_common_init+0x1d0>)
    6a36:	4640      	mov	r0, r8
    6a38:	47d8      	blx	fp
    6a3a:	47a0      	blx	r4
    6a3c:	9600      	str	r6, [sp, #0]
    6a3e:	4603      	mov	r3, r0
    6a40:	2202      	movs	r2, #2
    6a42:	2105      	movs	r1, #5
    6a44:	4640      	mov	r0, r8
    6a46:	47d8      	blx	fp
    6a48:	9600      	str	r6, [sp, #0]
    6a4a:	2301      	movs	r3, #1
    6a4c:	2202      	movs	r2, #2
    6a4e:	2107      	movs	r1, #7
    6a50:	4640      	mov	r0, r8
    6a52:	47d8      	blx	fp
    6a54:	9600      	str	r6, [sp, #0]
    6a56:	2301      	movs	r3, #1
    6a58:	2202      	movs	r2, #2
    6a5a:	2109      	movs	r1, #9
    6a5c:	4640      	mov	r0, r8
    6a5e:	47d8      	blx	fp
    6a60:	2302      	movs	r3, #2
    6a62:	461a      	mov	r2, r3
    6a64:	210b      	movs	r1, #11
    6a66:	9600      	str	r6, [sp, #0]
    6a68:	4640      	mov	r0, r8
    6a6a:	47d8      	blx	fp
    6a6c:	a803      	add	r0, sp, #12
    6a6e:	47b8      	blx	r7
    6a70:	686e      	ldr	r6, [r5, #4]
    6a72:	b2c3      	uxtb	r3, r0
    6a74:	aa03      	add	r2, sp, #12
    6a76:	4630      	mov	r0, r6
    6a78:	2101      	movs	r1, #1
    6a7a:	4e4b      	ldr	r6, [pc, #300]	; (6ba8 <grid_module_common_init+0x1d4>)
    6a7c:	47b0      	blx	r6
    6a7e:	2264      	movs	r2, #100	; 0x64
    6a80:	4651      	mov	r1, sl
    6a82:	a803      	add	r0, sp, #12
    6a84:	47c8      	blx	r9
    6a86:	4949      	ldr	r1, [pc, #292]	; (6bac <grid_module_common_init+0x1d8>)
    6a88:	4b44      	ldr	r3, [pc, #272]	; (6b9c <grid_module_common_init+0x1c8>)
    6a8a:	a803      	add	r0, sp, #12
    6a8c:	4798      	blx	r3
    6a8e:	a803      	add	r0, sp, #12
    6a90:	47b8      	blx	r7
    6a92:	f8d5 e004 	ldr.w	lr, [r5, #4]
    6a96:	b2c3      	uxtb	r3, r0
    6a98:	aa03      	add	r2, sp, #12
    6a9a:	4670      	mov	r0, lr
    6a9c:	2108      	movs	r1, #8
    6a9e:	47b0      	blx	r6
    6aa0:	2264      	movs	r2, #100	; 0x64
    6aa2:	4651      	mov	r1, sl
    6aa4:	a803      	add	r0, sp, #12
    6aa6:	47c8      	blx	r9
    6aa8:	4941      	ldr	r1, [pc, #260]	; (6bb0 <grid_module_common_init+0x1dc>)
    6aaa:	4b3c      	ldr	r3, [pc, #240]	; (6b9c <grid_module_common_init+0x1c8>)
    6aac:	a803      	add	r0, sp, #12
    6aae:	4798      	blx	r3
    6ab0:	a803      	add	r0, sp, #12
    6ab2:	47b8      	blx	r7
    6ab4:	f8d5 e004 	ldr.w	lr, [r5, #4]
    6ab8:	b2c3      	uxtb	r3, r0
    6aba:	aa03      	add	r2, sp, #12
    6abc:	4670      	mov	r0, lr
    6abe:	2109      	movs	r1, #9
    6ac0:	47b0      	blx	r6
    6ac2:	2264      	movs	r2, #100	; 0x64
    6ac4:	4651      	mov	r1, sl
    6ac6:	a803      	add	r0, sp, #12
    6ac8:	47c8      	blx	r9
    6aca:	493a      	ldr	r1, [pc, #232]	; (6bb4 <grid_module_common_init+0x1e0>)
    6acc:	4b33      	ldr	r3, [pc, #204]	; (6b9c <grid_module_common_init+0x1c8>)
    6ace:	a803      	add	r0, sp, #12
    6ad0:	4798      	blx	r3
    6ad2:	a803      	add	r0, sp, #12
    6ad4:	47b8      	blx	r7
    6ad6:	f8d5 e004 	ldr.w	lr, [r5, #4]
    6ada:	b2c3      	uxtb	r3, r0
    6adc:	aa03      	add	r2, sp, #12
    6ade:	4670      	mov	r0, lr
    6ae0:	210a      	movs	r1, #10
    6ae2:	47b0      	blx	r6
    6ae4:	2264      	movs	r2, #100	; 0x64
    6ae6:	4651      	mov	r1, sl
    6ae8:	a803      	add	r0, sp, #12
    6aea:	47c8      	blx	r9
    6aec:	4932      	ldr	r1, [pc, #200]	; (6bb8 <grid_module_common_init+0x1e4>)
    6aee:	4b2b      	ldr	r3, [pc, #172]	; (6b9c <grid_module_common_init+0x1c8>)
    6af0:	a803      	add	r0, sp, #12
    6af2:	4798      	blx	r3
    6af4:	a803      	add	r0, sp, #12
    6af6:	47b8      	blx	r7
    6af8:	686d      	ldr	r5, [r5, #4]
    6afa:	b2c3      	uxtb	r3, r0
    6afc:	aa03      	add	r2, sp, #12
    6afe:	4628      	mov	r0, r5
    6b00:	210b      	movs	r1, #11
    6b02:	47b0      	blx	r6
    6b04:	4d2d      	ldr	r5, [pc, #180]	; (6bbc <grid_module_common_init+0x1e8>)
    6b06:	492e      	ldr	r1, [pc, #184]	; (6bc0 <grid_module_common_init+0x1ec>)
    6b08:	482e      	ldr	r0, [pc, #184]	; (6bc4 <grid_module_common_init+0x1f0>)
    6b0a:	47a8      	blx	r5
    6b0c:	4b2e      	ldr	r3, [pc, #184]	; (6bc8 <grid_module_common_init+0x1f4>)
    6b0e:	f44f 4280 	mov.w	r2, #16384	; 0x4000
    6b12:	f8c3 2118 	str.w	r2, [r3, #280]	; 0x118
    6b16:	47a0      	blx	r4
    6b18:	462e      	mov	r6, r5
    6b1a:	b970      	cbnz	r0, 6b3a <grid_module_common_init+0x166>
    6b1c:	492b      	ldr	r1, [pc, #172]	; (6bcc <grid_module_common_init+0x1f8>)
    6b1e:	4829      	ldr	r0, [pc, #164]	; (6bc4 <grid_module_common_init+0x1f0>)
    6b20:	47b0      	blx	r6
    6b22:	4b2b      	ldr	r3, [pc, #172]	; (6bd0 <grid_module_common_init+0x1fc>)
    6b24:	4798      	blx	r3
    6b26:	4b2b      	ldr	r3, [pc, #172]	; (6bd4 <grid_module_common_init+0x200>)
    6b28:	482b      	ldr	r0, [pc, #172]	; (6bd8 <grid_module_common_init+0x204>)
    6b2a:	4798      	blx	r3
    6b2c:	492b      	ldr	r1, [pc, #172]	; (6bdc <grid_module_common_init+0x208>)
    6b2e:	482c      	ldr	r0, [pc, #176]	; (6be0 <grid_module_common_init+0x20c>)
    6b30:	4b2c      	ldr	r3, [pc, #176]	; (6be4 <grid_module_common_init+0x210>)
    6b32:	4798      	blx	r3
    6b34:	b01d      	add	sp, #116	; 0x74
    6b36:	e8bd 8ff0 	ldmia.w	sp!, {r4, r5, r6, r7, r8, r9, sl, fp, pc}
    6b3a:	47a0      	blx	r4
    6b3c:	2808      	cmp	r0, #8
    6b3e:	d0ed      	beq.n	6b1c <grid_module_common_init+0x148>
    6b40:	47a0      	blx	r4
    6b42:	2880      	cmp	r0, #128	; 0x80
    6b44:	d104      	bne.n	6b50 <grid_module_common_init+0x17c>
    6b46:	4928      	ldr	r1, [pc, #160]	; (6be8 <grid_module_common_init+0x214>)
    6b48:	481e      	ldr	r0, [pc, #120]	; (6bc4 <grid_module_common_init+0x1f0>)
    6b4a:	47b0      	blx	r6
    6b4c:	4b27      	ldr	r3, [pc, #156]	; (6bec <grid_module_common_init+0x218>)
    6b4e:	e7e9      	b.n	6b24 <grid_module_common_init+0x150>
    6b50:	47a0      	blx	r4
    6b52:	2888      	cmp	r0, #136	; 0x88
    6b54:	d0f7      	beq.n	6b46 <grid_module_common_init+0x172>
    6b56:	47a0      	blx	r4
    6b58:	2840      	cmp	r0, #64	; 0x40
    6b5a:	d104      	bne.n	6b66 <grid_module_common_init+0x192>
    6b5c:	4924      	ldr	r1, [pc, #144]	; (6bf0 <grid_module_common_init+0x21c>)
    6b5e:	4819      	ldr	r0, [pc, #100]	; (6bc4 <grid_module_common_init+0x1f0>)
    6b60:	47a8      	blx	r5
    6b62:	4b24      	ldr	r3, [pc, #144]	; (6bf4 <grid_module_common_init+0x220>)
    6b64:	e7de      	b.n	6b24 <grid_module_common_init+0x150>
    6b66:	47a0      	blx	r4
    6b68:	28c0      	cmp	r0, #192	; 0xc0
    6b6a:	d104      	bne.n	6b76 <grid_module_common_init+0x1a2>
    6b6c:	4922      	ldr	r1, [pc, #136]	; (6bf8 <grid_module_common_init+0x224>)
    6b6e:	4815      	ldr	r0, [pc, #84]	; (6bc4 <grid_module_common_init+0x1f0>)
    6b70:	47a8      	blx	r5
    6b72:	4b22      	ldr	r3, [pc, #136]	; (6bfc <grid_module_common_init+0x228>)
    6b74:	e7d6      	b.n	6b24 <grid_module_common_init+0x150>
    6b76:	4922      	ldr	r1, [pc, #136]	; (6c00 <grid_module_common_init+0x22c>)
    6b78:	4812      	ldr	r0, [pc, #72]	; (6bc4 <grid_module_common_init+0x1f0>)
    6b7a:	47a8      	blx	r5
    6b7c:	4921      	ldr	r1, [pc, #132]	; (6c04 <grid_module_common_init+0x230>)
    6b7e:	4811      	ldr	r0, [pc, #68]	; (6bc4 <grid_module_common_init+0x1f0>)
    6b80:	47a8      	blx	r5
    6b82:	e7d0      	b.n	6b26 <grid_module_common_init+0x152>
    6b84:	20007d58 	.word	0x20007d58
    6b88:	00008315 	.word	0x00008315
    6b8c:	0000ee55 	.word	0x0000ee55
    6b90:	0000edfd 	.word	0x0000edfd
    6b94:	000083a5 	.word	0x000083a5
    6b98:	000100f6 	.word	0x000100f6
    6b9c:	0000ee45 	.word	0x0000ee45
    6ba0:	00010107 	.word	0x00010107
    6ba4:	0000818d 	.word	0x0000818d
    6ba8:	00008491 	.word	0x00008491
    6bac:	00010119 	.word	0x00010119
    6bb0:	00010132 	.word	0x00010132
    6bb4:	00010143 	.word	0x00010143
    6bb8:	0001015c 	.word	0x0001015c
    6bbc:	0000eb79 	.word	0x0000eb79
    6bc0:	00010175 	.word	0x00010175
    6bc4:	0000fe97 	.word	0x0000fe97
    6bc8:	41008000 	.word	0x41008000
    6bcc:	00010185 	.word	0x00010185
    6bd0:	00007b3d 	.word	0x00007b3d
    6bd4:	00008019 	.word	0x00008019
    6bd8:	200032ec 	.word	0x200032ec
    6bdc:	20000fc0 	.word	0x20000fc0
    6be0:	20003394 	.word	0x20003394
    6be4:	00005161 	.word	0x00005161
    6be8:	00010197 	.word	0x00010197
    6bec:	00006e45 	.word	0x00006e45
    6bf0:	000101a9 	.word	0x000101a9
    6bf4:	000077cd 	.word	0x000077cd
    6bf8:	000101bb 	.word	0x000101bb
    6bfc:	00007339 	.word	0x00007339
    6c00:	000101cd 	.word	0x000101cd
    6c04:	000101e9 	.word	0x000101e9
    6c08:	0000ea0f 	.word	0x0000ea0f
    6c0c:	000082d1 	.word	0x000082d1

00006c10 <grid_module_bu16_revb_hardware_start_transfer>:
    6c10:	b510      	push	{r4, lr}
    6c12:	4c04      	ldr	r4, [pc, #16]	; (6c24 <grid_module_bu16_revb_hardware_start_transfer+0x14>)
    6c14:	4804      	ldr	r0, [pc, #16]	; (6c28 <grid_module_bu16_revb_hardware_start_transfer+0x18>)
    6c16:	47a0      	blx	r4
    6c18:	4623      	mov	r3, r4
    6c1a:	4804      	ldr	r0, [pc, #16]	; (6c2c <grid_module_bu16_revb_hardware_start_transfer+0x1c>)
    6c1c:	e8bd 4010 	ldmia.w	sp!, {r4, lr}
    6c20:	4718      	bx	r3
    6c22:	bf00      	nop
    6c24:	00008ce5 	.word	0x00008ce5
    6c28:	20001044 	.word	0x20001044
    6c2c:	20001218 	.word	0x20001218

00006c30 <grid_module_bu16_revb_hardware_transfer_complete_cb>:
    6c30:	e92d 4ff0 	stmdb	sp!, {r4, r5, r6, r7, r8, r9, sl, fp, lr}
    6c34:	4a65      	ldr	r2, [pc, #404]	; (6dcc <grid_module_bu16_revb_hardware_transfer_complete_cb+0x19c>)
    6c36:	7813      	ldrb	r3, [r2, #0]
    6c38:	b08b      	sub	sp, #44	; 0x2c
    6c3a:	4614      	mov	r4, r2
    6c3c:	b933      	cbnz	r3, 6c4c <grid_module_bu16_revb_hardware_transfer_complete_cb+0x1c>
    6c3e:	7813      	ldrb	r3, [r2, #0]
    6c40:	3301      	adds	r3, #1
    6c42:	b2db      	uxtb	r3, r3
    6c44:	7013      	strb	r3, [r2, #0]
    6c46:	b00b      	add	sp, #44	; 0x2c
    6c48:	e8bd 8ff0 	ldmia.w	sp!, {r4, r5, r6, r7, r8, r9, sl, fp, pc}
    6c4c:	2300      	movs	r3, #0
    6c4e:	f8ad 3014 	strh.w	r3, [sp, #20]
    6c52:	f8ad 3016 	strh.w	r3, [sp, #22]
    6c56:	7853      	ldrb	r3, [r2, #1]
    6c58:	4a5d      	ldr	r2, [pc, #372]	; (6dd0 <grid_module_bu16_revb_hardware_transfer_complete_cb+0x1a0>)
    6c5a:	4f5e      	ldr	r7, [pc, #376]	; (6dd4 <grid_module_bu16_revb_hardware_transfer_complete_cb+0x1a4>)
    6c5c:	485e      	ldr	r0, [pc, #376]	; (6dd8 <grid_module_bu16_revb_hardware_transfer_complete_cb+0x1a8>)
    6c5e:	3308      	adds	r3, #8
    6c60:	2100      	movs	r1, #0
    6c62:	5cd6      	ldrb	r6, [r2, r3]
    6c64:	7863      	ldrb	r3, [r4, #1]
    6c66:	b2db      	uxtb	r3, r3
    6c68:	b2f6      	uxtb	r6, r6
    6c6a:	5cd5      	ldrb	r5, [r2, r3]
    6c6c:	7863      	ldrb	r3, [r4, #1]
    6c6e:	3301      	adds	r3, #1
    6c70:	b2db      	uxtb	r3, r3
    6c72:	7063      	strb	r3, [r4, #1]
    6c74:	7863      	ldrb	r3, [r4, #1]
    6c76:	f003 0307 	and.w	r3, r3, #7
    6c7a:	7063      	strb	r3, [r4, #1]
    6c7c:	7863      	ldrb	r3, [r4, #1]
    6c7e:	f013 0f01 	tst.w	r3, #1
    6c82:	4b56      	ldr	r3, [pc, #344]	; (6ddc <grid_module_bu16_revb_hardware_transfer_complete_cb+0x1ac>)
    6c84:	f44f 2200 	mov.w	r2, #524288	; 0x80000
    6c88:	bf14      	ite	ne
    6c8a:	f8c3 2118 	strne.w	r2, [r3, #280]	; 0x118
    6c8e:	f8c3 2114 	streq.w	r2, [r3, #276]	; 0x114
    6c92:	7863      	ldrb	r3, [r4, #1]
    6c94:	f013 0f02 	tst.w	r3, #2
    6c98:	4b50      	ldr	r3, [pc, #320]	; (6ddc <grid_module_bu16_revb_hardware_transfer_complete_cb+0x1ac>)
    6c9a:	f44f 1280 	mov.w	r2, #1048576	; 0x100000
    6c9e:	bf14      	ite	ne
    6ca0:	f8c3 2118 	strne.w	r2, [r3, #280]	; 0x118
    6ca4:	f8c3 2114 	streq.w	r2, [r3, #276]	; 0x114
    6ca8:	7863      	ldrb	r3, [r4, #1]
    6caa:	f013 0f04 	tst.w	r3, #4
    6cae:	4b4b      	ldr	r3, [pc, #300]	; (6ddc <grid_module_bu16_revb_hardware_transfer_complete_cb+0x1ac>)
    6cb0:	f44f 1200 	mov.w	r2, #2097152	; 0x200000
    6cb4:	bf14      	ite	ne
    6cb6:	f8c3 2118 	strne.w	r2, [r3, #280]	; 0x118
    6cba:	f8c3 2114 	streq.w	r2, [r3, #276]	; 0x114
    6cbe:	2302      	movs	r3, #2
    6cc0:	aa05      	add	r2, sp, #20
    6cc2:	47b8      	blx	r7
    6cc4:	2302      	movs	r3, #2
    6cc6:	f10d 0216 	add.w	r2, sp, #22
    6cca:	2100      	movs	r1, #0
    6ccc:	4844      	ldr	r0, [pc, #272]	; (6de0 <grid_module_bu16_revb_hardware_transfer_complete_cb+0x1b0>)
    6cce:	47b8      	blx	r7
    6cd0:	2300      	movs	r3, #0
    6cd2:	f8ad 300c 	strh.w	r3, [sp, #12]
    6cd6:	f8ad 3010 	strh.w	r3, [sp, #16]
    6cda:	f8bd 3014 	ldrh.w	r3, [sp, #20]
    6cde:	f88d 6008 	strb.w	r6, [sp, #8]
    6ce2:	f64e 2260 	movw	r2, #60000	; 0xea60
    6ce6:	b2ed      	uxtb	r5, r5
    6ce8:	4293      	cmp	r3, r2
    6cea:	f88d 5009 	strb.w	r5, [sp, #9]
    6cee:	d95b      	bls.n	6da8 <grid_module_bu16_revb_hardware_transfer_complete_cb+0x178>
    6cf0:	2301      	movs	r3, #1
    6cf2:	f88d 3010 	strb.w	r3, [sp, #16]
    6cf6:	f8bd 3016 	ldrh.w	r3, [sp, #22]
    6cfa:	f64e 2260 	movw	r2, #60000	; 0xea60
    6cfe:	4293      	cmp	r3, r2
    6d00:	d958      	bls.n	6db4 <grid_module_bu16_revb_hardware_transfer_complete_cb+0x184>
    6d02:	2301      	movs	r3, #1
    6d04:	f88d 3011 	strb.w	r3, [sp, #17]
    6d08:	4b36      	ldr	r3, [pc, #216]	; (6de4 <grid_module_bu16_revb_hardware_transfer_complete_cb+0x1b4>)
    6d0a:	ad06      	add	r5, sp, #24
    6d0c:	f103 0610 	add.w	r6, r3, #16
    6d10:	6818      	ldr	r0, [r3, #0]
    6d12:	6859      	ldr	r1, [r3, #4]
    6d14:	462a      	mov	r2, r5
    6d16:	c203      	stmia	r2!, {r0, r1}
    6d18:	3308      	adds	r3, #8
    6d1a:	42b3      	cmp	r3, r6
    6d1c:	4615      	mov	r5, r2
    6d1e:	d1f7      	bne.n	6d10 <grid_module_bu16_revb_hardware_transfer_complete_cb+0xe0>
    6d20:	4d31      	ldr	r5, [pc, #196]	; (6de8 <grid_module_bu16_revb_hardware_transfer_complete_cb+0x1b8>)
    6d22:	f8df 90d0 	ldr.w	r9, [pc, #208]	; 6df4 <grid_module_bu16_revb_hardware_transfer_complete_cb+0x1c4>
    6d26:	2700      	movs	r7, #0
    6d28:	ab02      	add	r3, sp, #8
    6d2a:	5dd9      	ldrb	r1, [r3, r7]
    6d2c:	ab03      	add	r3, sp, #12
    6d2e:	eb04 0b01 	add.w	fp, r4, r1
    6d32:	f817 8003 	ldrb.w	r8, [r7, r3]
    6d36:	f89b 0002 	ldrb.w	r0, [fp, #2]
    6d3a:	686b      	ldr	r3, [r5, #4]
    6d3c:	4580      	cmp	r8, r0
    6d3e:	d02b      	beq.n	6d98 <grid_module_bu16_revb_hardware_transfer_complete_cb+0x168>
    6d40:	ae04      	add	r6, sp, #16
    6d42:	5dbe      	ldrb	r6, [r7, r6]
    6d44:	2e01      	cmp	r6, #1
    6d46:	d127      	bne.n	6d98 <grid_module_bu16_revb_hardware_transfer_complete_cb+0x168>
    6d48:	010e      	lsls	r6, r1, #4
    6d4a:	4433      	add	r3, r6
    6d4c:	aa0a      	add	r2, sp, #40	; 0x28
    6d4e:	685b      	ldr	r3, [r3, #4]
    6d50:	f8df a0a4 	ldr.w	sl, [pc, #164]	; 6df8 <grid_module_bu16_revb_hardware_transfer_complete_cb+0x1c8>
    6d54:	6019      	str	r1, [r3, #0]
    6d56:	eb02 0e01 	add.w	lr, r2, r1
    6d5a:	f81e 1c10 	ldrb.w	r1, [lr, #-16]
    6d5e:	6059      	str	r1, [r3, #4]
    6d60:	bb70      	cbnz	r0, 6dc0 <grid_module_bu16_revb_hardware_transfer_complete_cb+0x190>
    6d62:	217f      	movs	r1, #127	; 0x7f
    6d64:	6199      	str	r1, [r3, #24]
    6d66:	6868      	ldr	r0, [r5, #4]
    6d68:	21ff      	movs	r1, #255	; 0xff
    6d6a:	61d9      	str	r1, [r3, #28]
    6d6c:	2105      	movs	r1, #5
    6d6e:	4430      	add	r0, r6
    6d70:	4b1e      	ldr	r3, [pc, #120]	; (6dec <grid_module_bu16_revb_hardware_transfer_complete_cb+0x1bc>)
    6d72:	4798      	blx	r3
    6d74:	4603      	mov	r3, r0
    6d76:	6868      	ldr	r0, [r5, #4]
    6d78:	9301      	str	r3, [sp, #4]
    6d7a:	4619      	mov	r1, r3
    6d7c:	4430      	add	r0, r6
    6d7e:	47c8      	blx	r9
    6d80:	6869      	ldr	r1, [r5, #4]
    6d82:	9b01      	ldr	r3, [sp, #4]
    6d84:	440e      	add	r6, r1
    6d86:	b21b      	sxth	r3, r3
    6d88:	68f0      	ldr	r0, [r6, #12]
    6d8a:	ebc3 03c3 	rsb	r3, r3, r3, lsl #3
    6d8e:	eb00 0083 	add.w	r0, r0, r3, lsl #2
    6d92:	47d0      	blx	sl
    6d94:	f88b 8002 	strb.w	r8, [fp, #2]
    6d98:	3701      	adds	r7, #1
    6d9a:	2f02      	cmp	r7, #2
    6d9c:	d1c4      	bne.n	6d28 <grid_module_bu16_revb_hardware_transfer_complete_cb+0xf8>
    6d9e:	2300      	movs	r3, #0
    6da0:	7023      	strb	r3, [r4, #0]
    6da2:	4b13      	ldr	r3, [pc, #76]	; (6df0 <grid_module_bu16_revb_hardware_transfer_complete_cb+0x1c0>)
    6da4:	4798      	blx	r3
    6da6:	e74e      	b.n	6c46 <grid_module_bu16_revb_hardware_transfer_complete_cb+0x16>
    6da8:	2bc7      	cmp	r3, #199	; 0xc7
    6daa:	d8a4      	bhi.n	6cf6 <grid_module_bu16_revb_hardware_transfer_complete_cb+0xc6>
    6dac:	237f      	movs	r3, #127	; 0x7f
    6dae:	f88d 300c 	strb.w	r3, [sp, #12]
    6db2:	e79d      	b.n	6cf0 <grid_module_bu16_revb_hardware_transfer_complete_cb+0xc0>
    6db4:	2bc7      	cmp	r3, #199	; 0xc7
    6db6:	d8a7      	bhi.n	6d08 <grid_module_bu16_revb_hardware_transfer_complete_cb+0xd8>
    6db8:	237f      	movs	r3, #127	; 0x7f
    6dba:	f88d 300d 	strb.w	r3, [sp, #13]
    6dbe:	e7a0      	b.n	6d02 <grid_module_bu16_revb_hardware_transfer_complete_cb+0xd2>
    6dc0:	2100      	movs	r1, #0
    6dc2:	6199      	str	r1, [r3, #24]
    6dc4:	61d9      	str	r1, [r3, #28]
    6dc6:	6868      	ldr	r0, [r5, #4]
    6dc8:	2106      	movs	r1, #6
    6dca:	e7d0      	b.n	6d6e <grid_module_bu16_revb_hardware_transfer_complete_cb+0x13e>
    6dcc:	2000062e 	.word	0x2000062e
    6dd0:	20000300 	.word	0x20000300
    6dd4:	00008c71 	.word	0x00008c71
    6dd8:	20001044 	.word	0x20001044
    6ddc:	41008000 	.word	0x41008000
    6de0:	20001218 	.word	0x20001218
    6de4:	000101f8 	.word	0x000101f8
    6de8:	200032e0 	.word	0x200032e0
    6dec:	00008567 	.word	0x00008567
    6df0:	00006c11 	.word	0x00006c11
    6df4:	00008965 	.word	0x00008965
    6df8:	0000858d 	.word	0x0000858d

00006dfc <grid_module_bu16_revb_hardware_init>:
    6dfc:	e92d 41f0 	stmdb	sp!, {r4, r5, r6, r7, r8, lr}
    6e00:	4f0b      	ldr	r7, [pc, #44]	; (6e30 <grid_module_bu16_revb_hardware_init+0x34>)
    6e02:	4c0c      	ldr	r4, [pc, #48]	; (6e34 <grid_module_bu16_revb_hardware_init+0x38>)
    6e04:	4e0c      	ldr	r6, [pc, #48]	; (6e38 <grid_module_bu16_revb_hardware_init+0x3c>)
    6e06:	4d0d      	ldr	r5, [pc, #52]	; (6e3c <grid_module_bu16_revb_hardware_init+0x40>)
    6e08:	2200      	movs	r2, #0
    6e0a:	463b      	mov	r3, r7
    6e0c:	4611      	mov	r1, r2
    6e0e:	4620      	mov	r0, r4
    6e10:	47b0      	blx	r6
    6e12:	2200      	movs	r2, #0
    6e14:	463b      	mov	r3, r7
    6e16:	4611      	mov	r1, r2
    6e18:	4628      	mov	r0, r5
    6e1a:	47b0      	blx	r6
    6e1c:	4620      	mov	r0, r4
    6e1e:	4c08      	ldr	r4, [pc, #32]	; (6e40 <grid_module_bu16_revb_hardware_init+0x44>)
    6e20:	2100      	movs	r1, #0
    6e22:	47a0      	blx	r4
    6e24:	4628      	mov	r0, r5
    6e26:	4623      	mov	r3, r4
    6e28:	2100      	movs	r1, #0
    6e2a:	e8bd 41f0 	ldmia.w	sp!, {r4, r5, r6, r7, r8, lr}
    6e2e:	4718      	bx	r3
    6e30:	00006c31 	.word	0x00006c31
    6e34:	20001044 	.word	0x20001044
    6e38:	00008c35 	.word	0x00008c35
    6e3c:	20001218 	.word	0x20001218
    6e40:	00008c25 	.word	0x00008c25

00006e44 <grid_module_bu16_revb_init>:
    6e44:	e92d 4ff0 	stmdb	sp!, {r4, r5, r6, r7, r8, r9, sl, fp, lr}
    6e48:	2110      	movs	r1, #16
    6e4a:	b0e5      	sub	sp, #404	; 0x194
    6e4c:	4b25      	ldr	r3, [pc, #148]	; (6ee4 <grid_module_bu16_revb_init+0xa0>)
    6e4e:	4826      	ldr	r0, [pc, #152]	; (6ee8 <grid_module_bu16_revb_init+0xa4>)
    6e50:	4f26      	ldr	r7, [pc, #152]	; (6eec <grid_module_bu16_revb_init+0xa8>)
    6e52:	4798      	blx	r3
    6e54:	2110      	movs	r1, #16
    6e56:	4825      	ldr	r0, [pc, #148]	; (6eec <grid_module_bu16_revb_init+0xa8>)
    6e58:	4b25      	ldr	r3, [pc, #148]	; (6ef0 <grid_module_bu16_revb_init+0xac>)
    6e5a:	4798      	blx	r3
    6e5c:	2400      	movs	r4, #0
    6e5e:	4b25      	ldr	r3, [pc, #148]	; (6ef4 <grid_module_bu16_revb_init+0xb0>)
    6e60:	4822      	ldr	r0, [pc, #136]	; (6eec <grid_module_bu16_revb_init+0xa8>)
    6e62:	f8df a0ac 	ldr.w	sl, [pc, #172]	; 6f10 <grid_module_bu16_revb_init+0xcc>
    6e66:	f8df 80ac 	ldr.w	r8, [pc, #172]	; 6f14 <grid_module_bu16_revb_init+0xd0>
    6e6a:	f8df 90ac 	ldr.w	r9, [pc, #172]	; 6f18 <grid_module_bu16_revb_init+0xd4>
    6e6e:	b2e1      	uxtb	r1, r4
    6e70:	2202      	movs	r2, #2
    6e72:	4798      	blx	r3
    6e74:	22c8      	movs	r2, #200	; 0xc8
    6e76:	2100      	movs	r1, #0
    6e78:	4668      	mov	r0, sp
    6e7a:	47d0      	blx	sl
    6e7c:	491e      	ldr	r1, [pc, #120]	; (6ef8 <grid_module_bu16_revb_init+0xb4>)
    6e7e:	4668      	mov	r0, sp
    6e80:	47c0      	blx	r8
    6e82:	4668      	mov	r0, sp
    6e84:	47c8      	blx	r9
    6e86:	687d      	ldr	r5, [r7, #4]
    6e88:	0126      	lsls	r6, r4, #4
    6e8a:	fa5f fb80 	uxtb.w	fp, r0
    6e8e:	465b      	mov	r3, fp
    6e90:	466a      	mov	r2, sp
    6e92:	19a8      	adds	r0, r5, r6
    6e94:	2105      	movs	r1, #5
    6e96:	4d19      	ldr	r5, [pc, #100]	; (6efc <grid_module_bu16_revb_init+0xb8>)
    6e98:	47a8      	blx	r5
    6e9a:	4919      	ldr	r1, [pc, #100]	; (6f00 <grid_module_bu16_revb_init+0xbc>)
    6e9c:	4668      	mov	r0, sp
    6e9e:	47c0      	blx	r8
    6ea0:	6878      	ldr	r0, [r7, #4]
    6ea2:	465b      	mov	r3, fp
    6ea4:	466a      	mov	r2, sp
    6ea6:	2106      	movs	r1, #6
    6ea8:	4430      	add	r0, r6
    6eaa:	47a8      	blx	r5
    6eac:	22c8      	movs	r2, #200	; 0xc8
    6eae:	eb0d 0002 	add.w	r0, sp, r2
    6eb2:	2100      	movs	r1, #0
    6eb4:	47d0      	blx	sl
    6eb6:	4913      	ldr	r1, [pc, #76]	; (6f04 <grid_module_bu16_revb_init+0xc0>)
    6eb8:	a832      	add	r0, sp, #200	; 0xc8
    6eba:	47c0      	blx	r8
    6ebc:	a832      	add	r0, sp, #200	; 0xc8
    6ebe:	47c8      	blx	r9
    6ec0:	f8d7 e004 	ldr.w	lr, [r7, #4]
    6ec4:	b2c3      	uxtb	r3, r0
    6ec6:	aa32      	add	r2, sp, #200	; 0xc8
    6ec8:	2100      	movs	r1, #0
    6eca:	eb0e 0006 	add.w	r0, lr, r6
    6ece:	3401      	adds	r4, #1
    6ed0:	47a8      	blx	r5
    6ed2:	2c10      	cmp	r4, #16
    6ed4:	d1c3      	bne.n	6e5e <grid_module_bu16_revb_init+0x1a>
    6ed6:	4b0c      	ldr	r3, [pc, #48]	; (6f08 <grid_module_bu16_revb_init+0xc4>)
    6ed8:	4798      	blx	r3
    6eda:	4b0c      	ldr	r3, [pc, #48]	; (6f0c <grid_module_bu16_revb_init+0xc8>)
    6edc:	4798      	blx	r3
    6ede:	b065      	add	sp, #404	; 0x194
    6ee0:	e8bd 8ff0 	ldmia.w	sp!, {r4, r5, r6, r7, r8, r9, sl, fp, pc}
    6ee4:	00006825 	.word	0x00006825
    6ee8:	20007dcc 	.word	0x20007dcc
    6eec:	200032e0 	.word	0x200032e0
    6ef0:	00008315 	.word	0x00008315
    6ef4:	000083a5 	.word	0x000083a5
    6ef8:	00010208 	.word	0x00010208
    6efc:	00008491 	.word	0x00008491
    6f00:	00010233 	.word	0x00010233
    6f04:	0001025e 	.word	0x0001025e
    6f08:	00006dfd 	.word	0x00006dfd
    6f0c:	00006c11 	.word	0x00006c11
    6f10:	0000ea0f 	.word	0x0000ea0f
    6f14:	0000ee45 	.word	0x0000ee45
    6f18:	0000ee55 	.word	0x0000ee55

00006f1c <grid_module_en16_reva_hardware_start_transfer>:
    6f1c:	b510      	push	{r4, lr}
    6f1e:	4b09      	ldr	r3, [pc, #36]	; (6f44 <grid_module_en16_reva_hardware_start_transfer+0x28>)
    6f20:	4c09      	ldr	r4, [pc, #36]	; (6f48 <grid_module_en16_reva_hardware_start_transfer+0x2c>)
    6f22:	f44f 1200 	mov.w	r2, #2097152	; 0x200000
    6f26:	619a      	str	r2, [r3, #24]
    6f28:	4620      	mov	r0, r4
    6f2a:	4b08      	ldr	r3, [pc, #32]	; (6f4c <grid_module_en16_reva_hardware_start_transfer+0x30>)
    6f2c:	4798      	blx	r3
    6f2e:	4a08      	ldr	r2, [pc, #32]	; (6f50 <grid_module_en16_reva_hardware_start_transfer+0x34>)
    6f30:	4620      	mov	r0, r4
    6f32:	4c08      	ldr	r4, [pc, #32]	; (6f54 <grid_module_en16_reva_hardware_start_transfer+0x38>)
    6f34:	2308      	movs	r3, #8
    6f36:	46a4      	mov	ip, r4
    6f38:	f102 010e 	add.w	r1, r2, #14
    6f3c:	e8bd 4010 	ldmia.w	sp!, {r4, lr}
    6f40:	4760      	bx	ip
    6f42:	bf00      	nop
    6f44:	41008000 	.word	0x41008000
    6f48:	20000f38 	.word	0x20000f38
    6f4c:	00009075 	.word	0x00009075
    6f50:	20000640 	.word	0x20000640
    6f54:	000090b1 	.word	0x000090b1

00006f58 <grid_module_en16_reva_hardware_transfer_complete_cb>:
    6f58:	e92d 4ff0 	stmdb	sp!, {r4, r5, r6, r7, r8, r9, sl, fp, lr}
    6f5c:	4b8e      	ldr	r3, [pc, #568]	; (7198 <grid_module_en16_reva_hardware_transfer_complete_cb+0x240>)
    6f5e:	488f      	ldr	r0, [pc, #572]	; (719c <grid_module_en16_reva_hardware_transfer_complete_cb+0x244>)
    6f60:	f44f 1200 	mov.w	r2, #2097152	; 0x200000
    6f64:	615a      	str	r2, [r3, #20]
    6f66:	b08b      	sub	sp, #44	; 0x2c
    6f68:	4b8d      	ldr	r3, [pc, #564]	; (71a0 <grid_module_en16_reva_hardware_transfer_complete_cb+0x248>)
    6f6a:	4798      	blx	r3
    6f6c:	4603      	mov	r3, r0
    6f6e:	28ff      	cmp	r0, #255	; 0xff
    6f70:	bf08      	it	eq
    6f72:	2300      	moveq	r3, #0
    6f74:	9302      	str	r3, [sp, #8]
    6f76:	4b89      	ldr	r3, [pc, #548]	; (719c <grid_module_en16_reva_hardware_transfer_complete_cb+0x244>)
    6f78:	7ada      	ldrb	r2, [r3, #11]
    6f7a:	2a00      	cmp	r2, #0
    6f7c:	f040 80b8 	bne.w	70f0 <grid_module_en16_reva_hardware_transfer_complete_cb+0x198>
    6f80:	f8df 9264 	ldr.w	r9, [pc, #612]	; 71e8 <grid_module_en16_reva_hardware_transfer_complete_cb+0x290>
    6f84:	f04f 0800 	mov.w	r8, #0
    6f88:	fa5f f288 	uxtb.w	r2, r8
    6f8c:	0853      	lsrs	r3, r2, #1
    6f8e:	f002 0101 	and.w	r1, r2, #1
    6f92:	f819 3003 	ldrb.w	r3, [r9, r3]
    6f96:	0089      	lsls	r1, r1, #2
    6f98:	410b      	asrs	r3, r1
    6f9a:	eb09 0108 	add.w	r1, r9, r8
    6f9e:	b2db      	uxtb	r3, r3
    6fa0:	f891 105c 	ldrb.w	r1, [r1, #92]	; 0x5c
    6fa4:	f003 060f 	and.w	r6, r3, #15
    6fa8:	428e      	cmp	r6, r1
    6faa:	f000 8168 	beq.w	727e <grid_module_en16_reva_hardware_transfer_complete_cb+0x326>
    6fae:	497d      	ldr	r1, [pc, #500]	; (71a4 <grid_module_en16_reva_hardware_transfer_complete_cb+0x24c>)
    6fb0:	f818 4001 	ldrb.w	r4, [r8, r1]
    6fb4:	497c      	ldr	r1, [pc, #496]	; (71a8 <grid_module_en16_reva_hardware_transfer_complete_cb+0x250>)
    6fb6:	700a      	strb	r2, [r1, #0]
    6fb8:	4a7c      	ldr	r2, [pc, #496]	; (71ac <grid_module_en16_reva_hardware_transfer_complete_cb+0x254>)
    6fba:	9201      	str	r2, [sp, #4]
    6fbc:	f003 0301 	and.w	r3, r3, #1
    6fc0:	0125      	lsls	r5, r4, #4
    6fc2:	9303      	str	r3, [sp, #12]
    6fc4:	1953      	adds	r3, r2, r5
    6fc6:	ea4f 0c96 	mov.w	ip, r6, lsr #2
    6fca:	7859      	ldrb	r1, [r3, #1]
    6fcc:	4561      	cmp	r1, ip
    6fce:	f3c6 0640 	ubfx	r6, r6, #1, #1
    6fd2:	d03f      	beq.n	7054 <grid_module_en16_reva_hardware_transfer_complete_cb+0xfc>
    6fd4:	2201      	movs	r2, #1
    6fd6:	709a      	strb	r2, [r3, #2]
    6fd8:	f883 c001 	strb.w	ip, [r3, #1]
    6fdc:	4b74      	ldr	r3, [pc, #464]	; (71b0 <grid_module_en16_reva_hardware_transfer_complete_cb+0x258>)
    6fde:	4a75      	ldr	r2, [pc, #468]	; (71b4 <grid_module_en16_reva_hardware_transfer_complete_cb+0x25c>)
    6fe0:	685b      	ldr	r3, [r3, #4]
    6fe2:	442b      	add	r3, r5
    6fe4:	462f      	mov	r7, r5
    6fe6:	685b      	ldr	r3, [r3, #4]
    6fe8:	f10d 0a18 	add.w	sl, sp, #24
    6fec:	f102 0b10 	add.w	fp, r2, #16
    6ff0:	6810      	ldr	r0, [r2, #0]
    6ff2:	6851      	ldr	r1, [r2, #4]
    6ff4:	46d6      	mov	lr, sl
    6ff6:	e8ae 0003 	stmia.w	lr!, {r0, r1}
    6ffa:	3208      	adds	r2, #8
    6ffc:	455a      	cmp	r2, fp
    6ffe:	46f2      	mov	sl, lr
    7000:	d1f6      	bne.n	6ff0 <grid_module_en16_reva_hardware_transfer_complete_cb+0x98>
    7002:	aa0a      	add	r2, sp, #40	; 0x28
    7004:	4422      	add	r2, r4
    7006:	601c      	str	r4, [r3, #0]
    7008:	f812 2c10 	ldrb.w	r2, [r2, #-16]
    700c:	605a      	str	r2, [r3, #4]
    700e:	f1bc 0f00 	cmp.w	ip, #0
    7012:	f040 80b2 	bne.w	717a <grid_module_en16_reva_hardware_transfer_complete_cb+0x222>
    7016:	f8df b198 	ldr.w	fp, [pc, #408]	; 71b0 <grid_module_en16_reva_hardware_transfer_complete_cb+0x258>
    701a:	227f      	movs	r2, #127	; 0x7f
    701c:	619a      	str	r2, [r3, #24]
    701e:	f8db 0004 	ldr.w	r0, [fp, #4]
    7022:	22ff      	movs	r2, #255	; 0xff
    7024:	61da      	str	r2, [r3, #28]
    7026:	2105      	movs	r1, #5
    7028:	4438      	add	r0, r7
    702a:	4b63      	ldr	r3, [pc, #396]	; (71b8 <grid_module_en16_reva_hardware_transfer_complete_cb+0x260>)
    702c:	4798      	blx	r3
    702e:	4682      	mov	sl, r0
    7030:	f8db 0004 	ldr.w	r0, [fp, #4]
    7034:	4b61      	ldr	r3, [pc, #388]	; (71bc <grid_module_en16_reva_hardware_transfer_complete_cb+0x264>)
    7036:	4651      	mov	r1, sl
    7038:	4438      	add	r0, r7
    703a:	4798      	blx	r3
    703c:	f8db 3004 	ldr.w	r3, [fp, #4]
    7040:	441f      	add	r7, r3
    7042:	fa0f fa8a 	sxth.w	sl, sl
    7046:	68f8      	ldr	r0, [r7, #12]
    7048:	4b5d      	ldr	r3, [pc, #372]	; (71c0 <grid_module_en16_reva_hardware_transfer_complete_cb+0x268>)
    704a:	ebca 0aca 	rsb	sl, sl, sl, lsl #3
    704e:	eb00 008a 	add.w	r0, r0, sl, lsl #2
    7052:	4798      	blx	r3
    7054:	9b01      	ldr	r3, [sp, #4]
    7056:	442b      	add	r3, r5
    7058:	7b5b      	ldrb	r3, [r3, #13]
    705a:	42b3      	cmp	r3, r6
    705c:	f000 8096 	beq.w	718c <grid_module_en16_reva_hardware_transfer_complete_cb+0x234>
    7060:	9b03      	ldr	r3, [sp, #12]
    7062:	429e      	cmp	r6, r3
    7064:	bf14      	ite	ne
    7066:	f04f 37ff 	movne.w	r7, #4294967295
    706a:	2701      	moveq	r7, #1
    706c:	9b01      	ldr	r3, [sp, #4]
    706e:	f89d 200c 	ldrb.w	r2, [sp, #12]
    7072:	442b      	add	r3, r5
    7074:	735e      	strb	r6, [r3, #13]
    7076:	739a      	strb	r2, [r3, #14]
    7078:	2f00      	cmp	r7, #0
    707a:	f000 8100 	beq.w	727e <grid_module_en16_reva_hardware_transfer_complete_cb+0x326>
    707e:	6899      	ldr	r1, [r3, #8]
    7080:	4846      	ldr	r0, [pc, #280]	; (719c <grid_module_en16_reva_hardware_transfer_complete_cb+0x244>)
    7082:	4b50      	ldr	r3, [pc, #320]	; (71c4 <grid_module_en16_reva_hardware_transfer_complete_cb+0x26c>)
    7084:	4e50      	ldr	r6, [pc, #320]	; (71c8 <grid_module_en16_reva_hardware_transfer_complete_cb+0x270>)
    7086:	4798      	blx	r3
    7088:	9005      	str	r0, [sp, #20]
    708a:	9b05      	ldr	r3, [sp, #20]
    708c:	484f      	ldr	r0, [pc, #316]	; (71cc <grid_module_en16_reva_hardware_transfer_complete_cb+0x274>)
    708e:	f5b3 7fc8 	cmp.w	r3, #400	; 0x190
    7092:	bf84      	itt	hi
    7094:	f44f 73c8 	movhi.w	r3, #400	; 0x190
    7098:	9305      	strhi	r3, [sp, #20]
    709a:	9b05      	ldr	r3, [sp, #20]
    709c:	2b13      	cmp	r3, #19
    709e:	bf9c      	itt	ls
    70a0:	2314      	movls	r3, #20
    70a2:	9305      	strls	r3, [sp, #20]
    70a4:	9b05      	ldr	r3, [sp, #20]
    70a6:	9a05      	ldr	r2, [sp, #20]
    70a8:	fb02 0013 	mls	r0, r2, r3, r0
    70ac:	4b48      	ldr	r3, [pc, #288]	; (71d0 <grid_module_en16_reva_hardware_transfer_complete_cb+0x278>)
    70ae:	4798      	blx	r3
    70b0:	a337      	add	r3, pc, #220	; (adr r3, 7190 <grid_module_en16_reva_hardware_transfer_complete_cb+0x238>)
    70b2:	e9d3 2300 	ldrd	r2, r3, [r3]
    70b6:	47b0      	blx	r6
    70b8:	2200      	movs	r2, #0
    70ba:	4b46      	ldr	r3, [pc, #280]	; (71d4 <grid_module_en16_reva_hardware_transfer_complete_cb+0x27c>)
    70bc:	4e46      	ldr	r6, [pc, #280]	; (71d8 <grid_module_en16_reva_hardware_transfer_complete_cb+0x280>)
    70be:	47b0      	blx	r6
    70c0:	4b46      	ldr	r3, [pc, #280]	; (71dc <grid_module_en16_reva_hardware_transfer_complete_cb+0x284>)
    70c2:	4798      	blx	r3
    70c4:	4b46      	ldr	r3, [pc, #280]	; (71e0 <grid_module_en16_reva_hardware_transfer_complete_cb+0x288>)
    70c6:	b286      	uxth	r6, r0
    70c8:	4834      	ldr	r0, [pc, #208]	; (719c <grid_module_en16_reva_hardware_transfer_complete_cb+0x244>)
    70ca:	4798      	blx	r3
    70cc:	9b01      	ldr	r3, [sp, #4]
    70ce:	442b      	add	r3, r5
    70d0:	461d      	mov	r5, r3
    70d2:	6098      	str	r0, [r3, #8]
    70d4:	1c73      	adds	r3, r6, #1
    70d6:	fb13 f307 	smulbb	r3, r3, r7
    70da:	b29b      	uxth	r3, r3
    70dc:	1c7a      	adds	r2, r7, #1
    70de:	b219      	sxth	r1, r3
    70e0:	f040 80db 	bne.w	729a <grid_module_en16_reva_hardware_transfer_complete_cb+0x342>
    70e4:	78ea      	ldrb	r2, [r5, #3]
    70e6:	42ca      	cmn	r2, r1
    70e8:	f100 8080 	bmi.w	71ec <grid_module_en16_reva_hardware_transfer_complete_cb+0x294>
    70ec:	4413      	add	r3, r2
    70ee:	e07e      	b.n	71ee <grid_module_en16_reva_hardware_transfer_complete_cb+0x296>
    70f0:	2400      	movs	r4, #0
    70f2:	72dc      	strb	r4, [r3, #11]
    70f4:	f9bd 9008 	ldrsh.w	r9, [sp, #8]
    70f8:	4b3a      	ldr	r3, [pc, #232]	; (71e4 <grid_module_en16_reva_hardware_transfer_complete_cb+0x28c>)
    70fa:	f8df a0b4 	ldr.w	sl, [pc, #180]	; 71b0 <grid_module_en16_reva_hardware_transfer_complete_cb+0x258>
    70fe:	eb03 1909 	add.w	r9, r3, r9, lsl #4
    7102:	46d0      	mov	r8, sl
    7104:	f8da 3004 	ldr.w	r3, [sl, #4]
    7108:	4a2a      	ldr	r2, [pc, #168]	; (71b4 <grid_module_en16_reva_hardware_transfer_complete_cb+0x25c>)
    710a:	f819 6004 	ldrb.w	r6, [r9, r4]
    710e:	0125      	lsls	r5, r4, #4
    7110:	442b      	add	r3, r5
    7112:	af06      	add	r7, sp, #24
    7114:	685b      	ldr	r3, [r3, #4]
    7116:	f102 0b10 	add.w	fp, r2, #16
    711a:	46bc      	mov	ip, r7
    711c:	6810      	ldr	r0, [r2, #0]
    711e:	6851      	ldr	r1, [r2, #4]
    7120:	46be      	mov	lr, r7
    7122:	e8ae 0003 	stmia.w	lr!, {r0, r1}
    7126:	3208      	adds	r2, #8
    7128:	455a      	cmp	r2, fp
    712a:	4677      	mov	r7, lr
    712c:	d1f6      	bne.n	711c <grid_module_en16_reva_hardware_transfer_complete_cb+0x1c4>
    712e:	f81c 2004 	ldrb.w	r2, [ip, r4]
    7132:	f8d8 0004 	ldr.w	r0, [r8, #4]
    7136:	605a      	str	r2, [r3, #4]
    7138:	609e      	str	r6, [r3, #8]
    713a:	2200      	movs	r2, #0
    713c:	0076      	lsls	r6, r6, #1
    713e:	611a      	str	r2, [r3, #16]
    7140:	615a      	str	r2, [r3, #20]
    7142:	601c      	str	r4, [r3, #0]
    7144:	60de      	str	r6, [r3, #12]
    7146:	2102      	movs	r1, #2
    7148:	4428      	add	r0, r5
    714a:	4b1b      	ldr	r3, [pc, #108]	; (71b8 <grid_module_en16_reva_hardware_transfer_complete_cb+0x260>)
    714c:	4798      	blx	r3
    714e:	4606      	mov	r6, r0
    7150:	f8d8 0004 	ldr.w	r0, [r8, #4]
    7154:	4b19      	ldr	r3, [pc, #100]	; (71bc <grid_module_en16_reva_hardware_transfer_complete_cb+0x264>)
    7156:	4631      	mov	r1, r6
    7158:	4428      	add	r0, r5
    715a:	4798      	blx	r3
    715c:	f8d8 3004 	ldr.w	r3, [r8, #4]
    7160:	441d      	add	r5, r3
    7162:	b236      	sxth	r6, r6
    7164:	68e8      	ldr	r0, [r5, #12]
    7166:	4b16      	ldr	r3, [pc, #88]	; (71c0 <grid_module_en16_reva_hardware_transfer_complete_cb+0x268>)
    7168:	ebc6 06c6 	rsb	r6, r6, r6, lsl #3
    716c:	eb00 0086 	add.w	r0, r0, r6, lsl #2
    7170:	3401      	adds	r4, #1
    7172:	4798      	blx	r3
    7174:	2c10      	cmp	r4, #16
    7176:	d1c5      	bne.n	7104 <grid_module_en16_reva_hardware_transfer_complete_cb+0x1ac>
    7178:	e702      	b.n	6f80 <grid_module_en16_reva_hardware_transfer_complete_cb+0x28>
    717a:	f8df b034 	ldr.w	fp, [pc, #52]	; 71b0 <grid_module_en16_reva_hardware_transfer_complete_cb+0x258>
    717e:	2200      	movs	r2, #0
    7180:	619a      	str	r2, [r3, #24]
    7182:	61da      	str	r2, [r3, #28]
    7184:	f8db 0004 	ldr.w	r0, [fp, #4]
    7188:	2106      	movs	r1, #6
    718a:	e74d      	b.n	7028 <grid_module_en16_reva_hardware_transfer_complete_cb+0xd0>
    718c:	2700      	movs	r7, #0
    718e:	e76d      	b.n	706c <grid_module_en16_reva_hardware_transfer_complete_cb+0x114>
    7190:	00000000 	.word	0x00000000
    7194:	40ed4c00 	.word	0x40ed4c00
    7198:	41008000 	.word	0x41008000
    719c:	200032ec 	.word	0x200032ec
    71a0:	00007f4d 	.word	0x00007f4d
    71a4:	20000310 	.word	0x20000310
    71a8:	200022b4 	.word	0x200022b4
    71ac:	20006c38 	.word	0x20006c38
    71b0:	200032e0 	.word	0x200032e0
    71b4:	0001027f 	.word	0x0001027f
    71b8:	00008567 	.word	0x00008567
    71bc:	00008965 	.word	0x00008965
    71c0:	0000858d 	.word	0x0000858d
    71c4:	00008081 	.word	0x00008081
    71c8:	0000e791 	.word	0x0000e791
    71cc:	00027100 	.word	0x00027100
    71d0:	0000e451 	.word	0x0000e451
    71d4:	3ff00000 	.word	0x3ff00000
    71d8:	0000e1d9 	.word	0x0000e1d9
    71dc:	0000e961 	.word	0x0000e961
    71e0:	0000807d 	.word	0x0000807d
    71e4:	2000065c 	.word	0x2000065c
    71e8:	20000640 	.word	0x20000640
    71ec:	2300      	movs	r3, #0
    71ee:	70eb      	strb	r3, [r5, #3]
    71f0:	9b02      	ldr	r3, [sp, #8]
    71f2:	011b      	lsls	r3, r3, #4
    71f4:	eb09 0203 	add.w	r2, r9, r3
    71f8:	4422      	add	r2, r4
    71fa:	7f12      	ldrb	r2, [r2, #28]
    71fc:	fb06 2107 	mla	r1, r6, r7, r2
    7200:	2900      	cmp	r1, #0
    7202:	db53      	blt.n	72ac <grid_module_en16_reva_hardware_transfer_complete_cb+0x354>
    7204:	297f      	cmp	r1, #127	; 0x7f
    7206:	dc53      	bgt.n	72b0 <grid_module_en16_reva_hardware_transfer_complete_cb+0x358>
    7208:	f001 07ff 	and.w	r7, r1, #255	; 0xff
    720c:	4297      	cmp	r7, r2
    720e:	d036      	beq.n	727e <grid_module_en16_reva_hardware_transfer_complete_cb+0x326>
    7210:	444b      	add	r3, r9
    7212:	4423      	add	r3, r4
    7214:	4e27      	ldr	r6, [pc, #156]	; (72b4 <grid_module_en16_reva_hardware_transfer_complete_cb+0x35c>)
    7216:	771f      	strb	r7, [r3, #28]
    7218:	6873      	ldr	r3, [r6, #4]
    721a:	4a27      	ldr	r2, [pc, #156]	; (72b8 <grid_module_en16_reva_hardware_transfer_complete_cb+0x360>)
    721c:	0125      	lsls	r5, r4, #4
    721e:	442b      	add	r3, r5
    7220:	f10d 0c18 	add.w	ip, sp, #24
    7224:	685b      	ldr	r3, [r3, #4]
    7226:	f102 0a10 	add.w	sl, r2, #16
    722a:	6810      	ldr	r0, [r2, #0]
    722c:	6851      	ldr	r1, [r2, #4]
    722e:	46e6      	mov	lr, ip
    7230:	e8ae 0003 	stmia.w	lr!, {r0, r1}
    7234:	3208      	adds	r2, #8
    7236:	4552      	cmp	r2, sl
    7238:	46f4      	mov	ip, lr
    723a:	d1f6      	bne.n	722a <grid_module_en16_reva_hardware_transfer_complete_cb+0x2d2>
    723c:	aa0a      	add	r2, sp, #40	; 0x28
    723e:	601c      	str	r4, [r3, #0]
    7240:	4414      	add	r4, r2
    7242:	6870      	ldr	r0, [r6, #4]
    7244:	f814 2c10 	ldrb.w	r2, [r4, #-16]
    7248:	605a      	str	r2, [r3, #4]
    724a:	609f      	str	r7, [r3, #8]
    724c:	2200      	movs	r2, #0
    724e:	007f      	lsls	r7, r7, #1
    7250:	611a      	str	r2, [r3, #16]
    7252:	615a      	str	r2, [r3, #20]
    7254:	60df      	str	r7, [r3, #12]
    7256:	2102      	movs	r1, #2
    7258:	4428      	add	r0, r5
    725a:	4b18      	ldr	r3, [pc, #96]	; (72bc <grid_module_en16_reva_hardware_transfer_complete_cb+0x364>)
    725c:	4798      	blx	r3
    725e:	4604      	mov	r4, r0
    7260:	6870      	ldr	r0, [r6, #4]
    7262:	4b17      	ldr	r3, [pc, #92]	; (72c0 <grid_module_en16_reva_hardware_transfer_complete_cb+0x368>)
    7264:	4621      	mov	r1, r4
    7266:	4428      	add	r0, r5
    7268:	4798      	blx	r3
    726a:	6873      	ldr	r3, [r6, #4]
    726c:	441d      	add	r5, r3
    726e:	b224      	sxth	r4, r4
    7270:	68e8      	ldr	r0, [r5, #12]
    7272:	4b14      	ldr	r3, [pc, #80]	; (72c4 <grid_module_en16_reva_hardware_transfer_complete_cb+0x36c>)
    7274:	ebc4 04c4 	rsb	r4, r4, r4, lsl #3
    7278:	eb00 0084 	add.w	r0, r0, r4, lsl #2
    727c:	4798      	blx	r3
    727e:	f108 0801 	add.w	r8, r8, #1
    7282:	f1b8 0f10 	cmp.w	r8, #16
    7286:	f47f ae7f 	bne.w	6f88 <grid_module_en16_reva_hardware_transfer_complete_cb+0x30>
    728a:	4b0f      	ldr	r3, [pc, #60]	; (72c8 <grid_module_en16_reva_hardware_transfer_complete_cb+0x370>)
    728c:	2200      	movs	r2, #0
    728e:	701a      	strb	r2, [r3, #0]
    7290:	4b0e      	ldr	r3, [pc, #56]	; (72cc <grid_module_en16_reva_hardware_transfer_complete_cb+0x374>)
    7292:	4798      	blx	r3
    7294:	b00b      	add	sp, #44	; 0x2c
    7296:	e8bd 8ff0 	ldmia.w	sp!, {r4, r5, r6, r7, r8, r9, sl, fp, pc}
    729a:	2f01      	cmp	r7, #1
    729c:	d1a8      	bne.n	71f0 <grid_module_en16_reva_hardware_transfer_complete_cb+0x298>
    729e:	78ea      	ldrb	r2, [r5, #3]
    72a0:	4411      	add	r1, r2
    72a2:	297f      	cmp	r1, #127	; 0x7f
    72a4:	f77f af22 	ble.w	70ec <grid_module_en16_reva_hardware_transfer_complete_cb+0x194>
    72a8:	237f      	movs	r3, #127	; 0x7f
    72aa:	e7a0      	b.n	71ee <grid_module_en16_reva_hardware_transfer_complete_cb+0x296>
    72ac:	2700      	movs	r7, #0
    72ae:	e7ad      	b.n	720c <grid_module_en16_reva_hardware_transfer_complete_cb+0x2b4>
    72b0:	277f      	movs	r7, #127	; 0x7f
    72b2:	e7ab      	b.n	720c <grid_module_en16_reva_hardware_transfer_complete_cb+0x2b4>
    72b4:	200032e0 	.word	0x200032e0
    72b8:	0001027f 	.word	0x0001027f
    72bc:	00008567 	.word	0x00008567
    72c0:	00008965 	.word	0x00008965
    72c4:	0000858d 	.word	0x0000858d
    72c8:	20007de8 	.word	0x20007de8
    72cc:	00006f1d 	.word	0x00006f1d

000072d0 <grid_module_en16_reva_hardware_init>:
    72d0:	4b0f      	ldr	r3, [pc, #60]	; (7310 <grid_module_en16_reva_hardware_init+0x40>)
    72d2:	f44f 1200 	mov.w	r2, #2097152	; 0x200000
    72d6:	b510      	push	{r4, lr}
    72d8:	615a      	str	r2, [r3, #20]
    72da:	4c0e      	ldr	r4, [pc, #56]	; (7314 <grid_module_en16_reva_hardware_init+0x44>)
    72dc:	609a      	str	r2, [r3, #8]
    72de:	f04f 4280 	mov.w	r2, #1073741824	; 0x40000000
    72e2:	629a      	str	r2, [r3, #40]	; 0x28
    72e4:	4a0c      	ldr	r2, [pc, #48]	; (7318 <grid_module_en16_reva_hardware_init+0x48>)
    72e6:	629a      	str	r2, [r3, #40]	; 0x28
    72e8:	2103      	movs	r1, #3
    72ea:	4620      	mov	r0, r4
    72ec:	4b0b      	ldr	r3, [pc, #44]	; (731c <grid_module_en16_reva_hardware_init+0x4c>)
    72ee:	4798      	blx	r3
    72f0:	490b      	ldr	r1, [pc, #44]	; (7320 <grid_module_en16_reva_hardware_init+0x50>)
    72f2:	4b0c      	ldr	r3, [pc, #48]	; (7324 <grid_module_en16_reva_hardware_init+0x54>)
    72f4:	4620      	mov	r0, r4
    72f6:	4798      	blx	r3
    72f8:	490b      	ldr	r1, [pc, #44]	; (7328 <grid_module_en16_reva_hardware_init+0x58>)
    72fa:	4b0c      	ldr	r3, [pc, #48]	; (732c <grid_module_en16_reva_hardware_init+0x5c>)
    72fc:	4620      	mov	r0, r4
    72fe:	4798      	blx	r3
    7300:	4620      	mov	r0, r4
    7302:	4a0b      	ldr	r2, [pc, #44]	; (7330 <grid_module_en16_reva_hardware_init+0x60>)
    7304:	4b0b      	ldr	r3, [pc, #44]	; (7334 <grid_module_en16_reva_hardware_init+0x64>)
    7306:	2100      	movs	r1, #0
    7308:	e8bd 4010 	ldmia.w	sp!, {r4, lr}
    730c:	4718      	bx	r3
    730e:	bf00      	nop
    7310:	41008000 	.word	0x41008000
    7314:	20000f38 	.word	0x20000f38
    7318:	c0000020 	.word	0xc0000020
    731c:	00009099 	.word	0x00009099
    7320:	00061a80 	.word	0x00061a80
    7324:	00009081 	.word	0x00009081
    7328:	200022b8 	.word	0x200022b8
    732c:	00009115 	.word	0x00009115
    7330:	00006f59 	.word	0x00006f59
    7334:	000090f9 	.word	0x000090f9

00007338 <grid_module_en16_reva_init>:
    7338:	e92d 4ff0 	stmdb	sp!, {r4, r5, r6, r7, r8, r9, sl, fp, lr}
    733c:	2110      	movs	r1, #16
    733e:	b09b      	sub	sp, #108	; 0x6c
    7340:	4b30      	ldr	r3, [pc, #192]	; (7404 <grid_module_en16_reva_init+0xcc>)
    7342:	4831      	ldr	r0, [pc, #196]	; (7408 <grid_module_en16_reva_init+0xd0>)
    7344:	4f31      	ldr	r7, [pc, #196]	; (740c <grid_module_en16_reva_init+0xd4>)
    7346:	f8df a0e8 	ldr.w	sl, [pc, #232]	; 7430 <grid_module_en16_reva_init+0xf8>
    734a:	4798      	blx	r3
    734c:	2110      	movs	r1, #16
    734e:	482f      	ldr	r0, [pc, #188]	; (740c <grid_module_en16_reva_init+0xd4>)
    7350:	4b2f      	ldr	r3, [pc, #188]	; (7410 <grid_module_en16_reva_init+0xd8>)
    7352:	4798      	blx	r3
    7354:	2400      	movs	r4, #0
    7356:	b2e1      	uxtb	r1, r4
    7358:	2203      	movs	r2, #3
    735a:	482c      	ldr	r0, [pc, #176]	; (740c <grid_module_en16_reva_init+0xd4>)
    735c:	f8df b0d4 	ldr.w	fp, [pc, #212]	; 7434 <grid_module_en16_reva_init+0xfc>
    7360:	f8df 80d4 	ldr.w	r8, [pc, #212]	; 7438 <grid_module_en16_reva_init+0x100>
    7364:	f8df 90d4 	ldr.w	r9, [pc, #212]	; 743c <grid_module_en16_reva_init+0x104>
    7368:	47d0      	blx	sl
    736a:	2264      	movs	r2, #100	; 0x64
    736c:	2100      	movs	r1, #0
    736e:	a801      	add	r0, sp, #4
    7370:	47d8      	blx	fp
    7372:	4928      	ldr	r1, [pc, #160]	; (7414 <grid_module_en16_reva_init+0xdc>)
    7374:	a801      	add	r0, sp, #4
    7376:	47c0      	blx	r8
    7378:	a801      	add	r0, sp, #4
    737a:	47c8      	blx	r9
    737c:	687d      	ldr	r5, [r7, #4]
    737e:	0126      	lsls	r6, r4, #4
    7380:	b2c3      	uxtb	r3, r0
    7382:	aa01      	add	r2, sp, #4
    7384:	19a8      	adds	r0, r5, r6
    7386:	2102      	movs	r1, #2
    7388:	4d23      	ldr	r5, [pc, #140]	; (7418 <grid_module_en16_reva_init+0xe0>)
    738a:	47a8      	blx	r5
    738c:	2264      	movs	r2, #100	; 0x64
    738e:	2100      	movs	r1, #0
    7390:	a801      	add	r0, sp, #4
    7392:	47d8      	blx	fp
    7394:	4921      	ldr	r1, [pc, #132]	; (741c <grid_module_en16_reva_init+0xe4>)
    7396:	a801      	add	r0, sp, #4
    7398:	47c0      	blx	r8
    739a:	a801      	add	r0, sp, #4
    739c:	47c8      	blx	r9
    739e:	f8d7 e004 	ldr.w	lr, [r7, #4]
    73a2:	fa5f f980 	uxtb.w	r9, r0
    73a6:	464b      	mov	r3, r9
    73a8:	eb0e 0006 	add.w	r0, lr, r6
    73ac:	aa01      	add	r2, sp, #4
    73ae:	2105      	movs	r1, #5
    73b0:	47a8      	blx	r5
    73b2:	491b      	ldr	r1, [pc, #108]	; (7420 <grid_module_en16_reva_init+0xe8>)
    73b4:	a801      	add	r0, sp, #4
    73b6:	47c0      	blx	r8
    73b8:	6878      	ldr	r0, [r7, #4]
    73ba:	464b      	mov	r3, r9
    73bc:	aa01      	add	r2, sp, #4
    73be:	2106      	movs	r1, #6
    73c0:	4430      	add	r0, r6
    73c2:	3401      	adds	r4, #1
    73c4:	47a8      	blx	r5
    73c6:	2c10      	cmp	r4, #16
    73c8:	d1c5      	bne.n	7356 <grid_module_en16_reva_init+0x1e>
    73ca:	2200      	movs	r2, #0
    73cc:	4b15      	ldr	r3, [pc, #84]	; (7424 <grid_module_en16_reva_init+0xec>)
    73ce:	2101      	movs	r1, #1
    73d0:	4610      	mov	r0, r2
    73d2:	f04f 34ff 	mov.w	r4, #4294967295
    73d6:	701a      	strb	r2, [r3, #0]
    73d8:	3201      	adds	r2, #1
    73da:	2a10      	cmp	r2, #16
    73dc:	7059      	strb	r1, [r3, #1]
    73de:	7098      	strb	r0, [r3, #2]
    73e0:	70d8      	strb	r0, [r3, #3]
    73e2:	7119      	strb	r1, [r3, #4]
    73e4:	7158      	strb	r0, [r3, #5]
    73e6:	609c      	str	r4, [r3, #8]
    73e8:	7318      	strb	r0, [r3, #12]
    73ea:	7359      	strb	r1, [r3, #13]
    73ec:	7399      	strb	r1, [r3, #14]
    73ee:	f103 0310 	add.w	r3, r3, #16
    73f2:	d1f0      	bne.n	73d6 <grid_module_en16_reva_init+0x9e>
    73f4:	4b0c      	ldr	r3, [pc, #48]	; (7428 <grid_module_en16_reva_init+0xf0>)
    73f6:	4798      	blx	r3
    73f8:	4b0c      	ldr	r3, [pc, #48]	; (742c <grid_module_en16_reva_init+0xf4>)
    73fa:	4798      	blx	r3
    73fc:	b01b      	add	sp, #108	; 0x6c
    73fe:	e8bd 8ff0 	ldmia.w	sp!, {r4, r5, r6, r7, r8, r9, sl, fp, pc}
    7402:	bf00      	nop
    7404:	00006825 	.word	0x00006825
    7408:	20007dcc 	.word	0x20007dcc
    740c:	200032e0 	.word	0x200032e0
    7410:	00008315 	.word	0x00008315
    7414:	0001028f 	.word	0x0001028f
    7418:	00008491 	.word	0x00008491
    741c:	000102ba 	.word	0x000102ba
    7420:	000102e5 	.word	0x000102e5
    7424:	20006c38 	.word	0x20006c38
    7428:	000072d1 	.word	0x000072d1
    742c:	00006f1d 	.word	0x00006f1d
    7430:	000083a5 	.word	0x000083a5
    7434:	0000ea0f 	.word	0x0000ea0f
    7438:	0000ee45 	.word	0x0000ee45
    743c:	0000ee55 	.word	0x0000ee55

00007440 <grid_module_pbf4_reva_hardware_start_transfer>:
    7440:	b510      	push	{r4, lr}
    7442:	4c04      	ldr	r4, [pc, #16]	; (7454 <grid_module_pbf4_reva_hardware_start_transfer+0x14>)
    7444:	4804      	ldr	r0, [pc, #16]	; (7458 <grid_module_pbf4_reva_hardware_start_transfer+0x18>)
    7446:	47a0      	blx	r4
    7448:	4623      	mov	r3, r4
    744a:	4804      	ldr	r0, [pc, #16]	; (745c <grid_module_pbf4_reva_hardware_start_transfer+0x1c>)
    744c:	e8bd 4010 	ldmia.w	sp!, {r4, lr}
    7450:	4718      	bx	r3
    7452:	bf00      	nop
    7454:	00008ce5 	.word	0x00008ce5
    7458:	20001044 	.word	0x20001044
    745c:	20001218 	.word	0x20001218

00007460 <grid_module_pbf4_reva_hardware_transfer_complete_cb>:
    7460:	e92d 4ff0 	stmdb	sp!, {r4, r5, r6, r7, r8, r9, sl, fp, lr}
    7464:	4ab2      	ldr	r2, [pc, #712]	; (7730 <grid_module_pbf4_reva_hardware_transfer_complete_cb+0x2d0>)
    7466:	7813      	ldrb	r3, [r2, #0]
    7468:	b08b      	sub	sp, #44	; 0x2c
    746a:	b933      	cbnz	r3, 747a <grid_module_pbf4_reva_hardware_transfer_complete_cb+0x1a>
    746c:	7813      	ldrb	r3, [r2, #0]
    746e:	3301      	adds	r3, #1
    7470:	b2db      	uxtb	r3, r3
    7472:	7013      	strb	r3, [r2, #0]
    7474:	b00b      	add	sp, #44	; 0x2c
    7476:	e8bd 8ff0 	ldmia.w	sp!, {r4, r5, r6, r7, r8, r9, sl, fp, pc}
    747a:	2300      	movs	r3, #0
    747c:	f8ad 3014 	strh.w	r3, [sp, #20]
    7480:	f8ad 3016 	strh.w	r3, [sp, #22]
    7484:	4bab      	ldr	r3, [pc, #684]	; (7734 <grid_module_pbf4_reva_hardware_transfer_complete_cb+0x2d4>)
    7486:	49ac      	ldr	r1, [pc, #688]	; (7738 <grid_module_pbf4_reva_hardware_transfer_complete_cb+0x2d8>)
    7488:	781a      	ldrb	r2, [r3, #0]
    748a:	4fac      	ldr	r7, [pc, #688]	; (773c <grid_module_pbf4_reva_hardware_transfer_complete_cb+0x2dc>)
    748c:	48ac      	ldr	r0, [pc, #688]	; (7740 <grid_module_pbf4_reva_hardware_transfer_complete_cb+0x2e0>)
    748e:	f8df b2dc 	ldr.w	fp, [pc, #732]	; 776c <grid_module_pbf4_reva_hardware_transfer_complete_cb+0x30c>
    7492:	f8df 92dc 	ldr.w	r9, [pc, #732]	; 7770 <grid_module_pbf4_reva_hardware_transfer_complete_cb+0x310>
    7496:	4eab      	ldr	r6, [pc, #684]	; (7744 <grid_module_pbf4_reva_hardware_transfer_complete_cb+0x2e4>)
    7498:	3208      	adds	r2, #8
    749a:	f64f 7aff 	movw	sl, #65535	; 0xffff
    749e:	5c8d      	ldrb	r5, [r1, r2]
    74a0:	781a      	ldrb	r2, [r3, #0]
    74a2:	b2d2      	uxtb	r2, r2
    74a4:	b2ed      	uxtb	r5, r5
    74a6:	5c8c      	ldrb	r4, [r1, r2]
    74a8:	781a      	ldrb	r2, [r3, #0]
    74aa:	3201      	adds	r2, #1
    74ac:	b2d2      	uxtb	r2, r2
    74ae:	701a      	strb	r2, [r3, #0]
    74b0:	781a      	ldrb	r2, [r3, #0]
    74b2:	f002 0207 	and.w	r2, r2, #7
    74b6:	701a      	strb	r2, [r3, #0]
    74b8:	781a      	ldrb	r2, [r3, #0]
    74ba:	f012 0f01 	tst.w	r2, #1
    74be:	4aa2      	ldr	r2, [pc, #648]	; (7748 <grid_module_pbf4_reva_hardware_transfer_complete_cb+0x2e8>)
    74c0:	f44f 2100 	mov.w	r1, #524288	; 0x80000
    74c4:	bf14      	ite	ne
    74c6:	f8c2 1118 	strne.w	r1, [r2, #280]	; 0x118
    74ca:	f8c2 1114 	streq.w	r1, [r2, #276]	; 0x114
    74ce:	781a      	ldrb	r2, [r3, #0]
    74d0:	f012 0f02 	tst.w	r2, #2
    74d4:	4a9c      	ldr	r2, [pc, #624]	; (7748 <grid_module_pbf4_reva_hardware_transfer_complete_cb+0x2e8>)
    74d6:	f44f 1180 	mov.w	r1, #1048576	; 0x100000
    74da:	bf14      	ite	ne
    74dc:	f8c2 1118 	strne.w	r1, [r2, #280]	; 0x118
    74e0:	f8c2 1114 	streq.w	r1, [r2, #276]	; 0x114
    74e4:	781b      	ldrb	r3, [r3, #0]
    74e6:	f013 0f04 	tst.w	r3, #4
    74ea:	4b97      	ldr	r3, [pc, #604]	; (7748 <grid_module_pbf4_reva_hardware_transfer_complete_cb+0x2e8>)
    74ec:	f44f 1200 	mov.w	r2, #2097152	; 0x200000
    74f0:	bf14      	ite	ne
    74f2:	f8c3 2118 	strne.w	r2, [r3, #280]	; 0x118
    74f6:	f8c3 2114 	streq.w	r2, [r3, #276]	; 0x114
    74fa:	2100      	movs	r1, #0
    74fc:	2302      	movs	r3, #2
    74fe:	aa05      	add	r2, sp, #20
    7500:	47b8      	blx	r7
    7502:	2302      	movs	r3, #2
    7504:	f10d 0216 	add.w	r2, sp, #22
    7508:	2100      	movs	r1, #0
    750a:	4890      	ldr	r0, [pc, #576]	; (774c <grid_module_pbf4_reva_hardware_transfer_complete_cb+0x2ec>)
    750c:	47b8      	blx	r7
    750e:	f8bd 0014 	ldrh.w	r0, [sp, #20]
    7512:	47d8      	blx	fp
    7514:	a384      	add	r3, pc, #528	; (adr r3, 7728 <grid_module_pbf4_reva_hardware_transfer_complete_cb+0x2c8>)
    7516:	e9d3 2300 	ldrd	r2, r3, [r3]
    751a:	47c8      	blx	r9
    751c:	47b0      	blx	r6
    751e:	4550      	cmp	r0, sl
    7520:	bf28      	it	cs
    7522:	4650      	movcs	r0, sl
    7524:	f8ad 0014 	strh.w	r0, [sp, #20]
    7528:	4607      	mov	r7, r0
    752a:	f8bd 0016 	ldrh.w	r0, [sp, #22]
    752e:	47d8      	blx	fp
    7530:	a37d      	add	r3, pc, #500	; (adr r3, 7728 <grid_module_pbf4_reva_hardware_transfer_complete_cb+0x2c8>)
    7532:	e9d3 2300 	ldrd	r2, r3, [r3]
    7536:	47c8      	blx	r9
    7538:	47b0      	blx	r6
    753a:	b2e4      	uxtb	r4, r4
    753c:	4550      	cmp	r0, sl
    753e:	f1a4 0308 	sub.w	r3, r4, #8
    7542:	bf28      	it	cs
    7544:	4650      	movcs	r0, sl
    7546:	2b01      	cmp	r3, #1
    7548:	f8ad 0016 	strh.w	r0, [sp, #22]
    754c:	d96a      	bls.n	7624 <grid_module_pbf4_reva_hardware_transfer_complete_cb+0x1c4>
    754e:	2d0d      	cmp	r5, #13
    7550:	f8df 8220 	ldr.w	r8, [pc, #544]	; 7774 <grid_module_pbf4_reva_hardware_transfer_complete_cb+0x314>
    7554:	d97e      	bls.n	7654 <grid_module_pbf4_reva_hardware_transfer_complete_cb+0x1f4>
    7556:	2300      	movs	r3, #0
    7558:	f8ad 300c 	strh.w	r3, [sp, #12]
    755c:	f8ad 3010 	strh.w	r3, [sp, #16]
    7560:	f64e 2360 	movw	r3, #60000	; 0xea60
    7564:	3d04      	subs	r5, #4
    7566:	3c04      	subs	r4, #4
    7568:	429f      	cmp	r7, r3
    756a:	f88d 5008 	strb.w	r5, [sp, #8]
    756e:	f88d 4009 	strb.w	r4, [sp, #9]
    7572:	d95d      	bls.n	7630 <grid_module_pbf4_reva_hardware_transfer_complete_cb+0x1d0>
    7574:	2301      	movs	r3, #1
    7576:	f88d 3010 	strb.w	r3, [sp, #16]
    757a:	f64e 2360 	movw	r3, #60000	; 0xea60
    757e:	4298      	cmp	r0, r3
    7580:	d95c      	bls.n	763c <grid_module_pbf4_reva_hardware_transfer_complete_cb+0x1dc>
    7582:	2301      	movs	r3, #1
    7584:	f88d 3011 	strb.w	r3, [sp, #17]
    7588:	4b71      	ldr	r3, [pc, #452]	; (7750 <grid_module_pbf4_reva_hardware_transfer_complete_cb+0x2f0>)
    758a:	ac06      	add	r4, sp, #24
    758c:	6818      	ldr	r0, [r3, #0]
    758e:	6859      	ldr	r1, [r3, #4]
    7590:	4622      	mov	r2, r4
    7592:	c203      	stmia	r2!, {r0, r1}
    7594:	3308      	adds	r3, #8
    7596:	4543      	cmp	r3, r8
    7598:	4614      	mov	r4, r2
    759a:	d1f7      	bne.n	758c <grid_module_pbf4_reva_hardware_transfer_complete_cb+0x12c>
    759c:	4c6d      	ldr	r4, [pc, #436]	; (7754 <grid_module_pbf4_reva_hardware_transfer_complete_cb+0x2f4>)
    759e:	f8df b1d8 	ldr.w	fp, [pc, #472]	; 7778 <grid_module_pbf4_reva_hardware_transfer_complete_cb+0x318>
    75a2:	f8df 91c0 	ldr.w	r9, [pc, #448]	; 7764 <grid_module_pbf4_reva_hardware_transfer_complete_cb+0x304>
    75a6:	f04f 0800 	mov.w	r8, #0
    75aa:	ab02      	add	r3, sp, #8
    75ac:	f813 5008 	ldrb.w	r5, [r3, r8]
    75b0:	ab03      	add	r3, sp, #12
    75b2:	f81b 0005 	ldrb.w	r0, [fp, r5]
    75b6:	f818 6003 	ldrb.w	r6, [r8, r3]
    75ba:	6863      	ldr	r3, [r4, #4]
    75bc:	4286      	cmp	r6, r0
    75be:	d02c      	beq.n	761a <grid_module_pbf4_reva_hardware_transfer_complete_cb+0x1ba>
    75c0:	a904      	add	r1, sp, #16
    75c2:	f818 1001 	ldrb.w	r1, [r8, r1]
    75c6:	2901      	cmp	r1, #1
    75c8:	d127      	bne.n	761a <grid_module_pbf4_reva_hardware_transfer_complete_cb+0x1ba>
    75ca:	012f      	lsls	r7, r5, #4
    75cc:	443b      	add	r3, r7
    75ce:	aa0a      	add	r2, sp, #40	; 0x28
    75d0:	1951      	adds	r1, r2, r5
    75d2:	685b      	ldr	r3, [r3, #4]
    75d4:	f811 1c10 	ldrb.w	r1, [r1, #-16]
    75d8:	f8df a18c 	ldr.w	sl, [pc, #396]	; 7768 <grid_module_pbf4_reva_hardware_transfer_complete_cb+0x308>
    75dc:	601d      	str	r5, [r3, #0]
    75de:	6059      	str	r1, [r3, #4]
    75e0:	2800      	cmp	r0, #0
    75e2:	d131      	bne.n	7648 <grid_module_pbf4_reva_hardware_transfer_complete_cb+0x1e8>
    75e4:	217f      	movs	r1, #127	; 0x7f
    75e6:	6199      	str	r1, [r3, #24]
    75e8:	6860      	ldr	r0, [r4, #4]
    75ea:	21ff      	movs	r1, #255	; 0xff
    75ec:	61d9      	str	r1, [r3, #28]
    75ee:	2105      	movs	r1, #5
    75f0:	4438      	add	r0, r7
    75f2:	47c8      	blx	r9
    75f4:	4603      	mov	r3, r0
    75f6:	6860      	ldr	r0, [r4, #4]
    75f8:	9301      	str	r3, [sp, #4]
    75fa:	4619      	mov	r1, r3
    75fc:	4438      	add	r0, r7
    75fe:	47d0      	blx	sl
    7600:	6861      	ldr	r1, [r4, #4]
    7602:	9b01      	ldr	r3, [sp, #4]
    7604:	440f      	add	r7, r1
    7606:	b21b      	sxth	r3, r3
    7608:	68f8      	ldr	r0, [r7, #12]
    760a:	ebc3 03c3 	rsb	r3, r3, r3, lsl #3
    760e:	eb00 0083 	add.w	r0, r0, r3, lsl #2
    7612:	4b51      	ldr	r3, [pc, #324]	; (7758 <grid_module_pbf4_reva_hardware_transfer_complete_cb+0x2f8>)
    7614:	4798      	blx	r3
    7616:	f80b 6005 	strb.w	r6, [fp, r5]
    761a:	f108 0801 	add.w	r8, r8, #1
    761e:	f1b8 0f02 	cmp.w	r8, #2
    7622:	d1c2      	bne.n	75aa <grid_module_pbf4_reva_hardware_transfer_complete_cb+0x14a>
    7624:	4a42      	ldr	r2, [pc, #264]	; (7730 <grid_module_pbf4_reva_hardware_transfer_complete_cb+0x2d0>)
    7626:	2300      	movs	r3, #0
    7628:	7013      	strb	r3, [r2, #0]
    762a:	4b4c      	ldr	r3, [pc, #304]	; (775c <grid_module_pbf4_reva_hardware_transfer_complete_cb+0x2fc>)
    762c:	4798      	blx	r3
    762e:	e721      	b.n	7474 <grid_module_pbf4_reva_hardware_transfer_complete_cb+0x14>
    7630:	2fc7      	cmp	r7, #199	; 0xc7
    7632:	d8a2      	bhi.n	757a <grid_module_pbf4_reva_hardware_transfer_complete_cb+0x11a>
    7634:	237f      	movs	r3, #127	; 0x7f
    7636:	f88d 300c 	strb.w	r3, [sp, #12]
    763a:	e79b      	b.n	7574 <grid_module_pbf4_reva_hardware_transfer_complete_cb+0x114>
    763c:	28c7      	cmp	r0, #199	; 0xc7
    763e:	d8a3      	bhi.n	7588 <grid_module_pbf4_reva_hardware_transfer_complete_cb+0x128>
    7640:	237f      	movs	r3, #127	; 0x7f
    7642:	f88d 300d 	strb.w	r3, [sp, #13]
    7646:	e79c      	b.n	7582 <grid_module_pbf4_reva_hardware_transfer_complete_cb+0x122>
    7648:	2100      	movs	r1, #0
    764a:	6199      	str	r1, [r3, #24]
    764c:	61d9      	str	r1, [r3, #28]
    764e:	6860      	ldr	r0, [r4, #4]
    7650:	2106      	movs	r1, #6
    7652:	e7cd      	b.n	75f0 <grid_module_pbf4_reva_hardware_transfer_complete_cb+0x190>
    7654:	2c01      	cmp	r4, #1
    7656:	f8df 9124 	ldr.w	r9, [pc, #292]	; 777c <grid_module_pbf4_reva_hardware_transfer_complete_cb+0x31c>
    765a:	d85f      	bhi.n	771c <grid_module_pbf4_reva_hardware_transfer_complete_cb+0x2bc>
    765c:	ebaa 0107 	sub.w	r1, sl, r7
    7660:	4628      	mov	r0, r5
    7662:	47c8      	blx	r9
    7664:	f8bd 1016 	ldrh.w	r1, [sp, #22]
    7668:	ebaa 0101 	sub.w	r1, sl, r1
    766c:	4620      	mov	r0, r4
    766e:	47c8      	blx	r9
    7670:	4a37      	ldr	r2, [pc, #220]	; (7750 <grid_module_pbf4_reva_hardware_transfer_complete_cb+0x2f0>)
    7672:	f88d 5010 	strb.w	r5, [sp, #16]
    7676:	f88d 4011 	strb.w	r4, [sp, #17]
    767a:	ab06      	add	r3, sp, #24
    767c:	6810      	ldr	r0, [r2, #0]
    767e:	6851      	ldr	r1, [r2, #4]
    7680:	461c      	mov	r4, r3
    7682:	c403      	stmia	r4!, {r0, r1}
    7684:	3208      	adds	r2, #8
    7686:	4542      	cmp	r2, r8
    7688:	4623      	mov	r3, r4
    768a:	d1f7      	bne.n	767c <grid_module_pbf4_reva_hardware_transfer_complete_cb+0x21c>
    768c:	4d31      	ldr	r5, [pc, #196]	; (7754 <grid_module_pbf4_reva_hardware_transfer_complete_cb+0x2f4>)
    768e:	f8df 80f0 	ldr.w	r8, [pc, #240]	; 7780 <grid_module_pbf4_reva_hardware_transfer_complete_cb+0x320>
    7692:	4f33      	ldr	r7, [pc, #204]	; (7760 <grid_module_pbf4_reva_hardware_transfer_complete_cb+0x300>)
    7694:	f04f 0900 	mov.w	r9, #0
    7698:	ab04      	add	r3, sp, #16
    769a:	f819 4003 	ldrb.w	r4, [r9, r3]
    769e:	686b      	ldr	r3, [r5, #4]
    76a0:	ea4f 1a04 	mov.w	sl, r4, lsl #4
    76a4:	4453      	add	r3, sl
    76a6:	4620      	mov	r0, r4
    76a8:	f8d3 b004 	ldr.w	fp, [r3, #4]
    76ac:	47c0      	blx	r8
    76ae:	b378      	cbz	r0, 7710 <grid_module_pbf4_reva_hardware_transfer_complete_cb+0x2b0>
    76b0:	2107      	movs	r1, #7
    76b2:	4620      	mov	r0, r4
    76b4:	47b8      	blx	r7
    76b6:	ab0a      	add	r3, sp, #40	; 0x28
    76b8:	4423      	add	r3, r4
    76ba:	f8cb 4000 	str.w	r4, [fp]
    76be:	f813 3c10 	ldrb.w	r3, [r3, #-16]
    76c2:	f8cb 3004 	str.w	r3, [fp, #4]
    76c6:	2107      	movs	r1, #7
    76c8:	4620      	mov	r0, r4
    76ca:	47b8      	blx	r7
    76cc:	2108      	movs	r1, #8
    76ce:	f8cb 0008 	str.w	r0, [fp, #8]
    76d2:	4620      	mov	r0, r4
    76d4:	47b8      	blx	r7
    76d6:	f8cb 000c 	str.w	r0, [fp, #12]
    76da:	6868      	ldr	r0, [r5, #4]
    76dc:	2300      	movs	r3, #0
    76de:	f8cb 3010 	str.w	r3, [fp, #16]
    76e2:	f8cb 3014 	str.w	r3, [fp, #20]
    76e6:	2102      	movs	r1, #2
    76e8:	4450      	add	r0, sl
    76ea:	4b1e      	ldr	r3, [pc, #120]	; (7764 <grid_module_pbf4_reva_hardware_transfer_complete_cb+0x304>)
    76ec:	4798      	blx	r3
    76ee:	4604      	mov	r4, r0
    76f0:	6868      	ldr	r0, [r5, #4]
    76f2:	4b1d      	ldr	r3, [pc, #116]	; (7768 <grid_module_pbf4_reva_hardware_transfer_complete_cb+0x308>)
    76f4:	4621      	mov	r1, r4
    76f6:	4450      	add	r0, sl
    76f8:	4798      	blx	r3
    76fa:	686b      	ldr	r3, [r5, #4]
    76fc:	449a      	add	sl, r3
    76fe:	b224      	sxth	r4, r4
    7700:	f8da 000c 	ldr.w	r0, [sl, #12]
    7704:	4b14      	ldr	r3, [pc, #80]	; (7758 <grid_module_pbf4_reva_hardware_transfer_complete_cb+0x2f8>)
    7706:	ebc4 04c4 	rsb	r4, r4, r4, lsl #3
    770a:	eb00 0084 	add.w	r0, r0, r4, lsl #2
    770e:	4798      	blx	r3
    7710:	f109 0901 	add.w	r9, r9, #1
    7714:	f1b9 0f02 	cmp.w	r9, #2
    7718:	d1be      	bne.n	7698 <grid_module_pbf4_reva_hardware_transfer_complete_cb+0x238>
    771a:	e783      	b.n	7624 <grid_module_pbf4_reva_hardware_transfer_complete_cb+0x1c4>
    771c:	4639      	mov	r1, r7
    771e:	4628      	mov	r0, r5
    7720:	47c8      	blx	r9
    7722:	f8bd 1016 	ldrh.w	r1, [sp, #22]
    7726:	e7a1      	b.n	766c <grid_module_pbf4_reva_hardware_transfer_complete_cb+0x20c>
    7728:	47ae147b 	.word	0x47ae147b
    772c:	3ff07ae1 	.word	0x3ff07ae1
    7730:	200022c0 	.word	0x200022c0
    7734:	20007d60 	.word	0x20007d60
    7738:	20000321 	.word	0x20000321
    773c:	00008c71 	.word	0x00008c71
    7740:	20001044 	.word	0x20001044
    7744:	0000e961 	.word	0x0000e961
    7748:	41008000 	.word	0x41008000
    774c:	20001218 	.word	0x20001218
    7750:	00010310 	.word	0x00010310
    7754:	200032e0 	.word	0x200032e0
    7758:	0000858d 	.word	0x0000858d
    775c:	00007441 	.word	0x00007441
    7760:	000052e5 	.word	0x000052e5
    7764:	00008567 	.word	0x00008567
    7768:	00008965 	.word	0x00008965
    776c:	0000e471 	.word	0x0000e471
    7770:	0000e53d 	.word	0x0000e53d
    7774:	00010320 	.word	0x00010320
    7778:	200006ad 	.word	0x200006ad
    777c:	00005205 	.word	0x00005205
    7780:	000052d5 	.word	0x000052d5

00007784 <grid_module_pbf4_reva_hardware_init>:
    7784:	e92d 41f0 	stmdb	sp!, {r4, r5, r6, r7, r8, lr}
    7788:	4f0b      	ldr	r7, [pc, #44]	; (77b8 <grid_module_pbf4_reva_hardware_init+0x34>)
    778a:	4c0c      	ldr	r4, [pc, #48]	; (77bc <grid_module_pbf4_reva_hardware_init+0x38>)
    778c:	4e0c      	ldr	r6, [pc, #48]	; (77c0 <grid_module_pbf4_reva_hardware_init+0x3c>)
    778e:	4d0d      	ldr	r5, [pc, #52]	; (77c4 <grid_module_pbf4_reva_hardware_init+0x40>)
    7790:	2200      	movs	r2, #0
    7792:	463b      	mov	r3, r7
    7794:	4611      	mov	r1, r2
    7796:	4620      	mov	r0, r4
    7798:	47b0      	blx	r6
    779a:	2200      	movs	r2, #0
    779c:	463b      	mov	r3, r7
    779e:	4611      	mov	r1, r2
    77a0:	4628      	mov	r0, r5
    77a2:	47b0      	blx	r6
    77a4:	4620      	mov	r0, r4
    77a6:	4c08      	ldr	r4, [pc, #32]	; (77c8 <grid_module_pbf4_reva_hardware_init+0x44>)
    77a8:	2100      	movs	r1, #0
    77aa:	47a0      	blx	r4
    77ac:	4628      	mov	r0, r5
    77ae:	4623      	mov	r3, r4
    77b0:	2100      	movs	r1, #0
    77b2:	e8bd 41f0 	ldmia.w	sp!, {r4, r5, r6, r7, r8, lr}
    77b6:	4718      	bx	r3
    77b8:	00007461 	.word	0x00007461
    77bc:	20001044 	.word	0x20001044
    77c0:	00008c35 	.word	0x00008c35
    77c4:	20001218 	.word	0x20001218
    77c8:	00008c25 	.word	0x00008c25

000077cc <grid_module_pbf4_reva_init>:
    77cc:	e92d 4ff0 	stmdb	sp!, {r4, r5, r6, r7, r8, r9, sl, fp, lr}
    77d0:	220e      	movs	r2, #14
    77d2:	b09b      	sub	sp, #108	; 0x6c
    77d4:	2307      	movs	r3, #7
    77d6:	2105      	movs	r1, #5
    77d8:	4c2c      	ldr	r4, [pc, #176]	; (788c <grid_module_pbf4_reva_init+0xc0>)
    77da:	4d2d      	ldr	r5, [pc, #180]	; (7890 <grid_module_pbf4_reva_init+0xc4>)
    77dc:	4f2d      	ldr	r7, [pc, #180]	; (7894 <grid_module_pbf4_reva_init+0xc8>)
    77de:	f8df 80e4 	ldr.w	r8, [pc, #228]	; 78c4 <grid_module_pbf4_reva_init+0xf8>
    77e2:	2010      	movs	r0, #16
    77e4:	47a0      	blx	r4
    77e6:	210c      	movs	r1, #12
    77e8:	4b2b      	ldr	r3, [pc, #172]	; (7898 <grid_module_pbf4_reva_init+0xcc>)
    77ea:	482c      	ldr	r0, [pc, #176]	; (789c <grid_module_pbf4_reva_init+0xd0>)
    77ec:	4798      	blx	r3
    77ee:	210c      	movs	r1, #12
    77f0:	4827      	ldr	r0, [pc, #156]	; (7890 <grid_module_pbf4_reva_init+0xc4>)
    77f2:	4b2b      	ldr	r3, [pc, #172]	; (78a0 <grid_module_pbf4_reva_init+0xd4>)
    77f4:	4798      	blx	r3
    77f6:	2400      	movs	r4, #0
    77f8:	2c07      	cmp	r4, #7
    77fa:	b2e1      	uxtb	r1, r4
    77fc:	d81f      	bhi.n	783e <grid_module_pbf4_reva_init+0x72>
    77fe:	2201      	movs	r2, #1
    7800:	4628      	mov	r0, r5
    7802:	47b8      	blx	r7
    7804:	2264      	movs	r2, #100	; 0x64
    7806:	2100      	movs	r1, #0
    7808:	a801      	add	r0, sp, #4
    780a:	47c0      	blx	r8
    780c:	4925      	ldr	r1, [pc, #148]	; (78a4 <grid_module_pbf4_reva_init+0xd8>)
    780e:	4b26      	ldr	r3, [pc, #152]	; (78a8 <grid_module_pbf4_reva_init+0xdc>)
    7810:	a801      	add	r0, sp, #4
    7812:	4798      	blx	r3
    7814:	4b25      	ldr	r3, [pc, #148]	; (78ac <grid_module_pbf4_reva_init+0xe0>)
    7816:	a801      	add	r0, sp, #4
    7818:	4798      	blx	r3
    781a:	686e      	ldr	r6, [r5, #4]
    781c:	b2c3      	uxtb	r3, r0
    781e:	aa01      	add	r2, sp, #4
    7820:	eb06 1004 	add.w	r0, r6, r4, lsl #4
    7824:	2102      	movs	r1, #2
    7826:	4e22      	ldr	r6, [pc, #136]	; (78b0 <grid_module_pbf4_reva_init+0xe4>)
    7828:	47b0      	blx	r6
    782a:	3401      	adds	r4, #1
    782c:	2c0c      	cmp	r4, #12
    782e:	d1e3      	bne.n	77f8 <grid_module_pbf4_reva_init+0x2c>
    7830:	4b20      	ldr	r3, [pc, #128]	; (78b4 <grid_module_pbf4_reva_init+0xe8>)
    7832:	4798      	blx	r3
    7834:	4b20      	ldr	r3, [pc, #128]	; (78b8 <grid_module_pbf4_reva_init+0xec>)
    7836:	4798      	blx	r3
    7838:	b01b      	add	sp, #108	; 0x6c
    783a:	e8bd 8ff0 	ldmia.w	sp!, {r4, r5, r6, r7, r8, r9, sl, fp, pc}
    783e:	4628      	mov	r0, r5
    7840:	2202      	movs	r2, #2
    7842:	47b8      	blx	r7
    7844:	2264      	movs	r2, #100	; 0x64
    7846:	2100      	movs	r1, #0
    7848:	a801      	add	r0, sp, #4
    784a:	47c0      	blx	r8
    784c:	f8df b058 	ldr.w	fp, [pc, #88]	; 78a8 <grid_module_pbf4_reva_init+0xdc>
    7850:	491a      	ldr	r1, [pc, #104]	; (78bc <grid_module_pbf4_reva_init+0xf0>)
    7852:	f8df 905c 	ldr.w	r9, [pc, #92]	; 78b0 <grid_module_pbf4_reva_init+0xe4>
    7856:	a801      	add	r0, sp, #4
    7858:	47d8      	blx	fp
    785a:	a801      	add	r0, sp, #4
    785c:	4b13      	ldr	r3, [pc, #76]	; (78ac <grid_module_pbf4_reva_init+0xe0>)
    785e:	4798      	blx	r3
    7860:	f8d5 e004 	ldr.w	lr, [r5, #4]
    7864:	fa5f fa80 	uxtb.w	sl, r0
    7868:	0126      	lsls	r6, r4, #4
    786a:	4653      	mov	r3, sl
    786c:	aa01      	add	r2, sp, #4
    786e:	eb0e 0006 	add.w	r0, lr, r6
    7872:	2105      	movs	r1, #5
    7874:	47c8      	blx	r9
    7876:	4912      	ldr	r1, [pc, #72]	; (78c0 <grid_module_pbf4_reva_init+0xf4>)
    7878:	a801      	add	r0, sp, #4
    787a:	47d8      	blx	fp
    787c:	6868      	ldr	r0, [r5, #4]
    787e:	4653      	mov	r3, sl
    7880:	aa01      	add	r2, sp, #4
    7882:	2106      	movs	r1, #6
    7884:	4430      	add	r0, r6
    7886:	47c8      	blx	r9
    7888:	e7cf      	b.n	782a <grid_module_pbf4_reva_init+0x5e>
    788a:	bf00      	nop
    788c:	000051c1 	.word	0x000051c1
    7890:	200032e0 	.word	0x200032e0
    7894:	000083a5 	.word	0x000083a5
    7898:	00006825 	.word	0x00006825
    789c:	20007dcc 	.word	0x20007dcc
    78a0:	00008315 	.word	0x00008315
    78a4:	00010320 	.word	0x00010320
    78a8:	0000ee45 	.word	0x0000ee45
    78ac:	0000ee55 	.word	0x0000ee55
    78b0:	00008491 	.word	0x00008491
    78b4:	00007785 	.word	0x00007785
    78b8:	00007441 	.word	0x00007441
    78bc:	00010208 	.word	0x00010208
    78c0:	00010233 	.word	0x00010233
    78c4:	0000ea0f 	.word	0x0000ea0f

000078c8 <grid_module_po16_revb_hardware_start_transfer>:
    78c8:	b510      	push	{r4, lr}
    78ca:	4c04      	ldr	r4, [pc, #16]	; (78dc <grid_module_po16_revb_hardware_start_transfer+0x14>)
    78cc:	4804      	ldr	r0, [pc, #16]	; (78e0 <grid_module_po16_revb_hardware_start_transfer+0x18>)
    78ce:	47a0      	blx	r4
    78d0:	4623      	mov	r3, r4
    78d2:	4804      	ldr	r0, [pc, #16]	; (78e4 <grid_module_po16_revb_hardware_start_transfer+0x1c>)
    78d4:	e8bd 4010 	ldmia.w	sp!, {r4, lr}
    78d8:	4718      	bx	r3
    78da:	bf00      	nop
    78dc:	00008ce5 	.word	0x00008ce5
    78e0:	20001044 	.word	0x20001044
    78e4:	20001218 	.word	0x20001218

000078e8 <grid_module_po16_revb_hardware_transfer_complete_cb>:
    78e8:	e92d 4ff0 	stmdb	sp!, {r4, r5, r6, r7, r8, r9, sl, fp, lr}
    78ec:	4a6e      	ldr	r2, [pc, #440]	; (7aa8 <grid_module_po16_revb_hardware_transfer_complete_cb+0x1c0>)
    78ee:	7813      	ldrb	r3, [r2, #0]
    78f0:	b087      	sub	sp, #28
    78f2:	4614      	mov	r4, r2
    78f4:	b933      	cbnz	r3, 7904 <grid_module_po16_revb_hardware_transfer_complete_cb+0x1c>
    78f6:	7813      	ldrb	r3, [r2, #0]
    78f8:	3301      	adds	r3, #1
    78fa:	b2db      	uxtb	r3, r3
    78fc:	7013      	strb	r3, [r2, #0]
    78fe:	b007      	add	sp, #28
    7900:	e8bd 8ff0 	ldmia.w	sp!, {r4, r5, r6, r7, r8, r9, sl, fp, pc}
    7904:	2300      	movs	r3, #0
    7906:	f8ad 3004 	strh.w	r3, [sp, #4]
    790a:	f8ad 3006 	strh.w	r3, [sp, #6]
    790e:	7853      	ldrb	r3, [r2, #1]
    7910:	4a66      	ldr	r2, [pc, #408]	; (7aac <grid_module_po16_revb_hardware_transfer_complete_cb+0x1c4>)
    7912:	4f67      	ldr	r7, [pc, #412]	; (7ab0 <grid_module_po16_revb_hardware_transfer_complete_cb+0x1c8>)
    7914:	4867      	ldr	r0, [pc, #412]	; (7ab4 <grid_module_po16_revb_hardware_transfer_complete_cb+0x1cc>)
    7916:	f8df a1cc 	ldr.w	sl, [pc, #460]	; 7ae4 <grid_module_po16_revb_hardware_transfer_complete_cb+0x1fc>
    791a:	f8df 91cc 	ldr.w	r9, [pc, #460]	; 7ae8 <grid_module_po16_revb_hardware_transfer_complete_cb+0x200>
    791e:	f8df 81cc 	ldr.w	r8, [pc, #460]	; 7aec <grid_module_po16_revb_hardware_transfer_complete_cb+0x204>
    7922:	3308      	adds	r3, #8
    7924:	2100      	movs	r1, #0
    7926:	5cd6      	ldrb	r6, [r2, r3]
    7928:	7863      	ldrb	r3, [r4, #1]
    792a:	b2db      	uxtb	r3, r3
    792c:	b2f6      	uxtb	r6, r6
    792e:	5cd5      	ldrb	r5, [r2, r3]
    7930:	7863      	ldrb	r3, [r4, #1]
    7932:	3301      	adds	r3, #1
    7934:	b2db      	uxtb	r3, r3
    7936:	7063      	strb	r3, [r4, #1]
    7938:	7863      	ldrb	r3, [r4, #1]
    793a:	f003 0307 	and.w	r3, r3, #7
    793e:	7063      	strb	r3, [r4, #1]
    7940:	7863      	ldrb	r3, [r4, #1]
    7942:	f013 0f01 	tst.w	r3, #1
    7946:	4b5c      	ldr	r3, [pc, #368]	; (7ab8 <grid_module_po16_revb_hardware_transfer_complete_cb+0x1d0>)
    7948:	f44f 2200 	mov.w	r2, #524288	; 0x80000
    794c:	bf14      	ite	ne
    794e:	f8c3 2118 	strne.w	r2, [r3, #280]	; 0x118
    7952:	f8c3 2114 	streq.w	r2, [r3, #276]	; 0x114
    7956:	7863      	ldrb	r3, [r4, #1]
    7958:	f013 0f02 	tst.w	r3, #2
    795c:	4b56      	ldr	r3, [pc, #344]	; (7ab8 <grid_module_po16_revb_hardware_transfer_complete_cb+0x1d0>)
    795e:	f44f 1280 	mov.w	r2, #1048576	; 0x100000
    7962:	bf14      	ite	ne
    7964:	f8c3 2118 	strne.w	r2, [r3, #280]	; 0x118
    7968:	f8c3 2114 	streq.w	r2, [r3, #276]	; 0x114
    796c:	7863      	ldrb	r3, [r4, #1]
    796e:	f013 0f04 	tst.w	r3, #4
    7972:	4b51      	ldr	r3, [pc, #324]	; (7ab8 <grid_module_po16_revb_hardware_transfer_complete_cb+0x1d0>)
    7974:	f44f 1200 	mov.w	r2, #2097152	; 0x200000
    7978:	bf14      	ite	ne
    797a:	f8c3 2118 	strne.w	r2, [r3, #280]	; 0x118
    797e:	f8c3 2114 	streq.w	r2, [r3, #276]	; 0x114
    7982:	2302      	movs	r3, #2
    7984:	aa01      	add	r2, sp, #4
    7986:	47b8      	blx	r7
    7988:	2302      	movs	r3, #2
    798a:	f10d 0206 	add.w	r2, sp, #6
    798e:	2100      	movs	r1, #0
    7990:	484a      	ldr	r0, [pc, #296]	; (7abc <grid_module_po16_revb_hardware_transfer_complete_cb+0x1d4>)
    7992:	47b8      	blx	r7
    7994:	f8bd 0004 	ldrh.w	r0, [sp, #4]
    7998:	47d0      	blx	sl
    799a:	a341      	add	r3, pc, #260	; (adr r3, 7aa0 <grid_module_po16_revb_hardware_transfer_complete_cb+0x1b8>)
    799c:	e9d3 2300 	ldrd	r2, r3, [r3]
    79a0:	47c8      	blx	r9
    79a2:	47c0      	blx	r8
    79a4:	f64f 77ff 	movw	r7, #65535	; 0xffff
    79a8:	42b8      	cmp	r0, r7
    79aa:	bf28      	it	cs
    79ac:	4638      	movcs	r0, r7
    79ae:	f8ad 0004 	strh.w	r0, [sp, #4]
    79b2:	f8bd 0006 	ldrh.w	r0, [sp, #6]
    79b6:	47d0      	blx	sl
    79b8:	a339      	add	r3, pc, #228	; (adr r3, 7aa0 <grid_module_po16_revb_hardware_transfer_complete_cb+0x1b8>)
    79ba:	e9d3 2300 	ldrd	r2, r3, [r3]
    79be:	47c8      	blx	r9
    79c0:	47c0      	blx	r8
    79c2:	42b8      	cmp	r0, r7
    79c4:	bf28      	it	cs
    79c6:	4638      	movcs	r0, r7
    79c8:	4b3d      	ldr	r3, [pc, #244]	; (7ac0 <grid_module_po16_revb_hardware_transfer_complete_cb+0x1d8>)
    79ca:	f8ad 0006 	strh.w	r0, [sp, #6]
    79ce:	4798      	blx	r3
    79d0:	2808      	cmp	r0, #8
    79d2:	b2ed      	uxtb	r5, r5
    79d4:	d109      	bne.n	79ea <grid_module_po16_revb_hardware_transfer_complete_cb+0x102>
    79d6:	f8bd 3004 	ldrh.w	r3, [sp, #4]
    79da:	43db      	mvns	r3, r3
    79dc:	f8ad 3004 	strh.w	r3, [sp, #4]
    79e0:	f8bd 3006 	ldrh.w	r3, [sp, #6]
    79e4:	43db      	mvns	r3, r3
    79e6:	f8ad 3006 	strh.w	r3, [sp, #6]
    79ea:	f8bd 1004 	ldrh.w	r1, [sp, #4]
    79ee:	4f35      	ldr	r7, [pc, #212]	; (7ac4 <grid_module_po16_revb_hardware_transfer_complete_cb+0x1dc>)
    79f0:	4630      	mov	r0, r6
    79f2:	47b8      	blx	r7
    79f4:	4628      	mov	r0, r5
    79f6:	f8bd 1006 	ldrh.w	r1, [sp, #6]
    79fa:	47b8      	blx	r7
    79fc:	4b32      	ldr	r3, [pc, #200]	; (7ac8 <grid_module_po16_revb_hardware_transfer_complete_cb+0x1e0>)
    79fe:	f88d 6000 	strb.w	r6, [sp]
    7a02:	f88d 5001 	strb.w	r5, [sp, #1]
    7a06:	f103 0610 	add.w	r6, r3, #16
    7a0a:	ad02      	add	r5, sp, #8
    7a0c:	6818      	ldr	r0, [r3, #0]
    7a0e:	6859      	ldr	r1, [r3, #4]
    7a10:	462a      	mov	r2, r5
    7a12:	c203      	stmia	r2!, {r0, r1}
    7a14:	3308      	adds	r3, #8
    7a16:	42b3      	cmp	r3, r6
    7a18:	4615      	mov	r5, r2
    7a1a:	d1f7      	bne.n	7a0c <grid_module_po16_revb_hardware_transfer_complete_cb+0x124>
    7a1c:	4e2b      	ldr	r6, [pc, #172]	; (7acc <grid_module_po16_revb_hardware_transfer_complete_cb+0x1e4>)
    7a1e:	f8df 80d0 	ldr.w	r8, [pc, #208]	; 7af0 <grid_module_po16_revb_hardware_transfer_complete_cb+0x208>
    7a22:	4f2b      	ldr	r7, [pc, #172]	; (7ad0 <grid_module_po16_revb_hardware_transfer_complete_cb+0x1e8>)
    7a24:	f04f 0900 	mov.w	r9, #0
    7a28:	f81d b009 	ldrb.w	fp, [sp, r9]
    7a2c:	6873      	ldr	r3, [r6, #4]
    7a2e:	ea4f 1a0b 	mov.w	sl, fp, lsl #4
    7a32:	4453      	add	r3, sl
    7a34:	4658      	mov	r0, fp
    7a36:	685d      	ldr	r5, [r3, #4]
    7a38:	47c0      	blx	r8
    7a3a:	b338      	cbz	r0, 7a8c <grid_module_po16_revb_hardware_transfer_complete_cb+0x1a4>
    7a3c:	ab06      	add	r3, sp, #24
    7a3e:	445b      	add	r3, fp
    7a40:	f8c5 b000 	str.w	fp, [r5]
    7a44:	f813 3c10 	ldrb.w	r3, [r3, #-16]
    7a48:	606b      	str	r3, [r5, #4]
    7a4a:	2107      	movs	r1, #7
    7a4c:	4658      	mov	r0, fp
    7a4e:	47b8      	blx	r7
    7a50:	2108      	movs	r1, #8
    7a52:	60a8      	str	r0, [r5, #8]
    7a54:	4658      	mov	r0, fp
    7a56:	47b8      	blx	r7
    7a58:	60e8      	str	r0, [r5, #12]
    7a5a:	6870      	ldr	r0, [r6, #4]
    7a5c:	2300      	movs	r3, #0
    7a5e:	612b      	str	r3, [r5, #16]
    7a60:	616b      	str	r3, [r5, #20]
    7a62:	2102      	movs	r1, #2
    7a64:	4450      	add	r0, sl
    7a66:	4b1b      	ldr	r3, [pc, #108]	; (7ad4 <grid_module_po16_revb_hardware_transfer_complete_cb+0x1ec>)
    7a68:	4798      	blx	r3
    7a6a:	4605      	mov	r5, r0
    7a6c:	6870      	ldr	r0, [r6, #4]
    7a6e:	4b1a      	ldr	r3, [pc, #104]	; (7ad8 <grid_module_po16_revb_hardware_transfer_complete_cb+0x1f0>)
    7a70:	4629      	mov	r1, r5
    7a72:	4450      	add	r0, sl
    7a74:	4798      	blx	r3
    7a76:	6873      	ldr	r3, [r6, #4]
    7a78:	449a      	add	sl, r3
    7a7a:	b22d      	sxth	r5, r5
    7a7c:	f8da 000c 	ldr.w	r0, [sl, #12]
    7a80:	4b16      	ldr	r3, [pc, #88]	; (7adc <grid_module_po16_revb_hardware_transfer_complete_cb+0x1f4>)
    7a82:	ebc5 05c5 	rsb	r5, r5, r5, lsl #3
    7a86:	eb00 0085 	add.w	r0, r0, r5, lsl #2
    7a8a:	4798      	blx	r3
    7a8c:	f109 0901 	add.w	r9, r9, #1
    7a90:	f1b9 0f02 	cmp.w	r9, #2
    7a94:	d1c8      	bne.n	7a28 <grid_module_po16_revb_hardware_transfer_complete_cb+0x140>
    7a96:	2300      	movs	r3, #0
    7a98:	7023      	strb	r3, [r4, #0]
    7a9a:	4b11      	ldr	r3, [pc, #68]	; (7ae0 <grid_module_po16_revb_hardware_transfer_complete_cb+0x1f8>)
    7a9c:	4798      	blx	r3
    7a9e:	e72e      	b.n	78fe <grid_module_po16_revb_hardware_transfer_complete_cb+0x16>
    7aa0:	47ae147b 	.word	0x47ae147b
    7aa4:	3ff07ae1 	.word	0x3ff07ae1
    7aa8:	200006bf 	.word	0x200006bf
    7aac:	20000331 	.word	0x20000331
    7ab0:	00008c71 	.word	0x00008c71
    7ab4:	20001044 	.word	0x20001044
    7ab8:	41008000 	.word	0x41008000
    7abc:	20001218 	.word	0x20001218
    7ac0:	0000818d 	.word	0x0000818d
    7ac4:	00005205 	.word	0x00005205
    7ac8:	0001034b 	.word	0x0001034b
    7acc:	200032e0 	.word	0x200032e0
    7ad0:	000052e5 	.word	0x000052e5
    7ad4:	00008567 	.word	0x00008567
    7ad8:	00008965 	.word	0x00008965
    7adc:	0000858d 	.word	0x0000858d
    7ae0:	000078c9 	.word	0x000078c9
    7ae4:	0000e471 	.word	0x0000e471
    7ae8:	0000e53d 	.word	0x0000e53d
    7aec:	0000e961 	.word	0x0000e961
    7af0:	000052d5 	.word	0x000052d5

00007af4 <grid_module_po16_revb_hardware_init>:
    7af4:	e92d 41f0 	stmdb	sp!, {r4, r5, r6, r7, r8, lr}
    7af8:	4f0b      	ldr	r7, [pc, #44]	; (7b28 <grid_module_po16_revb_hardware_init+0x34>)
    7afa:	4c0c      	ldr	r4, [pc, #48]	; (7b2c <grid_module_po16_revb_hardware_init+0x38>)
    7afc:	4e0c      	ldr	r6, [pc, #48]	; (7b30 <grid_module_po16_revb_hardware_init+0x3c>)
    7afe:	4d0d      	ldr	r5, [pc, #52]	; (7b34 <grid_module_po16_revb_hardware_init+0x40>)
    7b00:	2200      	movs	r2, #0
    7b02:	463b      	mov	r3, r7
    7b04:	4611      	mov	r1, r2
    7b06:	4620      	mov	r0, r4
    7b08:	47b0      	blx	r6
    7b0a:	2200      	movs	r2, #0
    7b0c:	463b      	mov	r3, r7
    7b0e:	4611      	mov	r1, r2
    7b10:	4628      	mov	r0, r5
    7b12:	47b0      	blx	r6
    7b14:	4620      	mov	r0, r4
    7b16:	4c08      	ldr	r4, [pc, #32]	; (7b38 <grid_module_po16_revb_hardware_init+0x44>)
    7b18:	2100      	movs	r1, #0
    7b1a:	47a0      	blx	r4
    7b1c:	4628      	mov	r0, r5
    7b1e:	4623      	mov	r3, r4
    7b20:	2100      	movs	r1, #0
    7b22:	e8bd 41f0 	ldmia.w	sp!, {r4, r5, r6, r7, r8, lr}
    7b26:	4718      	bx	r3
    7b28:	000078e9 	.word	0x000078e9
    7b2c:	20001044 	.word	0x20001044
    7b30:	00008c35 	.word	0x00008c35
    7b34:	20001218 	.word	0x20001218
    7b38:	00008c25 	.word	0x00008c25

00007b3c <grid_module_po16_revb_init>:
    7b3c:	e92d 41f0 	stmdb	sp!, {r4, r5, r6, r7, r8, lr}
    7b40:	220e      	movs	r2, #14
    7b42:	b09a      	sub	sp, #104	; 0x68
    7b44:	2307      	movs	r3, #7
    7b46:	2105      	movs	r1, #5
    7b48:	4c18      	ldr	r4, [pc, #96]	; (7bac <grid_module_po16_revb_init+0x70>)
    7b4a:	4e19      	ldr	r6, [pc, #100]	; (7bb0 <grid_module_po16_revb_init+0x74>)
    7b4c:	f8df 808c 	ldr.w	r8, [pc, #140]	; 7bdc <grid_module_po16_revb_init+0xa0>
    7b50:	4f18      	ldr	r7, [pc, #96]	; (7bb4 <grid_module_po16_revb_init+0x78>)
    7b52:	2010      	movs	r0, #16
    7b54:	47a0      	blx	r4
    7b56:	2110      	movs	r1, #16
    7b58:	4b17      	ldr	r3, [pc, #92]	; (7bb8 <grid_module_po16_revb_init+0x7c>)
    7b5a:	4818      	ldr	r0, [pc, #96]	; (7bbc <grid_module_po16_revb_init+0x80>)
    7b5c:	4798      	blx	r3
    7b5e:	2110      	movs	r1, #16
    7b60:	4813      	ldr	r0, [pc, #76]	; (7bb0 <grid_module_po16_revb_init+0x74>)
    7b62:	4b17      	ldr	r3, [pc, #92]	; (7bc0 <grid_module_po16_revb_init+0x84>)
    7b64:	4798      	blx	r3
    7b66:	2400      	movs	r4, #0
    7b68:	b2e1      	uxtb	r1, r4
    7b6a:	2201      	movs	r2, #1
    7b6c:	4810      	ldr	r0, [pc, #64]	; (7bb0 <grid_module_po16_revb_init+0x74>)
    7b6e:	47c0      	blx	r8
    7b70:	2264      	movs	r2, #100	; 0x64
    7b72:	2100      	movs	r1, #0
    7b74:	a801      	add	r0, sp, #4
    7b76:	47b8      	blx	r7
    7b78:	4912      	ldr	r1, [pc, #72]	; (7bc4 <grid_module_po16_revb_init+0x88>)
    7b7a:	4b13      	ldr	r3, [pc, #76]	; (7bc8 <grid_module_po16_revb_init+0x8c>)
    7b7c:	a801      	add	r0, sp, #4
    7b7e:	4798      	blx	r3
    7b80:	4b12      	ldr	r3, [pc, #72]	; (7bcc <grid_module_po16_revb_init+0x90>)
    7b82:	a801      	add	r0, sp, #4
    7b84:	4798      	blx	r3
    7b86:	6875      	ldr	r5, [r6, #4]
    7b88:	b2c3      	uxtb	r3, r0
    7b8a:	aa01      	add	r2, sp, #4
    7b8c:	eb05 1004 	add.w	r0, r5, r4, lsl #4
    7b90:	2102      	movs	r1, #2
    7b92:	4d0f      	ldr	r5, [pc, #60]	; (7bd0 <grid_module_po16_revb_init+0x94>)
    7b94:	3401      	adds	r4, #1
    7b96:	47a8      	blx	r5
    7b98:	2c10      	cmp	r4, #16
    7b9a:	d1e5      	bne.n	7b68 <grid_module_po16_revb_init+0x2c>
    7b9c:	4b0d      	ldr	r3, [pc, #52]	; (7bd4 <grid_module_po16_revb_init+0x98>)
    7b9e:	4798      	blx	r3
    7ba0:	4b0d      	ldr	r3, [pc, #52]	; (7bd8 <grid_module_po16_revb_init+0x9c>)
    7ba2:	4798      	blx	r3
    7ba4:	b01a      	add	sp, #104	; 0x68
    7ba6:	e8bd 81f0 	ldmia.w	sp!, {r4, r5, r6, r7, r8, pc}
    7baa:	bf00      	nop
    7bac:	000051c1 	.word	0x000051c1
    7bb0:	200032e0 	.word	0x200032e0
    7bb4:	0000ea0f 	.word	0x0000ea0f
    7bb8:	00006825 	.word	0x00006825
    7bbc:	20007dcc 	.word	0x20007dcc
    7bc0:	00008315 	.word	0x00008315
    7bc4:	00010320 	.word	0x00010320
    7bc8:	0000ee45 	.word	0x0000ee45
    7bcc:	0000ee55 	.word	0x0000ee55
    7bd0:	00008491 	.word	0x00008491
    7bd4:	00007af5 	.word	0x00007af5
    7bd8:	000078c9 	.word	0x000078c9
    7bdc:	000083a5 	.word	0x000083a5

00007be0 <gpio_set_pin_pull_mode.constprop.2>:
    7be0:	f000 031f 	and.w	r3, r0, #31
    7be4:	0940      	lsrs	r0, r0, #5
    7be6:	01c0      	lsls	r0, r0, #7
    7be8:	f100 4082 	add.w	r0, r0, #1090519040	; 0x41000000
    7bec:	f500 4000 	add.w	r0, r0, #32768	; 0x8000
    7bf0:	2201      	movs	r2, #1
    7bf2:	409a      	lsls	r2, r3
    7bf4:	4403      	add	r3, r0
    7bf6:	6042      	str	r2, [r0, #4]
    7bf8:	f893 1040 	ldrb.w	r1, [r3, #64]	; 0x40
    7bfc:	f041 0104 	orr.w	r1, r1, #4
    7c00:	f883 1040 	strb.w	r1, [r3, #64]	; 0x40
    7c04:	6182      	str	r2, [r0, #24]
    7c06:	4770      	bx	lr

00007c08 <grid_task_enter_task>:
    7c08:	4603      	mov	r3, r0
    7c0a:	7840      	ldrb	r0, [r0, #1]
    7c0c:	7059      	strb	r1, [r3, #1]
    7c0e:	4770      	bx	lr

00007c10 <grid_task_timer_tick>:
    7c10:	7843      	ldrb	r3, [r0, #1]
    7c12:	eb00 0083 	add.w	r0, r0, r3, lsl #2
    7c16:	6843      	ldr	r3, [r0, #4]
    7c18:	3301      	adds	r3, #1
    7c1a:	6043      	str	r3, [r0, #4]
    7c1c:	4770      	bx	lr

00007c1e <grid_task_timer_reset>:
    7c1e:	1d03      	adds	r3, r0, #4
    7c20:	2200      	movs	r2, #0
    7c22:	3024      	adds	r0, #36	; 0x24
    7c24:	f843 2b04 	str.w	r2, [r3], #4
    7c28:	4283      	cmp	r3, r0
    7c2a:	d1fb      	bne.n	7c24 <grid_task_timer_reset+0x6>
    7c2c:	4770      	bx	lr

00007c2e <grid_task_timer_read>:
    7c2e:	eb00 0181 	add.w	r1, r0, r1, lsl #2
    7c32:	6848      	ldr	r0, [r1, #4]
    7c34:	4770      	bx	lr

00007c36 <tx_cb_USART_GRID>:
    7c36:	8983      	ldrh	r3, [r0, #12]
    7c38:	332c      	adds	r3, #44	; 0x2c
    7c3a:	f100 022c 	add.w	r2, r0, #44	; 0x2c
    7c3e:	4403      	add	r3, r0
    7c40:	2100      	movs	r1, #0
    7c42:	429a      	cmp	r2, r3
    7c44:	d101      	bne.n	7c4a <tx_cb_USART_GRID+0x14>
    7c46:	8181      	strh	r1, [r0, #12]
    7c48:	4770      	bx	lr
    7c4a:	f802 1b01 	strb.w	r1, [r2], #1
    7c4e:	e7f8      	b.n	7c42 <tx_cb_USART_GRID+0xc>

00007c50 <tx_cb_USART_GRID_W>:
    7c50:	4801      	ldr	r0, [pc, #4]	; (7c58 <tx_cb_USART_GRID_W+0x8>)
    7c52:	4b02      	ldr	r3, [pc, #8]	; (7c5c <tx_cb_USART_GRID_W+0xc>)
    7c54:	4718      	bx	r3
    7c56:	bf00      	nop
    7c58:	20003bdc 	.word	0x20003bdc
    7c5c:	00007c37 	.word	0x00007c37

00007c60 <tx_cb_USART_GRID_S>:
    7c60:	4801      	ldr	r0, [pc, #4]	; (7c68 <tx_cb_USART_GRID_S+0x8>)
    7c62:	4b02      	ldr	r3, [pc, #8]	; (7c6c <tx_cb_USART_GRID_S+0xc>)
    7c64:	4718      	bx	r3
    7c66:	bf00      	nop
    7c68:	20004bfc 	.word	0x20004bfc
    7c6c:	00007c37 	.word	0x00007c37

00007c70 <tx_cb_USART_GRID_E>:
    7c70:	4801      	ldr	r0, [pc, #4]	; (7c78 <tx_cb_USART_GRID_E+0x8>)
    7c72:	4b02      	ldr	r3, [pc, #8]	; (7c7c <tx_cb_USART_GRID_E+0xc>)
    7c74:	4718      	bx	r3
    7c76:	bf00      	nop
    7c78:	20006d38 	.word	0x20006d38
    7c7c:	00007c37 	.word	0x00007c37

00007c80 <tx_cb_USART_GRID_N>:
    7c80:	4801      	ldr	r0, [pc, #4]	; (7c88 <tx_cb_USART_GRID_N+0x8>)
    7c82:	4b02      	ldr	r3, [pc, #8]	; (7c8c <tx_cb_USART_GRID_N+0xc>)
    7c84:	4718      	bx	r3
    7c86:	bf00      	nop
    7c88:	20001298 	.word	0x20001298
    7c8c:	00007c37 	.word	0x00007c37

00007c90 <err_cb_USART_GRID>:
    7c90:	2301      	movs	r3, #1
    7c92:	7603      	strb	r3, [r0, #24]
    7c94:	6840      	ldr	r0, [r0, #4]
    7c96:	4b01      	ldr	r3, [pc, #4]	; (7c9c <err_cb_USART_GRID+0xc>)
    7c98:	4718      	bx	r3
    7c9a:	bf00      	nop
    7c9c:	0000946d 	.word	0x0000946d

00007ca0 <err_cb_USART_GRID_W>:
    7ca0:	4801      	ldr	r0, [pc, #4]	; (7ca8 <err_cb_USART_GRID_W+0x8>)
    7ca2:	4b02      	ldr	r3, [pc, #8]	; (7cac <err_cb_USART_GRID_W+0xc>)
    7ca4:	4718      	bx	r3
    7ca6:	bf00      	nop
    7ca8:	20003bdc 	.word	0x20003bdc
    7cac:	00007c91 	.word	0x00007c91

00007cb0 <err_cb_USART_GRID_S>:
    7cb0:	4801      	ldr	r0, [pc, #4]	; (7cb8 <err_cb_USART_GRID_S+0x8>)
    7cb2:	4b02      	ldr	r3, [pc, #8]	; (7cbc <err_cb_USART_GRID_S+0xc>)
    7cb4:	4718      	bx	r3
    7cb6:	bf00      	nop
    7cb8:	20004bfc 	.word	0x20004bfc
    7cbc:	00007c91 	.word	0x00007c91

00007cc0 <err_cb_USART_GRID_E>:
    7cc0:	4801      	ldr	r0, [pc, #4]	; (7cc8 <err_cb_USART_GRID_E+0x8>)
    7cc2:	4b02      	ldr	r3, [pc, #8]	; (7ccc <err_cb_USART_GRID_E+0xc>)
    7cc4:	4718      	bx	r3
    7cc6:	bf00      	nop
    7cc8:	20006d38 	.word	0x20006d38
    7ccc:	00007c91 	.word	0x00007c91

00007cd0 <err_cb_USART_GRID_N>:
    7cd0:	4801      	ldr	r0, [pc, #4]	; (7cd8 <err_cb_USART_GRID_N+0x8>)
    7cd2:	4b02      	ldr	r3, [pc, #8]	; (7cdc <err_cb_USART_GRID_N+0xc>)
    7cd4:	4718      	bx	r3
    7cd6:	bf00      	nop
    7cd8:	20001298 	.word	0x20001298
    7cdc:	00007c91 	.word	0x00007c91

00007ce0 <grid_sys_port_reset_dma>:
    7ce0:	7a80      	ldrb	r0, [r0, #10]
    7ce2:	0103      	lsls	r3, r0, #4
    7ce4:	f103 4382 	add.w	r3, r3, #1090519040	; 0x41000000
    7ce8:	f503 4320 	add.w	r3, r3, #40960	; 0xa000
    7cec:	2100      	movs	r1, #0
    7cee:	6c1a      	ldr	r2, [r3, #64]	; 0x40
    7cf0:	f022 0202 	bic.w	r2, r2, #2
    7cf4:	641a      	str	r2, [r3, #64]	; 0x40
    7cf6:	4b01      	ldr	r3, [pc, #4]	; (7cfc <grid_sys_port_reset_dma+0x1c>)
    7cf8:	4718      	bx	r3
    7cfa:	bf00      	nop
    7cfc:	0000a0bd 	.word	0x0000a0bd

00007d00 <dma_transfer_complete_n_cb>:
    7d00:	4801      	ldr	r0, [pc, #4]	; (7d08 <dma_transfer_complete_n_cb+0x8>)
    7d02:	4b02      	ldr	r3, [pc, #8]	; (7d0c <dma_transfer_complete_n_cb+0xc>)
    7d04:	4718      	bx	r3
    7d06:	bf00      	nop
    7d08:	20001298 	.word	0x20001298
    7d0c:	00007ce1 	.word	0x00007ce1

00007d10 <dma_transfer_complete_e_cb>:
    7d10:	4801      	ldr	r0, [pc, #4]	; (7d18 <dma_transfer_complete_e_cb+0x8>)
    7d12:	4b02      	ldr	r3, [pc, #8]	; (7d1c <dma_transfer_complete_e_cb+0xc>)
    7d14:	4718      	bx	r3
    7d16:	bf00      	nop
    7d18:	20006d38 	.word	0x20006d38
    7d1c:	00007ce1 	.word	0x00007ce1

00007d20 <dma_transfer_complete_s_cb>:
    7d20:	4801      	ldr	r0, [pc, #4]	; (7d28 <dma_transfer_complete_s_cb+0x8>)
    7d22:	4b02      	ldr	r3, [pc, #8]	; (7d2c <dma_transfer_complete_s_cb+0xc>)
    7d24:	4718      	bx	r3
    7d26:	bf00      	nop
    7d28:	20004bfc 	.word	0x20004bfc
    7d2c:	00007ce1 	.word	0x00007ce1

00007d30 <dma_transfer_complete_w_cb>:
    7d30:	4801      	ldr	r0, [pc, #4]	; (7d38 <dma_transfer_complete_w_cb+0x8>)
    7d32:	4b02      	ldr	r3, [pc, #8]	; (7d3c <dma_transfer_complete_w_cb+0xc>)
    7d34:	4718      	bx	r3
    7d36:	bf00      	nop
    7d38:	20003bdc 	.word	0x20003bdc
    7d3c:	00007ce1 	.word	0x00007ce1

00007d40 <grid_sys_uart_init>:
    7d40:	e92d 47f0 	stmdb	sp!, {r4, r5, r6, r7, r8, r9, sl, lr}
    7d44:	205c      	movs	r0, #92	; 0x5c
    7d46:	4c2a      	ldr	r4, [pc, #168]	; (7df0 <grid_sys_uart_init+0xb0>)
    7d48:	f8df 80f0 	ldr.w	r8, [pc, #240]	; 7e3c <grid_sys_uart_init+0xfc>
    7d4c:	4f29      	ldr	r7, [pc, #164]	; (7df4 <grid_sys_uart_init+0xb4>)
    7d4e:	4e2a      	ldr	r6, [pc, #168]	; (7df8 <grid_sys_uart_init+0xb8>)
    7d50:	4d2a      	ldr	r5, [pc, #168]	; (7dfc <grid_sys_uart_init+0xbc>)
    7d52:	f8df 90ec 	ldr.w	r9, [pc, #236]	; 7e40 <grid_sys_uart_init+0x100>
    7d56:	47a0      	blx	r4
    7d58:	2050      	movs	r0, #80	; 0x50
    7d5a:	47a0      	blx	r4
    7d5c:	204c      	movs	r0, #76	; 0x4c
    7d5e:	47a0      	blx	r4
    7d60:	2029      	movs	r0, #41	; 0x29
    7d62:	47a0      	blx	r4
    7d64:	4c26      	ldr	r4, [pc, #152]	; (7e00 <grid_sys_uart_init+0xc0>)
    7d66:	4a27      	ldr	r2, [pc, #156]	; (7e04 <grid_sys_uart_init+0xc4>)
    7d68:	2101      	movs	r1, #1
    7d6a:	4640      	mov	r0, r8
    7d6c:	47a0      	blx	r4
    7d6e:	4a26      	ldr	r2, [pc, #152]	; (7e08 <grid_sys_uart_init+0xc8>)
    7d70:	2101      	movs	r1, #1
    7d72:	4638      	mov	r0, r7
    7d74:	47a0      	blx	r4
    7d76:	4a25      	ldr	r2, [pc, #148]	; (7e0c <grid_sys_uart_init+0xcc>)
    7d78:	2101      	movs	r1, #1
    7d7a:	4630      	mov	r0, r6
    7d7c:	47a0      	blx	r4
    7d7e:	4a24      	ldr	r2, [pc, #144]	; (7e10 <grid_sys_uart_init+0xd0>)
    7d80:	2101      	movs	r1, #1
    7d82:	4628      	mov	r0, r5
    7d84:	47a0      	blx	r4
    7d86:	2101      	movs	r1, #1
    7d88:	4640      	mov	r0, r8
    7d8a:	47c8      	blx	r9
    7d8c:	2101      	movs	r1, #1
    7d8e:	4638      	mov	r0, r7
    7d90:	47c8      	blx	r9
    7d92:	2101      	movs	r1, #1
    7d94:	4630      	mov	r0, r6
    7d96:	47c8      	blx	r9
    7d98:	2101      	movs	r1, #1
    7d9a:	4628      	mov	r0, r5
    7d9c:	47c8      	blx	r9
    7d9e:	4a1d      	ldr	r2, [pc, #116]	; (7e14 <grid_sys_uart_init+0xd4>)
    7da0:	2102      	movs	r1, #2
    7da2:	4640      	mov	r0, r8
    7da4:	47a0      	blx	r4
    7da6:	4a1c      	ldr	r2, [pc, #112]	; (7e18 <grid_sys_uart_init+0xd8>)
    7da8:	2102      	movs	r1, #2
    7daa:	4638      	mov	r0, r7
    7dac:	47a0      	blx	r4
    7dae:	4a1b      	ldr	r2, [pc, #108]	; (7e1c <grid_sys_uart_init+0xdc>)
    7db0:	2102      	movs	r1, #2
    7db2:	4630      	mov	r0, r6
    7db4:	47a0      	blx	r4
    7db6:	4a1a      	ldr	r2, [pc, #104]	; (7e20 <grid_sys_uart_init+0xe0>)
    7db8:	2102      	movs	r1, #2
    7dba:	4628      	mov	r0, r5
    7dbc:	47a0      	blx	r4
    7dbe:	4c19      	ldr	r4, [pc, #100]	; (7e24 <grid_sys_uart_init+0xe4>)
    7dc0:	4919      	ldr	r1, [pc, #100]	; (7e28 <grid_sys_uart_init+0xe8>)
    7dc2:	4640      	mov	r0, r8
    7dc4:	47a0      	blx	r4
    7dc6:	4919      	ldr	r1, [pc, #100]	; (7e2c <grid_sys_uart_init+0xec>)
    7dc8:	4638      	mov	r0, r7
    7dca:	47a0      	blx	r4
    7dcc:	4918      	ldr	r1, [pc, #96]	; (7e30 <grid_sys_uart_init+0xf0>)
    7dce:	4630      	mov	r0, r6
    7dd0:	47a0      	blx	r4
    7dd2:	4918      	ldr	r1, [pc, #96]	; (7e34 <grid_sys_uart_init+0xf4>)
    7dd4:	4628      	mov	r0, r5
    7dd6:	47a0      	blx	r4
    7dd8:	4c17      	ldr	r4, [pc, #92]	; (7e38 <grid_sys_uart_init+0xf8>)
    7dda:	4640      	mov	r0, r8
    7ddc:	47a0      	blx	r4
    7dde:	4638      	mov	r0, r7
    7de0:	47a0      	blx	r4
    7de2:	4630      	mov	r0, r6
    7de4:	47a0      	blx	r4
    7de6:	4628      	mov	r0, r5
    7de8:	4623      	mov	r3, r4
    7dea:	e8bd 47f0 	ldmia.w	sp!, {r4, r5, r6, r7, r8, r9, sl, lr}
    7dee:	4718      	bx	r3
    7df0:	00007be1 	.word	0x00007be1
    7df4:	20001070 	.word	0x20001070
    7df8:	200011c8 	.word	0x200011c8
    7dfc:	20001178 	.word	0x20001178
    7e00:	00009485 	.word	0x00009485
    7e04:	00007c81 	.word	0x00007c81
    7e08:	00007c71 	.word	0x00007c71
    7e0c:	00007c61 	.word	0x00007c61
    7e10:	00007c51 	.word	0x00007c51
    7e14:	00007cd1 	.word	0x00007cd1
    7e18:	00007cc1 	.word	0x00007cc1
    7e1c:	00007cb1 	.word	0x00007cb1
    7e20:	00007ca1 	.word	0x00007ca1
    7e24:	0000947d 	.word	0x0000947d
    7e28:	200032e8 	.word	0x200032e8
    7e2c:	20004bf8 	.word	0x20004bf8
    7e30:	20005c18 	.word	0x20005c18
    7e34:	20007de4 	.word	0x20007de4
    7e38:	0000945d 	.word	0x0000945d
    7e3c:	200010c4 	.word	0x200010c4
    7e40:	000094c9 	.word	0x000094c9

00007e44 <grid_sys_dma_rx_init_one>:
    7e44:	b5f7      	push	{r0, r1, r2, r4, r5, r6, r7, lr}
    7e46:	6843      	ldr	r3, [r0, #4]
    7e48:	7a84      	ldrb	r4, [r0, #10]
    7e4a:	460f      	mov	r7, r1
    7e4c:	6a19      	ldr	r1, [r3, #32]
    7e4e:	4b10      	ldr	r3, [pc, #64]	; (7e90 <grid_sys_dma_rx_init_one+0x4c>)
    7e50:	4605      	mov	r5, r0
    7e52:	3128      	adds	r1, #40	; 0x28
    7e54:	4620      	mov	r0, r4
    7e56:	4616      	mov	r6, r2
    7e58:	4798      	blx	r3
    7e5a:	f205 71fc 	addw	r1, r5, #2044	; 0x7fc
    7e5e:	4620      	mov	r0, r4
    7e60:	4b0c      	ldr	r3, [pc, #48]	; (7e94 <grid_sys_dma_rx_init_one+0x50>)
    7e62:	4798      	blx	r3
    7e64:	4639      	mov	r1, r7
    7e66:	4620      	mov	r0, r4
    7e68:	4b0b      	ldr	r3, [pc, #44]	; (7e98 <grid_sys_dma_rx_init_one+0x54>)
    7e6a:	4798      	blx	r3
    7e6c:	4621      	mov	r1, r4
    7e6e:	a801      	add	r0, sp, #4
    7e70:	4b0a      	ldr	r3, [pc, #40]	; (7e9c <grid_sys_dma_rx_init_one+0x58>)
    7e72:	4798      	blx	r3
    7e74:	9b01      	ldr	r3, [sp, #4]
    7e76:	2201      	movs	r2, #1
    7e78:	601e      	str	r6, [r3, #0]
    7e7a:	4620      	mov	r0, r4
    7e7c:	2100      	movs	r1, #0
    7e7e:	4b08      	ldr	r3, [pc, #32]	; (7ea0 <grid_sys_dma_rx_init_one+0x5c>)
    7e80:	4798      	blx	r3
    7e82:	2100      	movs	r1, #0
    7e84:	4620      	mov	r0, r4
    7e86:	4b07      	ldr	r3, [pc, #28]	; (7ea4 <grid_sys_dma_rx_init_one+0x60>)
    7e88:	4798      	blx	r3
    7e8a:	b003      	add	sp, #12
    7e8c:	bdf0      	pop	{r4, r5, r6, r7, pc}
    7e8e:	bf00      	nop
    7e90:	0000a04d 	.word	0x0000a04d
    7e94:	0000a03d 	.word	0x0000a03d
    7e98:	0000a079 	.word	0x0000a079
    7e9c:	0000a0f9 	.word	0x0000a0f9
    7ea0:	0000a015 	.word	0x0000a015
    7ea4:	0000a0bd 	.word	0x0000a0bd

00007ea8 <grid_sys_dma_rx_init>:
    7ea8:	b510      	push	{r4, lr}
    7eaa:	4a10      	ldr	r2, [pc, #64]	; (7eec <grid_sys_dma_rx_init+0x44>)
    7eac:	4c10      	ldr	r4, [pc, #64]	; (7ef0 <grid_sys_dma_rx_init+0x48>)
    7eae:	4811      	ldr	r0, [pc, #68]	; (7ef4 <grid_sys_dma_rx_init+0x4c>)
    7eb0:	f44f 61fa 	mov.w	r1, #2000	; 0x7d0
    7eb4:	47a0      	blx	r4
    7eb6:	4a10      	ldr	r2, [pc, #64]	; (7ef8 <grid_sys_dma_rx_init+0x50>)
    7eb8:	4810      	ldr	r0, [pc, #64]	; (7efc <grid_sys_dma_rx_init+0x54>)
    7eba:	f44f 61fa 	mov.w	r1, #2000	; 0x7d0
    7ebe:	47a0      	blx	r4
    7ec0:	4a0f      	ldr	r2, [pc, #60]	; (7f00 <grid_sys_dma_rx_init+0x58>)
    7ec2:	4810      	ldr	r0, [pc, #64]	; (7f04 <grid_sys_dma_rx_init+0x5c>)
    7ec4:	f44f 61fa 	mov.w	r1, #2000	; 0x7d0
    7ec8:	47a0      	blx	r4
    7eca:	4a0f      	ldr	r2, [pc, #60]	; (7f08 <grid_sys_dma_rx_init+0x60>)
    7ecc:	480f      	ldr	r0, [pc, #60]	; (7f0c <grid_sys_dma_rx_init+0x64>)
    7ece:	f44f 61fa 	mov.w	r1, #2000	; 0x7d0
    7ed2:	47a0      	blx	r4
    7ed4:	4b0e      	ldr	r3, [pc, #56]	; (7f10 <grid_sys_dma_rx_init+0x68>)
    7ed6:	2200      	movs	r2, #0
    7ed8:	f883 231f 	strb.w	r2, [r3, #799]	; 0x31f
    7edc:	f883 2320 	strb.w	r2, [r3, #800]	; 0x320
    7ee0:	f883 2321 	strb.w	r2, [r3, #801]	; 0x321
    7ee4:	f883 2322 	strb.w	r2, [r3, #802]	; 0x322
    7ee8:	bd10      	pop	{r4, pc}
    7eea:	bf00      	nop
    7eec:	00007d01 	.word	0x00007d01
    7ef0:	00007e45 	.word	0x00007e45
    7ef4:	20001298 	.word	0x20001298
    7ef8:	00007d11 	.word	0x00007d11
    7efc:	20006d38 	.word	0x20006d38
    7f00:	00007d21 	.word	0x00007d21
    7f04:	20004bfc 	.word	0x20004bfc
    7f08:	00007d31 	.word	0x00007d31
    7f0c:	20003bdc 	.word	0x20003bdc
    7f10:	e000e100 	.word	0xe000e100

00007f14 <grid_sys_bank_enable>:
    7f14:	2904      	cmp	r1, #4
    7f16:	d901      	bls.n	7f1c <grid_sys_bank_enable+0x8>
    7f18:	2000      	movs	r0, #0
    7f1a:	4770      	bx	lr
    7f1c:	4408      	add	r0, r1
    7f1e:	2301      	movs	r3, #1
    7f20:	7343      	strb	r3, [r0, #13]
    7f22:	4770      	bx	lr

00007f24 <grid_sys_bank_disable>:
    7f24:	2904      	cmp	r1, #4
    7f26:	f04f 0300 	mov.w	r3, #0
    7f2a:	d901      	bls.n	7f30 <grid_sys_bank_disable+0xc>
    7f2c:	4618      	mov	r0, r3
    7f2e:	4770      	bx	lr
    7f30:	4408      	add	r0, r1
    7f32:	7343      	strb	r3, [r0, #13]
    7f34:	4770      	bx	lr

00007f36 <grid_sys_bank_set_color>:
    7f36:	2904      	cmp	r1, #4
    7f38:	d901      	bls.n	7f3e <grid_sys_bank_set_color+0x8>
    7f3a:	2000      	movs	r0, #0
    7f3c:	4770      	bx	lr
    7f3e:	4408      	add	r0, r1
    7f40:	0c13      	lsrs	r3, r2, #16
    7f42:	7443      	strb	r3, [r0, #17]
    7f44:	0a13      	lsrs	r3, r2, #8
    7f46:	7543      	strb	r3, [r0, #21]
    7f48:	7642      	strb	r2, [r0, #25]
    7f4a:	4770      	bx	lr

00007f4c <grid_sys_get_bank_num>:
    7f4c:	7a40      	ldrb	r0, [r0, #9]
    7f4e:	4770      	bx	lr

00007f50 <grid_sys_get_bank_red>:
    7f50:	7f40      	ldrb	r0, [r0, #29]
    7f52:	4770      	bx	lr

00007f54 <grid_sys_get_bank_gre>:
    7f54:	7f80      	ldrb	r0, [r0, #30]
    7f56:	4770      	bx	lr

00007f58 <grid_sys_get_bank_blu>:
    7f58:	7fc0      	ldrb	r0, [r0, #31]
    7f5a:	4770      	bx	lr

00007f5c <grid_sys_get_bank_next>:
    7f5c:	b530      	push	{r4, r5, lr}
    7f5e:	7a41      	ldrb	r1, [r0, #9]
    7f60:	2300      	movs	r3, #0
    7f62:	1c4c      	adds	r4, r1, #1
    7f64:	18e2      	adds	r2, r4, r3
    7f66:	f002 0203 	and.w	r2, r2, #3
    7f6a:	1885      	adds	r5, r0, r2
    7f6c:	7b6d      	ldrb	r5, [r5, #13]
    7f6e:	2d01      	cmp	r5, #1
    7f70:	d102      	bne.n	7f78 <grid_sys_get_bank_next+0x1c>
    7f72:	b2d1      	uxtb	r1, r2
    7f74:	4608      	mov	r0, r1
    7f76:	bd30      	pop	{r4, r5, pc}
    7f78:	3301      	adds	r3, #1
    7f7a:	2b04      	cmp	r3, #4
    7f7c:	d1f2      	bne.n	7f64 <grid_sys_get_bank_next+0x8>
    7f7e:	e7f9      	b.n	7f74 <grid_sys_get_bank_next+0x18>

00007f80 <grid_sys_set_bank>:
    7f80:	e92d 4ff8 	stmdb	sp!, {r3, r4, r5, r6, r7, r8, r9, sl, fp, lr}
    7f84:	2301      	movs	r3, #1
    7f86:	f8df 8084 	ldr.w	r8, [pc, #132]	; 800c <grid_sys_set_bank+0x8c>
    7f8a:	f8df b084 	ldr.w	fp, [pc, #132]	; 8010 <grid_sys_set_bank+0x90>
    7f8e:	f8df 9084 	ldr.w	r9, [pc, #132]	; 8014 <grid_sys_set_bank+0x94>
    7f92:	72c3      	strb	r3, [r0, #11]
    7f94:	4604      	mov	r4, r0
    7f96:	460f      	mov	r7, r1
    7f98:	2500      	movs	r5, #0
    7f9a:	f898 3001 	ldrb.w	r3, [r8, #1]
    7f9e:	f105 0a01 	add.w	sl, r5, #1
    7fa2:	b2ed      	uxtb	r5, r5
    7fa4:	429d      	cmp	r5, r3
    7fa6:	d308      	bcc.n	7fba <grid_sys_set_bank+0x3a>
    7fa8:	2fff      	cmp	r7, #255	; 0xff
    7faa:	d11f      	bne.n	7fec <grid_sys_set_bank+0x6c>
    7fac:	237f      	movs	r3, #127	; 0x7f
    7fae:	7267      	strb	r7, [r4, #9]
    7fb0:	7763      	strb	r3, [r4, #29]
    7fb2:	77a3      	strb	r3, [r4, #30]
    7fb4:	77e3      	strb	r3, [r4, #31]
    7fb6:	e8bd 8ff8 	ldmia.w	sp!, {r3, r4, r5, r6, r7, r8, r9, sl, fp, pc}
    7fba:	f8d8 0004 	ldr.w	r0, [r8, #4]
    7fbe:	012d      	lsls	r5, r5, #4
    7fc0:	2100      	movs	r1, #0
    7fc2:	4428      	add	r0, r5
    7fc4:	47d8      	blx	fp
    7fc6:	4606      	mov	r6, r0
    7fc8:	f8d8 0004 	ldr.w	r0, [r8, #4]
    7fcc:	4631      	mov	r1, r6
    7fce:	4428      	add	r0, r5
    7fd0:	47c8      	blx	r9
    7fd2:	f8d8 3004 	ldr.w	r3, [r8, #4]
    7fd6:	441d      	add	r5, r3
    7fd8:	b236      	sxth	r6, r6
    7fda:	68e8      	ldr	r0, [r5, #12]
    7fdc:	4b0a      	ldr	r3, [pc, #40]	; (8008 <grid_sys_set_bank+0x88>)
    7fde:	ebc6 06c6 	rsb	r6, r6, r6, lsl #3
    7fe2:	eb00 0086 	add.w	r0, r0, r6, lsl #2
    7fe6:	4798      	blx	r3
    7fe8:	4655      	mov	r5, sl
    7fea:	e7d6      	b.n	7f9a <grid_sys_set_bank+0x1a>
    7fec:	f007 0703 	and.w	r7, r7, #3
    7ff0:	19e3      	adds	r3, r4, r7
    7ff2:	7b5a      	ldrb	r2, [r3, #13]
    7ff4:	2a01      	cmp	r2, #1
    7ff6:	d1de      	bne.n	7fb6 <grid_sys_set_bank+0x36>
    7ff8:	7267      	strb	r7, [r4, #9]
    7ffa:	7c5a      	ldrb	r2, [r3, #17]
    7ffc:	7762      	strb	r2, [r4, #29]
    7ffe:	7d5a      	ldrb	r2, [r3, #21]
    8000:	77a2      	strb	r2, [r4, #30]
    8002:	7e5b      	ldrb	r3, [r3, #25]
    8004:	e7d6      	b.n	7fb4 <grid_sys_set_bank+0x34>
    8006:	bf00      	nop
    8008:	0000858d 	.word	0x0000858d
    800c:	200032e0 	.word	0x200032e0
    8010:	00008567 	.word	0x00008567
    8014:	00008965 	.word	0x00008965

00008018 <grid_sys_init>:
    8018:	b510      	push	{r4, lr}
    801a:	22c8      	movs	r2, #200	; 0xc8
    801c:	2164      	movs	r1, #100	; 0x64
    801e:	2300      	movs	r3, #0
    8020:	7541      	strb	r1, [r0, #21]
    8022:	7642      	strb	r2, [r0, #25]
    8024:	7482      	strb	r2, [r0, #18]
    8026:	7581      	strb	r1, [r0, #22]
    8028:	2432      	movs	r4, #50	; 0x32
    802a:	75c2      	strb	r2, [r0, #23]
    802c:	7501      	strb	r1, [r0, #20]
    802e:	7702      	strb	r2, [r0, #28]
    8030:	21ff      	movs	r1, #255	; 0xff
    8032:	2201      	movs	r2, #1
    8034:	7342      	strb	r2, [r0, #13]
    8036:	7382      	strb	r2, [r0, #14]
    8038:	73c2      	strb	r2, [r0, #15]
    803a:	7402      	strb	r2, [r0, #16]
    803c:	7741      	strb	r1, [r0, #29]
    803e:	7781      	strb	r1, [r0, #30]
    8040:	77c1      	strb	r1, [r0, #31]
    8042:	7241      	strb	r1, [r0, #9]
    8044:	7443      	strb	r3, [r0, #17]
    8046:	7683      	strb	r3, [r0, #26]
    8048:	74c4      	strb	r4, [r0, #19]
    804a:	76c4      	strb	r4, [r0, #27]
    804c:	7603      	strb	r3, [r0, #24]
    804e:	72c3      	strb	r3, [r0, #11]
    8050:	7303      	strb	r3, [r0, #12]
    8052:	4805      	ldr	r0, [pc, #20]	; (8068 <grid_sys_init+0x50>)
    8054:	4b05      	ldr	r3, [pc, #20]	; (806c <grid_sys_init+0x54>)
    8056:	4798      	blx	r3
    8058:	4b05      	ldr	r3, [pc, #20]	; (8070 <grid_sys_init+0x58>)
    805a:	4798      	blx	r3
    805c:	4b05      	ldr	r3, [pc, #20]	; (8074 <grid_sys_init+0x5c>)
    805e:	4798      	blx	r3
    8060:	4b05      	ldr	r3, [pc, #20]	; (8078 <grid_sys_init+0x60>)
    8062:	e8bd 4010 	ldmia.w	sp!, {r4, lr}
    8066:	4718      	bx	r3
    8068:	200032ec 	.word	0x200032ec
    806c:	00007f81 	.word	0x00007f81
    8070:	00005d31 	.word	0x00005d31
    8074:	00007d41 	.word	0x00007d41
    8078:	00007ea9 	.word	0x00007ea9

0000807c <grid_sys_rtc_get_time>:
    807c:	6a00      	ldr	r0, [r0, #32]
    807e:	4770      	bx	lr

00008080 <grid_sys_rtc_get_elapsed_time>:
    8080:	6a00      	ldr	r0, [r0, #32]
    8082:	1a40      	subs	r0, r0, r1
    8084:	4770      	bx	lr

00008086 <grid_sys_rtc_tick_time>:
    8086:	6a03      	ldr	r3, [r0, #32]
    8088:	3301      	adds	r3, #1
    808a:	6203      	str	r3, [r0, #32]
    808c:	4770      	bx	lr

0000808e <grid_sys_alert_read_color_changed_flag>:
    808e:	7a00      	ldrb	r0, [r0, #8]
    8090:	4770      	bx	lr

00008092 <grid_sys_alert_clear_color_changed_flag>:
    8092:	2300      	movs	r3, #0
    8094:	7203      	strb	r3, [r0, #8]
    8096:	4770      	bx	lr

00008098 <grid_sys_alert_get_color_intensity>:
    8098:	7983      	ldrb	r3, [r0, #6]
    809a:	b963      	cbnz	r3, 80b6 <grid_sys_alert_get_color_intensity+0x1e>
    809c:	8880      	ldrh	r0, [r0, #4]
    809e:	0840      	lsrs	r0, r0, #1
    80a0:	38fa      	subs	r0, #250	; 0xfa
    80a2:	2800      	cmp	r0, #0
    80a4:	bfb8      	it	lt
    80a6:	4240      	neglt	r0, r0
    80a8:	f1c0 00fa 	rsb	r0, r0, #250	; 0xfa
    80ac:	2302      	movs	r3, #2
    80ae:	fb90 f0f3 	sdiv	r0, r0, r3
    80b2:	b2c0      	uxtb	r0, r0
    80b4:	4770      	bx	lr
    80b6:	2b01      	cmp	r3, #1
    80b8:	d106      	bne.n	80c8 <grid_sys_alert_get_color_intensity+0x30>
    80ba:	8880      	ldrh	r0, [r0, #4]
    80bc:	23fa      	movs	r3, #250	; 0xfa
    80be:	fbb0 f0f3 	udiv	r0, r0, r3
    80c2:	f340 0000 	sbfx	r0, r0, #0, #1
    80c6:	e7f4      	b.n	80b2 <grid_sys_alert_get_color_intensity+0x1a>
    80c8:	2b02      	cmp	r3, #2
    80ca:	d105      	bne.n	80d8 <grid_sys_alert_get_color_intensity+0x40>
    80cc:	8880      	ldrh	r0, [r0, #4]
    80ce:	2864      	cmp	r0, #100	; 0x64
    80d0:	bf8c      	ite	hi
    80d2:	20ff      	movhi	r0, #255	; 0xff
    80d4:	2000      	movls	r0, #0
    80d6:	4770      	bx	lr
    80d8:	4770      	bx	lr

000080da <grid_sys_alert_set_alert>:
    80da:	b510      	push	{r4, lr}
    80dc:	70c3      	strb	r3, [r0, #3]
    80de:	f8bd 300c 	ldrh.w	r3, [sp, #12]
    80e2:	8083      	strh	r3, [r0, #4]
    80e4:	2401      	movs	r4, #1
    80e6:	f89d 3008 	ldrb.w	r3, [sp, #8]
    80ea:	7204      	strb	r4, [r0, #8]
    80ec:	7041      	strb	r1, [r0, #1]
    80ee:	7082      	strb	r2, [r0, #2]
    80f0:	7183      	strb	r3, [r0, #6]
    80f2:	bd10      	pop	{r4, pc}

000080f4 <grid_sys_alert_get_color_r>:
    80f4:	7840      	ldrb	r0, [r0, #1]
    80f6:	4770      	bx	lr

000080f8 <grid_sys_alert_get_color_g>:
    80f8:	7880      	ldrb	r0, [r0, #2]
    80fa:	4770      	bx	lr

000080fc <grid_sys_alert_get_color_b>:
    80fc:	78c0      	ldrb	r0, [r0, #3]
    80fe:	4770      	bx	lr

00008100 <grid_sys_read_hex_char_value>:
    8100:	f1a0 0330 	sub.w	r3, r0, #48	; 0x30
    8104:	4602      	mov	r2, r0
    8106:	b2d8      	uxtb	r0, r3
    8108:	2809      	cmp	r0, #9
    810a:	d90c      	bls.n	8126 <grid_sys_read_hex_char_value+0x26>
    810c:	f1a2 0361 	sub.w	r3, r2, #97	; 0x61
    8110:	2b05      	cmp	r3, #5
    8112:	d803      	bhi.n	811c <grid_sys_read_hex_char_value+0x1c>
    8114:	f1a2 0057 	sub.w	r0, r2, #87	; 0x57
    8118:	b2c0      	uxtb	r0, r0
    811a:	4770      	bx	lr
    811c:	b111      	cbz	r1, 8124 <grid_sys_read_hex_char_value+0x24>
    811e:	700a      	strb	r2, [r1, #0]
    8120:	2000      	movs	r0, #0
    8122:	4770      	bx	lr
    8124:	4608      	mov	r0, r1
    8126:	4770      	bx	lr

00008128 <grid_sys_read_hex_string_value>:
    8128:	e92d 41f0 	stmdb	sp!, {r4, r5, r6, r7, r8, lr}
    812c:	3901      	subs	r1, #1
    812e:	f8df 8024 	ldr.w	r8, [pc, #36]	; 8154 <grid_sys_read_hex_string_value+0x2c>
    8132:	4617      	mov	r7, r2
    8134:	4606      	mov	r6, r0
    8136:	008c      	lsls	r4, r1, #2
    8138:	2500      	movs	r5, #0
    813a:	1d23      	adds	r3, r4, #4
    813c:	d102      	bne.n	8144 <grid_sys_read_hex_string_value+0x1c>
    813e:	4628      	mov	r0, r5
    8140:	e8bd 81f0 	ldmia.w	sp!, {r4, r5, r6, r7, r8, pc}
    8144:	4639      	mov	r1, r7
    8146:	f816 0b01 	ldrb.w	r0, [r6], #1
    814a:	47c0      	blx	r8
    814c:	40a0      	lsls	r0, r4
    814e:	4405      	add	r5, r0
    8150:	3c04      	subs	r4, #4
    8152:	e7f2      	b.n	813a <grid_sys_read_hex_string_value+0x12>
    8154:	00008101 	.word	0x00008101

00008158 <grid_sys_write_hex_string_value>:
    8158:	b530      	push	{r4, r5, lr}
    815a:	b085      	sub	sp, #20
    815c:	4b09      	ldr	r3, [pc, #36]	; (8184 <grid_sys_write_hex_string_value+0x2c>)
    815e:	4605      	mov	r5, r0
    8160:	460c      	mov	r4, r1
    8162:	a801      	add	r0, sp, #4
    8164:	4908      	ldr	r1, [pc, #32]	; (8188 <grid_sys_write_hex_string_value+0x30>)
    8166:	4798      	blx	r3
    8168:	2300      	movs	r3, #0
    816a:	b2da      	uxtb	r2, r3
    816c:	4294      	cmp	r4, r2
    816e:	d801      	bhi.n	8174 <grid_sys_write_hex_string_value+0x1c>
    8170:	b005      	add	sp, #20
    8172:	bd30      	pop	{r4, r5, pc}
    8174:	1b1a      	subs	r2, r3, r4
    8176:	a901      	add	r1, sp, #4
    8178:	440a      	add	r2, r1
    817a:	7a12      	ldrb	r2, [r2, #8]
    817c:	54ea      	strb	r2, [r5, r3]
    817e:	3301      	adds	r3, #1
    8180:	e7f3      	b.n	816a <grid_sys_write_hex_string_value+0x12>
    8182:	bf00      	nop
    8184:	0000edfd 	.word	0x0000edfd
    8188:	0001035b 	.word	0x0001035b

0000818c <grid_sys_get_hwcfg>:
    818c:	e92d 4ff7 	stmdb	sp!, {r0, r1, r2, r4, r5, r6, r7, r8, r9, sl, fp, lr}
    8190:	4e30      	ldr	r6, [pc, #192]	; (8254 <grid_sys_get_hwcfg+0xc8>)
    8192:	6833      	ldr	r3, [r6, #0]
    8194:	3301      	adds	r3, #1
    8196:	d158      	bne.n	824a <grid_sys_get_hwcfg+0xbe>
    8198:	4c2f      	ldr	r4, [pc, #188]	; (8258 <grid_sys_get_hwcfg+0xcc>)
    819a:	4b30      	ldr	r3, [pc, #192]	; (825c <grid_sys_get_hwcfg+0xd0>)
    819c:	4f30      	ldr	r7, [pc, #192]	; (8260 <grid_sys_get_hwcfg+0xd4>)
    819e:	f8df 90cc 	ldr.w	r9, [pc, #204]	; 826c <grid_sys_get_hwcfg+0xe0>
    81a2:	f44f 5500 	mov.w	r5, #8192	; 0x2000
    81a6:	f8c4 5088 	str.w	r5, [r4, #136]	; 0x88
    81aa:	f44f 4280 	mov.w	r2, #16384	; 0x4000
    81ae:	f8c4 30a8 	str.w	r3, [r4, #168]	; 0xa8
    81b2:	f04f 4340 	mov.w	r3, #3221225472	; 0xc0000000
    81b6:	f8c4 30a8 	str.w	r3, [r4, #168]	; 0xa8
    81ba:	f8c4 2088 	str.w	r2, [r4, #136]	; 0x88
    81be:	f04f 2240 	mov.w	r2, #1073758208	; 0x40004000
    81c2:	f8c4 20a8 	str.w	r2, [r4, #168]	; 0xa8
    81c6:	f8c4 30a8 	str.w	r3, [r4, #168]	; 0xa8
    81ca:	f44f 4300 	mov.w	r3, #32768	; 0x8000
    81ce:	f8c4 3084 	str.w	r3, [r4, #132]	; 0x84
    81d2:	4b24      	ldr	r3, [pc, #144]	; (8264 <grid_sys_get_hwcfg+0xd8>)
    81d4:	f8c4 30a8 	str.w	r3, [r4, #168]	; 0xa8
    81d8:	f1a3 2380 	sub.w	r3, r3, #2147516416	; 0x80008000
    81dc:	f8c4 30a8 	str.w	r3, [r4, #168]	; 0xa8
    81e0:	2001      	movs	r0, #1
    81e2:	f8c4 5094 	str.w	r5, [r4, #148]	; 0x94
    81e6:	47b8      	blx	r7
    81e8:	f04f 0a00 	mov.w	sl, #0
    81ec:	46d3      	mov	fp, sl
    81ee:	46a8      	mov	r8, r5
    81f0:	2001      	movs	r0, #1
    81f2:	f8c4 8098 	str.w	r8, [r4, #152]	; 0x98
    81f6:	47b8      	blx	r7
    81f8:	a801      	add	r0, sp, #4
    81fa:	47c8      	blx	r9
    81fc:	f8d4 2080 	ldr.w	r2, [r4, #128]	; 0x80
    8200:	f8d4 30a0 	ldr.w	r3, [r4, #160]	; 0xa0
    8204:	f8d4 5090 	ldr.w	r5, [r4, #144]	; 0x90
    8208:	405d      	eors	r5, r3
    820a:	4015      	ands	r5, r2
    820c:	405d      	eors	r5, r3
    820e:	a801      	add	r0, sp, #4
    8210:	4b15      	ldr	r3, [pc, #84]	; (8268 <grid_sys_get_hwcfg+0xdc>)
    8212:	4798      	blx	r3
    8214:	042b      	lsls	r3, r5, #16
    8216:	bf41      	itttt	mi
    8218:	2301      	movmi	r3, #1
    821a:	fa03 f30a 	lslmi.w	r3, r3, sl
    821e:	ea43 0b0b 	orrmi.w	fp, r3, fp
    8222:	fa5f fb8b 	uxtbmi.w	fp, fp
    8226:	f1ba 0f07 	cmp.w	sl, #7
    822a:	d007      	beq.n	823c <grid_sys_get_hwcfg+0xb0>
    822c:	f44f 4580 	mov.w	r5, #16384	; 0x4000
    8230:	f8c4 5098 	str.w	r5, [r4, #152]	; 0x98
    8234:	2001      	movs	r0, #1
    8236:	47b8      	blx	r7
    8238:	f8c4 5094 	str.w	r5, [r4, #148]	; 0x94
    823c:	f10a 0a01 	add.w	sl, sl, #1
    8240:	f1ba 0f08 	cmp.w	sl, #8
    8244:	d1d4      	bne.n	81f0 <grid_sys_get_hwcfg+0x64>
    8246:	f8c6 b000 	str.w	fp, [r6]
    824a:	6830      	ldr	r0, [r6, #0]
    824c:	b003      	add	sp, #12
    824e:	e8bd 8ff0 	ldmia.w	sp!, {r4, r5, r6, r7, r8, r9, sl, fp, pc}
    8252:	bf00      	nop
    8254:	20000344 	.word	0x20000344
    8258:	41008000 	.word	0x41008000
    825c:	40002000 	.word	0x40002000
    8260:	00008d4d 	.word	0x00008d4d
    8264:	40028000 	.word	0x40028000
    8268:	00008d03 	.word	0x00008d03
    826c:	00008cf5 	.word	0x00008cf5

00008270 <grid_msg_checksum_calculate>:
    8270:	b510      	push	{r4, lr}
    8272:	4602      	mov	r2, r0
    8274:	2300      	movs	r3, #0
    8276:	3903      	subs	r1, #3
    8278:	1a14      	subs	r4, r2, r0
    827a:	42a1      	cmp	r1, r4
    827c:	d801      	bhi.n	8282 <grid_msg_checksum_calculate+0x12>
    827e:	4618      	mov	r0, r3
    8280:	bd10      	pop	{r4, pc}
    8282:	f812 4b01 	ldrb.w	r4, [r2], #1
    8286:	4063      	eors	r3, r4
    8288:	e7f6      	b.n	8278 <grid_msg_checksum_calculate+0x8>
	...

0000828c <grid_msg_checksum_read>:
    828c:	b507      	push	{r0, r1, r2, lr}
    828e:	1ecb      	subs	r3, r1, #3
    8290:	f10d 0207 	add.w	r2, sp, #7
    8294:	2102      	movs	r1, #2
    8296:	4418      	add	r0, r3
    8298:	4b02      	ldr	r3, [pc, #8]	; (82a4 <grid_msg_checksum_read+0x18>)
    829a:	4798      	blx	r3
    829c:	b2c0      	uxtb	r0, r0
    829e:	b003      	add	sp, #12
    82a0:	f85d fb04 	ldr.w	pc, [sp], #4
    82a4:	00008129 	.word	0x00008129

000082a8 <grid_msg_checksum_write>:
    82a8:	1ecb      	subs	r3, r1, #3
    82aa:	4418      	add	r0, r3
    82ac:	2102      	movs	r1, #2
    82ae:	4b01      	ldr	r3, [pc, #4]	; (82b4 <grid_msg_checksum_write+0xc>)
    82b0:	4718      	bx	r3
    82b2:	bf00      	nop
    82b4:	00008159 	.word	0x00008159

000082b8 <grid_msg_get_parameter>:
    82b8:	b410      	push	{r4}
    82ba:	4614      	mov	r4, r2
    82bc:	4408      	add	r0, r1
    82be:	461a      	mov	r2, r3
    82c0:	4621      	mov	r1, r4
    82c2:	4b02      	ldr	r3, [pc, #8]	; (82cc <grid_msg_get_parameter+0x14>)
    82c4:	f85d 4b04 	ldr.w	r4, [sp], #4
    82c8:	4718      	bx	r3
    82ca:	bf00      	nop
    82cc:	00008129 	.word	0x00008129

000082d0 <grid_msg_set_parameter>:
    82d0:	b510      	push	{r4, lr}
    82d2:	4614      	mov	r4, r2
    82d4:	4408      	add	r0, r1
    82d6:	461a      	mov	r2, r3
    82d8:	4621      	mov	r1, r4
    82da:	4b01      	ldr	r3, [pc, #4]	; (82e0 <grid_msg_set_parameter+0x10>)
    82dc:	4798      	blx	r3
    82de:	bd10      	pop	{r4, pc}
    82e0:	00008159 	.word	0x00008159

000082e4 <grid_msg_find_recent>:
    82e4:	f100 0324 	add.w	r3, r0, #36	; 0x24
    82e8:	30a4      	adds	r0, #164	; 0xa4
    82ea:	f853 2b04 	ldr.w	r2, [r3], #4
    82ee:	428a      	cmp	r2, r1
    82f0:	d003      	beq.n	82fa <grid_msg_find_recent+0x16>
    82f2:	4283      	cmp	r3, r0
    82f4:	d1f9      	bne.n	82ea <grid_msg_find_recent+0x6>
    82f6:	2000      	movs	r0, #0
    82f8:	4770      	bx	lr
    82fa:	2001      	movs	r0, #1
    82fc:	4770      	bx	lr

000082fe <grid_msg_push_recent>:
    82fe:	f890 30a4 	ldrb.w	r3, [r0, #164]	; 0xa4
    8302:	3301      	adds	r3, #1
    8304:	f003 031f 	and.w	r3, r3, #31
    8308:	f880 30a4 	strb.w	r3, [r0, #164]	; 0xa4
    830c:	eb00 0083 	add.w	r0, r0, r3, lsl #2
    8310:	6241      	str	r1, [r0, #36]	; 0x24
    8312:	4770      	bx	lr

00008314 <grid_ui_model_init>:
    8314:	b538      	push	{r3, r4, r5, lr}
    8316:	010c      	lsls	r4, r1, #4
    8318:	2301      	movs	r3, #1
    831a:	7003      	strb	r3, [r0, #0]
    831c:	4605      	mov	r5, r0
    831e:	7041      	strb	r1, [r0, #1]
    8320:	4b08      	ldr	r3, [pc, #32]	; (8344 <grid_ui_model_init+0x30>)
    8322:	4620      	mov	r0, r4
    8324:	4798      	blx	r3
    8326:	3418      	adds	r4, #24
    8328:	6068      	str	r0, [r5, #4]
    832a:	f100 0308 	add.w	r3, r0, #8
    832e:	4404      	add	r4, r0
    8330:	2200      	movs	r2, #0
    8332:	3310      	adds	r3, #16
    8334:	42a3      	cmp	r3, r4
    8336:	d100      	bne.n	833a <grid_ui_model_init+0x26>
    8338:	bd38      	pop	{r3, r4, r5, pc}
    833a:	f803 2c18 	strb.w	r2, [r3, #-24]
    833e:	f803 2c10 	strb.w	r2, [r3, #-16]
    8342:	e7f6      	b.n	8332 <grid_ui_model_init+0x1e>
    8344:	0000e9e9 	.word	0x0000e9e9

00008348 <grid_ui_event_init>:
    8348:	b570      	push	{r4, r5, r6, lr}
    834a:	2301      	movs	r3, #1
    834c:	2500      	movs	r5, #0
    834e:	7003      	strb	r3, [r0, #0]
    8350:	4604      	mov	r4, r0
    8352:	7081      	strb	r1, [r0, #2]
    8354:	60c5      	str	r5, [r0, #12]
    8356:	4e12      	ldr	r6, [pc, #72]	; (83a0 <grid_ui_event_init+0x58>)
    8358:	2010      	movs	r0, #16
    835a:	47b0      	blx	r6
    835c:	462b      	mov	r3, r5
    835e:	6120      	str	r0, [r4, #16]
    8360:	462a      	mov	r2, r5
    8362:	6921      	ldr	r1, [r4, #16]
    8364:	54ca      	strb	r2, [r1, r3]
    8366:	3301      	adds	r3, #1
    8368:	2b10      	cmp	r3, #16
    836a:	d1fa      	bne.n	8362 <grid_ui_event_init+0x1a>
    836c:	6062      	str	r2, [r4, #4]
    836e:	2079      	movs	r0, #121	; 0x79
    8370:	47b0      	blx	r6
    8372:	2300      	movs	r3, #0
    8374:	60a0      	str	r0, [r4, #8]
    8376:	461a      	mov	r2, r3
    8378:	68a1      	ldr	r1, [r4, #8]
    837a:	54ca      	strb	r2, [r1, r3]
    837c:	3301      	adds	r3, #1
    837e:	2b79      	cmp	r3, #121	; 0x79
    8380:	d1fa      	bne.n	8378 <grid_ui_event_init+0x30>
    8382:	7522      	strb	r2, [r4, #20]
    8384:	2046      	movs	r0, #70	; 0x46
    8386:	47b0      	blx	r6
    8388:	2300      	movs	r3, #0
    838a:	61a0      	str	r0, [r4, #24]
    838c:	f100 0246 	add.w	r2, r0, #70	; 0x46
    8390:	7003      	strb	r3, [r0, #0]
    8392:	7083      	strb	r3, [r0, #2]
    8394:	7103      	strb	r3, [r0, #4]
    8396:	70c3      	strb	r3, [r0, #3]
    8398:	3005      	adds	r0, #5
    839a:	4282      	cmp	r2, r0
    839c:	d1f8      	bne.n	8390 <grid_ui_event_init+0x48>
    839e:	bd70      	pop	{r4, r5, r6, pc}
    83a0:	0000e9e9 	.word	0x0000e9e9

000083a4 <grid_ui_element_init>:
    83a4:	e92d 41f0 	stmdb	sp!, {r4, r5, r6, r7, r8, lr}
    83a8:	4617      	mov	r7, r2
    83aa:	6842      	ldr	r2, [r0, #4]
    83ac:	4e36      	ldr	r6, [pc, #216]	; (8488 <grid_ui_element_init+0xe4>)
    83ae:	010b      	lsls	r3, r1, #4
    83b0:	18d4      	adds	r4, r2, r3
    83b2:	4688      	mov	r8, r1
    83b4:	2101      	movs	r1, #1
    83b6:	54d1      	strb	r1, [r2, r3]
    83b8:	2020      	movs	r0, #32
    83ba:	7067      	strb	r7, [r4, #1]
    83bc:	47b0      	blx	r6
    83be:	4633      	mov	r3, r6
    83c0:	6060      	str	r0, [r4, #4]
    83c2:	1f05      	subs	r5, r0, #4
    83c4:	f100 021c 	add.w	r2, r0, #28
    83c8:	2100      	movs	r1, #0
    83ca:	f845 1f04 	str.w	r1, [r5, #4]!
    83ce:	4295      	cmp	r5, r2
    83d0:	d1fb      	bne.n	83ca <grid_ui_element_init+0x26>
    83d2:	f8c0 8000 	str.w	r8, [r0]
    83d6:	b9f7      	cbnz	r7, 8416 <grid_ui_element_init+0x72>
    83d8:	2206      	movs	r2, #6
    83da:	7222      	strb	r2, [r4, #8]
    83dc:	20a8      	movs	r0, #168	; 0xa8
    83de:	4798      	blx	r3
    83e0:	4d2a      	ldr	r5, [pc, #168]	; (848c <grid_ui_element_init+0xe8>)
    83e2:	60e0      	str	r0, [r4, #12]
    83e4:	4639      	mov	r1, r7
    83e6:	47a8      	blx	r5
    83e8:	68e0      	ldr	r0, [r4, #12]
    83ea:	2101      	movs	r1, #1
    83ec:	301c      	adds	r0, #28
    83ee:	47a8      	blx	r5
    83f0:	68e0      	ldr	r0, [r4, #12]
    83f2:	2108      	movs	r1, #8
    83f4:	3038      	adds	r0, #56	; 0x38
    83f6:	47a8      	blx	r5
    83f8:	68e0      	ldr	r0, [r4, #12]
    83fa:	2109      	movs	r1, #9
    83fc:	3054      	adds	r0, #84	; 0x54
    83fe:	47a8      	blx	r5
    8400:	68e0      	ldr	r0, [r4, #12]
    8402:	210a      	movs	r1, #10
    8404:	3070      	adds	r0, #112	; 0x70
    8406:	47a8      	blx	r5
    8408:	68e0      	ldr	r0, [r4, #12]
    840a:	210b      	movs	r1, #11
    840c:	308c      	adds	r0, #140	; 0x8c
    840e:	462b      	mov	r3, r5
    8410:	e8bd 41f0 	ldmia.w	sp!, {r4, r5, r6, r7, r8, lr}
    8414:	4718      	bx	r3
    8416:	2f01      	cmp	r7, #1
    8418:	d10b      	bne.n	8432 <grid_ui_element_init+0x8e>
    841a:	2602      	movs	r6, #2
    841c:	7226      	strb	r6, [r4, #8]
    841e:	2038      	movs	r0, #56	; 0x38
    8420:	4798      	blx	r3
    8422:	4d1a      	ldr	r5, [pc, #104]	; (848c <grid_ui_element_init+0xe8>)
    8424:	60e0      	str	r0, [r4, #12]
    8426:	2100      	movs	r1, #0
    8428:	47a8      	blx	r5
    842a:	68e0      	ldr	r0, [r4, #12]
    842c:	4631      	mov	r1, r6
    842e:	301c      	adds	r0, #28
    8430:	e7ed      	b.n	840e <grid_ui_element_init+0x6a>
    8432:	2f02      	cmp	r7, #2
    8434:	d10f      	bne.n	8456 <grid_ui_element_init+0xb2>
    8436:	2203      	movs	r2, #3
    8438:	7222      	strb	r2, [r4, #8]
    843a:	2054      	movs	r0, #84	; 0x54
    843c:	4798      	blx	r3
    843e:	4d13      	ldr	r5, [pc, #76]	; (848c <grid_ui_element_init+0xe8>)
    8440:	60e0      	str	r0, [r4, #12]
    8442:	2100      	movs	r1, #0
    8444:	47a8      	blx	r5
    8446:	68e0      	ldr	r0, [r4, #12]
    8448:	2105      	movs	r1, #5
    844a:	301c      	adds	r0, #28
    844c:	47a8      	blx	r5
    844e:	68e0      	ldr	r0, [r4, #12]
    8450:	2106      	movs	r1, #6
    8452:	3038      	adds	r0, #56	; 0x38
    8454:	e7db      	b.n	840e <grid_ui_element_init+0x6a>
    8456:	2f03      	cmp	r7, #3
    8458:	d113      	bne.n	8482 <grid_ui_element_init+0xde>
    845a:	2204      	movs	r2, #4
    845c:	7222      	strb	r2, [r4, #8]
    845e:	2070      	movs	r0, #112	; 0x70
    8460:	4798      	blx	r3
    8462:	4d0a      	ldr	r5, [pc, #40]	; (848c <grid_ui_element_init+0xe8>)
    8464:	60e0      	str	r0, [r4, #12]
    8466:	2100      	movs	r1, #0
    8468:	47a8      	blx	r5
    846a:	68e0      	ldr	r0, [r4, #12]
    846c:	2105      	movs	r1, #5
    846e:	301c      	adds	r0, #28
    8470:	47a8      	blx	r5
    8472:	68e0      	ldr	r0, [r4, #12]
    8474:	2106      	movs	r1, #6
    8476:	3038      	adds	r0, #56	; 0x38
    8478:	47a8      	blx	r5
    847a:	68e0      	ldr	r0, [r4, #12]
    847c:	2102      	movs	r1, #2
    847e:	3054      	adds	r0, #84	; 0x54
    8480:	e7c5      	b.n	840e <grid_ui_element_init+0x6a>
    8482:	e8bd 81f0 	ldmia.w	sp!, {r4, r5, r6, r7, r8, pc}
    8486:	bf00      	nop
    8488:	0000e9e9 	.word	0x0000e9e9
    848c:	00008349 	.word	0x00008349

00008490 <grid_ui_event_register_action>:
    8490:	e92d 47f0 	stmdb	sp!, {r4, r5, r6, r7, r8, r9, sl, lr}
    8494:	f890 e008 	ldrb.w	lr, [r0, #8]
    8498:	b092      	sub	sp, #72	; 0x48
    849a:	2500      	movs	r5, #0
    849c:	24ff      	movs	r4, #255	; 0xff
    849e:	f04f 0c1c 	mov.w	ip, #28
    84a2:	b2ef      	uxtb	r7, r5
    84a4:	4577      	cmp	r7, lr
    84a6:	d31c      	bcc.n	84e2 <grid_ui_event_register_action+0x52>
    84a8:	2cff      	cmp	r4, #255	; 0xff
    84aa:	d017      	beq.n	84dc <grid_ui_event_register_action+0x4c>
    84ac:	2500      	movs	r5, #0
    84ae:	4617      	mov	r7, r2
    84b0:	4629      	mov	r1, r5
    84b2:	f04f 0c01 	mov.w	ip, #1
    84b6:	f04f 0802 	mov.w	r8, #2
    84ba:	429d      	cmp	r5, r3
    84bc:	d11a      	bne.n	84f4 <grid_ui_event_register_action+0x64>
    84be:	b224      	sxth	r4, r4
    84c0:	ebc4 04c4 	rsb	r4, r4, r4, lsl #3
    84c4:	00a4      	lsls	r4, r4, #2
    84c6:	2600      	movs	r6, #0
    84c8:	42b5      	cmp	r5, r6
    84ca:	68c3      	ldr	r3, [r0, #12]
    84cc:	d139      	bne.n	8542 <grid_ui_event_register_action+0xb2>
    84ce:	441c      	add	r4, r3
    84d0:	2300      	movs	r3, #0
    84d2:	6065      	str	r5, [r4, #4]
    84d4:	b2da      	uxtb	r2, r3
    84d6:	4291      	cmp	r1, r2
    84d8:	d839      	bhi.n	854e <grid_ui_event_register_action+0xbe>
    84da:	7521      	strb	r1, [r4, #20]
    84dc:	b012      	add	sp, #72	; 0x48
    84de:	e8bd 87f0 	ldmia.w	sp!, {r4, r5, r6, r7, r8, r9, sl, pc}
    84e2:	68c6      	ldr	r6, [r0, #12]
    84e4:	fb0c 6605 	mla	r6, ip, r5, r6
    84e8:	3501      	adds	r5, #1
    84ea:	78b6      	ldrb	r6, [r6, #2]
    84ec:	428e      	cmp	r6, r1
    84ee:	bf08      	it	eq
    84f0:	463c      	moveq	r4, r7
    84f2:	e7d6      	b.n	84a2 <grid_ui_event_register_action+0x12>
    84f4:	f817 eb01 	ldrb.w	lr, [r7], #1
    84f8:	f1be 0f41 	cmp.w	lr, #65	; 0x41
    84fc:	d119      	bne.n	8532 <grid_ui_event_register_action+0xa2>
    84fe:	f897 9000 	ldrb.w	r9, [r7]
    8502:	f1b9 0f37 	cmp.w	r9, #55	; 0x37
    8506:	dc12      	bgt.n	852e <grid_ui_event_register_action+0x9e>
    8508:	eb01 0681 	add.w	r6, r1, r1, lsl #2
    850c:	f10d 0a48 	add.w	sl, sp, #72	; 0x48
    8510:	4456      	add	r6, sl
    8512:	f1a9 0930 	sub.w	r9, r9, #48	; 0x30
    8516:	3101      	adds	r1, #1
    8518:	f806 cc48 	strb.w	ip, [r6, #-72]
    851c:	f806 ec47 	strb.w	lr, [r6, #-71]
    8520:	f806 9c46 	strb.w	r9, [r6, #-70]
    8524:	f806 5c44 	strb.w	r5, [r6, #-68]
    8528:	f806 8c45 	strb.w	r8, [r6, #-69]
    852c:	b2c9      	uxtb	r1, r1
    852e:	3501      	adds	r5, #1
    8530:	e7c3      	b.n	84ba <grid_ui_event_register_action+0x2a>
    8532:	f1be 0f42 	cmp.w	lr, #66	; 0x42
    8536:	d1fa      	bne.n	852e <grid_ui_event_register_action+0x9e>
    8538:	f897 9000 	ldrb.w	r9, [r7]
    853c:	f1b9 0f35 	cmp.w	r9, #53	; 0x35
    8540:	e7e1      	b.n	8506 <grid_ui_event_register_action+0x76>
    8542:	4423      	add	r3, r4
    8544:	5d97      	ldrb	r7, [r2, r6]
    8546:	689b      	ldr	r3, [r3, #8]
    8548:	559f      	strb	r7, [r3, r6]
    854a:	3601      	adds	r6, #1
    854c:	e7bc      	b.n	84c8 <grid_ui_event_register_action+0x38>
    854e:	eb03 0283 	add.w	r2, r3, r3, lsl #2
    8552:	69a5      	ldr	r5, [r4, #24]
    8554:	eb0d 0002 	add.w	r0, sp, r2
    8558:	18ae      	adds	r6, r5, r2
    855a:	6807      	ldr	r7, [r0, #0]
    855c:	50af      	str	r7, [r5, r2]
    855e:	7902      	ldrb	r2, [r0, #4]
    8560:	7132      	strb	r2, [r6, #4]
    8562:	3301      	adds	r3, #1
    8564:	e7b6      	b.n	84d4 <grid_ui_event_register_action+0x44>

00008566 <grid_ui_event_find>:
    8566:	b5f0      	push	{r4, r5, r6, r7, lr}
    8568:	7a06      	ldrb	r6, [r0, #8]
    856a:	2300      	movs	r3, #0
    856c:	22ff      	movs	r2, #255	; 0xff
    856e:	271c      	movs	r7, #28
    8570:	b2dd      	uxtb	r5, r3
    8572:	42b5      	cmp	r5, r6
    8574:	d301      	bcc.n	857a <grid_ui_event_find+0x14>
    8576:	4610      	mov	r0, r2
    8578:	bdf0      	pop	{r4, r5, r6, r7, pc}
    857a:	68c4      	ldr	r4, [r0, #12]
    857c:	fb07 4403 	mla	r4, r7, r3, r4
    8580:	3301      	adds	r3, #1
    8582:	78a4      	ldrb	r4, [r4, #2]
    8584:	428c      	cmp	r4, r1
    8586:	bf08      	it	eq
    8588:	462a      	moveq	r2, r5
    858a:	e7f1      	b.n	8570 <grid_ui_event_find+0xa>

0000858c <grid_ui_event_trigger>:
    858c:	78c3      	ldrb	r3, [r0, #3]
    858e:	b10b      	cbz	r3, 8594 <grid_ui_event_trigger+0x8>
    8590:	2302      	movs	r3, #2
    8592:	7043      	strb	r3, [r0, #1]
    8594:	4770      	bx	lr

00008596 <grid_ui_event_render_action>:
    8596:	b510      	push	{r4, lr}
    8598:	460b      	mov	r3, r1
    859a:	6842      	ldr	r2, [r0, #4]
    859c:	1a5c      	subs	r4, r3, r1
    859e:	42a2      	cmp	r2, r4
    85a0:	d801      	bhi.n	85a6 <grid_ui_event_render_action+0x10>
    85a2:	b2d0      	uxtb	r0, r2
    85a4:	bd10      	pop	{r4, pc}
    85a6:	6882      	ldr	r2, [r0, #8]
    85a8:	5d12      	ldrb	r2, [r2, r4]
    85aa:	f803 2b01 	strb.w	r2, [r3], #1
    85ae:	e7f4      	b.n	859a <grid_ui_event_render_action+0x4>

000085b0 <grid_port_process_ui>:
    85b0:	e92d 4ff0 	stmdb	sp!, {r4, r5, r6, r7, r8, r9, sl, fp, lr}
    85b4:	4e8f      	ldr	r6, [pc, #572]	; (87f4 <grid_port_process_ui+0x244>)
    85b6:	b0db      	sub	sp, #364	; 0x16c
    85b8:	2200      	movs	r2, #0
    85ba:	9003      	str	r0, [sp, #12]
    85bc:	4614      	mov	r4, r2
    85be:	46b3      	mov	fp, r6
    85c0:	271c      	movs	r7, #28
    85c2:	7871      	ldrb	r1, [r6, #1]
    85c4:	b2d3      	uxtb	r3, r2
    85c6:	428b      	cmp	r3, r1
    85c8:	d31d      	bcc.n	8606 <grid_port_process_ui+0x56>
    85ca:	4e8b      	ldr	r6, [pc, #556]	; (87f8 <grid_port_process_ui+0x248>)
    85cc:	2000      	movs	r0, #0
    85ce:	271c      	movs	r7, #28
    85d0:	7872      	ldrb	r2, [r6, #1]
    85d2:	b2c3      	uxtb	r3, r0
    85d4:	4293      	cmp	r3, r2
    85d6:	d22d      	bcs.n	8634 <grid_port_process_ui+0x84>
    85d8:	011b      	lsls	r3, r3, #4
    85da:	2100      	movs	r1, #0
    85dc:	e021      	b.n	8622 <grid_port_process_ui+0x72>
    85de:	f8db 5004 	ldr.w	r5, [fp, #4]
    85e2:	441d      	add	r5, r3
    85e4:	68ed      	ldr	r5, [r5, #12]
    85e6:	fb07 5101 	mla	r1, r7, r1, r5
    85ea:	7849      	ldrb	r1, [r1, #1]
    85ec:	2902      	cmp	r1, #2
    85ee:	f000 8165 	beq.w	88bc <grid_port_process_ui+0x30c>
    85f2:	3001      	adds	r0, #1
    85f4:	f8db 1004 	ldr.w	r1, [fp, #4]
    85f8:	4419      	add	r1, r3
    85fa:	7a0d      	ldrb	r5, [r1, #8]
    85fc:	b2c1      	uxtb	r1, r0
    85fe:	428d      	cmp	r5, r1
    8600:	d8ed      	bhi.n	85de <grid_port_process_ui+0x2e>
    8602:	3201      	adds	r2, #1
    8604:	e7dd      	b.n	85c2 <grid_port_process_ui+0x12>
    8606:	011b      	lsls	r3, r3, #4
    8608:	2000      	movs	r0, #0
    860a:	e7f3      	b.n	85f4 <grid_port_process_ui+0x44>
    860c:	4d7a      	ldr	r5, [pc, #488]	; (87f8 <grid_port_process_ui+0x248>)
    860e:	686d      	ldr	r5, [r5, #4]
    8610:	441d      	add	r5, r3
    8612:	68ed      	ldr	r5, [r5, #12]
    8614:	fb07 5202 	mla	r2, r7, r2, r5
    8618:	7852      	ldrb	r2, [r2, #1]
    861a:	2a02      	cmp	r2, #2
    861c:	f000 8151 	beq.w	88c2 <grid_port_process_ui+0x312>
    8620:	3101      	adds	r1, #1
    8622:	4a75      	ldr	r2, [pc, #468]	; (87f8 <grid_port_process_ui+0x248>)
    8624:	6852      	ldr	r2, [r2, #4]
    8626:	441a      	add	r2, r3
    8628:	7a15      	ldrb	r5, [r2, #8]
    862a:	b2ca      	uxtb	r2, r1
    862c:	4295      	cmp	r5, r2
    862e:	d8ed      	bhi.n	860c <grid_port_process_ui+0x5c>
    8630:	3001      	adds	r0, #1
    8632:	e7cd      	b.n	85d0 <grid_port_process_ui+0x20>
    8634:	4b71      	ldr	r3, [pc, #452]	; (87fc <grid_port_process_ui+0x24c>)
    8636:	cb0f      	ldmia	r3, {r0, r1, r2, r3}
    8638:	ae0b      	add	r6, sp, #44	; 0x2c
    863a:	e886 000f 	stmia.w	r6, {r0, r1, r2, r3}
    863e:	2700      	movs	r7, #0
    8640:	f856 5027 	ldr.w	r5, [r6, r7, lsl #2]
    8644:	f241 0918 	movw	r9, #4120	; 0x1018
    8648:	f815 3009 	ldrb.w	r3, [r5, r9]
    864c:	2b01      	cmp	r3, #1
    864e:	d119      	bne.n	8684 <grid_port_process_ui+0xd4>
    8650:	f241 0217 	movw	r2, #4119	; 0x1017
    8654:	18ab      	adds	r3, r5, r2
    8656:	f605 7acc 	addw	sl, r5, #4044	; 0xfcc
    865a:	9304      	str	r3, [sp, #16]
    865c:	5ca9      	ldrb	r1, [r5, r2]
    865e:	4b68      	ldr	r3, [pc, #416]	; (8800 <grid_port_process_ui+0x250>)
    8660:	4650      	mov	r0, sl
    8662:	4798      	blx	r3
    8664:	b158      	cbz	r0, 867e <grid_port_process_ui+0xce>
    8666:	f505 5880 	add.w	r8, r5, #4096	; 0x1000
    866a:	f108 0803 	add.w	r8, r8, #3
    866e:	2200      	movs	r2, #0
    8670:	9b04      	ldr	r3, [sp, #16]
    8672:	7819      	ldrb	r1, [r3, #0]
    8674:	428a      	cmp	r2, r1
    8676:	d312      	bcc.n	869e <grid_port_process_ui+0xee>
    8678:	4650      	mov	r0, sl
    867a:	4b62      	ldr	r3, [pc, #392]	; (8804 <grid_port_process_ui+0x254>)
    867c:	4798      	blx	r3
    867e:	2300      	movs	r3, #0
    8680:	f805 3009 	strb.w	r3, [r5, r9]
    8684:	3701      	adds	r7, #1
    8686:	2f04      	cmp	r7, #4
    8688:	d1da      	bne.n	8640 <grid_port_process_ui+0x90>
    868a:	9b03      	ldr	r3, [sp, #12]
    868c:	681b      	ldr	r3, [r3, #0]
    868e:	2b0f      	cmp	r3, #15
    8690:	d90e      	bls.n	86b0 <grid_port_process_ui+0x100>
    8692:	9a03      	ldr	r2, [sp, #12]
    8694:	3b01      	subs	r3, #1
    8696:	6013      	str	r3, [r2, #0]
    8698:	b05b      	add	sp, #364	; 0x16c
    869a:	e8bd 8ff0 	ldmia.w	sp!, {r4, r5, r6, r7, r8, r9, sl, fp, pc}
    869e:	f818 1b01 	ldrb.w	r1, [r8], #1
    86a2:	4b59      	ldr	r3, [pc, #356]	; (8808 <grid_port_process_ui+0x258>)
    86a4:	9205      	str	r2, [sp, #20]
    86a6:	4650      	mov	r0, sl
    86a8:	4798      	blx	r3
    86aa:	9a05      	ldr	r2, [sp, #20]
    86ac:	3201      	adds	r2, #1
    86ae:	e7df      	b.n	8670 <grid_port_process_ui+0xc0>
    86b0:	b113      	cbz	r3, 86b8 <grid_port_process_ui+0x108>
    86b2:	9a03      	ldr	r2, [sp, #12]
    86b4:	3b01      	subs	r3, #1
    86b6:	6013      	str	r3, [r2, #0]
    86b8:	2c00      	cmp	r4, #0
    86ba:	d0ed      	beq.n	8698 <grid_port_process_ui+0xe8>
    86bc:	ad0f      	add	r5, sp, #60	; 0x3c
    86be:	f44f 7296 	mov.w	r2, #300	; 0x12c
    86c2:	2100      	movs	r1, #0
    86c4:	4b51      	ldr	r3, [pc, #324]	; (880c <grid_port_process_ui+0x25c>)
    86c6:	f8df 915c 	ldr.w	r9, [pc, #348]	; 8824 <grid_port_process_ui+0x274>
    86ca:	f8df 815c 	ldr.w	r8, [pc, #348]	; 8828 <grid_port_process_ui+0x278>
    86ce:	4f50      	ldr	r7, [pc, #320]	; (8810 <grid_port_process_ui+0x260>)
    86d0:	4628      	mov	r0, r5
    86d2:	4798      	blx	r3
    86d4:	2317      	movs	r3, #23
    86d6:	9300      	str	r3, [sp, #0]
    86d8:	2201      	movs	r2, #1
    86da:	230f      	movs	r3, #15
    86dc:	494d      	ldr	r1, [pc, #308]	; (8814 <grid_port_process_ui+0x264>)
    86de:	4628      	mov	r0, r5
    86e0:	47c8      	blx	r9
    86e2:	f10d 0422 	add.w	r4, sp, #34	; 0x22
    86e6:	2600      	movs	r6, #0
    86e8:	2202      	movs	r2, #2
    86ea:	4611      	mov	r1, r2
    86ec:	9400      	str	r4, [sp, #0]
    86ee:	4633      	mov	r3, r6
    86f0:	4628      	mov	r0, r5
    86f2:	f88d 6022 	strb.w	r6, [sp, #34]	; 0x22
    86f6:	47b8      	blx	r7
    86f8:	f898 30a5 	ldrb.w	r3, [r8, #165]	; 0xa5
    86fc:	9400      	str	r4, [sp, #0]
    86fe:	2202      	movs	r2, #2
    8700:	2104      	movs	r1, #4
    8702:	4628      	mov	r0, r5
    8704:	47b8      	blx	r7
    8706:	9400      	str	r4, [sp, #0]
    8708:	237f      	movs	r3, #127	; 0x7f
    870a:	2202      	movs	r2, #2
    870c:	2106      	movs	r1, #6
    870e:	4628      	mov	r0, r5
    8710:	47b8      	blx	r7
    8712:	9400      	str	r4, [sp, #0]
    8714:	237f      	movs	r3, #127	; 0x7f
    8716:	2202      	movs	r2, #2
    8718:	2108      	movs	r1, #8
    871a:	4628      	mov	r0, r5
    871c:	47b8      	blx	r7
    871e:	f898 3000 	ldrb.w	r3, [r8]
    8722:	9400      	str	r4, [sp, #0]
    8724:	2202      	movs	r2, #2
    8726:	210a      	movs	r1, #10
    8728:	4628      	mov	r0, r5
    872a:	47b8      	blx	r7
    872c:	9400      	str	r4, [sp, #0]
    872e:	4633      	mov	r3, r6
    8730:	2202      	movs	r2, #2
    8732:	210c      	movs	r1, #12
    8734:	4628      	mov	r0, r5
    8736:	47b8      	blx	r7
    8738:	4628      	mov	r0, r5
    873a:	4b37      	ldr	r3, [pc, #220]	; (8818 <grid_port_process_ui+0x268>)
    873c:	4798      	blx	r3
    873e:	46b2      	mov	sl, r6
    8740:	b284      	uxth	r4, r0
    8742:	f8cd 9018 	str.w	r9, [sp, #24]
    8746:	9707      	str	r7, [sp, #28]
    8748:	f8cd 8014 	str.w	r8, [sp, #20]
    874c:	4b2a      	ldr	r3, [pc, #168]	; (87f8 <grid_port_process_ui+0x248>)
    874e:	785b      	ldrb	r3, [r3, #1]
    8750:	b2f7      	uxtb	r7, r6
    8752:	429f      	cmp	r7, r3
    8754:	d329      	bcc.n	87aa <grid_port_process_ui+0x1fa>
    8756:	2700      	movs	r7, #0
    8758:	f89b 3001 	ldrb.w	r3, [fp, #1]
    875c:	b2fe      	uxtb	r6, r7
    875e:	429e      	cmp	r6, r3
    8760:	d264      	bcs.n	882c <grid_port_process_ui+0x27c>
    8762:	0136      	lsls	r6, r6, #4
    8764:	f04f 0800 	mov.w	r8, #0
    8768:	e03a      	b.n	87e0 <grid_port_process_ui+0x230>
    876a:	2cc8      	cmp	r4, #200	; 0xc8
    876c:	d811      	bhi.n	8792 <grid_port_process_ui+0x1e2>
    876e:	4b2b      	ldr	r3, [pc, #172]	; (881c <grid_port_process_ui+0x26c>)
    8770:	a809      	add	r0, sp, #36	; 0x24
    8772:	4798      	blx	r3
    8774:	4b20      	ldr	r3, [pc, #128]	; (87f8 <grid_port_process_ui+0x248>)
    8776:	685a      	ldr	r2, [r3, #4]
    8778:	443a      	add	r2, r7
    877a:	211c      	movs	r1, #28
    877c:	68d2      	ldr	r2, [r2, #12]
    877e:	fb01 f909 	mul.w	r9, r1, r9
    8782:	444a      	add	r2, r9
    8784:	7852      	ldrb	r2, [r2, #1]
    8786:	2a02      	cmp	r2, #2
    8788:	f000 809e 	beq.w	88c8 <grid_port_process_ui+0x318>
    878c:	a809      	add	r0, sp, #36	; 0x24
    878e:	4b24      	ldr	r3, [pc, #144]	; (8820 <grid_port_process_ui+0x270>)
    8790:	4798      	blx	r3
    8792:	f108 0801 	add.w	r8, r8, #1
    8796:	4b18      	ldr	r3, [pc, #96]	; (87f8 <grid_port_process_ui+0x248>)
    8798:	685b      	ldr	r3, [r3, #4]
    879a:	443b      	add	r3, r7
    879c:	fa5f f988 	uxtb.w	r9, r8
    87a0:	7a1a      	ldrb	r2, [r3, #8]
    87a2:	454a      	cmp	r2, r9
    87a4:	d8e1      	bhi.n	876a <grid_port_process_ui+0x1ba>
    87a6:	3601      	adds	r6, #1
    87a8:	e7d0      	b.n	874c <grid_port_process_ui+0x19c>
    87aa:	013f      	lsls	r7, r7, #4
    87ac:	f04f 0800 	mov.w	r8, #0
    87b0:	e7f1      	b.n	8796 <grid_port_process_ui+0x1e6>
    87b2:	2cc8      	cmp	r4, #200	; 0xc8
    87b4:	d812      	bhi.n	87dc <grid_port_process_ui+0x22c>
    87b6:	4b19      	ldr	r3, [pc, #100]	; (881c <grid_port_process_ui+0x26c>)
    87b8:	a80a      	add	r0, sp, #40	; 0x28
    87ba:	4798      	blx	r3
    87bc:	f8db 2004 	ldr.w	r2, [fp, #4]
    87c0:	4432      	add	r2, r6
    87c2:	211c      	movs	r1, #28
    87c4:	68d2      	ldr	r2, [r2, #12]
    87c6:	fb01 f309 	mul.w	r3, r1, r9
    87ca:	441a      	add	r2, r3
    87cc:	9304      	str	r3, [sp, #16]
    87ce:	7852      	ldrb	r2, [r2, #1]
    87d0:	2a02      	cmp	r2, #2
    87d2:	f000 8096 	beq.w	8902 <grid_port_process_ui+0x352>
    87d6:	a80a      	add	r0, sp, #40	; 0x28
    87d8:	4b11      	ldr	r3, [pc, #68]	; (8820 <grid_port_process_ui+0x270>)
    87da:	4798      	blx	r3
    87dc:	f108 0801 	add.w	r8, r8, #1
    87e0:	f8db 3004 	ldr.w	r3, [fp, #4]
    87e4:	4433      	add	r3, r6
    87e6:	fa5f f988 	uxtb.w	r9, r8
    87ea:	7a1a      	ldrb	r2, [r3, #8]
    87ec:	454a      	cmp	r2, r9
    87ee:	d8e0      	bhi.n	87b2 <grid_port_process_ui+0x202>
    87f0:	3701      	adds	r7, #1
    87f2:	e7b1      	b.n	8758 <grid_port_process_ui+0x1a8>
    87f4:	200032e0 	.word	0x200032e0
    87f8:	20007d58 	.word	0x20007d58
    87fc:	0001042c 	.word	0x0001042c
    8800:	0000550d 	.word	0x0000550d
    8804:	00005555 	.word	0x00005555
    8808:	00005539 	.word	0x00005539
    880c:	0000ea0f 	.word	0x0000ea0f
    8810:	000082d1 	.word	0x000082d1
    8814:	00010403 	.word	0x00010403
    8818:	0000ee55 	.word	0x0000ee55
    881c:	00008cf5 	.word	0x00008cf5
    8820:	00008d03 	.word	0x00008d03
    8824:	0000edfd 	.word	0x0000edfd
    8828:	200032ec 	.word	0x200032ec
    882c:	f1ba 0f00 	cmp.w	sl, #0
    8830:	f43f af32 	beq.w	8698 <grid_port_process_ui+0xe8>
    8834:	9b03      	ldr	r3, [sp, #12]
    8836:	9a03      	ldr	r2, [sp, #12]
    8838:	681b      	ldr	r3, [r3, #0]
    883a:	9f07      	ldr	r7, [sp, #28]
    883c:	005b      	lsls	r3, r3, #1
    883e:	330a      	adds	r3, #10
    8840:	6013      	str	r3, [r2, #0]
    8842:	9b05      	ldr	r3, [sp, #20]
    8844:	9a05      	ldr	r2, [sp, #20]
    8846:	f893 30a5 	ldrb.w	r3, [r3, #165]	; 0xa5
    884a:	3301      	adds	r3, #1
    884c:	b2db      	uxtb	r3, r3
    884e:	f882 30a5 	strb.w	r3, [r2, #165]	; 0xa5
    8852:	2202      	movs	r2, #2
    8854:	f10d 0323 	add.w	r3, sp, #35	; 0x23
    8858:	4611      	mov	r1, r2
    885a:	9300      	str	r3, [sp, #0]
    885c:	2600      	movs	r6, #0
    885e:	1c63      	adds	r3, r4, #1
    8860:	4628      	mov	r0, r5
    8862:	f88d 6023 	strb.w	r6, [sp, #35]	; 0x23
    8866:	47b8      	blx	r7
    8868:	192f      	adds	r7, r5, r4
    886a:	2204      	movs	r2, #4
    886c:	4933      	ldr	r1, [pc, #204]	; (893c <grid_port_process_ui+0x38c>)
    886e:	9b06      	ldr	r3, [sp, #24]
    8870:	4638      	mov	r0, r7
    8872:	4798      	blx	r3
    8874:	4b32      	ldr	r3, [pc, #200]	; (8940 <grid_port_process_ui+0x390>)
    8876:	4638      	mov	r0, r7
    8878:	4798      	blx	r3
    887a:	4404      	add	r4, r0
    887c:	b2a4      	uxth	r4, r4
    887e:	4621      	mov	r1, r4
    8880:	4b30      	ldr	r3, [pc, #192]	; (8944 <grid_port_process_ui+0x394>)
    8882:	4628      	mov	r0, r5
    8884:	4798      	blx	r3
    8886:	4621      	mov	r1, r4
    8888:	4602      	mov	r2, r0
    888a:	4b2f      	ldr	r3, [pc, #188]	; (8948 <grid_port_process_ui+0x398>)
    888c:	4628      	mov	r0, r5
    888e:	4798      	blx	r3
    8890:	4621      	mov	r1, r4
    8892:	482e      	ldr	r0, [pc, #184]	; (894c <grid_port_process_ui+0x39c>)
    8894:	4b2e      	ldr	r3, [pc, #184]	; (8950 <grid_port_process_ui+0x3a0>)
    8896:	4798      	blx	r3
    8898:	2800      	cmp	r0, #0
    889a:	f43f aefd 	beq.w	8698 <grid_port_process_ui+0xe8>
    889e:	4f2b      	ldr	r7, [pc, #172]	; (894c <grid_port_process_ui+0x39c>)
    88a0:	f8df 80bc 	ldr.w	r8, [pc, #188]	; 8960 <grid_port_process_ui+0x3b0>
    88a4:	b2b3      	uxth	r3, r6
    88a6:	429c      	cmp	r4, r3
    88a8:	d803      	bhi.n	88b2 <grid_port_process_ui+0x302>
    88aa:	4b2a      	ldr	r3, [pc, #168]	; (8954 <grid_port_process_ui+0x3a4>)
    88ac:	4827      	ldr	r0, [pc, #156]	; (894c <grid_port_process_ui+0x39c>)
    88ae:	4798      	blx	r3
    88b0:	e6f2      	b.n	8698 <grid_port_process_ui+0xe8>
    88b2:	5da9      	ldrb	r1, [r5, r6]
    88b4:	4638      	mov	r0, r7
    88b6:	47c0      	blx	r8
    88b8:	3601      	adds	r6, #1
    88ba:	e7f3      	b.n	88a4 <grid_port_process_ui+0x2f4>
    88bc:	3401      	adds	r4, #1
    88be:	b2e4      	uxtb	r4, r4
    88c0:	e697      	b.n	85f2 <grid_port_process_ui+0x42>
    88c2:	3401      	adds	r4, #1
    88c4:	b2e4      	uxtb	r4, r4
    88c6:	e6ab      	b.n	8620 <grid_port_process_ui+0x70>
    88c8:	4b23      	ldr	r3, [pc, #140]	; (8958 <grid_port_process_ui+0x3a8>)
    88ca:	6859      	ldr	r1, [r3, #4]
    88cc:	4439      	add	r1, r7
    88ce:	ab0f      	add	r3, sp, #60	; 0x3c
    88d0:	68c8      	ldr	r0, [r1, #12]
    88d2:	191a      	adds	r2, r3, r4
    88d4:	4611      	mov	r1, r2
    88d6:	4b21      	ldr	r3, [pc, #132]	; (895c <grid_port_process_ui+0x3ac>)
    88d8:	9204      	str	r2, [sp, #16]
    88da:	4448      	add	r0, r9
    88dc:	4798      	blx	r3
    88de:	9a04      	ldr	r2, [sp, #16]
    88e0:	4b17      	ldr	r3, [pc, #92]	; (8940 <grid_port_process_ui+0x390>)
    88e2:	4610      	mov	r0, r2
    88e4:	4798      	blx	r3
    88e6:	4b1c      	ldr	r3, [pc, #112]	; (8958 <grid_port_process_ui+0x3a8>)
    88e8:	685a      	ldr	r2, [r3, #4]
    88ea:	443a      	add	r2, r7
    88ec:	f10a 0a01 	add.w	sl, sl, #1
    88f0:	68d3      	ldr	r3, [r2, #12]
    88f2:	444b      	add	r3, r9
    88f4:	4404      	add	r4, r0
    88f6:	2201      	movs	r2, #1
    88f8:	fa5f fa8a 	uxtb.w	sl, sl
    88fc:	b2a4      	uxth	r4, r4
    88fe:	705a      	strb	r2, [r3, #1]
    8900:	e744      	b.n	878c <grid_port_process_ui+0x1dc>
    8902:	f8db 1004 	ldr.w	r1, [fp, #4]
    8906:	9b04      	ldr	r3, [sp, #16]
    8908:	4431      	add	r1, r6
    890a:	eb05 0904 	add.w	r9, r5, r4
    890e:	68c8      	ldr	r0, [r1, #12]
    8910:	4649      	mov	r1, r9
    8912:	4418      	add	r0, r3
    8914:	4b11      	ldr	r3, [pc, #68]	; (895c <grid_port_process_ui+0x3ac>)
    8916:	4798      	blx	r3
    8918:	4b09      	ldr	r3, [pc, #36]	; (8940 <grid_port_process_ui+0x390>)
    891a:	4648      	mov	r0, r9
    891c:	4798      	blx	r3
    891e:	f8db 2004 	ldr.w	r2, [fp, #4]
    8922:	4432      	add	r2, r6
    8924:	f10a 0a01 	add.w	sl, sl, #1
    8928:	68d3      	ldr	r3, [r2, #12]
    892a:	9a04      	ldr	r2, [sp, #16]
    892c:	4413      	add	r3, r2
    892e:	4404      	add	r4, r0
    8930:	2201      	movs	r2, #1
    8932:	fa5f fa8a 	uxtb.w	sl, sl
    8936:	b2a4      	uxth	r4, r4
    8938:	705a      	strb	r2, [r3, #1]
    893a:	e74c      	b.n	87d6 <grid_port_process_ui+0x226>
    893c:	00010424 	.word	0x00010424
    8940:	0000ee55 	.word	0x0000ee55
    8944:	00008271 	.word	0x00008271
    8948:	000082a9 	.word	0x000082a9
    894c:	200032a8 	.word	0x200032a8
    8950:	0000550d 	.word	0x0000550d
    8954:	00005555 	.word	0x00005555
    8958:	20007d58 	.word	0x20007d58
    895c:	00008597 	.word	0x00008597
    8960:	00005539 	.word	0x00005539

00008964 <grid_ui_event_template_action>:
    8964:	e92d 4ff0 	stmdb	sp!, {r4, r5, r6, r7, r8, r9, sl, fp, lr}
    8968:	29ff      	cmp	r1, #255	; 0xff
    896a:	b085      	sub	sp, #20
    896c:	4606      	mov	r6, r0
    896e:	d00c      	beq.n	898a <grid_ui_event_template_action+0x26>
    8970:	ebc1 01c1 	rsb	r1, r1, r1, lsl #3
    8974:	4f2b      	ldr	r7, [pc, #172]	; (8a24 <grid_ui_event_template_action+0xc0>)
    8976:	4c2c      	ldr	r4, [pc, #176]	; (8a28 <grid_ui_event_template_action+0xc4>)
    8978:	ea4f 0981 	mov.w	r9, r1, lsl #2
    897c:	2500      	movs	r5, #0
    897e:	68f1      	ldr	r1, [r6, #12]
    8980:	4449      	add	r1, r9
    8982:	b2ea      	uxtb	r2, r5
    8984:	7d0b      	ldrb	r3, [r1, #20]
    8986:	4293      	cmp	r3, r2
    8988:	d803      	bhi.n	8992 <grid_ui_event_template_action+0x2e>
    898a:	2000      	movs	r0, #0
    898c:	b005      	add	sp, #20
    898e:	e8bd 8ff0 	ldmia.w	sp!, {r4, r5, r6, r7, r8, r9, sl, fp, pc}
    8992:	eb02 0382 	add.w	r3, r2, r2, lsl #2
    8996:	698a      	ldr	r2, [r1, #24]
    8998:	f8d1 8008 	ldr.w	r8, [r1, #8]
    899c:	441a      	add	r2, r3
    899e:	7853      	ldrb	r3, [r2, #1]
    89a0:	2b41      	cmp	r3, #65	; 0x41
    89a2:	d10f      	bne.n	89c4 <grid_ui_event_template_action+0x60>
    89a4:	7891      	ldrb	r1, [r2, #2]
    89a6:	6873      	ldr	r3, [r6, #4]
    89a8:	a804      	add	r0, sp, #16
    89aa:	f04f 0e00 	mov.w	lr, #0
    89ae:	f853 3021 	ldr.w	r3, [r3, r1, lsl #2]
    89b2:	7911      	ldrb	r1, [r2, #4]
    89b4:	78d2      	ldrb	r2, [r2, #3]
    89b6:	f800 ed01 	strb.w	lr, [r0, #-1]!
    89ba:	9000      	str	r0, [sp, #0]
    89bc:	4640      	mov	r0, r8
    89be:	47b8      	blx	r7
    89c0:	3501      	adds	r5, #1
    89c2:	e7dc      	b.n	897e <grid_ui_event_template_action+0x1a>
    89c4:	2b42      	cmp	r3, #66	; 0x42
    89c6:	d1fb      	bne.n	89c0 <grid_ui_event_template_action+0x5c>
    89c8:	7893      	ldrb	r3, [r2, #2]
    89ca:	f892 a004 	ldrb.w	sl, [r2, #4]
    89ce:	f892 b003 	ldrb.w	fp, [r2, #3]
    89d2:	b95b      	cbnz	r3, 89ec <grid_ui_event_template_action+0x88>
    89d4:	4b15      	ldr	r3, [pc, #84]	; (8a2c <grid_ui_event_template_action+0xc8>)
    89d6:	4620      	mov	r0, r4
    89d8:	4798      	blx	r3
    89da:	ab04      	add	r3, sp, #16
    89dc:	2200      	movs	r2, #0
    89de:	f803 2d01 	strb.w	r2, [r3, #-1]!
    89e2:	4651      	mov	r1, sl
    89e4:	9300      	str	r3, [sp, #0]
    89e6:	465a      	mov	r2, fp
    89e8:	4603      	mov	r3, r0
    89ea:	e7e7      	b.n	89bc <grid_ui_event_template_action+0x58>
    89ec:	2b01      	cmp	r3, #1
    89ee:	d102      	bne.n	89f6 <grid_ui_event_template_action+0x92>
    89f0:	4620      	mov	r0, r4
    89f2:	4b0f      	ldr	r3, [pc, #60]	; (8a30 <grid_ui_event_template_action+0xcc>)
    89f4:	e7f0      	b.n	89d8 <grid_ui_event_template_action+0x74>
    89f6:	2b02      	cmp	r3, #2
    89f8:	d102      	bne.n	8a00 <grid_ui_event_template_action+0x9c>
    89fa:	4620      	mov	r0, r4
    89fc:	4b0d      	ldr	r3, [pc, #52]	; (8a34 <grid_ui_event_template_action+0xd0>)
    89fe:	e7eb      	b.n	89d8 <grid_ui_event_template_action+0x74>
    8a00:	2b03      	cmp	r3, #3
    8a02:	d102      	bne.n	8a0a <grid_ui_event_template_action+0xa6>
    8a04:	4620      	mov	r0, r4
    8a06:	4b0c      	ldr	r3, [pc, #48]	; (8a38 <grid_ui_event_template_action+0xd4>)
    8a08:	e7e6      	b.n	89d8 <grid_ui_event_template_action+0x74>
    8a0a:	2b04      	cmp	r3, #4
    8a0c:	d102      	bne.n	8a14 <grid_ui_event_template_action+0xb0>
    8a0e:	7aa0      	ldrb	r0, [r4, #10]
    8a10:	b2c0      	uxtb	r0, r0
    8a12:	e7e2      	b.n	89da <grid_ui_event_template_action+0x76>
    8a14:	2b05      	cmp	r3, #5
    8a16:	d102      	bne.n	8a1e <grid_ui_event_template_action+0xba>
    8a18:	4620      	mov	r0, r4
    8a1a:	4b08      	ldr	r3, [pc, #32]	; (8a3c <grid_ui_event_template_action+0xd8>)
    8a1c:	e7dc      	b.n	89d8 <grid_ui_event_template_action+0x74>
    8a1e:	2000      	movs	r0, #0
    8a20:	e7db      	b.n	89da <grid_ui_event_template_action+0x76>
    8a22:	bf00      	nop
    8a24:	000082d1 	.word	0x000082d1
    8a28:	200032ec 	.word	0x200032ec
    8a2c:	00007f4d 	.word	0x00007f4d
    8a30:	00007f51 	.word	0x00007f51
    8a34:	00007f55 	.word	0x00007f55
    8a38:	00007f59 	.word	0x00007f59
    8a3c:	00007f5d 	.word	0x00007f5d

00008a40 <grid_usb_serial_bulkin_cb>:
    8a40:	2000      	movs	r0, #0
    8a42:	4770      	bx	lr

00008a44 <grid_usb_serial_statechange_cb>:
    8a44:	b513      	push	{r0, r1, r4, lr}
    8a46:	4c06      	ldr	r4, [pc, #24]	; (8a60 <grid_usb_serial_statechange_cb+0x1c>)
    8a48:	f8ad 0004 	strh.w	r0, [sp, #4]
    8a4c:	4905      	ldr	r1, [pc, #20]	; (8a64 <grid_usb_serial_statechange_cb+0x20>)
    8a4e:	2000      	movs	r0, #0
    8a50:	47a0      	blx	r4
    8a52:	4905      	ldr	r1, [pc, #20]	; (8a68 <grid_usb_serial_statechange_cb+0x24>)
    8a54:	2001      	movs	r0, #1
    8a56:	47a0      	blx	r4
    8a58:	2000      	movs	r0, #0
    8a5a:	b002      	add	sp, #8
    8a5c:	bd10      	pop	{r4, pc}
    8a5e:	bf00      	nop
    8a60:	0000d339 	.word	0x0000d339
    8a64:	00008abd 	.word	0x00008abd
    8a68:	00008a41 	.word	0x00008a41

00008a6c <grid_usb_midi_bulkin_cb>:
    8a6c:	b513      	push	{r0, r1, r4, lr}
    8a6e:	2202      	movs	r2, #2
    8a70:	f44f 7396 	mov.w	r3, #300	; 0x12c
    8a74:	e88d 000c 	stmia.w	sp, {r2, r3}
    8a78:	23ff      	movs	r3, #255	; 0xff
    8a7a:	2200      	movs	r2, #0
    8a7c:	4619      	mov	r1, r3
    8a7e:	4803      	ldr	r0, [pc, #12]	; (8a8c <grid_usb_midi_bulkin_cb+0x20>)
    8a80:	4c03      	ldr	r4, [pc, #12]	; (8a90 <grid_usb_midi_bulkin_cb+0x24>)
    8a82:	47a0      	blx	r4
    8a84:	2000      	movs	r0, #0
    8a86:	b002      	add	sp, #8
    8a88:	bd10      	pop	{r4, pc}
    8a8a:	bf00      	nop
    8a8c:	200032ec 	.word	0x200032ec
    8a90:	000080db 	.word	0x000080db

00008a94 <grid_usb_midi_bulkout_cb>:
    8a94:	b513      	push	{r0, r1, r4, lr}
    8a96:	2202      	movs	r2, #2
    8a98:	f44f 7396 	mov.w	r3, #300	; 0x12c
    8a9c:	e88d 000c 	stmia.w	sp, {r2, r3}
    8aa0:	22ff      	movs	r2, #255	; 0xff
    8aa2:	2300      	movs	r3, #0
    8aa4:	4611      	mov	r1, r2
    8aa6:	4803      	ldr	r0, [pc, #12]	; (8ab4 <grid_usb_midi_bulkout_cb+0x20>)
    8aa8:	4c03      	ldr	r4, [pc, #12]	; (8ab8 <grid_usb_midi_bulkout_cb+0x24>)
    8aaa:	47a0      	blx	r4
    8aac:	2000      	movs	r0, #0
    8aae:	b002      	add	sp, #8
    8ab0:	bd10      	pop	{r4, pc}
    8ab2:	bf00      	nop
    8ab4:	200032ec 	.word	0x200032ec
    8ab8:	000080db 	.word	0x000080db

00008abc <grid_usb_serial_bulkout_cb>:
    8abc:	2000      	movs	r0, #0
    8abe:	4770      	bx	lr

00008ac0 <grid_usb_serial_init>:
    8ac0:	4901      	ldr	r1, [pc, #4]	; (8ac8 <grid_usb_serial_init+0x8>)
    8ac2:	4b02      	ldr	r3, [pc, #8]	; (8acc <grid_usb_serial_init+0xc>)
    8ac4:	2003      	movs	r0, #3
    8ac6:	4718      	bx	r3
    8ac8:	00008a45 	.word	0x00008a45
    8acc:	0000d339 	.word	0x0000d339

00008ad0 <grid_usb_midi_init>:
    8ad0:	b510      	push	{r4, lr}
    8ad2:	4c05      	ldr	r4, [pc, #20]	; (8ae8 <grid_usb_midi_init+0x18>)
    8ad4:	4905      	ldr	r1, [pc, #20]	; (8aec <grid_usb_midi_init+0x1c>)
    8ad6:	2000      	movs	r0, #0
    8ad8:	47a0      	blx	r4
    8ada:	4623      	mov	r3, r4
    8adc:	4904      	ldr	r1, [pc, #16]	; (8af0 <grid_usb_midi_init+0x20>)
    8ade:	2001      	movs	r0, #1
    8ae0:	e8bd 4010 	ldmia.w	sp!, {r4, lr}
    8ae4:	4718      	bx	r3
    8ae6:	bf00      	nop
    8ae8:	0000da5d 	.word	0x0000da5d
    8aec:	00008a95 	.word	0x00008a95
    8af0:	00008a6d 	.word	0x00008a6d

00008af4 <adc_async_window_threshold_reached>:
    8af4:	6983      	ldr	r3, [r0, #24]
    8af6:	b103      	cbz	r3, 8afa <adc_async_window_threshold_reached+0x6>
    8af8:	4718      	bx	r3
    8afa:	4770      	bx	lr

00008afc <adc_async_error_occured>:
    8afc:	69c3      	ldr	r3, [r0, #28]
    8afe:	b103      	cbz	r3, 8b02 <adc_async_error_occured+0x6>
    8b00:	4718      	bx	r3
    8b02:	4770      	bx	lr

00008b04 <adc_async_channel_conversion_done>:
    8b04:	e92d 4ff1 	stmdb	sp!, {r0, r4, r5, r6, r7, r8, r9, sl, fp, lr}
    8b08:	6a03      	ldr	r3, [r0, #32]
    8b0a:	f8d0 8028 	ldr.w	r8, [r0, #40]	; 0x28
    8b0e:	5c5c      	ldrb	r4, [r3, r1]
    8b10:	f8df 9054 	ldr.w	r9, [pc, #84]	; 8b68 <adc_async_channel_conversion_done+0x64>
    8b14:	eb04 0444 	add.w	r4, r4, r4, lsl #1
    8b18:	00e4      	lsls	r4, r4, #3
    8b1a:	eb08 0504 	add.w	r5, r8, r4
    8b1e:	f105 0a04 	add.w	sl, r5, #4
    8b22:	4606      	mov	r6, r0
    8b24:	460f      	mov	r7, r1
    8b26:	4650      	mov	r0, sl
    8b28:	b2d1      	uxtb	r1, r2
    8b2a:	4693      	mov	fp, r2
    8b2c:	47c8      	blx	r9
    8b2e:	4630      	mov	r0, r6
    8b30:	4b0c      	ldr	r3, [pc, #48]	; (8b64 <adc_async_channel_conversion_done+0x60>)
    8b32:	4798      	blx	r3
    8b34:	2801      	cmp	r0, #1
    8b36:	d906      	bls.n	8b46 <adc_async_channel_conversion_done+0x42>
    8b38:	ea4f 211b 	mov.w	r1, fp, lsr #8
    8b3c:	4650      	mov	r0, sl
    8b3e:	47c8      	blx	r9
    8b40:	8aab      	ldrh	r3, [r5, #20]
    8b42:	3301      	adds	r3, #1
    8b44:	82ab      	strh	r3, [r5, #20]
    8b46:	8aab      	ldrh	r3, [r5, #20]
    8b48:	3301      	adds	r3, #1
    8b4a:	82ab      	strh	r3, [r5, #20]
    8b4c:	f858 3004 	ldr.w	r3, [r8, r4]
    8b50:	b12b      	cbz	r3, 8b5e <adc_async_channel_conversion_done+0x5a>
    8b52:	4639      	mov	r1, r7
    8b54:	4630      	mov	r0, r6
    8b56:	b001      	add	sp, #4
    8b58:	e8bd 4ff0 	ldmia.w	sp!, {r4, r5, r6, r7, r8, r9, sl, fp, lr}
    8b5c:	4718      	bx	r3
    8b5e:	b001      	add	sp, #4
    8b60:	e8bd 8ff0 	ldmia.w	sp!, {r4, r5, r6, r7, r8, r9, sl, fp, pc}
    8b64:	00009ded 	.word	0x00009ded
    8b68:	00009b0d 	.word	0x00009b0d

00008b6c <adc_async_init>:
    8b6c:	b570      	push	{r4, r5, r6, lr}
    8b6e:	4604      	mov	r4, r0
    8b70:	26ff      	movs	r6, #255	; 0xff
    8b72:	2000      	movs	r0, #0
    8b74:	b2c5      	uxtb	r5, r0
    8b76:	3001      	adds	r0, #1
    8b78:	5556      	strb	r6, [r2, r5]
    8b7a:	b2c5      	uxtb	r5, r0
    8b7c:	42ab      	cmp	r3, r5
    8b7e:	d2f9      	bcs.n	8b74 <adc_async_init+0x8>
    8b80:	f884 3024 	strb.w	r3, [r4, #36]	; 0x24
    8b84:	f89d 3010 	ldrb.w	r3, [sp, #16]
    8b88:	f884 3025 	strb.w	r3, [r4, #37]	; 0x25
    8b8c:	9b05      	ldr	r3, [sp, #20]
    8b8e:	62a3      	str	r3, [r4, #40]	; 0x28
    8b90:	6222      	str	r2, [r4, #32]
    8b92:	4620      	mov	r0, r4
    8b94:	4b04      	ldr	r3, [pc, #16]	; (8ba8 <adc_async_init+0x3c>)
    8b96:	4798      	blx	r3
    8b98:	b928      	cbnz	r0, 8ba6 <adc_async_init+0x3a>
    8b9a:	4b04      	ldr	r3, [pc, #16]	; (8bac <adc_async_init+0x40>)
    8b9c:	60a3      	str	r3, [r4, #8]
    8b9e:	4b04      	ldr	r3, [pc, #16]	; (8bb0 <adc_async_init+0x44>)
    8ba0:	6023      	str	r3, [r4, #0]
    8ba2:	4b04      	ldr	r3, [pc, #16]	; (8bb4 <adc_async_init+0x48>)
    8ba4:	6063      	str	r3, [r4, #4]
    8ba6:	bd70      	pop	{r4, r5, r6, pc}
    8ba8:	00009d2d 	.word	0x00009d2d
    8bac:	00008b05 	.word	0x00008b05
    8bb0:	00008af5 	.word	0x00008af5
    8bb4:	00008afd 	.word	0x00008afd

00008bb8 <adc_async_register_channel_buffer>:
    8bb8:	b5f8      	push	{r3, r4, r5, r6, r7, lr}
    8bba:	460f      	mov	r7, r1
    8bbc:	f8d0 e020 	ldr.w	lr, [r0, #32]
    8bc0:	4611      	mov	r1, r2
    8bc2:	f81e 2007 	ldrb.w	r2, [lr, r7]
    8bc6:	2aff      	cmp	r2, #255	; 0xff
    8bc8:	4605      	mov	r5, r0
    8bca:	d11a      	bne.n	8c02 <adc_async_register_channel_buffer+0x4a>
    8bcc:	f890 2024 	ldrb.w	r2, [r0, #36]	; 0x24
    8bd0:	2000      	movs	r0, #0
    8bd2:	4604      	mov	r4, r0
    8bd4:	b2c6      	uxtb	r6, r0
    8bd6:	4296      	cmp	r6, r2
    8bd8:	d916      	bls.n	8c08 <adc_async_register_channel_buffer+0x50>
    8bda:	f895 2025 	ldrb.w	r2, [r5, #37]	; 0x25
    8bde:	42a2      	cmp	r2, r4
    8be0:	d31a      	bcc.n	8c18 <adc_async_register_channel_buffer+0x60>
    8be2:	eb04 0644 	add.w	r6, r4, r4, lsl #1
    8be6:	6aa8      	ldr	r0, [r5, #40]	; 0x28
    8be8:	00f6      	lsls	r6, r6, #3
    8bea:	4430      	add	r0, r6
    8bec:	461a      	mov	r2, r3
    8bee:	3004      	adds	r0, #4
    8bf0:	4b0b      	ldr	r3, [pc, #44]	; (8c20 <adc_async_register_channel_buffer+0x68>)
    8bf2:	4798      	blx	r3
    8bf4:	b928      	cbnz	r0, 8c02 <adc_async_register_channel_buffer+0x4a>
    8bf6:	6a2b      	ldr	r3, [r5, #32]
    8bf8:	55dc      	strb	r4, [r3, r7]
    8bfa:	6aab      	ldr	r3, [r5, #40]	; 0x28
    8bfc:	441e      	add	r6, r3
    8bfe:	82b0      	strh	r0, [r6, #20]
    8c00:	bdf8      	pop	{r3, r4, r5, r6, r7, pc}
    8c02:	f06f 000c 	mvn.w	r0, #12
    8c06:	bdf8      	pop	{r3, r4, r5, r6, r7, pc}
    8c08:	f81e 6006 	ldrb.w	r6, [lr, r6]
    8c0c:	2eff      	cmp	r6, #255	; 0xff
    8c0e:	bf1c      	itt	ne
    8c10:	3401      	addne	r4, #1
    8c12:	b2e4      	uxtbne	r4, r4
    8c14:	3001      	adds	r0, #1
    8c16:	e7dd      	b.n	8bd4 <adc_async_register_channel_buffer+0x1c>
    8c18:	f06f 001b 	mvn.w	r0, #27
    8c1c:	bdf8      	pop	{r3, r4, r5, r6, r7, pc}
    8c1e:	bf00      	nop
    8c20:	00009ad3 	.word	0x00009ad3

00008c24 <adc_async_enable_channel>:
    8c24:	b508      	push	{r3, lr}
    8c26:	4b02      	ldr	r3, [pc, #8]	; (8c30 <adc_async_enable_channel+0xc>)
    8c28:	4798      	blx	r3
    8c2a:	2000      	movs	r0, #0
    8c2c:	bd08      	pop	{r3, pc}
    8c2e:	bf00      	nop
    8c30:	00009de1 	.word	0x00009de1

00008c34 <adc_async_register_callback>:
    8c34:	2a01      	cmp	r2, #1
    8c36:	b538      	push	{r3, r4, r5, lr}
    8c38:	d013      	beq.n	8c62 <adc_async_register_callback+0x2e>
    8c3a:	d304      	bcc.n	8c46 <adc_async_register_callback+0x12>
    8c3c:	2a02      	cmp	r2, #2
    8c3e:	d012      	beq.n	8c66 <adc_async_register_callback+0x32>
    8c40:	f06f 000c 	mvn.w	r0, #12
    8c44:	bd38      	pop	{r3, r4, r5, pc}
    8c46:	6a04      	ldr	r4, [r0, #32]
    8c48:	6a85      	ldr	r5, [r0, #40]	; 0x28
    8c4a:	5c64      	ldrb	r4, [r4, r1]
    8c4c:	eb04 0444 	add.w	r4, r4, r4, lsl #1
    8c50:	f845 3034 	str.w	r3, [r5, r4, lsl #3]
    8c54:	3300      	adds	r3, #0
    8c56:	bf18      	it	ne
    8c58:	2301      	movne	r3, #1
    8c5a:	4c04      	ldr	r4, [pc, #16]	; (8c6c <adc_async_register_callback+0x38>)
    8c5c:	47a0      	blx	r4
    8c5e:	2000      	movs	r0, #0
    8c60:	bd38      	pop	{r3, r4, r5, pc}
    8c62:	6183      	str	r3, [r0, #24]
    8c64:	e7f6      	b.n	8c54 <adc_async_register_callback+0x20>
    8c66:	61c3      	str	r3, [r0, #28]
    8c68:	e7f4      	b.n	8c54 <adc_async_register_callback+0x20>
    8c6a:	bf00      	nop
    8c6c:	00009e19 	.word	0x00009e19

00008c70 <adc_async_read_channel>:
    8c70:	e92d 47f3 	stmdb	sp!, {r0, r1, r4, r5, r6, r7, r8, r9, sl, lr}
    8c74:	4604      	mov	r4, r0
    8c76:	461f      	mov	r7, r3
    8c78:	4b15      	ldr	r3, [pc, #84]	; (8cd0 <adc_async_read_channel+0x60>)
    8c7a:	f8df a064 	ldr.w	sl, [pc, #100]	; 8ce0 <adc_async_read_channel+0x70>
    8c7e:	460d      	mov	r5, r1
    8c80:	4690      	mov	r8, r2
    8c82:	4798      	blx	r3
    8c84:	6a23      	ldr	r3, [r4, #32]
    8c86:	5d5d      	ldrb	r5, [r3, r5]
    8c88:	6aa3      	ldr	r3, [r4, #40]	; 0x28
    8c8a:	eb05 0545 	add.w	r5, r5, r5, lsl #1
    8c8e:	eb03 05c5 	add.w	r5, r3, r5, lsl #3
    8c92:	a801      	add	r0, sp, #4
    8c94:	4b0f      	ldr	r3, [pc, #60]	; (8cd4 <adc_async_read_channel+0x64>)
    8c96:	1d2e      	adds	r6, r5, #4
    8c98:	4798      	blx	r3
    8c9a:	4b0f      	ldr	r3, [pc, #60]	; (8cd8 <adc_async_read_channel+0x68>)
    8c9c:	4630      	mov	r0, r6
    8c9e:	4798      	blx	r3
    8ca0:	4b0e      	ldr	r3, [pc, #56]	; (8cdc <adc_async_read_channel+0x6c>)
    8ca2:	4681      	mov	r9, r0
    8ca4:	a801      	add	r0, sp, #4
    8ca6:	4798      	blx	r3
    8ca8:	2400      	movs	r4, #0
    8caa:	45a1      	cmp	r9, r4
    8cac:	b2a2      	uxth	r2, r4
    8cae:	d001      	beq.n	8cb4 <adc_async_read_channel+0x44>
    8cb0:	42bc      	cmp	r4, r7
    8cb2:	d106      	bne.n	8cc2 <adc_async_read_channel+0x52>
    8cb4:	8aab      	ldrh	r3, [r5, #20]
    8cb6:	b2a0      	uxth	r0, r4
    8cb8:	1a9b      	subs	r3, r3, r2
    8cba:	82ab      	strh	r3, [r5, #20]
    8cbc:	b002      	add	sp, #8
    8cbe:	e8bd 87f0 	ldmia.w	sp!, {r4, r5, r6, r7, r8, r9, sl, pc}
    8cc2:	eb08 0104 	add.w	r1, r8, r4
    8cc6:	4630      	mov	r0, r6
    8cc8:	47d0      	blx	sl
    8cca:	3401      	adds	r4, #1
    8ccc:	e7ed      	b.n	8caa <adc_async_read_channel+0x3a>
    8cce:	bf00      	nop
    8cd0:	00009ded 	.word	0x00009ded
    8cd4:	00008cf5 	.word	0x00008cf5
    8cd8:	00009b33 	.word	0x00009b33
    8cdc:	00008d03 	.word	0x00008d03
    8ce0:	00009aeb 	.word	0x00009aeb

00008ce4 <adc_async_start_conversion>:
    8ce4:	b508      	push	{r3, lr}
    8ce6:	4b02      	ldr	r3, [pc, #8]	; (8cf0 <adc_async_start_conversion+0xc>)
    8ce8:	4798      	blx	r3
    8cea:	2000      	movs	r0, #0
    8cec:	bd08      	pop	{r3, pc}
    8cee:	bf00      	nop
    8cf0:	00009e01 	.word	0x00009e01

00008cf4 <atomic_enter_critical>:
    8cf4:	f3ef 8310 	mrs	r3, PRIMASK
    8cf8:	6003      	str	r3, [r0, #0]
    8cfa:	b672      	cpsid	i
    8cfc:	f3bf 8f5f 	dmb	sy
    8d00:	4770      	bx	lr

00008d02 <atomic_leave_critical>:
    8d02:	f3bf 8f5f 	dmb	sy
    8d06:	6803      	ldr	r3, [r0, #0]
    8d08:	f383 8810 	msr	PRIMASK, r3
    8d0c:	4770      	bx	lr
	...

00008d10 <crc_sync_init>:
    8d10:	4b00      	ldr	r3, [pc, #0]	; (8d14 <crc_sync_init+0x4>)
    8d12:	4718      	bx	r3
    8d14:	0000a135 	.word	0x0000a135

00008d18 <delay_init>:
    8d18:	4b01      	ldr	r3, [pc, #4]	; (8d20 <delay_init+0x8>)
    8d1a:	6018      	str	r0, [r3, #0]
    8d1c:	4b01      	ldr	r3, [pc, #4]	; (8d24 <delay_init+0xc>)
    8d1e:	4718      	bx	r3
    8d20:	200006c4 	.word	0x200006c4
    8d24:	0000b58d 	.word	0x0000b58d

00008d28 <delay_us>:
    8d28:	4b05      	ldr	r3, [pc, #20]	; (8d40 <delay_us+0x18>)
    8d2a:	b510      	push	{r4, lr}
    8d2c:	681c      	ldr	r4, [r3, #0]
    8d2e:	4b05      	ldr	r3, [pc, #20]	; (8d44 <delay_us+0x1c>)
    8d30:	4798      	blx	r3
    8d32:	4b05      	ldr	r3, [pc, #20]	; (8d48 <delay_us+0x20>)
    8d34:	4601      	mov	r1, r0
    8d36:	4620      	mov	r0, r4
    8d38:	e8bd 4010 	ldmia.w	sp!, {r4, lr}
    8d3c:	4718      	bx	r3
    8d3e:	bf00      	nop
    8d40:	200006c4 	.word	0x200006c4
    8d44:	00009e85 	.word	0x00009e85
    8d48:	0000b5a1 	.word	0x0000b5a1

00008d4c <delay_ms>:
    8d4c:	4b05      	ldr	r3, [pc, #20]	; (8d64 <delay_ms+0x18>)
    8d4e:	b510      	push	{r4, lr}
    8d50:	681c      	ldr	r4, [r3, #0]
    8d52:	4b05      	ldr	r3, [pc, #20]	; (8d68 <delay_ms+0x1c>)
    8d54:	4798      	blx	r3
    8d56:	4b05      	ldr	r3, [pc, #20]	; (8d6c <delay_ms+0x20>)
    8d58:	4601      	mov	r1, r0
    8d5a:	4620      	mov	r0, r4
    8d5c:	e8bd 4010 	ldmia.w	sp!, {r4, lr}
    8d60:	4718      	bx	r3
    8d62:	bf00      	nop
    8d64:	200006c4 	.word	0x200006c4
    8d68:	00009e8d 	.word	0x00009e8d
    8d6c:	0000b5a1 	.word	0x0000b5a1

00008d70 <event_system_init>:
    8d70:	4b00      	ldr	r3, [pc, #0]	; (8d74 <event_system_init+0x4>)
    8d72:	4718      	bx	r3
    8d74:	0000a13d 	.word	0x0000a13d

00008d78 <flash_ready>:
    8d78:	6943      	ldr	r3, [r0, #20]
    8d7a:	b103      	cbz	r3, 8d7e <flash_ready+0x6>
    8d7c:	4718      	bx	r3
    8d7e:	4770      	bx	lr

00008d80 <flash_error>:
    8d80:	6983      	ldr	r3, [r0, #24]
    8d82:	b103      	cbz	r3, 8d86 <flash_error+0x6>
    8d84:	4718      	bx	r3
    8d86:	4770      	bx	lr

00008d88 <flash_init>:
    8d88:	b510      	push	{r4, lr}
    8d8a:	4b04      	ldr	r3, [pc, #16]	; (8d9c <flash_init+0x14>)
    8d8c:	4604      	mov	r4, r0
    8d8e:	4798      	blx	r3
    8d90:	b918      	cbnz	r0, 8d9a <flash_init+0x12>
    8d92:	4b03      	ldr	r3, [pc, #12]	; (8da0 <flash_init+0x18>)
    8d94:	6023      	str	r3, [r4, #0]
    8d96:	4b03      	ldr	r3, [pc, #12]	; (8da4 <flash_init+0x1c>)
    8d98:	6063      	str	r3, [r4, #4]
    8d9a:	bd10      	pop	{r4, pc}
    8d9c:	0000a295 	.word	0x0000a295
    8da0:	00008d79 	.word	0x00008d79
    8da4:	00008d81 	.word	0x00008d81

00008da8 <i2c_m_async_write>:
    8da8:	b51f      	push	{r0, r1, r2, r3, r4, lr}
    8daa:	8a83      	ldrh	r3, [r0, #20]
    8dac:	f8ad 3004 	strh.w	r3, [sp, #4]
    8db0:	f44f 4300 	mov.w	r3, #32768	; 0x8000
    8db4:	f8ad 3006 	strh.w	r3, [sp, #6]
    8db8:	9103      	str	r1, [sp, #12]
    8dba:	4b05      	ldr	r3, [pc, #20]	; (8dd0 <i2c_m_async_write+0x28>)
    8dbc:	9202      	str	r2, [sp, #8]
    8dbe:	a901      	add	r1, sp, #4
    8dc0:	3828      	subs	r0, #40	; 0x28
    8dc2:	4614      	mov	r4, r2
    8dc4:	4798      	blx	r3
    8dc6:	2800      	cmp	r0, #0
    8dc8:	bf08      	it	eq
    8dca:	4620      	moveq	r0, r4
    8dcc:	b004      	add	sp, #16
    8dce:	bd10      	pop	{r4, pc}
    8dd0:	0000af25 	.word	0x0000af25

00008dd4 <i2c_m_async_read>:
    8dd4:	b51f      	push	{r0, r1, r2, r3, r4, lr}
    8dd6:	8a83      	ldrh	r3, [r0, #20]
    8dd8:	f8ad 3004 	strh.w	r3, [sp, #4]
    8ddc:	f248 0301 	movw	r3, #32769	; 0x8001
    8de0:	f8ad 3006 	strh.w	r3, [sp, #6]
    8de4:	9103      	str	r1, [sp, #12]
    8de6:	4b05      	ldr	r3, [pc, #20]	; (8dfc <i2c_m_async_read+0x28>)
    8de8:	9202      	str	r2, [sp, #8]
    8dea:	a901      	add	r1, sp, #4
    8dec:	3828      	subs	r0, #40	; 0x28
    8dee:	4614      	mov	r4, r2
    8df0:	4798      	blx	r3
    8df2:	2800      	cmp	r0, #0
    8df4:	bf08      	it	eq
    8df6:	4620      	moveq	r0, r4
    8df8:	b004      	add	sp, #16
    8dfa:	bd10      	pop	{r4, pc}
    8dfc:	0000af25 	.word	0x0000af25

00008e00 <i2c_tx_complete>:
    8e00:	8842      	ldrh	r2, [r0, #2]
    8e02:	05d2      	lsls	r2, r2, #23
    8e04:	d402      	bmi.n	8e0c <i2c_tx_complete+0xc>
    8e06:	6b43      	ldr	r3, [r0, #52]	; 0x34
    8e08:	b103      	cbz	r3, 8e0c <i2c_tx_complete+0xc>
    8e0a:	4718      	bx	r3
    8e0c:	4770      	bx	lr

00008e0e <i2c_rx_complete>:
    8e0e:	8842      	ldrh	r2, [r0, #2]
    8e10:	05d2      	lsls	r2, r2, #23
    8e12:	d402      	bmi.n	8e1a <i2c_rx_complete+0xc>
    8e14:	6b83      	ldr	r3, [r0, #56]	; 0x38
    8e16:	b103      	cbz	r3, 8e1a <i2c_rx_complete+0xc>
    8e18:	4718      	bx	r3
    8e1a:	4770      	bx	lr

00008e1c <i2c_error>:
    8e1c:	8842      	ldrh	r2, [r0, #2]
    8e1e:	05d2      	lsls	r2, r2, #23
    8e20:	d402      	bmi.n	8e28 <i2c_error+0xc>
    8e22:	6b03      	ldr	r3, [r0, #48]	; 0x30
    8e24:	b103      	cbz	r3, 8e28 <i2c_error+0xc>
    8e26:	4718      	bx	r3
    8e28:	4770      	bx	lr
	...

00008e2c <i2c_m_async_init>:
    8e2c:	b570      	push	{r4, r5, r6, lr}
    8e2e:	4b0c      	ldr	r3, [pc, #48]	; (8e60 <i2c_m_async_init+0x34>)
    8e30:	4604      	mov	r4, r0
    8e32:	4798      	blx	r3
    8e34:	4605      	mov	r5, r0
    8e36:	b980      	cbnz	r0, 8e5a <i2c_m_async_init+0x2e>
    8e38:	4b0a      	ldr	r3, [pc, #40]	; (8e64 <i2c_m_async_init+0x38>)
    8e3a:	62e3      	str	r3, [r4, #44]	; 0x2c
    8e3c:	4b0a      	ldr	r3, [pc, #40]	; (8e68 <i2c_m_async_init+0x3c>)
    8e3e:	62a3      	str	r3, [r4, #40]	; 0x28
    8e40:	4a0a      	ldr	r2, [pc, #40]	; (8e6c <i2c_m_async_init+0x40>)
    8e42:	4e0b      	ldr	r6, [pc, #44]	; (8e70 <i2c_m_async_init+0x44>)
    8e44:	2101      	movs	r1, #1
    8e46:	4620      	mov	r0, r4
    8e48:	47b0      	blx	r6
    8e4a:	4a0a      	ldr	r2, [pc, #40]	; (8e74 <i2c_m_async_init+0x48>)
    8e4c:	2102      	movs	r1, #2
    8e4e:	4620      	mov	r0, r4
    8e50:	47b0      	blx	r6
    8e52:	4a09      	ldr	r2, [pc, #36]	; (8e78 <i2c_m_async_init+0x4c>)
    8e54:	4629      	mov	r1, r5
    8e56:	4620      	mov	r0, r4
    8e58:	47b0      	blx	r6
    8e5a:	4628      	mov	r0, r5
    8e5c:	bd70      	pop	{r4, r5, r6, pc}
    8e5e:	bf00      	nop
    8e60:	0000aec1 	.word	0x0000aec1
    8e64:	00008dd5 	.word	0x00008dd5
    8e68:	00008da9 	.word	0x00008da9
    8e6c:	00008e01 	.word	0x00008e01
    8e70:	0000afe5 	.word	0x0000afe5
    8e74:	00008e0f 	.word	0x00008e0f
    8e78:	00008e1d 	.word	0x00008e1d

00008e7c <io_write>:
    8e7c:	6803      	ldr	r3, [r0, #0]
    8e7e:	4718      	bx	r3

00008e80 <io_read>:
    8e80:	6843      	ldr	r3, [r0, #4]
    8e82:	4718      	bx	r3

00008e84 <qspi_dma_init>:
    8e84:	4b00      	ldr	r3, [pc, #0]	; (8e88 <qspi_dma_init+0x4>)
    8e86:	4718      	bx	r3
    8e88:	0000a529 	.word	0x0000a529

00008e8c <_spi_m_async_io_write>:
    8e8c:	b510      	push	{r4, lr}
    8e8e:	2310      	movs	r3, #16
    8e90:	2400      	movs	r4, #0
    8e92:	6184      	str	r4, [r0, #24]
    8e94:	6141      	str	r1, [r0, #20]
    8e96:	61c2      	str	r2, [r0, #28]
    8e98:	6204      	str	r4, [r0, #32]
    8e9a:	7203      	strb	r3, [r0, #8]
    8e9c:	2101      	movs	r1, #1
    8e9e:	4b02      	ldr	r3, [pc, #8]	; (8ea8 <_spi_m_async_io_write+0x1c>)
    8ea0:	3820      	subs	r0, #32
    8ea2:	4798      	blx	r3
    8ea4:	4620      	mov	r0, r4
    8ea6:	bd10      	pop	{r4, pc}
    8ea8:	0000b305 	.word	0x0000b305

00008eac <_spi_m_async_io_read>:
    8eac:	b538      	push	{r3, r4, r5, lr}
    8eae:	2500      	movs	r5, #0
    8eb0:	f1a0 0420 	sub.w	r4, r0, #32
    8eb4:	2310      	movs	r3, #16
    8eb6:	61c2      	str	r2, [r0, #28]
    8eb8:	6181      	str	r1, [r0, #24]
    8eba:	6145      	str	r5, [r0, #20]
    8ebc:	6205      	str	r5, [r0, #32]
    8ebe:	7203      	strb	r3, [r0, #8]
    8ec0:	2101      	movs	r1, #1
    8ec2:	4620      	mov	r0, r4
    8ec4:	4b04      	ldr	r3, [pc, #16]	; (8ed8 <_spi_m_async_io_read+0x2c>)
    8ec6:	4798      	blx	r3
    8ec8:	f240 11ff 	movw	r1, #511	; 0x1ff
    8ecc:	4620      	mov	r0, r4
    8ece:	4b03      	ldr	r3, [pc, #12]	; (8edc <_spi_m_async_io_read+0x30>)
    8ed0:	4798      	blx	r3
    8ed2:	4628      	mov	r0, r5
    8ed4:	bd38      	pop	{r3, r4, r5, pc}
    8ed6:	bf00      	nop
    8ed8:	0000b315 	.word	0x0000b315
    8edc:	0000b335 	.word	0x0000b335

00008ee0 <_spi_dev_error>:
    8ee0:	b570      	push	{r4, r5, r6, lr}
    8ee2:	4b0c      	ldr	r3, [pc, #48]	; (8f14 <_spi_dev_error+0x34>)
    8ee4:	4604      	mov	r4, r0
    8ee6:	460e      	mov	r6, r1
    8ee8:	2100      	movs	r1, #0
    8eea:	1f05      	subs	r5, r0, #4
    8eec:	4798      	blx	r3
    8eee:	2100      	movs	r1, #0
    8ef0:	4b09      	ldr	r3, [pc, #36]	; (8f18 <_spi_dev_error+0x38>)
    8ef2:	4620      	mov	r0, r4
    8ef4:	4798      	blx	r3
    8ef6:	4b09      	ldr	r3, [pc, #36]	; (8f1c <_spi_dev_error+0x3c>)
    8ef8:	2100      	movs	r1, #0
    8efa:	4620      	mov	r0, r4
    8efc:	4798      	blx	r3
    8efe:	2300      	movs	r3, #0
    8f00:	f884 3028 	strb.w	r3, [r4, #40]	; 0x28
    8f04:	6b23      	ldr	r3, [r4, #48]	; 0x30
    8f06:	b123      	cbz	r3, 8f12 <_spi_dev_error+0x32>
    8f08:	4631      	mov	r1, r6
    8f0a:	4628      	mov	r0, r5
    8f0c:	e8bd 4070 	ldmia.w	sp!, {r4, r5, r6, lr}
    8f10:	4718      	bx	r3
    8f12:	bd70      	pop	{r4, r5, r6, pc}
    8f14:	0000b305 	.word	0x0000b305
    8f18:	0000b315 	.word	0x0000b315
    8f1c:	0000b325 	.word	0x0000b325

00008f20 <_spi_dev_complete>:
    8f20:	6c02      	ldr	r2, [r0, #64]	; 0x40
    8f22:	6bc3      	ldr	r3, [r0, #60]	; 0x3c
    8f24:	429a      	cmp	r2, r3
    8f26:	b510      	push	{r4, lr}
    8f28:	4604      	mov	r4, r0
    8f2a:	d30b      	bcc.n	8f44 <_spi_dev_complete+0x24>
    8f2c:	4b06      	ldr	r3, [pc, #24]	; (8f48 <_spi_dev_complete+0x28>)
    8f2e:	2100      	movs	r1, #0
    8f30:	4798      	blx	r3
    8f32:	2300      	movs	r3, #0
    8f34:	f884 3028 	strb.w	r3, [r4, #40]	; 0x28
    8f38:	6ae3      	ldr	r3, [r4, #44]	; 0x2c
    8f3a:	b11b      	cbz	r3, 8f44 <_spi_dev_complete+0x24>
    8f3c:	1f20      	subs	r0, r4, #4
    8f3e:	e8bd 4010 	ldmia.w	sp!, {r4, lr}
    8f42:	4718      	bx	r3
    8f44:	bd10      	pop	{r4, pc}
    8f46:	bf00      	nop
    8f48:	0000b325 	.word	0x0000b325

00008f4c <_spi_dev_rx>:
    8f4c:	b570      	push	{r4, r5, r6, lr}
    8f4e:	6b86      	ldr	r6, [r0, #56]	; 0x38
    8f50:	4b1a      	ldr	r3, [pc, #104]	; (8fbc <_spi_dev_rx+0x70>)
    8f52:	4604      	mov	r4, r0
    8f54:	b1ee      	cbz	r6, 8f92 <_spi_dev_rx+0x46>
    8f56:	7902      	ldrb	r2, [r0, #4]
    8f58:	6c05      	ldr	r5, [r0, #64]	; 0x40
    8f5a:	2a01      	cmp	r2, #1
    8f5c:	f105 0201 	add.w	r2, r5, #1
    8f60:	6402      	str	r2, [r0, #64]	; 0x40
    8f62:	d812      	bhi.n	8f8a <_spi_dev_rx+0x3e>
    8f64:	4798      	blx	r3
    8f66:	5570      	strb	r0, [r6, r5]
    8f68:	6c21      	ldr	r1, [r4, #64]	; 0x40
    8f6a:	6be3      	ldr	r3, [r4, #60]	; 0x3c
    8f6c:	4299      	cmp	r1, r3
    8f6e:	d217      	bcs.n	8fa0 <_spi_dev_rx+0x54>
    8f70:	6b62      	ldr	r2, [r4, #52]	; 0x34
    8f72:	4b13      	ldr	r3, [pc, #76]	; (8fc0 <_spi_dev_rx+0x74>)
    8f74:	b192      	cbz	r2, 8f9c <_spi_dev_rx+0x50>
    8f76:	7920      	ldrb	r0, [r4, #4]
    8f78:	2801      	cmp	r0, #1
    8f7a:	bf94      	ite	ls
    8f7c:	5c51      	ldrbls	r1, [r2, r1]
    8f7e:	f832 1011 	ldrhhi.w	r1, [r2, r1, lsl #1]
    8f82:	4620      	mov	r0, r4
    8f84:	e8bd 4070 	ldmia.w	sp!, {r4, r5, r6, lr}
    8f88:	4718      	bx	r3
    8f8a:	4798      	blx	r3
    8f8c:	f826 0015 	strh.w	r0, [r6, r5, lsl #1]
    8f90:	e7ea      	b.n	8f68 <_spi_dev_rx+0x1c>
    8f92:	4798      	blx	r3
    8f94:	6c23      	ldr	r3, [r4, #64]	; 0x40
    8f96:	3301      	adds	r3, #1
    8f98:	6423      	str	r3, [r4, #64]	; 0x40
    8f9a:	e7e5      	b.n	8f68 <_spi_dev_rx+0x1c>
    8f9c:	88e1      	ldrh	r1, [r4, #6]
    8f9e:	e7f0      	b.n	8f82 <_spi_dev_rx+0x36>
    8fa0:	4b08      	ldr	r3, [pc, #32]	; (8fc4 <_spi_dev_rx+0x78>)
    8fa2:	2100      	movs	r1, #0
    8fa4:	4620      	mov	r0, r4
    8fa6:	4798      	blx	r3
    8fa8:	2300      	movs	r3, #0
    8faa:	f884 3028 	strb.w	r3, [r4, #40]	; 0x28
    8fae:	6ae3      	ldr	r3, [r4, #44]	; 0x2c
    8fb0:	b11b      	cbz	r3, 8fba <_spi_dev_rx+0x6e>
    8fb2:	1f20      	subs	r0, r4, #4
    8fb4:	e8bd 4070 	ldmia.w	sp!, {r4, r5, r6, lr}
    8fb8:	4718      	bx	r3
    8fba:	bd70      	pop	{r4, r5, r6, pc}
    8fbc:	0000b33d 	.word	0x0000b33d
    8fc0:	0000b335 	.word	0x0000b335
    8fc4:	0000b315 	.word	0x0000b315

00008fc8 <_spi_dev_tx>:
    8fc8:	b570      	push	{r4, r5, r6, lr}
    8fca:	7903      	ldrb	r3, [r0, #4]
    8fcc:	6b41      	ldr	r1, [r0, #52]	; 0x34
    8fce:	4a0d      	ldr	r2, [pc, #52]	; (9004 <_spi_dev_tx+0x3c>)
    8fd0:	2b01      	cmp	r3, #1
    8fd2:	6c03      	ldr	r3, [r0, #64]	; 0x40
    8fd4:	f103 0501 	add.w	r5, r3, #1
    8fd8:	4604      	mov	r4, r0
    8fda:	6405      	str	r5, [r0, #64]	; 0x40
    8fdc:	bf94      	ite	ls
    8fde:	5cc9      	ldrbls	r1, [r1, r3]
    8fe0:	f831 1013 	ldrhhi.w	r1, [r1, r3, lsl #1]
    8fe4:	4790      	blx	r2
    8fe6:	6c22      	ldr	r2, [r4, #64]	; 0x40
    8fe8:	6be3      	ldr	r3, [r4, #60]	; 0x3c
    8fea:	429a      	cmp	r2, r3
    8fec:	d109      	bne.n	9002 <_spi_dev_tx+0x3a>
    8fee:	2100      	movs	r1, #0
    8ff0:	4620      	mov	r0, r4
    8ff2:	4b05      	ldr	r3, [pc, #20]	; (9008 <_spi_dev_tx+0x40>)
    8ff4:	4798      	blx	r3
    8ff6:	4620      	mov	r0, r4
    8ff8:	2101      	movs	r1, #1
    8ffa:	4b04      	ldr	r3, [pc, #16]	; (900c <_spi_dev_tx+0x44>)
    8ffc:	e8bd 4070 	ldmia.w	sp!, {r4, r5, r6, lr}
    9000:	4718      	bx	r3
    9002:	bd70      	pop	{r4, r5, r6, pc}
    9004:	0000b335 	.word	0x0000b335
    9008:	0000b305 	.word	0x0000b305
    900c:	0000b325 	.word	0x0000b325

00009010 <spi_m_async_init>:
    9010:	b570      	push	{r4, r5, r6, lr}
    9012:	4604      	mov	r4, r0
    9014:	4606      	mov	r6, r0
    9016:	f844 1f04 	str.w	r1, [r4, #4]!
    901a:	4b0e      	ldr	r3, [pc, #56]	; (9054 <spi_m_async_init+0x44>)
    901c:	4620      	mov	r0, r4
    901e:	4798      	blx	r3
    9020:	2800      	cmp	r0, #0
    9022:	db15      	blt.n	9050 <spi_m_async_init+0x40>
    9024:	4d0c      	ldr	r5, [pc, #48]	; (9058 <spi_m_async_init+0x48>)
    9026:	4a0d      	ldr	r2, [pc, #52]	; (905c <spi_m_async_init+0x4c>)
    9028:	2100      	movs	r1, #0
    902a:	4620      	mov	r0, r4
    902c:	47a8      	blx	r5
    902e:	4a0c      	ldr	r2, [pc, #48]	; (9060 <spi_m_async_init+0x50>)
    9030:	2101      	movs	r1, #1
    9032:	4620      	mov	r0, r4
    9034:	47a8      	blx	r5
    9036:	4a0b      	ldr	r2, [pc, #44]	; (9064 <spi_m_async_init+0x54>)
    9038:	2102      	movs	r1, #2
    903a:	4620      	mov	r0, r4
    903c:	47a8      	blx	r5
    903e:	4a0a      	ldr	r2, [pc, #40]	; (9068 <spi_m_async_init+0x58>)
    9040:	2103      	movs	r1, #3
    9042:	4620      	mov	r0, r4
    9044:	47a8      	blx	r5
    9046:	4b09      	ldr	r3, [pc, #36]	; (906c <spi_m_async_init+0x5c>)
    9048:	62b3      	str	r3, [r6, #40]	; 0x28
    904a:	4b09      	ldr	r3, [pc, #36]	; (9070 <spi_m_async_init+0x60>)
    904c:	6273      	str	r3, [r6, #36]	; 0x24
    904e:	2000      	movs	r0, #0
    9050:	bd70      	pop	{r4, r5, r6, pc}
    9052:	bf00      	nop
    9054:	0000b249 	.word	0x0000b249
    9058:	0000b345 	.word	0x0000b345
    905c:	00008fc9 	.word	0x00008fc9
    9060:	00008f4d 	.word	0x00008f4d
    9064:	00008f21 	.word	0x00008f21
    9068:	00008ee1 	.word	0x00008ee1
    906c:	00008ead 	.word	0x00008ead
    9070:	00008e8d 	.word	0x00008e8d

00009074 <spi_m_async_enable>:
    9074:	3004      	adds	r0, #4
    9076:	4b01      	ldr	r3, [pc, #4]	; (907c <spi_m_async_enable+0x8>)
    9078:	4718      	bx	r3
    907a:	bf00      	nop
    907c:	0000b2d5 	.word	0x0000b2d5

00009080 <spi_m_async_set_baudrate>:
    9080:	f890 302c 	ldrb.w	r3, [r0, #44]	; 0x2c
    9084:	06db      	lsls	r3, r3, #27
    9086:	d402      	bmi.n	908e <spi_m_async_set_baudrate+0xe>
    9088:	3004      	adds	r0, #4
    908a:	4b02      	ldr	r3, [pc, #8]	; (9094 <spi_m_async_set_baudrate+0x14>)
    908c:	4718      	bx	r3
    908e:	f06f 0003 	mvn.w	r0, #3
    9092:	4770      	bx	lr
    9094:	0000b2f1 	.word	0x0000b2f1

00009098 <spi_m_async_set_mode>:
    9098:	f890 302c 	ldrb.w	r3, [r0, #44]	; 0x2c
    909c:	06db      	lsls	r3, r3, #27
    909e:	d402      	bmi.n	90a6 <spi_m_async_set_mode+0xe>
    90a0:	3004      	adds	r0, #4
    90a2:	4b02      	ldr	r3, [pc, #8]	; (90ac <spi_m_async_set_mode+0x14>)
    90a4:	4718      	bx	r3
    90a6:	f06f 0003 	mvn.w	r0, #3
    90aa:	4770      	bx	lr
    90ac:	0000b2e9 	.word	0x0000b2e9

000090b0 <spi_m_async_transfer>:
    90b0:	b570      	push	{r4, r5, r6, lr}
    90b2:	4604      	mov	r4, r0
    90b4:	63c2      	str	r2, [r0, #60]	; 0x3c
    90b6:	63a1      	str	r1, [r4, #56]	; 0x38
    90b8:	6403      	str	r3, [r0, #64]	; 0x40
    90ba:	2300      	movs	r3, #0
    90bc:	6443      	str	r3, [r0, #68]	; 0x44
    90be:	1d05      	adds	r5, r0, #4
    90c0:	2310      	movs	r3, #16
    90c2:	f880 302c 	strb.w	r3, [r0, #44]	; 0x2c
    90c6:	460e      	mov	r6, r1
    90c8:	4b09      	ldr	r3, [pc, #36]	; (90f0 <spi_m_async_transfer+0x40>)
    90ca:	2101      	movs	r1, #1
    90cc:	4628      	mov	r0, r5
    90ce:	4798      	blx	r3
    90d0:	4b08      	ldr	r3, [pc, #32]	; (90f4 <spi_m_async_transfer+0x44>)
    90d2:	b156      	cbz	r6, 90ea <spi_m_async_transfer+0x3a>
    90d4:	7a22      	ldrb	r2, [r4, #8]
    90d6:	2a01      	cmp	r2, #1
    90d8:	6c62      	ldr	r2, [r4, #68]	; 0x44
    90da:	bf94      	ite	ls
    90dc:	5cb1      	ldrbls	r1, [r6, r2]
    90de:	f836 1012 	ldrhhi.w	r1, [r6, r2, lsl #1]
    90e2:	4628      	mov	r0, r5
    90e4:	4798      	blx	r3
    90e6:	2000      	movs	r0, #0
    90e8:	bd70      	pop	{r4, r5, r6, pc}
    90ea:	8961      	ldrh	r1, [r4, #10]
    90ec:	e7f9      	b.n	90e2 <spi_m_async_transfer+0x32>
    90ee:	bf00      	nop
    90f0:	0000b315 	.word	0x0000b315
    90f4:	0000b335 	.word	0x0000b335

000090f8 <spi_m_async_register_callback>:
    90f8:	b909      	cbnz	r1, 90fe <spi_m_async_register_callback+0x6>
    90fa:	6302      	str	r2, [r0, #48]	; 0x30
    90fc:	4770      	bx	lr
    90fe:	6342      	str	r2, [r0, #52]	; 0x34
    9100:	3200      	adds	r2, #0
    9102:	bf18      	it	ne
    9104:	2201      	movne	r2, #1
    9106:	2103      	movs	r1, #3
    9108:	3004      	adds	r0, #4
    910a:	4b01      	ldr	r3, [pc, #4]	; (9110 <spi_m_async_register_callback+0x18>)
    910c:	4718      	bx	r3
    910e:	bf00      	nop
    9110:	0000b34f 	.word	0x0000b34f

00009114 <spi_m_async_get_io_descriptor>:
    9114:	3024      	adds	r0, #36	; 0x24
    9116:	6008      	str	r0, [r1, #0]
    9118:	2000      	movs	r0, #0
    911a:	4770      	bx	lr

0000911c <_spi_m_dma_io_write>:
    911c:	b410      	push	{r4}
    911e:	4c04      	ldr	r4, [pc, #16]	; (9130 <_spi_m_dma_io_write+0x14>)
    9120:	4613      	mov	r3, r2
    9122:	46a4      	mov	ip, r4
    9124:	2200      	movs	r2, #0
    9126:	381c      	subs	r0, #28
    9128:	f85d 4b04 	ldr.w	r4, [sp], #4
    912c:	4760      	bx	ip
    912e:	bf00      	nop
    9130:	0000b495 	.word	0x0000b495

00009134 <_spi_m_dma_io_read>:
    9134:	b410      	push	{r4}
    9136:	4c04      	ldr	r4, [pc, #16]	; (9148 <_spi_m_dma_io_read+0x14>)
    9138:	4613      	mov	r3, r2
    913a:	46a4      	mov	ip, r4
    913c:	460a      	mov	r2, r1
    913e:	381c      	subs	r0, #28
    9140:	2100      	movs	r1, #0
    9142:	f85d 4b04 	ldr.w	r4, [sp], #4
    9146:	4760      	bx	ip
    9148:	0000b495 	.word	0x0000b495

0000914c <spi_m_dma_init>:
    914c:	b510      	push	{r4, lr}
    914e:	4b05      	ldr	r3, [pc, #20]	; (9164 <spi_m_dma_init+0x18>)
    9150:	4604      	mov	r4, r0
    9152:	f840 1f04 	str.w	r1, [r0, #4]!
    9156:	4798      	blx	r3
    9158:	b918      	cbnz	r0, 9162 <spi_m_dma_init+0x16>
    915a:	4b03      	ldr	r3, [pc, #12]	; (9168 <spi_m_dma_init+0x1c>)
    915c:	6263      	str	r3, [r4, #36]	; 0x24
    915e:	4b03      	ldr	r3, [pc, #12]	; (916c <spi_m_dma_init+0x20>)
    9160:	6223      	str	r3, [r4, #32]
    9162:	bd10      	pop	{r4, pc}
    9164:	0000b361 	.word	0x0000b361
    9168:	00009135 	.word	0x00009135
    916c:	0000911d 	.word	0x0000911d

00009170 <spi_m_dma_enable>:
    9170:	3004      	adds	r0, #4
    9172:	4b01      	ldr	r3, [pc, #4]	; (9178 <spi_m_dma_enable+0x8>)
    9174:	4718      	bx	r3
    9176:	bf00      	nop
    9178:	0000b425 	.word	0x0000b425

0000917c <spi_m_dma_register_callback>:
    917c:	3004      	adds	r0, #4
    917e:	4b01      	ldr	r3, [pc, #4]	; (9184 <spi_m_dma_register_callback+0x8>)
    9180:	4718      	bx	r3
    9182:	bf00      	nop
    9184:	0000b431 	.word	0x0000b431

00009188 <spi_m_dma_get_io_descriptor>:
    9188:	3020      	adds	r0, #32
    918a:	6008      	str	r0, [r1, #0]
    918c:	2000      	movs	r0, #0
    918e:	4770      	bx	lr

00009190 <timer_add_timer_task>:
    9190:	b5f0      	push	{r4, r5, r6, r7, lr}
    9192:	6805      	ldr	r5, [r0, #0]
    9194:	b91d      	cbnz	r5, 919e <timer_add_timer_task+0xe>
    9196:	4b0f      	ldr	r3, [pc, #60]	; (91d4 <timer_add_timer_task+0x44>)
    9198:	e8bd 40f0 	ldmia.w	sp!, {r4, r5, r6, r7, lr}
    919c:	4718      	bx	r3
    919e:	f8d1 e008 	ldr.w	lr, [r1, #8]
    91a2:	462c      	mov	r4, r5
    91a4:	2600      	movs	r6, #0
    91a6:	f1c2 0c01 	rsb	ip, r2, #1
    91aa:	6863      	ldr	r3, [r4, #4]
    91ac:	68a7      	ldr	r7, [r4, #8]
    91ae:	4293      	cmp	r3, r2
    91b0:	bf95      	itete	ls
    91b2:	19db      	addls	r3, r3, r7
    91b4:	4463      	addhi	r3, ip
    91b6:	1a9b      	subls	r3, r3, r2
    91b8:	19db      	addhi	r3, r3, r7
    91ba:	4573      	cmp	r3, lr
    91bc:	d207      	bcs.n	91ce <timer_add_timer_task+0x3e>
    91be:	6823      	ldr	r3, [r4, #0]
    91c0:	4626      	mov	r6, r4
    91c2:	b913      	cbnz	r3, 91ca <timer_add_timer_task+0x3a>
    91c4:	4630      	mov	r0, r6
    91c6:	4b04      	ldr	r3, [pc, #16]	; (91d8 <timer_add_timer_task+0x48>)
    91c8:	e7e6      	b.n	9198 <timer_add_timer_task+0x8>
    91ca:	461c      	mov	r4, r3
    91cc:	e7ed      	b.n	91aa <timer_add_timer_task+0x1a>
    91ce:	42a5      	cmp	r5, r4
    91d0:	d1f8      	bne.n	91c4 <timer_add_timer_task+0x34>
    91d2:	e7e0      	b.n	9196 <timer_add_timer_task+0x6>
    91d4:	00009a9f 	.word	0x00009a9f
    91d8:	00009aa7 	.word	0x00009aa7

000091dc <timer_process_counted>:
    91dc:	e92d 47f0 	stmdb	sp!, {r4, r5, r6, r7, r8, r9, sl, lr}
    91e0:	6906      	ldr	r6, [r0, #16]
    91e2:	7e03      	ldrb	r3, [r0, #24]
    91e4:	6944      	ldr	r4, [r0, #20]
    91e6:	3601      	adds	r6, #1
    91e8:	07da      	lsls	r2, r3, #31
    91ea:	4605      	mov	r5, r0
    91ec:	6106      	str	r6, [r0, #16]
    91ee:	d410      	bmi.n	9212 <timer_process_counted+0x36>
    91f0:	7e03      	ldrb	r3, [r0, #24]
    91f2:	079b      	lsls	r3, r3, #30
    91f4:	d40d      	bmi.n	9212 <timer_process_counted+0x36>
    91f6:	f8df 8048 	ldr.w	r8, [pc, #72]	; 9240 <timer_process_counted+0x64>
    91fa:	f8df 9048 	ldr.w	r9, [pc, #72]	; 9244 <timer_process_counted+0x68>
    91fe:	f100 0714 	add.w	r7, r0, #20
    9202:	b124      	cbz	r4, 920e <timer_process_counted+0x32>
    9204:	6863      	ldr	r3, [r4, #4]
    9206:	68a2      	ldr	r2, [r4, #8]
    9208:	1af3      	subs	r3, r6, r3
    920a:	4293      	cmp	r3, r2
    920c:	d207      	bcs.n	921e <timer_process_counted+0x42>
    920e:	e8bd 87f0 	ldmia.w	sp!, {r4, r5, r6, r7, r8, r9, sl, pc}
    9212:	7e2b      	ldrb	r3, [r5, #24]
    9214:	f043 0302 	orr.w	r3, r3, #2
    9218:	762b      	strb	r3, [r5, #24]
    921a:	e8bd 87f0 	ldmia.w	sp!, {r4, r5, r6, r7, r8, r9, sl, pc}
    921e:	4638      	mov	r0, r7
    9220:	47c0      	blx	r8
    9222:	7c23      	ldrb	r3, [r4, #16]
    9224:	2b01      	cmp	r3, #1
    9226:	d104      	bne.n	9232 <timer_process_counted+0x56>
    9228:	6066      	str	r6, [r4, #4]
    922a:	4632      	mov	r2, r6
    922c:	4621      	mov	r1, r4
    922e:	4638      	mov	r0, r7
    9230:	47c8      	blx	r9
    9232:	f8d5 a014 	ldr.w	sl, [r5, #20]
    9236:	68e3      	ldr	r3, [r4, #12]
    9238:	4620      	mov	r0, r4
    923a:	4798      	blx	r3
    923c:	4654      	mov	r4, sl
    923e:	e7e0      	b.n	9202 <timer_process_counted+0x26>
    9240:	00009ac7 	.word	0x00009ac7
    9244:	00009191 	.word	0x00009191

00009248 <timer_init>:
    9248:	b510      	push	{r4, lr}
    924a:	6813      	ldr	r3, [r2, #0]
    924c:	4604      	mov	r4, r0
    924e:	f840 2b04 	str.w	r2, [r0], #4
    9252:	4798      	blx	r3
    9254:	2000      	movs	r0, #0
    9256:	4b02      	ldr	r3, [pc, #8]	; (9260 <timer_init+0x18>)
    9258:	6160      	str	r0, [r4, #20]
    925a:	6063      	str	r3, [r4, #4]
    925c:	bd10      	pop	{r4, pc}
    925e:	bf00      	nop
    9260:	000091dd 	.word	0x000091dd

00009264 <timer_start>:
    9264:	6803      	ldr	r3, [r0, #0]
    9266:	b570      	push	{r4, r5, r6, lr}
    9268:	1d06      	adds	r6, r0, #4
    926a:	4605      	mov	r5, r0
    926c:	699b      	ldr	r3, [r3, #24]
    926e:	4630      	mov	r0, r6
    9270:	4798      	blx	r3
    9272:	4604      	mov	r4, r0
    9274:	b928      	cbnz	r0, 9282 <timer_start+0x1e>
    9276:	682b      	ldr	r3, [r5, #0]
    9278:	4630      	mov	r0, r6
    927a:	689b      	ldr	r3, [r3, #8]
    927c:	4798      	blx	r3
    927e:	4620      	mov	r0, r4
    9280:	bd70      	pop	{r4, r5, r6, pc}
    9282:	f06f 0010 	mvn.w	r0, #16
    9286:	bd70      	pop	{r4, r5, r6, pc}

00009288 <timer_add_task>:
    9288:	b5f7      	push	{r0, r1, r2, r4, r5, r6, r7, lr}
    928a:	7f03      	ldrb	r3, [r0, #28]
    928c:	f100 0618 	add.w	r6, r0, #24
    9290:	f043 0301 	orr.w	r3, r3, #1
    9294:	7703      	strb	r3, [r0, #28]
    9296:	4604      	mov	r4, r0
    9298:	4b15      	ldr	r3, [pc, #84]	; (92f0 <timer_add_task+0x68>)
    929a:	4630      	mov	r0, r6
    929c:	460f      	mov	r7, r1
    929e:	4798      	blx	r3
    92a0:	4605      	mov	r5, r0
    92a2:	b138      	cbz	r0, 92b4 <timer_add_task+0x2c>
    92a4:	7f23      	ldrb	r3, [r4, #28]
    92a6:	f003 03fe 	and.w	r3, r3, #254	; 0xfe
    92aa:	7723      	strb	r3, [r4, #28]
    92ac:	f06f 0011 	mvn.w	r0, #17
    92b0:	b003      	add	sp, #12
    92b2:	bdf0      	pop	{r4, r5, r6, r7, pc}
    92b4:	6962      	ldr	r2, [r4, #20]
    92b6:	4b0f      	ldr	r3, [pc, #60]	; (92f4 <timer_add_task+0x6c>)
    92b8:	607a      	str	r2, [r7, #4]
    92ba:	4630      	mov	r0, r6
    92bc:	4639      	mov	r1, r7
    92be:	4798      	blx	r3
    92c0:	7f23      	ldrb	r3, [r4, #28]
    92c2:	f003 03fe 	and.w	r3, r3, #254	; 0xfe
    92c6:	7723      	strb	r3, [r4, #28]
    92c8:	7f20      	ldrb	r0, [r4, #28]
    92ca:	f010 0002 	ands.w	r0, r0, #2
    92ce:	d0ef      	beq.n	92b0 <timer_add_task+0x28>
    92d0:	a801      	add	r0, sp, #4
    92d2:	4b09      	ldr	r3, [pc, #36]	; (92f8 <timer_add_task+0x70>)
    92d4:	4798      	blx	r3
    92d6:	7f23      	ldrb	r3, [r4, #28]
    92d8:	f003 03fd 	and.w	r3, r3, #253	; 0xfd
    92dc:	7723      	strb	r3, [r4, #28]
    92de:	6823      	ldr	r3, [r4, #0]
    92e0:	1d20      	adds	r0, r4, #4
    92e2:	69db      	ldr	r3, [r3, #28]
    92e4:	4798      	blx	r3
    92e6:	a801      	add	r0, sp, #4
    92e8:	4b04      	ldr	r3, [pc, #16]	; (92fc <timer_add_task+0x74>)
    92ea:	4798      	blx	r3
    92ec:	4628      	mov	r0, r5
    92ee:	e7df      	b.n	92b0 <timer_add_task+0x28>
    92f0:	00009a91 	.word	0x00009a91
    92f4:	00009191 	.word	0x00009191
    92f8:	00008cf5 	.word	0x00008cf5
    92fc:	00008d03 	.word	0x00008d03

00009300 <usart_transmission_complete>:
    9300:	4603      	mov	r3, r0
    9302:	2200      	movs	r2, #0
    9304:	629a      	str	r2, [r3, #40]	; 0x28
    9306:	69db      	ldr	r3, [r3, #28]
    9308:	3808      	subs	r0, #8
    930a:	b103      	cbz	r3, 930e <usart_transmission_complete+0xe>
    930c:	4718      	bx	r3
    930e:	4770      	bx	lr

00009310 <usart_error>:
    9310:	4603      	mov	r3, r0
    9312:	2200      	movs	r2, #0
    9314:	629a      	str	r2, [r3, #40]	; 0x28
    9316:	6a5b      	ldr	r3, [r3, #36]	; 0x24
    9318:	3808      	subs	r0, #8
    931a:	b103      	cbz	r3, 931e <usart_error+0xe>
    931c:	4718      	bx	r3
    931e:	4770      	bx	lr

00009320 <usart_fill_rx_buffer>:
    9320:	b570      	push	{r4, r5, r6, lr}
    9322:	4604      	mov	r4, r0
    9324:	4b05      	ldr	r3, [pc, #20]	; (933c <usart_fill_rx_buffer+0x1c>)
    9326:	f1a0 0508 	sub.w	r5, r0, #8
    932a:	302c      	adds	r0, #44	; 0x2c
    932c:	4798      	blx	r3
    932e:	6a23      	ldr	r3, [r4, #32]
    9330:	b11b      	cbz	r3, 933a <usart_fill_rx_buffer+0x1a>
    9332:	4628      	mov	r0, r5
    9334:	e8bd 4070 	ldmia.w	sp!, {r4, r5, r6, lr}
    9338:	4718      	bx	r3
    933a:	bd70      	pop	{r4, r5, r6, pc}
    933c:	00009b0d 	.word	0x00009b0d

00009340 <usart_async_write>:
    9340:	b510      	push	{r4, lr}
    9342:	f8b0 304c 	ldrh.w	r3, [r0, #76]	; 0x4c
    9346:	4614      	mov	r4, r2
    9348:	f8b0 2044 	ldrh.w	r2, [r0, #68]	; 0x44
    934c:	429a      	cmp	r2, r3
    934e:	d10c      	bne.n	936a <usart_async_write+0x2a>
    9350:	2300      	movs	r3, #0
    9352:	f8a0 3044 	strh.w	r3, [r0, #68]	; 0x44
    9356:	2301      	movs	r3, #1
    9358:	6481      	str	r1, [r0, #72]	; 0x48
    935a:	f8a0 404c 	strh.w	r4, [r0, #76]	; 0x4c
    935e:	6303      	str	r3, [r0, #48]	; 0x30
    9360:	3008      	adds	r0, #8
    9362:	4b03      	ldr	r3, [pc, #12]	; (9370 <usart_async_write+0x30>)
    9364:	4798      	blx	r3
    9366:	4620      	mov	r0, r4
    9368:	bd10      	pop	{r4, pc}
    936a:	f06f 001b 	mvn.w	r0, #27
    936e:	bd10      	pop	{r4, pc}
    9370:	0000ae7f 	.word	0x0000ae7f

00009374 <usart_process_byte_sent>:
    9374:	8f83      	ldrh	r3, [r0, #60]	; 0x3c
    9376:	f8b0 2044 	ldrh.w	r2, [r0, #68]	; 0x44
    937a:	429a      	cmp	r2, r3
    937c:	b510      	push	{r4, lr}
    937e:	4604      	mov	r4, r0
    9380:	d00a      	beq.n	9398 <usart_process_byte_sent+0x24>
    9382:	6c02      	ldr	r2, [r0, #64]	; 0x40
    9384:	1c59      	adds	r1, r3, #1
    9386:	8781      	strh	r1, [r0, #60]	; 0x3c
    9388:	5cd1      	ldrb	r1, [r2, r3]
    938a:	4b04      	ldr	r3, [pc, #16]	; (939c <usart_process_byte_sent+0x28>)
    938c:	4798      	blx	r3
    938e:	4b04      	ldr	r3, [pc, #16]	; (93a0 <usart_process_byte_sent+0x2c>)
    9390:	4620      	mov	r0, r4
    9392:	e8bd 4010 	ldmia.w	sp!, {r4, lr}
    9396:	4718      	bx	r3
    9398:	4b02      	ldr	r3, [pc, #8]	; (93a4 <usart_process_byte_sent+0x30>)
    939a:	e7fa      	b.n	9392 <usart_process_byte_sent+0x1e>
    939c:	0000ae53 	.word	0x0000ae53
    93a0:	0000ae7f 	.word	0x0000ae7f
    93a4:	0000ae87 	.word	0x0000ae87

000093a8 <usart_async_read>:
    93a8:	e92d 43f7 	stmdb	sp!, {r0, r1, r2, r4, r5, r6, r7, r8, r9, lr}
    93ac:	4605      	mov	r5, r0
    93ae:	4b0f      	ldr	r3, [pc, #60]	; (93ec <usart_async_read+0x44>)
    93b0:	f8df 9044 	ldr.w	r9, [pc, #68]	; 93f8 <usart_async_read+0x50>
    93b4:	a801      	add	r0, sp, #4
    93b6:	3534      	adds	r5, #52	; 0x34
    93b8:	4688      	mov	r8, r1
    93ba:	4616      	mov	r6, r2
    93bc:	4798      	blx	r3
    93be:	4b0c      	ldr	r3, [pc, #48]	; (93f0 <usart_async_read+0x48>)
    93c0:	4628      	mov	r0, r5
    93c2:	4798      	blx	r3
    93c4:	4b0b      	ldr	r3, [pc, #44]	; (93f4 <usart_async_read+0x4c>)
    93c6:	4607      	mov	r7, r0
    93c8:	a801      	add	r0, sp, #4
    93ca:	4798      	blx	r3
    93cc:	2400      	movs	r4, #0
    93ce:	42a7      	cmp	r7, r4
    93d0:	d001      	beq.n	93d6 <usart_async_read+0x2e>
    93d2:	42b4      	cmp	r4, r6
    93d4:	d103      	bne.n	93de <usart_async_read+0x36>
    93d6:	b2a0      	uxth	r0, r4
    93d8:	b003      	add	sp, #12
    93da:	e8bd 83f0 	ldmia.w	sp!, {r4, r5, r6, r7, r8, r9, pc}
    93de:	eb08 0104 	add.w	r1, r8, r4
    93e2:	4628      	mov	r0, r5
    93e4:	47c8      	blx	r9
    93e6:	3401      	adds	r4, #1
    93e8:	e7f1      	b.n	93ce <usart_async_read+0x26>
    93ea:	bf00      	nop
    93ec:	00008cf5 	.word	0x00008cf5
    93f0:	00009b33 	.word	0x00009b33
    93f4:	00008d03 	.word	0x00008d03
    93f8:	00009aeb 	.word	0x00009aeb

000093fc <usart_async_init>:
    93fc:	b538      	push	{r3, r4, r5, lr}
    93fe:	4604      	mov	r4, r0
    9400:	460d      	mov	r5, r1
    9402:	3034      	adds	r0, #52	; 0x34
    9404:	4611      	mov	r1, r2
    9406:	461a      	mov	r2, r3
    9408:	4b0c      	ldr	r3, [pc, #48]	; (943c <usart_async_init+0x40>)
    940a:	4798      	blx	r3
    940c:	b990      	cbnz	r0, 9434 <usart_async_init+0x38>
    940e:	4629      	mov	r1, r5
    9410:	f104 0008 	add.w	r0, r4, #8
    9414:	4b0a      	ldr	r3, [pc, #40]	; (9440 <usart_async_init+0x44>)
    9416:	4798      	blx	r3
    9418:	b970      	cbnz	r0, 9438 <usart_async_init+0x3c>
    941a:	4b0a      	ldr	r3, [pc, #40]	; (9444 <usart_async_init+0x48>)
    941c:	6063      	str	r3, [r4, #4]
    941e:	4b0a      	ldr	r3, [pc, #40]	; (9448 <usart_async_init+0x4c>)
    9420:	6023      	str	r3, [r4, #0]
    9422:	4b0a      	ldr	r3, [pc, #40]	; (944c <usart_async_init+0x50>)
    9424:	60a3      	str	r3, [r4, #8]
    9426:	4b0a      	ldr	r3, [pc, #40]	; (9450 <usart_async_init+0x54>)
    9428:	60e3      	str	r3, [r4, #12]
    942a:	4b0a      	ldr	r3, [pc, #40]	; (9454 <usart_async_init+0x58>)
    942c:	6123      	str	r3, [r4, #16]
    942e:	4b0a      	ldr	r3, [pc, #40]	; (9458 <usart_async_init+0x5c>)
    9430:	6163      	str	r3, [r4, #20]
    9432:	bd38      	pop	{r3, r4, r5, pc}
    9434:	f06f 000c 	mvn.w	r0, #12
    9438:	bd38      	pop	{r3, r4, r5, pc}
    943a:	bf00      	nop
    943c:	00009ad3 	.word	0x00009ad3
    9440:	0000ada9 	.word	0x0000ada9
    9444:	000093a9 	.word	0x000093a9
    9448:	00009341 	.word	0x00009341
    944c:	00009375 	.word	0x00009375
    9450:	00009321 	.word	0x00009321
    9454:	00009301 	.word	0x00009301
    9458:	00009311 	.word	0x00009311

0000945c <usart_async_enable>:
    945c:	b508      	push	{r3, lr}
    945e:	3008      	adds	r0, #8
    9460:	4b01      	ldr	r3, [pc, #4]	; (9468 <usart_async_enable+0xc>)
    9462:	4798      	blx	r3
    9464:	2000      	movs	r0, #0
    9466:	bd08      	pop	{r3, pc}
    9468:	0000ae21 	.word	0x0000ae21

0000946c <usart_async_disable>:
    946c:	b508      	push	{r3, lr}
    946e:	3008      	adds	r0, #8
    9470:	4b01      	ldr	r3, [pc, #4]	; (9478 <usart_async_disable+0xc>)
    9472:	4798      	blx	r3
    9474:	2000      	movs	r0, #0
    9476:	bd08      	pop	{r3, pc}
    9478:	0000ae35 	.word	0x0000ae35

0000947c <usart_async_get_io_descriptor>:
    947c:	6008      	str	r0, [r1, #0]
    947e:	2000      	movs	r0, #0
    9480:	4770      	bx	lr
	...

00009484 <usart_async_register_callback>:
    9484:	2901      	cmp	r1, #1
    9486:	b508      	push	{r3, lr}
    9488:	d00f      	beq.n	94aa <usart_async_register_callback+0x26>
    948a:	d304      	bcc.n	9496 <usart_async_register_callback+0x12>
    948c:	2902      	cmp	r1, #2
    948e:	d012      	beq.n	94b6 <usart_async_register_callback+0x32>
    9490:	f06f 000c 	mvn.w	r0, #12
    9494:	bd08      	pop	{r3, pc}
    9496:	6282      	str	r2, [r0, #40]	; 0x28
    9498:	3200      	adds	r2, #0
    949a:	bf18      	it	ne
    949c:	2201      	movne	r2, #1
    949e:	2101      	movs	r1, #1
    94a0:	3008      	adds	r0, #8
    94a2:	4b08      	ldr	r3, [pc, #32]	; (94c4 <usart_async_register_callback+0x40>)
    94a4:	4798      	blx	r3
    94a6:	2000      	movs	r0, #0
    94a8:	bd08      	pop	{r3, pc}
    94aa:	6242      	str	r2, [r0, #36]	; 0x24
    94ac:	3200      	adds	r2, #0
    94ae:	bf18      	it	ne
    94b0:	2201      	movne	r2, #1
    94b2:	2102      	movs	r1, #2
    94b4:	e7f4      	b.n	94a0 <usart_async_register_callback+0x1c>
    94b6:	62c2      	str	r2, [r0, #44]	; 0x2c
    94b8:	3200      	adds	r2, #0
    94ba:	bf18      	it	ne
    94bc:	2201      	movne	r2, #1
    94be:	2103      	movs	r1, #3
    94c0:	e7ee      	b.n	94a0 <usart_async_register_callback+0x1c>
    94c2:	bf00      	nop
    94c4:	0000ae8f 	.word	0x0000ae8f

000094c8 <usart_async_set_parity>:
    94c8:	b508      	push	{r3, lr}
    94ca:	3008      	adds	r0, #8
    94cc:	4b01      	ldr	r3, [pc, #4]	; (94d4 <usart_async_set_parity+0xc>)
    94ce:	4798      	blx	r3
    94d0:	2000      	movs	r0, #0
    94d2:	bd08      	pop	{r3, pc}
    94d4:	0000ae41 	.word	0x0000ae41

000094d8 <usart_sync_write>:
    94d8:	e92d 43f8 	stmdb	sp!, {r3, r4, r5, r6, r7, r8, r9, lr}
    94dc:	4c0f      	ldr	r4, [pc, #60]	; (951c <usart_sync_write+0x44>)
    94de:	460f      	mov	r7, r1
    94e0:	4616      	mov	r6, r2
    94e2:	f100 0508 	add.w	r5, r0, #8
    94e6:	46a1      	mov	r9, r4
    94e8:	4628      	mov	r0, r5
    94ea:	47a0      	blx	r4
    94ec:	2800      	cmp	r0, #0
    94ee:	d0fb      	beq.n	94e8 <usart_sync_write+0x10>
    94f0:	f8df 8030 	ldr.w	r8, [pc, #48]	; 9524 <usart_sync_write+0x4c>
    94f4:	2400      	movs	r4, #0
    94f6:	5d39      	ldrb	r1, [r7, r4]
    94f8:	4628      	mov	r0, r5
    94fa:	47c0      	blx	r8
    94fc:	4628      	mov	r0, r5
    94fe:	47c8      	blx	r9
    9500:	2800      	cmp	r0, #0
    9502:	d0fb      	beq.n	94fc <usart_sync_write+0x24>
    9504:	3401      	adds	r4, #1
    9506:	42b4      	cmp	r4, r6
    9508:	d3f5      	bcc.n	94f6 <usart_sync_write+0x1e>
    950a:	4e05      	ldr	r6, [pc, #20]	; (9520 <usart_sync_write+0x48>)
    950c:	4628      	mov	r0, r5
    950e:	47b0      	blx	r6
    9510:	2800      	cmp	r0, #0
    9512:	d0fb      	beq.n	950c <usart_sync_write+0x34>
    9514:	4620      	mov	r0, r4
    9516:	e8bd 83f8 	ldmia.w	sp!, {r3, r4, r5, r6, r7, r8, r9, pc}
    951a:	bf00      	nop
    951c:	0000ae61 	.word	0x0000ae61
    9520:	0000ae6b 	.word	0x0000ae6b
    9524:	0000ae4d 	.word	0x0000ae4d

00009528 <usart_sync_read>:
    9528:	e92d 43f8 	stmdb	sp!, {r3, r4, r5, r6, r7, r8, r9, lr}
    952c:	f8df 9028 	ldr.w	r9, [pc, #40]	; 9558 <usart_sync_read+0x30>
    9530:	f8df 8028 	ldr.w	r8, [pc, #40]	; 955c <usart_sync_read+0x34>
    9534:	460f      	mov	r7, r1
    9536:	4616      	mov	r6, r2
    9538:	2400      	movs	r4, #0
    953a:	f100 0508 	add.w	r5, r0, #8
    953e:	4628      	mov	r0, r5
    9540:	47c8      	blx	r9
    9542:	2800      	cmp	r0, #0
    9544:	d0fb      	beq.n	953e <usart_sync_read+0x16>
    9546:	4628      	mov	r0, r5
    9548:	47c0      	blx	r8
    954a:	5538      	strb	r0, [r7, r4]
    954c:	3401      	adds	r4, #1
    954e:	42b4      	cmp	r4, r6
    9550:	d3f5      	bcc.n	953e <usart_sync_read+0x16>
    9552:	4620      	mov	r0, r4
    9554:	e8bd 83f8 	ldmia.w	sp!, {r3, r4, r5, r6, r7, r8, r9, pc}
    9558:	0000ae75 	.word	0x0000ae75
    955c:	0000ae59 	.word	0x0000ae59

00009560 <usart_sync_init>:
    9560:	b510      	push	{r4, lr}
    9562:	4b05      	ldr	r3, [pc, #20]	; (9578 <usart_sync_init+0x18>)
    9564:	4604      	mov	r4, r0
    9566:	3008      	adds	r0, #8
    9568:	4798      	blx	r3
    956a:	b918      	cbnz	r0, 9574 <usart_sync_init+0x14>
    956c:	4b03      	ldr	r3, [pc, #12]	; (957c <usart_sync_init+0x1c>)
    956e:	6063      	str	r3, [r4, #4]
    9570:	4b03      	ldr	r3, [pc, #12]	; (9580 <usart_sync_init+0x20>)
    9572:	6023      	str	r3, [r4, #0]
    9574:	bd10      	pop	{r4, pc}
    9576:	bf00      	nop
    9578:	0000ad9d 	.word	0x0000ad9d
    957c:	00009529 	.word	0x00009529
    9580:	000094d9 	.word	0x000094d9

00009584 <usart_sync_enable>:
    9584:	b508      	push	{r3, lr}
    9586:	3008      	adds	r0, #8
    9588:	4b01      	ldr	r3, [pc, #4]	; (9590 <usart_sync_enable+0xc>)
    958a:	4798      	blx	r3
    958c:	2000      	movs	r0, #0
    958e:	bd08      	pop	{r3, pc}
    9590:	0000ae0d 	.word	0x0000ae0d

00009594 <_usb_d_find_ep>:
    9594:	490a      	ldr	r1, [pc, #40]	; (95c0 <_usb_d_find_ep+0x2c>)
    9596:	b570      	push	{r4, r5, r6, lr}
    9598:	2300      	movs	r3, #0
    959a:	f000 060f 	and.w	r6, r0, #15
    959e:	015d      	lsls	r5, r3, #5
    95a0:	194c      	adds	r4, r1, r5
    95a2:	b25a      	sxtb	r2, r3
    95a4:	7864      	ldrb	r4, [r4, #1]
    95a6:	4284      	cmp	r4, r0
    95a8:	d008      	beq.n	95bc <_usb_d_find_ep+0x28>
    95aa:	5c6d      	ldrb	r5, [r5, r1]
    95ac:	b90d      	cbnz	r5, 95b2 <_usb_d_find_ep+0x1e>
    95ae:	42a6      	cmp	r6, r4
    95b0:	d004      	beq.n	95bc <_usb_d_find_ep+0x28>
    95b2:	3301      	adds	r3, #1
    95b4:	2b0d      	cmp	r3, #13
    95b6:	d1f2      	bne.n	959e <_usb_d_find_ep+0xa>
    95b8:	f04f 32ff 	mov.w	r2, #4294967295
    95bc:	4610      	mov	r0, r2
    95be:	bd70      	pop	{r4, r5, r6, pc}
    95c0:	200006c8 	.word	0x200006c8

000095c4 <usb_d_dummy_cb_false>:
    95c4:	2000      	movs	r0, #0
    95c6:	4770      	bx	lr

000095c8 <usb_d_cb_trans_more>:
    95c8:	b570      	push	{r4, r5, r6, lr}
    95ca:	4b09      	ldr	r3, [pc, #36]	; (95f0 <usb_d_cb_trans_more+0x28>)
    95cc:	4604      	mov	r4, r0
    95ce:	460d      	mov	r5, r1
    95d0:	4798      	blx	r3
    95d2:	4b08      	ldr	r3, [pc, #32]	; (95f4 <usb_d_cb_trans_more+0x2c>)
    95d4:	eb03 1040 	add.w	r0, r3, r0, lsl #5
    95d8:	7883      	ldrb	r3, [r0, #2]
    95da:	2b03      	cmp	r3, #3
    95dc:	d105      	bne.n	95ea <usb_d_cb_trans_more+0x22>
    95de:	6983      	ldr	r3, [r0, #24]
    95e0:	4629      	mov	r1, r5
    95e2:	4620      	mov	r0, r4
    95e4:	e8bd 4070 	ldmia.w	sp!, {r4, r5, r6, lr}
    95e8:	4718      	bx	r3
    95ea:	2000      	movs	r0, #0
    95ec:	bd70      	pop	{r4, r5, r6, pc}
    95ee:	bf00      	nop
    95f0:	00009595 	.word	0x00009595
    95f4:	200006c8 	.word	0x200006c8

000095f8 <_usb_d_cb_trans_done>:
    95f8:	e92d 43f0 	stmdb	sp!, {r4, r5, r6, r7, r8, r9, lr}
    95fc:	4b3c      	ldr	r3, [pc, #240]	; (96f0 <_usb_d_cb_trans_done+0xf8>)
    95fe:	4c3d      	ldr	r4, [pc, #244]	; (96f4 <_usb_d_cb_trans_done+0xfc>)
    9600:	b085      	sub	sp, #20
    9602:	4680      	mov	r8, r0
    9604:	460f      	mov	r7, r1
    9606:	4691      	mov	r9, r2
    9608:	4798      	blx	r3
    960a:	4603      	mov	r3, r0
    960c:	0146      	lsls	r6, r0, #5
    960e:	2f00      	cmp	r7, #0
    9610:	d149      	bne.n	96a6 <_usb_d_cb_trans_done+0xae>
    9612:	19a5      	adds	r5, r4, r6
    9614:	5da1      	ldrb	r1, [r4, r6]
    9616:	70ef      	strb	r7, [r5, #3]
    9618:	2900      	cmp	r1, #0
    961a:	d13b      	bne.n	9694 <_usb_d_cb_trans_done+0x9c>
    961c:	78aa      	ldrb	r2, [r5, #2]
    961e:	7868      	ldrb	r0, [r5, #1]
    9620:	69ee      	ldr	r6, [r5, #28]
    9622:	2a03      	cmp	r2, #3
    9624:	f04f 0e0c 	mov.w	lr, #12
    9628:	f04f 0220 	mov.w	r2, #32
    962c:	d12b      	bne.n	9686 <_usb_d_cb_trans_done+0x8e>
    962e:	fb12 e203 	smlabb	r2, r2, r3, lr
    9632:	4422      	add	r2, r4
    9634:	2101      	movs	r1, #1
    9636:	f995 700c 	ldrsb.w	r7, [r5, #12]
    963a:	47b0      	blx	r6
    963c:	786b      	ldrb	r3, [r5, #1]
    963e:	b178      	cbz	r0, 9660 <_usb_d_cb_trans_done+0x68>
    9640:	2205      	movs	r2, #5
    9642:	2f00      	cmp	r7, #0
    9644:	70aa      	strb	r2, [r5, #2]
    9646:	f04f 0202 	mov.w	r2, #2
    964a:	bfb4      	ite	lt
    964c:	4618      	movlt	r0, r3
    964e:	f043 0080 	orrge.w	r0, r3, #128	; 0x80
    9652:	70ea      	strb	r2, [r5, #3]
    9654:	2101      	movs	r1, #1
    9656:	4b28      	ldr	r3, [pc, #160]	; (96f8 <_usb_d_cb_trans_done+0x100>)
    9658:	4798      	blx	r3
    965a:	b005      	add	sp, #20
    965c:	e8bd 83f0 	ldmia.w	sp!, {r4, r5, r6, r7, r8, r9, pc}
    9660:	2f00      	cmp	r7, #0
    9662:	bfac      	ite	ge
    9664:	f043 0380 	orrge.w	r3, r3, #128	; 0x80
    9668:	f003 030f 	andlt.w	r3, r3, #15
    966c:	2204      	movs	r2, #4
    966e:	f88d 300c 	strb.w	r3, [sp, #12]
    9672:	2301      	movs	r3, #1
    9674:	9001      	str	r0, [sp, #4]
    9676:	9002      	str	r0, [sp, #8]
    9678:	f88d 300d 	strb.w	r3, [sp, #13]
    967c:	70aa      	strb	r2, [r5, #2]
    967e:	a801      	add	r0, sp, #4
    9680:	4b1e      	ldr	r3, [pc, #120]	; (96fc <_usb_d_cb_trans_done+0x104>)
    9682:	4798      	blx	r3
    9684:	e7e9      	b.n	965a <_usb_d_cb_trans_done+0x62>
    9686:	fb12 e203 	smlabb	r2, r2, r3, lr
    968a:	4422      	add	r2, r4
    968c:	47b0      	blx	r6
    968e:	2302      	movs	r3, #2
    9690:	70ab      	strb	r3, [r5, #2]
    9692:	e7e2      	b.n	965a <_usb_d_cb_trans_done+0x62>
    9694:	2301      	movs	r3, #1
    9696:	70ab      	strb	r3, [r5, #2]
    9698:	4434      	add	r4, r6
    969a:	464a      	mov	r2, r9
    969c:	69e3      	ldr	r3, [r4, #28]
    969e:	78e1      	ldrb	r1, [r4, #3]
    96a0:	4640      	mov	r0, r8
    96a2:	4798      	blx	r3
    96a4:	e7d9      	b.n	965a <_usb_d_cb_trans_done+0x62>
    96a6:	2f01      	cmp	r7, #1
    96a8:	eb04 0306 	add.w	r3, r4, r6
    96ac:	d10b      	bne.n	96c6 <_usb_d_cb_trans_done+0xce>
    96ae:	5da1      	ldrb	r1, [r4, r6]
    96b0:	2202      	movs	r2, #2
    96b2:	70da      	strb	r2, [r3, #3]
    96b4:	b921      	cbnz	r1, 96c0 <_usb_d_cb_trans_done+0xc8>
    96b6:	709a      	strb	r2, [r3, #2]
    96b8:	4640      	mov	r0, r8
    96ba:	4b0f      	ldr	r3, [pc, #60]	; (96f8 <_usb_d_cb_trans_done+0x100>)
    96bc:	4798      	blx	r3
    96be:	e7eb      	b.n	9698 <_usb_d_cb_trans_done+0xa0>
    96c0:	2205      	movs	r2, #5
    96c2:	709a      	strb	r2, [r3, #2]
    96c4:	e7e8      	b.n	9698 <_usb_d_cb_trans_done+0xa0>
    96c6:	2f02      	cmp	r7, #2
    96c8:	d107      	bne.n	96da <_usb_d_cb_trans_done+0xe2>
    96ca:	2204      	movs	r2, #4
    96cc:	70da      	strb	r2, [r3, #3]
    96ce:	5da2      	ldrb	r2, [r4, r6]
    96d0:	b90a      	cbnz	r2, 96d6 <_usb_d_cb_trans_done+0xde>
    96d2:	709f      	strb	r7, [r3, #2]
    96d4:	e7c1      	b.n	965a <_usb_d_cb_trans_done+0x62>
    96d6:	2201      	movs	r2, #1
    96d8:	e7f3      	b.n	96c2 <_usb_d_cb_trans_done+0xca>
    96da:	2f03      	cmp	r7, #3
    96dc:	bf09      	itett	eq
    96de:	2200      	moveq	r2, #0
    96e0:	2206      	movne	r2, #6
    96e2:	709a      	strbeq	r2, [r3, #2]
    96e4:	2205      	moveq	r2, #5
    96e6:	bf18      	it	ne
    96e8:	709a      	strbne	r2, [r3, #2]
    96ea:	70da      	strb	r2, [r3, #3]
    96ec:	e7d4      	b.n	9698 <_usb_d_cb_trans_done+0xa0>
    96ee:	bf00      	nop
    96f0:	00009595 	.word	0x00009595
    96f4:	200006c8 	.word	0x200006c8
    96f8:	0000c531 	.word	0x0000c531
    96fc:	0000c669 	.word	0x0000c669

00009700 <usb_d_cb_trans_setup>:
    9700:	e92d 47f0 	stmdb	sp!, {r4, r5, r6, r7, r8, r9, sl, lr}
    9704:	4b1d      	ldr	r3, [pc, #116]	; (977c <usb_d_cb_trans_setup+0x7c>)
    9706:	4e1e      	ldr	r6, [pc, #120]	; (9780 <usb_d_cb_trans_setup+0x80>)
    9708:	4c1e      	ldr	r4, [pc, #120]	; (9784 <usb_d_cb_trans_setup+0x84>)
    970a:	4605      	mov	r5, r0
    970c:	4798      	blx	r3
    970e:	2720      	movs	r7, #32
    9710:	230c      	movs	r3, #12
    9712:	fb17 3700 	smlabb	r7, r7, r0, r3
    9716:	4437      	add	r7, r6
    9718:	4681      	mov	r9, r0
    971a:	4639      	mov	r1, r7
    971c:	4628      	mov	r0, r5
    971e:	4b1a      	ldr	r3, [pc, #104]	; (9788 <usb_d_cb_trans_setup+0x88>)
    9720:	4798      	blx	r3
    9722:	b2c0      	uxtb	r0, r0
    9724:	2808      	cmp	r0, #8
    9726:	f065 087f 	orn	r8, r5, #127	; 0x7f
    972a:	d009      	beq.n	9740 <usb_d_cb_trans_setup+0x40>
    972c:	2101      	movs	r1, #1
    972e:	4628      	mov	r0, r5
    9730:	47a0      	blx	r4
    9732:	2101      	movs	r1, #1
    9734:	fa5f f088 	uxtb.w	r0, r8
    9738:	4623      	mov	r3, r4
    973a:	e8bd 47f0 	ldmia.w	sp!, {r4, r5, r6, r7, r8, r9, sl, lr}
    973e:	4718      	bx	r3
    9740:	eb06 1649 	add.w	r6, r6, r9, lsl #5
    9744:	2100      	movs	r1, #0
    9746:	4628      	mov	r0, r5
    9748:	fa5f f888 	uxtb.w	r8, r8
    974c:	47a0      	blx	r4
    974e:	f04f 0901 	mov.w	r9, #1
    9752:	2100      	movs	r1, #0
    9754:	4640      	mov	r0, r8
    9756:	47a0      	blx	r4
    9758:	f886 9002 	strb.w	r9, [r6, #2]
    975c:	6973      	ldr	r3, [r6, #20]
    975e:	4639      	mov	r1, r7
    9760:	4628      	mov	r0, r5
    9762:	4798      	blx	r3
    9764:	b938      	cbnz	r0, 9776 <usb_d_cb_trans_setup+0x76>
    9766:	2305      	movs	r3, #5
    9768:	4649      	mov	r1, r9
    976a:	70b3      	strb	r3, [r6, #2]
    976c:	4628      	mov	r0, r5
    976e:	47a0      	blx	r4
    9770:	4649      	mov	r1, r9
    9772:	4640      	mov	r0, r8
    9774:	e7e0      	b.n	9738 <usb_d_cb_trans_setup+0x38>
    9776:	e8bd 87f0 	ldmia.w	sp!, {r4, r5, r6, r7, r8, r9, sl, pc}
    977a:	bf00      	nop
    977c:	00009595 	.word	0x00009595
    9780:	200006c8 	.word	0x200006c8
    9784:	0000c531 	.word	0x0000c531
    9788:	0000c615 	.word	0x0000c615

0000978c <usb_d_init>:
    978c:	b510      	push	{r4, lr}
    978e:	4b11      	ldr	r3, [pc, #68]	; (97d4 <usb_d_init+0x48>)
    9790:	4798      	blx	r3
    9792:	2800      	cmp	r0, #0
    9794:	db1c      	blt.n	97d0 <usb_d_init+0x44>
    9796:	f44f 72d0 	mov.w	r2, #416	; 0x1a0
    979a:	2100      	movs	r1, #0
    979c:	4b0e      	ldr	r3, [pc, #56]	; (97d8 <usb_d_init+0x4c>)
    979e:	480f      	ldr	r0, [pc, #60]	; (97dc <usb_d_init+0x50>)
    97a0:	4798      	blx	r3
    97a2:	4b0e      	ldr	r3, [pc, #56]	; (97dc <usb_d_init+0x50>)
    97a4:	4a0e      	ldr	r2, [pc, #56]	; (97e0 <usb_d_init+0x54>)
    97a6:	f503 71d0 	add.w	r1, r3, #416	; 0x1a0
    97aa:	20ff      	movs	r0, #255	; 0xff
    97ac:	7058      	strb	r0, [r3, #1]
    97ae:	615a      	str	r2, [r3, #20]
    97b0:	619a      	str	r2, [r3, #24]
    97b2:	61da      	str	r2, [r3, #28]
    97b4:	3320      	adds	r3, #32
    97b6:	428b      	cmp	r3, r1
    97b8:	d1f8      	bne.n	97ac <usb_d_init+0x20>
    97ba:	4c0a      	ldr	r4, [pc, #40]	; (97e4 <usb_d_init+0x58>)
    97bc:	490a      	ldr	r1, [pc, #40]	; (97e8 <usb_d_init+0x5c>)
    97be:	2000      	movs	r0, #0
    97c0:	47a0      	blx	r4
    97c2:	490a      	ldr	r1, [pc, #40]	; (97ec <usb_d_init+0x60>)
    97c4:	2001      	movs	r0, #1
    97c6:	47a0      	blx	r4
    97c8:	2002      	movs	r0, #2
    97ca:	4909      	ldr	r1, [pc, #36]	; (97f0 <usb_d_init+0x64>)
    97cc:	47a0      	blx	r4
    97ce:	2000      	movs	r0, #0
    97d0:	bd10      	pop	{r4, pc}
    97d2:	bf00      	nop
    97d4:	0000c101 	.word	0x0000c101
    97d8:	0000ea0f 	.word	0x0000ea0f
    97dc:	200006c8 	.word	0x200006c8
    97e0:	000095c5 	.word	0x000095c5
    97e4:	0000c795 	.word	0x0000c795
    97e8:	00009701 	.word	0x00009701
    97ec:	000095c9 	.word	0x000095c9
    97f0:	000095f9 	.word	0x000095f9

000097f4 <usb_d_register_callback>:
    97f4:	4b00      	ldr	r3, [pc, #0]	; (97f8 <usb_d_register_callback+0x4>)
    97f6:	4718      	bx	r3
    97f8:	0000c771 	.word	0x0000c771

000097fc <usb_d_enable>:
    97fc:	4b00      	ldr	r3, [pc, #0]	; (9800 <usb_d_enable+0x4>)
    97fe:	4718      	bx	r3
    9800:	0000c1e9 	.word	0x0000c1e9

00009804 <usb_d_attach>:
    9804:	4b00      	ldr	r3, [pc, #0]	; (9808 <usb_d_attach+0x4>)
    9806:	4718      	bx	r3
    9808:	0000c245 	.word	0x0000c245

0000980c <usb_d_get_frame_num>:
    980c:	4b00      	ldr	r3, [pc, #0]	; (9810 <usb_d_get_frame_num+0x4>)
    980e:	4718      	bx	r3
    9810:	0000c263 	.word	0x0000c263

00009814 <usb_d_set_address>:
    9814:	4b00      	ldr	r3, [pc, #0]	; (9818 <usb_d_set_address+0x4>)
    9816:	4718      	bx	r3
    9818:	0000c257 	.word	0x0000c257

0000981c <usb_d_ep_init>:
    981c:	b5f8      	push	{r3, r4, r5, r6, r7, lr}
    981e:	4c10      	ldr	r4, [pc, #64]	; (9860 <usb_d_ep_init+0x44>)
    9820:	4606      	mov	r6, r0
    9822:	460d      	mov	r5, r1
    9824:	4617      	mov	r7, r2
    9826:	47a0      	blx	r4
    9828:	2800      	cmp	r0, #0
    982a:	da13      	bge.n	9854 <usb_d_ep_init+0x38>
    982c:	20ff      	movs	r0, #255	; 0xff
    982e:	47a0      	blx	r4
    9830:	1e04      	subs	r4, r0, #0
    9832:	db12      	blt.n	985a <usb_d_ep_init+0x3e>
    9834:	463a      	mov	r2, r7
    9836:	4629      	mov	r1, r5
    9838:	4630      	mov	r0, r6
    983a:	4b0a      	ldr	r3, [pc, #40]	; (9864 <usb_d_ep_init+0x48>)
    983c:	4798      	blx	r3
    983e:	2800      	cmp	r0, #0
    9840:	db0d      	blt.n	985e <usb_d_ep_init+0x42>
    9842:	4b09      	ldr	r3, [pc, #36]	; (9868 <usb_d_ep_init+0x4c>)
    9844:	0160      	lsls	r0, r4, #5
    9846:	181a      	adds	r2, r3, r0
    9848:	f005 0503 	and.w	r5, r5, #3
    984c:	541d      	strb	r5, [r3, r0]
    984e:	7056      	strb	r6, [r2, #1]
    9850:	2000      	movs	r0, #0
    9852:	bdf8      	pop	{r3, r4, r5, r6, r7, pc}
    9854:	f06f 0013 	mvn.w	r0, #19
    9858:	bdf8      	pop	{r3, r4, r5, r6, r7, pc}
    985a:	f06f 0014 	mvn.w	r0, #20
    985e:	bdf8      	pop	{r3, r4, r5, r6, r7, pc}
    9860:	00009595 	.word	0x00009595
    9864:	0000c271 	.word	0x0000c271
    9868:	200006c8 	.word	0x200006c8

0000986c <usb_d_ep0_init>:
    986c:	2100      	movs	r1, #0
    986e:	4602      	mov	r2, r0
    9870:	4b01      	ldr	r3, [pc, #4]	; (9878 <usb_d_ep0_init+0xc>)
    9872:	4608      	mov	r0, r1
    9874:	4718      	bx	r3
    9876:	bf00      	nop
    9878:	0000981d 	.word	0x0000981d

0000987c <usb_d_ep_deinit>:
    987c:	b538      	push	{r3, r4, r5, lr}
    987e:	4b07      	ldr	r3, [pc, #28]	; (989c <usb_d_ep_deinit+0x20>)
    9880:	4605      	mov	r5, r0
    9882:	4798      	blx	r3
    9884:	1e04      	subs	r4, r0, #0
    9886:	db07      	blt.n	9898 <usb_d_ep_deinit+0x1c>
    9888:	4628      	mov	r0, r5
    988a:	4b05      	ldr	r3, [pc, #20]	; (98a0 <usb_d_ep_deinit+0x24>)
    988c:	4798      	blx	r3
    988e:	4805      	ldr	r0, [pc, #20]	; (98a4 <usb_d_ep_deinit+0x28>)
    9890:	eb00 1044 	add.w	r0, r0, r4, lsl #5
    9894:	23ff      	movs	r3, #255	; 0xff
    9896:	7043      	strb	r3, [r0, #1]
    9898:	bd38      	pop	{r3, r4, r5, pc}
    989a:	bf00      	nop
    989c:	00009595 	.word	0x00009595
    98a0:	0000c331 	.word	0x0000c331
    98a4:	200006c8 	.word	0x200006c8

000098a8 <usb_d_ep_enable>:
    98a8:	b538      	push	{r3, r4, r5, lr}
    98aa:	4b0c      	ldr	r3, [pc, #48]	; (98dc <usb_d_ep_enable+0x34>)
    98ac:	4605      	mov	r5, r0
    98ae:	4798      	blx	r3
    98b0:	2800      	cmp	r0, #0
    98b2:	db10      	blt.n	98d6 <usb_d_ep_enable+0x2e>
    98b4:	0140      	lsls	r0, r0, #5
    98b6:	4c0a      	ldr	r4, [pc, #40]	; (98e0 <usb_d_ep_enable+0x38>)
    98b8:	5c23      	ldrb	r3, [r4, r0]
    98ba:	4404      	add	r4, r0
    98bc:	2b00      	cmp	r3, #0
    98be:	bf0c      	ite	eq
    98c0:	2302      	moveq	r3, #2
    98c2:	2301      	movne	r3, #1
    98c4:	70a3      	strb	r3, [r4, #2]
    98c6:	4628      	mov	r0, r5
    98c8:	4b06      	ldr	r3, [pc, #24]	; (98e4 <usb_d_ep_enable+0x3c>)
    98ca:	4798      	blx	r3
    98cc:	2800      	cmp	r0, #0
    98ce:	da04      	bge.n	98da <usb_d_ep_enable+0x32>
    98d0:	2300      	movs	r3, #0
    98d2:	70a3      	strb	r3, [r4, #2]
    98d4:	bd38      	pop	{r3, r4, r5, pc}
    98d6:	f06f 0011 	mvn.w	r0, #17
    98da:	bd38      	pop	{r3, r4, r5, pc}
    98dc:	00009595 	.word	0x00009595
    98e0:	200006c8 	.word	0x200006c8
    98e4:	0000c3b5 	.word	0x0000c3b5

000098e8 <usb_d_ep_transfer>:
    98e8:	e92d 4ff0 	stmdb	sp!, {r4, r5, r6, r7, r8, r9, sl, fp, lr}
    98ec:	f890 a008 	ldrb.w	sl, [r0, #8]
    98f0:	4b36      	ldr	r3, [pc, #216]	; (99cc <usb_d_ep_transfer+0xe4>)
    98f2:	4607      	mov	r7, r0
    98f4:	b087      	sub	sp, #28
    98f6:	4650      	mov	r0, sl
    98f8:	4798      	blx	r3
    98fa:	f1b0 0800 	subs.w	r8, r0, #0
    98fe:	f897 9009 	ldrb.w	r9, [r7, #9]
    9902:	687e      	ldr	r6, [r7, #4]
    9904:	db5d      	blt.n	99c2 <usb_d_ep_transfer+0xda>
    9906:	f8df b0d4 	ldr.w	fp, [pc, #212]	; 99dc <usb_d_ep_transfer+0xf4>
    990a:	4b31      	ldr	r3, [pc, #196]	; (99d0 <usb_d_ep_transfer+0xe8>)
    990c:	ea4f 1848 	mov.w	r8, r8, lsl #5
    9910:	eb0b 0508 	add.w	r5, fp, r8
    9914:	a802      	add	r0, sp, #8
    9916:	4798      	blx	r3
    9918:	78ab      	ldrb	r3, [r5, #2]
    991a:	f88d 3007 	strb.w	r3, [sp, #7]
    991e:	f89d 0007 	ldrb.w	r0, [sp, #7]
    9922:	4b2c      	ldr	r3, [pc, #176]	; (99d4 <usb_d_ep_transfer+0xec>)
    9924:	b2c4      	uxtb	r4, r0
    9926:	2c01      	cmp	r4, #1
    9928:	d11c      	bne.n	9964 <usb_d_ep_transfer+0x7c>
    992a:	2203      	movs	r2, #3
    992c:	70aa      	strb	r2, [r5, #2]
    992e:	a802      	add	r0, sp, #8
    9930:	4798      	blx	r3
    9932:	f81b 3008 	ldrb.w	r3, [fp, r8]
    9936:	b34b      	cbz	r3, 998c <usb_d_ep_transfer+0xa4>
    9938:	f119 0300 	adds.w	r3, r9, #0
    993c:	ea4f 14da 	mov.w	r4, sl, lsr #7
    9940:	bf18      	it	ne
    9942:	2301      	movne	r3, #1
    9944:	6839      	ldr	r1, [r7, #0]
    9946:	7a3a      	ldrb	r2, [r7, #8]
    9948:	9103      	str	r1, [sp, #12]
    994a:	9604      	str	r6, [sp, #16]
    994c:	2c00      	cmp	r4, #0
    994e:	d035      	beq.n	99bc <usb_d_ep_transfer+0xd4>
    9950:	f042 0280 	orr.w	r2, r2, #128	; 0x80
    9954:	f88d 3015 	strb.w	r3, [sp, #21]
    9958:	a803      	add	r0, sp, #12
    995a:	4b1f      	ldr	r3, [pc, #124]	; (99d8 <usb_d_ep_transfer+0xf0>)
    995c:	f88d 2014 	strb.w	r2, [sp, #20]
    9960:	4798      	blx	r3
    9962:	e00d      	b.n	9980 <usb_d_ep_transfer+0x98>
    9964:	a802      	add	r0, sp, #8
    9966:	4798      	blx	r3
    9968:	f89d 3007 	ldrb.w	r3, [sp, #7]
    996c:	b2db      	uxtb	r3, r3
    996e:	2b05      	cmp	r3, #5
    9970:	d02a      	beq.n	99c8 <usb_d_ep_transfer+0xe0>
    9972:	2b06      	cmp	r3, #6
    9974:	d007      	beq.n	9986 <usb_d_ep_transfer+0x9e>
    9976:	2b00      	cmp	r3, #0
    9978:	bf0c      	ite	eq
    997a:	f06f 0012 	mvneq.w	r0, #18
    997e:	2001      	movne	r0, #1
    9980:	b007      	add	sp, #28
    9982:	e8bd 8ff0 	ldmia.w	sp!, {r4, r5, r6, r7, r8, r9, sl, fp, pc}
    9986:	f06f 000f 	mvn.w	r0, #15
    998a:	e7f9      	b.n	9980 <usb_d_ep_transfer+0x98>
    998c:	7ce9      	ldrb	r1, [r5, #19]
    998e:	7caa      	ldrb	r2, [r5, #18]
    9990:	eb02 2201 	add.w	r2, r2, r1, lsl #8
    9994:	b292      	uxth	r2, r2
    9996:	b92a      	cbnz	r2, 99a4 <usb_d_ep_transfer+0xbc>
    9998:	2304      	movs	r3, #4
    999a:	70ab      	strb	r3, [r5, #2]
    999c:	4616      	mov	r6, r2
    999e:	4623      	mov	r3, r4
    99a0:	461c      	mov	r4, r3
    99a2:	e7cf      	b.n	9944 <usb_d_ep_transfer+0x5c>
    99a4:	f995 100c 	ldrsb.w	r1, [r5, #12]
    99a8:	4296      	cmp	r6, r2
    99aa:	bf28      	it	cs
    99ac:	4616      	movcs	r6, r2
    99ae:	2900      	cmp	r1, #0
    99b0:	daf6      	bge.n	99a0 <usb_d_ep_transfer+0xb8>
    99b2:	42b2      	cmp	r2, r6
    99b4:	bf94      	ite	ls
    99b6:	2300      	movls	r3, #0
    99b8:	2301      	movhi	r3, #1
    99ba:	e7c3      	b.n	9944 <usb_d_ep_transfer+0x5c>
    99bc:	f002 020f 	and.w	r2, r2, #15
    99c0:	e7c8      	b.n	9954 <usb_d_ep_transfer+0x6c>
    99c2:	f06f 0011 	mvn.w	r0, #17
    99c6:	e7db      	b.n	9980 <usb_d_ep_transfer+0x98>
    99c8:	2002      	movs	r0, #2
    99ca:	e7d9      	b.n	9980 <usb_d_ep_transfer+0x98>
    99cc:	00009595 	.word	0x00009595
    99d0:	00008cf5 	.word	0x00008cf5
    99d4:	00008d03 	.word	0x00008d03
    99d8:	0000c669 	.word	0x0000c669
    99dc:	200006c8 	.word	0x200006c8

000099e0 <usb_d_ep_halt>:
    99e0:	e92d 41f0 	stmdb	sp!, {r4, r5, r6, r7, r8, lr}
    99e4:	4605      	mov	r5, r0
    99e6:	460c      	mov	r4, r1
    99e8:	b9d9      	cbnz	r1, 9a22 <usb_d_ep_halt+0x42>
    99ea:	4b13      	ldr	r3, [pc, #76]	; (9a38 <usb_d_ep_halt+0x58>)
    99ec:	4798      	blx	r3
    99ee:	1e07      	subs	r7, r0, #0
    99f0:	db1e      	blt.n	9a30 <usb_d_ep_halt+0x50>
    99f2:	2102      	movs	r1, #2
    99f4:	4628      	mov	r0, r5
    99f6:	4e11      	ldr	r6, [pc, #68]	; (9a3c <usb_d_ep_halt+0x5c>)
    99f8:	47b0      	blx	r6
    99fa:	b1d8      	cbz	r0, 9a34 <usb_d_ep_halt+0x54>
    99fc:	4621      	mov	r1, r4
    99fe:	4628      	mov	r0, r5
    9a00:	47b0      	blx	r6
    9a02:	2800      	cmp	r0, #0
    9a04:	db16      	blt.n	9a34 <usb_d_ep_halt+0x54>
    9a06:	480e      	ldr	r0, [pc, #56]	; (9a40 <usb_d_ep_halt+0x60>)
    9a08:	eb00 1047 	add.w	r0, r0, r7, lsl #5
    9a0c:	2103      	movs	r1, #3
    9a0e:	2301      	movs	r3, #1
    9a10:	7083      	strb	r3, [r0, #2]
    9a12:	70c1      	strb	r1, [r0, #3]
    9a14:	69c3      	ldr	r3, [r0, #28]
    9a16:	4622      	mov	r2, r4
    9a18:	4628      	mov	r0, r5
    9a1a:	4798      	blx	r3
    9a1c:	4620      	mov	r0, r4
    9a1e:	e8bd 81f0 	ldmia.w	sp!, {r4, r5, r6, r7, r8, pc}
    9a22:	2901      	cmp	r1, #1
    9a24:	4b05      	ldr	r3, [pc, #20]	; (9a3c <usb_d_ep_halt+0x5c>)
    9a26:	bf18      	it	ne
    9a28:	2102      	movne	r1, #2
    9a2a:	e8bd 41f0 	ldmia.w	sp!, {r4, r5, r6, r7, r8, lr}
    9a2e:	4718      	bx	r3
    9a30:	f06f 0011 	mvn.w	r0, #17
    9a34:	e8bd 81f0 	ldmia.w	sp!, {r4, r5, r6, r7, r8, pc}
    9a38:	00009595 	.word	0x00009595
    9a3c:	0000c531 	.word	0x0000c531
    9a40:	200006c8 	.word	0x200006c8

00009a44 <usb_d_ep_register_callback>:
    9a44:	b538      	push	{r3, r4, r5, lr}
    9a46:	4b0f      	ldr	r3, [pc, #60]	; (9a84 <usb_d_ep_register_callback+0x40>)
    9a48:	4614      	mov	r4, r2
    9a4a:	460d      	mov	r5, r1
    9a4c:	4798      	blx	r3
    9a4e:	4a0e      	ldr	r2, [pc, #56]	; (9a88 <usb_d_ep_register_callback+0x44>)
    9a50:	2c00      	cmp	r4, #0
    9a52:	bf08      	it	eq
    9a54:	4614      	moveq	r4, r2
    9a56:	2800      	cmp	r0, #0
    9a58:	db13      	blt.n	9a82 <usb_d_ep_register_callback+0x3e>
    9a5a:	2d01      	cmp	r5, #1
    9a5c:	d008      	beq.n	9a70 <usb_d_ep_register_callback+0x2c>
    9a5e:	d302      	bcc.n	9a66 <usb_d_ep_register_callback+0x22>
    9a60:	2d02      	cmp	r5, #2
    9a62:	d00a      	beq.n	9a7a <usb_d_ep_register_callback+0x36>
    9a64:	bd38      	pop	{r3, r4, r5, pc}
    9a66:	4b09      	ldr	r3, [pc, #36]	; (9a8c <usb_d_ep_register_callback+0x48>)
    9a68:	eb03 1040 	add.w	r0, r3, r0, lsl #5
    9a6c:	6144      	str	r4, [r0, #20]
    9a6e:	bd38      	pop	{r3, r4, r5, pc}
    9a70:	4b06      	ldr	r3, [pc, #24]	; (9a8c <usb_d_ep_register_callback+0x48>)
    9a72:	eb03 1040 	add.w	r0, r3, r0, lsl #5
    9a76:	6184      	str	r4, [r0, #24]
    9a78:	bd38      	pop	{r3, r4, r5, pc}
    9a7a:	4b04      	ldr	r3, [pc, #16]	; (9a8c <usb_d_ep_register_callback+0x48>)
    9a7c:	eb03 1040 	add.w	r0, r3, r0, lsl #5
    9a80:	61c4      	str	r4, [r0, #28]
    9a82:	bd38      	pop	{r3, r4, r5, pc}
    9a84:	00009595 	.word	0x00009595
    9a88:	000095c5 	.word	0x000095c5
    9a8c:	200006c8 	.word	0x200006c8

00009a90 <is_list_element>:
    9a90:	6800      	ldr	r0, [r0, #0]
    9a92:	b900      	cbnz	r0, 9a96 <is_list_element+0x6>
    9a94:	4770      	bx	lr
    9a96:	4288      	cmp	r0, r1
    9a98:	d1fa      	bne.n	9a90 <is_list_element>
    9a9a:	2001      	movs	r0, #1
    9a9c:	4770      	bx	lr

00009a9e <list_insert_as_head>:
    9a9e:	6803      	ldr	r3, [r0, #0]
    9aa0:	600b      	str	r3, [r1, #0]
    9aa2:	6001      	str	r1, [r0, #0]
    9aa4:	4770      	bx	lr

00009aa6 <list_insert_after>:
    9aa6:	6803      	ldr	r3, [r0, #0]
    9aa8:	600b      	str	r3, [r1, #0]
    9aaa:	6001      	str	r1, [r0, #0]
    9aac:	4770      	bx	lr

00009aae <list_insert_at_end>:
    9aae:	6803      	ldr	r3, [r0, #0]
    9ab0:	b91b      	cbnz	r3, 9aba <list_insert_at_end+0xc>
    9ab2:	6001      	str	r1, [r0, #0]
    9ab4:	600b      	str	r3, [r1, #0]
    9ab6:	4770      	bx	lr
    9ab8:	4613      	mov	r3, r2
    9aba:	681a      	ldr	r2, [r3, #0]
    9abc:	2a00      	cmp	r2, #0
    9abe:	d1fb      	bne.n	9ab8 <list_insert_at_end+0xa>
    9ac0:	6019      	str	r1, [r3, #0]
    9ac2:	600a      	str	r2, [r1, #0]
    9ac4:	4770      	bx	lr

00009ac6 <list_remove_head>:
    9ac6:	6803      	ldr	r3, [r0, #0]
    9ac8:	b10b      	cbz	r3, 9ace <list_remove_head+0x8>
    9aca:	681a      	ldr	r2, [r3, #0]
    9acc:	6002      	str	r2, [r0, #0]
    9ace:	4618      	mov	r0, r3
    9ad0:	4770      	bx	lr

00009ad2 <ringbuffer_init>:
    9ad2:	1e53      	subs	r3, r2, #1
    9ad4:	401a      	ands	r2, r3
    9ad6:	bf01      	itttt	eq
    9ad8:	6043      	streq	r3, [r0, #4]
    9ada:	6082      	streq	r2, [r0, #8]
    9adc:	60c2      	streq	r2, [r0, #12]
    9ade:	6001      	streq	r1, [r0, #0]
    9ae0:	bf0c      	ite	eq
    9ae2:	4610      	moveq	r0, r2
    9ae4:	f06f 000c 	mvnne.w	r0, #12
    9ae8:	4770      	bx	lr

00009aea <ringbuffer_get>:
    9aea:	6883      	ldr	r3, [r0, #8]
    9aec:	68c2      	ldr	r2, [r0, #12]
    9aee:	429a      	cmp	r2, r3
    9af0:	d009      	beq.n	9b06 <ringbuffer_get+0x1c>
    9af2:	6842      	ldr	r2, [r0, #4]
    9af4:	4013      	ands	r3, r2
    9af6:	6802      	ldr	r2, [r0, #0]
    9af8:	5cd3      	ldrb	r3, [r2, r3]
    9afa:	700b      	strb	r3, [r1, #0]
    9afc:	6883      	ldr	r3, [r0, #8]
    9afe:	3301      	adds	r3, #1
    9b00:	6083      	str	r3, [r0, #8]
    9b02:	2000      	movs	r0, #0
    9b04:	4770      	bx	lr
    9b06:	f06f 0009 	mvn.w	r0, #9
    9b0a:	4770      	bx	lr

00009b0c <ringbuffer_put>:
    9b0c:	68c3      	ldr	r3, [r0, #12]
    9b0e:	6842      	ldr	r2, [r0, #4]
    9b10:	4013      	ands	r3, r2
    9b12:	6802      	ldr	r2, [r0, #0]
    9b14:	54d1      	strb	r1, [r2, r3]
    9b16:	68c3      	ldr	r3, [r0, #12]
    9b18:	6881      	ldr	r1, [r0, #8]
    9b1a:	6842      	ldr	r2, [r0, #4]
    9b1c:	1a59      	subs	r1, r3, r1
    9b1e:	4291      	cmp	r1, r2
    9b20:	bf88      	it	hi
    9b22:	1a9a      	subhi	r2, r3, r2
    9b24:	f103 0301 	add.w	r3, r3, #1
    9b28:	bf88      	it	hi
    9b2a:	6082      	strhi	r2, [r0, #8]
    9b2c:	60c3      	str	r3, [r0, #12]
    9b2e:	2000      	movs	r0, #0
    9b30:	4770      	bx	lr

00009b32 <ringbuffer_num>:
    9b32:	68c2      	ldr	r2, [r0, #12]
    9b34:	6880      	ldr	r0, [r0, #8]
    9b36:	1a10      	subs	r0, r2, r0
    9b38:	4770      	bx	lr
	...

00009b3c <_sbrk>:
    9b3c:	4b04      	ldr	r3, [pc, #16]	; (9b50 <_sbrk+0x14>)
    9b3e:	6819      	ldr	r1, [r3, #0]
    9b40:	4602      	mov	r2, r0
    9b42:	b909      	cbnz	r1, 9b48 <_sbrk+0xc>
    9b44:	4903      	ldr	r1, [pc, #12]	; (9b54 <_sbrk+0x18>)
    9b46:	6019      	str	r1, [r3, #0]
    9b48:	6818      	ldr	r0, [r3, #0]
    9b4a:	4402      	add	r2, r0
    9b4c:	601a      	str	r2, [r3, #0]
    9b4e:	4770      	bx	lr
    9b50:	20000868 	.word	0x20000868
    9b54:	20018210 	.word	0x20018210

00009b58 <_close>:
    9b58:	f04f 30ff 	mov.w	r0, #4294967295
    9b5c:	4770      	bx	lr

00009b5e <_fstat>:
    9b5e:	f44f 5300 	mov.w	r3, #8192	; 0x2000
    9b62:	604b      	str	r3, [r1, #4]
    9b64:	2000      	movs	r0, #0
    9b66:	4770      	bx	lr

00009b68 <_isatty>:
    9b68:	2001      	movs	r0, #1
    9b6a:	4770      	bx	lr

00009b6c <_lseek>:
    9b6c:	2000      	movs	r0, #0
    9b6e:	4770      	bx	lr

00009b70 <__NVIC_DisableIRQ>:
    9b70:	2800      	cmp	r0, #0
    9b72:	db0d      	blt.n	9b90 <__NVIC_DisableIRQ+0x20>
    9b74:	0943      	lsrs	r3, r0, #5
    9b76:	2201      	movs	r2, #1
    9b78:	f000 001f 	and.w	r0, r0, #31
    9b7c:	fa02 f000 	lsl.w	r0, r2, r0
    9b80:	3320      	adds	r3, #32
    9b82:	4a04      	ldr	r2, [pc, #16]	; (9b94 <__NVIC_DisableIRQ+0x24>)
    9b84:	f842 0023 	str.w	r0, [r2, r3, lsl #2]
    9b88:	f3bf 8f4f 	dsb	sy
    9b8c:	f3bf 8f6f 	isb	sy
    9b90:	4770      	bx	lr
    9b92:	bf00      	nop
    9b94:	e000e100 	.word	0xe000e100

00009b98 <__NVIC_ClearPendingIRQ>:
    9b98:	2800      	cmp	r0, #0
    9b9a:	db09      	blt.n	9bb0 <__NVIC_ClearPendingIRQ+0x18>
    9b9c:	0943      	lsrs	r3, r0, #5
    9b9e:	2201      	movs	r2, #1
    9ba0:	f000 001f 	and.w	r0, r0, #31
    9ba4:	fa02 f000 	lsl.w	r0, r2, r0
    9ba8:	3360      	adds	r3, #96	; 0x60
    9baa:	4a02      	ldr	r2, [pc, #8]	; (9bb4 <__NVIC_ClearPendingIRQ+0x1c>)
    9bac:	f842 0023 	str.w	r0, [r2, r3, lsl #2]
    9bb0:	4770      	bx	lr
    9bb2:	bf00      	nop
    9bb4:	e000e100 	.word	0xe000e100

00009bb8 <hri_adc_wait_for_sync>:
    9bb8:	6b03      	ldr	r3, [r0, #48]	; 0x30
    9bba:	420b      	tst	r3, r1
    9bbc:	d1fc      	bne.n	9bb8 <hri_adc_wait_for_sync>
    9bbe:	4770      	bx	lr

00009bc0 <hri_adc_set_CTRLA_ENABLE_bit>:
    9bc0:	8803      	ldrh	r3, [r0, #0]
    9bc2:	b29b      	uxth	r3, r3
    9bc4:	f043 0302 	orr.w	r3, r3, #2
    9bc8:	8003      	strh	r3, [r0, #0]
    9bca:	2103      	movs	r1, #3
    9bcc:	4b00      	ldr	r3, [pc, #0]	; (9bd0 <hri_adc_set_CTRLA_ENABLE_bit+0x10>)
    9bce:	4718      	bx	r3
    9bd0:	00009bb9 	.word	0x00009bb9

00009bd4 <hri_adc_clear_CTRLA_ENABLE_bit>:
    9bd4:	8803      	ldrh	r3, [r0, #0]
    9bd6:	f023 0302 	bic.w	r3, r3, #2
    9bda:	041b      	lsls	r3, r3, #16
    9bdc:	0c1b      	lsrs	r3, r3, #16
    9bde:	8003      	strh	r3, [r0, #0]
    9be0:	2103      	movs	r1, #3
    9be2:	4b01      	ldr	r3, [pc, #4]	; (9be8 <hri_adc_clear_CTRLA_ENABLE_bit+0x14>)
    9be4:	4718      	bx	r3
    9be6:	bf00      	nop
    9be8:	00009bb9 	.word	0x00009bb9

00009bec <_adc_get_regs>:
    9bec:	f100 403d 	add.w	r0, r0, #3170893824	; 0xbd000000
    9bf0:	f5a0 50e0 	sub.w	r0, r0, #7168	; 0x1c00
    9bf4:	f3c0 2087 	ubfx	r0, r0, #10, #8
    9bf8:	1e43      	subs	r3, r0, #1
    9bfa:	4258      	negs	r0, r3
    9bfc:	4158      	adcs	r0, r3
    9bfe:	4770      	bx	lr

00009c00 <_adc_interrupt_handler>:
    9c00:	b430      	push	{r4, r5}
    9c02:	6942      	ldr	r2, [r0, #20]
    9c04:	f892 102e 	ldrb.w	r1, [r2, #46]	; 0x2e
    9c08:	f892 302d 	ldrb.w	r3, [r2, #45]	; 0x2d
    9c0c:	400b      	ands	r3, r1
    9c0e:	f013 0501 	ands.w	r5, r3, #1
    9c12:	d009      	beq.n	9c28 <_adc_interrupt_handler+0x28>
    9c14:	2301      	movs	r3, #1
    9c16:	f882 302e 	strb.w	r3, [r2, #46]	; 0x2e
    9c1a:	f8b2 2040 	ldrh.w	r2, [r2, #64]	; 0x40
    9c1e:	6883      	ldr	r3, [r0, #8]
    9c20:	b292      	uxth	r2, r2
    9c22:	2100      	movs	r1, #0
    9c24:	bc30      	pop	{r4, r5}
    9c26:	4718      	bx	r3
    9c28:	f013 0102 	ands.w	r1, r3, #2
    9c2c:	d006      	beq.n	9c3c <_adc_interrupt_handler+0x3c>
    9c2e:	2302      	movs	r3, #2
    9c30:	f882 302e 	strb.w	r3, [r2, #46]	; 0x2e
    9c34:	6843      	ldr	r3, [r0, #4]
    9c36:	4629      	mov	r1, r5
    9c38:	bc30      	pop	{r4, r5}
    9c3a:	4718      	bx	r3
    9c3c:	075b      	lsls	r3, r3, #29
    9c3e:	d504      	bpl.n	9c4a <_adc_interrupt_handler+0x4a>
    9c40:	2304      	movs	r3, #4
    9c42:	f882 302e 	strb.w	r3, [r2, #46]	; 0x2e
    9c46:	6803      	ldr	r3, [r0, #0]
    9c48:	e7f6      	b.n	9c38 <_adc_interrupt_handler+0x38>
    9c4a:	bc30      	pop	{r4, r5}
    9c4c:	4770      	bx	lr

00009c4e <_adc_get_irq_num.isra.0>:
    9c4e:	f100 403d 	add.w	r0, r0, #3170893824	; 0xbd000000
    9c52:	f5a0 50e0 	sub.w	r0, r0, #7168	; 0x1c00
    9c56:	0a80      	lsrs	r0, r0, #10
    9c58:	0040      	lsls	r0, r0, #1
    9c5a:	3076      	adds	r0, #118	; 0x76
    9c5c:	f000 00fe 	and.w	r0, r0, #254	; 0xfe
    9c60:	4770      	bx	lr
	...

00009c64 <_adc_init>:
    9c64:	b538      	push	{r3, r4, r5, lr}
    9c66:	6b03      	ldr	r3, [r0, #48]	; 0x30
    9c68:	4c2d      	ldr	r4, [pc, #180]	; (9d20 <_adc_init+0xbc>)
    9c6a:	f013 0f01 	tst.w	r3, #1
    9c6e:	4602      	mov	r2, r0
    9c70:	460d      	mov	r5, r1
    9c72:	d10d      	bne.n	9c90 <_adc_init+0x2c>
    9c74:	2103      	movs	r1, #3
    9c76:	47a0      	blx	r4
    9c78:	8803      	ldrh	r3, [r0, #0]
    9c7a:	079b      	lsls	r3, r3, #30
    9c7c:	d503      	bpl.n	9c86 <_adc_init+0x22>
    9c7e:	4b29      	ldr	r3, [pc, #164]	; (9d24 <_adc_init+0xc0>)
    9c80:	4798      	blx	r3
    9c82:	2102      	movs	r1, #2
    9c84:	47a0      	blx	r4
    9c86:	2301      	movs	r3, #1
    9c88:	8013      	strh	r3, [r2, #0]
    9c8a:	2103      	movs	r1, #3
    9c8c:	4610      	mov	r0, r2
    9c8e:	47a0      	blx	r4
    9c90:	4610      	mov	r0, r2
    9c92:	2101      	movs	r1, #1
    9c94:	47a0      	blx	r4
    9c96:	4b24      	ldr	r3, [pc, #144]	; (9d28 <_adc_init+0xc4>)
    9c98:	2116      	movs	r1, #22
    9c9a:	fb01 3505 	mla	r5, r1, r5, r3
    9c9e:	4610      	mov	r0, r2
    9ca0:	88ab      	ldrh	r3, [r5, #4]
    9ca2:	80d3      	strh	r3, [r2, #6]
    9ca4:	f640 71ff 	movw	r1, #4095	; 0xfff
    9ca8:	47a0      	blx	r4
    9caa:	79ab      	ldrb	r3, [r5, #6]
    9cac:	7213      	strb	r3, [r2, #8]
    9cae:	4610      	mov	r0, r2
    9cb0:	f640 71ff 	movw	r1, #4095	; 0xfff
    9cb4:	47a0      	blx	r4
    9cb6:	79eb      	ldrb	r3, [r5, #7]
    9cb8:	7093      	strb	r3, [r2, #2]
    9cba:	892b      	ldrh	r3, [r5, #8]
    9cbc:	8093      	strh	r3, [r2, #4]
    9cbe:	4610      	mov	r0, r2
    9cc0:	f640 71ff 	movw	r1, #4095	; 0xfff
    9cc4:	47a0      	blx	r4
    9cc6:	7aab      	ldrb	r3, [r5, #10]
    9cc8:	7293      	strb	r3, [r2, #10]
    9cca:	4610      	mov	r0, r2
    9ccc:	f640 71ff 	movw	r1, #4095	; 0xfff
    9cd0:	47a0      	blx	r4
    9cd2:	7aeb      	ldrb	r3, [r5, #11]
    9cd4:	72d3      	strb	r3, [r2, #11]
    9cd6:	4610      	mov	r0, r2
    9cd8:	f640 71ff 	movw	r1, #4095	; 0xfff
    9cdc:	47a0      	blx	r4
    9cde:	89ab      	ldrh	r3, [r5, #12]
    9ce0:	8193      	strh	r3, [r2, #12]
    9ce2:	4610      	mov	r0, r2
    9ce4:	2180      	movs	r1, #128	; 0x80
    9ce6:	47a0      	blx	r4
    9ce8:	89eb      	ldrh	r3, [r5, #14]
    9cea:	81d3      	strh	r3, [r2, #14]
    9cec:	4610      	mov	r0, r2
    9cee:	f44f 7180 	mov.w	r1, #256	; 0x100
    9cf2:	47a0      	blx	r4
    9cf4:	8a2b      	ldrh	r3, [r5, #16]
    9cf6:	8213      	strh	r3, [r2, #16]
    9cf8:	4610      	mov	r0, r2
    9cfa:	f44f 7100 	mov.w	r1, #512	; 0x200
    9cfe:	47a0      	blx	r4
    9d00:	8a6b      	ldrh	r3, [r5, #18]
    9d02:	8253      	strh	r3, [r2, #18]
    9d04:	4610      	mov	r0, r2
    9d06:	f44f 6180 	mov.w	r1, #1024	; 0x400
    9d0a:	47a0      	blx	r4
    9d0c:	7d2b      	ldrb	r3, [r5, #20]
    9d0e:	70d3      	strb	r3, [r2, #3]
    9d10:	886b      	ldrh	r3, [r5, #2]
    9d12:	8013      	strh	r3, [r2, #0]
    9d14:	4610      	mov	r0, r2
    9d16:	2103      	movs	r1, #3
    9d18:	47a0      	blx	r4
    9d1a:	2000      	movs	r0, #0
    9d1c:	bd38      	pop	{r3, r4, r5, pc}
    9d1e:	bf00      	nop
    9d20:	00009bb9 	.word	0x00009bb9
    9d24:	00009bd5 	.word	0x00009bd5
    9d28:	0001043c 	.word	0x0001043c

00009d2c <_adc_async_init>:
    9d2c:	e92d 43f8 	stmdb	sp!, {r3, r4, r5, r6, r7, r8, r9, lr}
    9d30:	4b22      	ldr	r3, [pc, #136]	; (9dbc <_adc_async_init+0x90>)
    9d32:	4604      	mov	r4, r0
    9d34:	4608      	mov	r0, r1
    9d36:	460d      	mov	r5, r1
    9d38:	4798      	blx	r3
    9d3a:	4b21      	ldr	r3, [pc, #132]	; (9dc0 <_adc_async_init+0x94>)
    9d3c:	4601      	mov	r1, r0
    9d3e:	4628      	mov	r0, r5
    9d40:	4798      	blx	r3
    9d42:	4606      	mov	r6, r0
    9d44:	2800      	cmp	r0, #0
    9d46:	d130      	bne.n	9daa <_adc_async_init+0x7e>
    9d48:	4b1e      	ldr	r3, [pc, #120]	; (9dc4 <_adc_async_init+0x98>)
    9d4a:	6165      	str	r5, [r4, #20]
    9d4c:	429d      	cmp	r5, r3
    9d4e:	d12f      	bne.n	9db0 <_adc_async_init+0x84>
    9d50:	4b1d      	ldr	r3, [pc, #116]	; (9dc8 <_adc_async_init+0x9c>)
    9d52:	601c      	str	r4, [r3, #0]
    9d54:	491d      	ldr	r1, [pc, #116]	; (9dcc <_adc_async_init+0xa0>)
    9d56:	f8df 9080 	ldr.w	r9, [pc, #128]	; 9dd8 <_adc_async_init+0xac>
    9d5a:	f8df 8080 	ldr.w	r8, [pc, #128]	; 9ddc <_adc_async_init+0xb0>
    9d5e:	4f1c      	ldr	r7, [pc, #112]	; (9dd0 <_adc_async_init+0xa4>)
    9d60:	4628      	mov	r0, r5
    9d62:	4788      	blx	r1
    9d64:	b200      	sxth	r0, r0
    9d66:	47c8      	blx	r9
    9d68:	6960      	ldr	r0, [r4, #20]
    9d6a:	4788      	blx	r1
    9d6c:	b200      	sxth	r0, r0
    9d6e:	47c0      	blx	r8
    9d70:	6960      	ldr	r0, [r4, #20]
    9d72:	4788      	blx	r1
    9d74:	2501      	movs	r5, #1
    9d76:	0942      	lsrs	r2, r0, #5
    9d78:	f000 031f 	and.w	r3, r0, #31
    9d7c:	fa05 f303 	lsl.w	r3, r5, r3
    9d80:	4428      	add	r0, r5
    9d82:	f847 3022 	str.w	r3, [r7, r2, lsl #2]
    9d86:	b200      	sxth	r0, r0
    9d88:	47c8      	blx	r9
    9d8a:	6960      	ldr	r0, [r4, #20]
    9d8c:	4788      	blx	r1
    9d8e:	4428      	add	r0, r5
    9d90:	b200      	sxth	r0, r0
    9d92:	47c0      	blx	r8
    9d94:	6960      	ldr	r0, [r4, #20]
    9d96:	4788      	blx	r1
    9d98:	4428      	add	r0, r5
    9d9a:	b280      	uxth	r0, r0
    9d9c:	0943      	lsrs	r3, r0, #5
    9d9e:	f000 001f 	and.w	r0, r0, #31
    9da2:	fa05 f000 	lsl.w	r0, r5, r0
    9da6:	f847 0023 	str.w	r0, [r7, r3, lsl #2]
    9daa:	4630      	mov	r0, r6
    9dac:	e8bd 83f8 	ldmia.w	sp!, {r3, r4, r5, r6, r7, r8, r9, pc}
    9db0:	4b08      	ldr	r3, [pc, #32]	; (9dd4 <_adc_async_init+0xa8>)
    9db2:	429d      	cmp	r5, r3
    9db4:	bf04      	itt	eq
    9db6:	4b04      	ldreq	r3, [pc, #16]	; (9dc8 <_adc_async_init+0x9c>)
    9db8:	605c      	streq	r4, [r3, #4]
    9dba:	e7cb      	b.n	9d54 <_adc_async_init+0x28>
    9dbc:	00009bed 	.word	0x00009bed
    9dc0:	00009c65 	.word	0x00009c65
    9dc4:	43001c00 	.word	0x43001c00
    9dc8:	2000086c 	.word	0x2000086c
    9dcc:	00009c4f 	.word	0x00009c4f
    9dd0:	e000e100 	.word	0xe000e100
    9dd4:	43002000 	.word	0x43002000
    9dd8:	00009b71 	.word	0x00009b71
    9ddc:	00009b99 	.word	0x00009b99

00009de0 <_adc_async_enable_channel>:
    9de0:	6940      	ldr	r0, [r0, #20]
    9de2:	4b01      	ldr	r3, [pc, #4]	; (9de8 <_adc_async_enable_channel+0x8>)
    9de4:	4718      	bx	r3
    9de6:	bf00      	nop
    9de8:	00009bc1 	.word	0x00009bc1

00009dec <_adc_async_get_data_size>:
    9dec:	6943      	ldr	r3, [r0, #20]
    9dee:	88db      	ldrh	r3, [r3, #6]
    9df0:	f3c3 03c1 	ubfx	r3, r3, #3, #2
    9df4:	2b03      	cmp	r3, #3
    9df6:	bf0c      	ite	eq
    9df8:	2001      	moveq	r0, #1
    9dfa:	2002      	movne	r0, #2
    9dfc:	4770      	bx	lr
	...

00009e00 <_adc_async_convert>:
    9e00:	6940      	ldr	r0, [r0, #20]
    9e02:	7d03      	ldrb	r3, [r0, #20]
    9e04:	f043 0302 	orr.w	r3, r3, #2
    9e08:	7503      	strb	r3, [r0, #20]
    9e0a:	f640 71ff 	movw	r1, #4095	; 0xfff
    9e0e:	4b01      	ldr	r3, [pc, #4]	; (9e14 <_adc_async_convert+0x14>)
    9e10:	4718      	bx	r3
    9e12:	bf00      	nop
    9e14:	00009bb9 	.word	0x00009bb9

00009e18 <_adc_async_set_irq_state>:
    9e18:	2a01      	cmp	r2, #1
    9e1a:	6941      	ldr	r1, [r0, #20]
    9e1c:	d104      	bne.n	9e28 <_adc_async_set_irq_state+0x10>
    9e1e:	2204      	movs	r2, #4
    9e20:	b93b      	cbnz	r3, 9e32 <_adc_async_set_irq_state+0x1a>
    9e22:	f881 202c 	strb.w	r2, [r1, #44]	; 0x2c
    9e26:	4770      	bx	lr
    9e28:	2a02      	cmp	r2, #2
    9e2a:	d0f9      	beq.n	9e20 <_adc_async_set_irq_state+0x8>
    9e2c:	b91a      	cbnz	r2, 9e36 <_adc_async_set_irq_state+0x1e>
    9e2e:	2201      	movs	r2, #1
    9e30:	e7f6      	b.n	9e20 <_adc_async_set_irq_state+0x8>
    9e32:	f881 202d 	strb.w	r2, [r1, #45]	; 0x2d
    9e36:	4770      	bx	lr

00009e38 <ADC0_1_Handler>:
    9e38:	4b01      	ldr	r3, [pc, #4]	; (9e40 <ADC0_1_Handler+0x8>)
    9e3a:	6818      	ldr	r0, [r3, #0]
    9e3c:	4b01      	ldr	r3, [pc, #4]	; (9e44 <ADC0_1_Handler+0xc>)
    9e3e:	4718      	bx	r3
    9e40:	2000086c 	.word	0x2000086c
    9e44:	00009c01 	.word	0x00009c01

00009e48 <ADC0_0_Handler>:
    9e48:	4b00      	ldr	r3, [pc, #0]	; (9e4c <ADC0_0_Handler+0x4>)
    9e4a:	4718      	bx	r3
    9e4c:	00009e39 	.word	0x00009e39

00009e50 <ADC1_1_Handler>:
    9e50:	4b01      	ldr	r3, [pc, #4]	; (9e58 <ADC1_1_Handler+0x8>)
    9e52:	6858      	ldr	r0, [r3, #4]
    9e54:	4b01      	ldr	r3, [pc, #4]	; (9e5c <ADC1_1_Handler+0xc>)
    9e56:	4718      	bx	r3
    9e58:	2000086c 	.word	0x2000086c
    9e5c:	00009c01 	.word	0x00009c01

00009e60 <ADC1_0_Handler>:
    9e60:	4b00      	ldr	r3, [pc, #0]	; (9e64 <ADC1_0_Handler+0x4>)
    9e62:	4718      	bx	r3
    9e64:	00009e51 	.word	0x00009e51

00009e68 <_irq_set>:
    9e68:	0943      	lsrs	r3, r0, #5
    9e6a:	2201      	movs	r2, #1
    9e6c:	f000 001f 	and.w	r0, r0, #31
    9e70:	fa02 f000 	lsl.w	r0, r2, r0
    9e74:	3340      	adds	r3, #64	; 0x40
    9e76:	4a02      	ldr	r2, [pc, #8]	; (9e80 <_irq_set+0x18>)
    9e78:	f842 0023 	str.w	r0, [r2, r3, lsl #2]
    9e7c:	4770      	bx	lr
    9e7e:	bf00      	nop
    9e80:	e000e100 	.word	0xe000e100

00009e84 <_get_cycles_for_us>:
    9e84:	2378      	movs	r3, #120	; 0x78
    9e86:	4358      	muls	r0, r3
    9e88:	4770      	bx	lr
	...

00009e8c <_get_cycles_for_ms>:
    9e8c:	4b01      	ldr	r3, [pc, #4]	; (9e94 <_get_cycles_for_ms+0x8>)
    9e8e:	4358      	muls	r0, r3
    9e90:	4770      	bx	lr
    9e92:	bf00      	nop
    9e94:	0001d4c0 	.word	0x0001d4c0

00009e98 <_init_chip>:
    9e98:	b510      	push	{r4, lr}
    9e9a:	4a0e      	ldr	r2, [pc, #56]	; (9ed4 <_init_chip+0x3c>)
    9e9c:	4c0e      	ldr	r4, [pc, #56]	; (9ed8 <_init_chip+0x40>)
    9e9e:	8813      	ldrh	r3, [r2, #0]
    9ea0:	b29b      	uxth	r3, r3
    9ea2:	f443 63a0 	orr.w	r3, r3, #1280	; 0x500
    9ea6:	8013      	strh	r3, [r2, #0]
    9ea8:	4b0c      	ldr	r3, [pc, #48]	; (9edc <_init_chip+0x44>)
    9eaa:	4798      	blx	r3
    9eac:	4b0c      	ldr	r3, [pc, #48]	; (9ee0 <_init_chip+0x48>)
    9eae:	4798      	blx	r3
    9eb0:	4b0c      	ldr	r3, [pc, #48]	; (9ee4 <_init_chip+0x4c>)
    9eb2:	4798      	blx	r3
    9eb4:	2004      	movs	r0, #4
    9eb6:	47a0      	blx	r4
    9eb8:	4b0b      	ldr	r3, [pc, #44]	; (9ee8 <_init_chip+0x50>)
    9eba:	4798      	blx	r3
    9ebc:	f640 70fb 	movw	r0, #4091	; 0xffb
    9ec0:	47a0      	blx	r4
    9ec2:	4a0a      	ldr	r2, [pc, #40]	; (9eec <_init_chip+0x54>)
    9ec4:	6913      	ldr	r3, [r2, #16]
    9ec6:	f443 7300 	orr.w	r3, r3, #512	; 0x200
    9eca:	6113      	str	r3, [r2, #16]
    9ecc:	e8bd 4010 	ldmia.w	sp!, {r4, lr}
    9ed0:	4b07      	ldr	r3, [pc, #28]	; (9ef0 <_init_chip+0x58>)
    9ed2:	4718      	bx	r3
    9ed4:	41004000 	.word	0x41004000
    9ed8:	0000a1a9 	.word	0x0000a1a9
    9edc:	0000a3ed 	.word	0x0000a3ed
    9ee0:	0000a401 	.word	0x0000a401
    9ee4:	0000a201 	.word	0x0000a201
    9ee8:	0000a405 	.word	0x0000a405
    9eec:	40000800 	.word	0x40000800
    9ef0:	00009f45 	.word	0x00009f45

00009ef4 <_dmac_handler>:
    9ef4:	b410      	push	{r4}
    9ef6:	4b11      	ldr	r3, [pc, #68]	; (9f3c <_dmac_handler+0x48>)
    9ef8:	4c11      	ldr	r4, [pc, #68]	; (9f40 <_dmac_handler+0x4c>)
    9efa:	8c19      	ldrh	r1, [r3, #32]
    9efc:	f001 011f 	and.w	r1, r1, #31
    9f00:	eb03 1301 	add.w	r3, r3, r1, lsl #4
    9f04:	220c      	movs	r2, #12
    9f06:	434a      	muls	r2, r1
    9f08:	f893 104e 	ldrb.w	r1, [r3, #78]	; 0x4e
    9f0c:	07c9      	lsls	r1, r1, #31
    9f0e:	eb04 0002 	add.w	r0, r4, r2
    9f12:	d506      	bpl.n	9f22 <_dmac_handler+0x2e>
    9f14:	2201      	movs	r2, #1
    9f16:	f883 204e 	strb.w	r2, [r3, #78]	; 0x4e
    9f1a:	6843      	ldr	r3, [r0, #4]
    9f1c:	f85d 4b04 	ldr.w	r4, [sp], #4
    9f20:	4718      	bx	r3
    9f22:	f893 104e 	ldrb.w	r1, [r3, #78]	; 0x4e
    9f26:	0789      	lsls	r1, r1, #30
    9f28:	d504      	bpl.n	9f34 <_dmac_handler+0x40>
    9f2a:	2102      	movs	r1, #2
    9f2c:	f883 104e 	strb.w	r1, [r3, #78]	; 0x4e
    9f30:	58a3      	ldr	r3, [r4, r2]
    9f32:	e7f3      	b.n	9f1c <_dmac_handler+0x28>
    9f34:	f85d 4b04 	ldr.w	r4, [sp], #4
    9f38:	4770      	bx	lr
    9f3a:	bf00      	nop
    9f3c:	4100a000 	.word	0x4100a000
    9f40:	20000874 	.word	0x20000874

00009f44 <_dma_init>:
    9f44:	b570      	push	{r4, r5, r6, lr}
    9f46:	4b2f      	ldr	r3, [pc, #188]	; (a004 <_dma_init+0xc0>)
    9f48:	881a      	ldrh	r2, [r3, #0]
    9f4a:	f022 0202 	bic.w	r2, r2, #2
    9f4e:	0412      	lsls	r2, r2, #16
    9f50:	0c12      	lsrs	r2, r2, #16
    9f52:	801a      	strh	r2, [r3, #0]
    9f54:	885a      	ldrh	r2, [r3, #2]
    9f56:	f422 527c 	bic.w	r2, r2, #16128	; 0x3f00
    9f5a:	0412      	lsls	r2, r2, #16
    9f5c:	0c12      	lsrs	r2, r2, #16
    9f5e:	805a      	strh	r2, [r3, #2]
    9f60:	881a      	ldrh	r2, [r3, #0]
    9f62:	b292      	uxth	r2, r2
    9f64:	f042 0201 	orr.w	r2, r2, #1
    9f68:	801a      	strh	r2, [r3, #0]
    9f6a:	881a      	ldrh	r2, [r3, #0]
    9f6c:	f012 0201 	ands.w	r2, r2, #1
    9f70:	d1fb      	bne.n	9f6a <_dma_init+0x26>
    9f72:	f44f 6170 	mov.w	r1, #3840	; 0xf00
    9f76:	8019      	strh	r1, [r3, #0]
    9f78:	7b59      	ldrb	r1, [r3, #13]
    9f7a:	4823      	ldr	r0, [pc, #140]	; (a008 <_dma_init+0xc4>)
    9f7c:	f001 01fe 	and.w	r1, r1, #254	; 0xfe
    9f80:	f041 0101 	orr.w	r1, r1, #1
    9f84:	7359      	strb	r1, [r3, #13]
    9f86:	4921      	ldr	r1, [pc, #132]	; (a00c <_dma_init+0xc8>)
    9f88:	615a      	str	r2, [r3, #20]
    9f8a:	6358      	str	r0, [r3, #52]	; 0x34
    9f8c:	6399      	str	r1, [r3, #56]	; 0x38
    9f8e:	4613      	mov	r3, r2
    9f90:	491f      	ldr	r1, [pc, #124]	; (a010 <_dma_init+0xcc>)
    9f92:	4602      	mov	r2, r0
    9f94:	461d      	mov	r5, r3
    9f96:	011c      	lsls	r4, r3, #4
    9f98:	f104 4082 	add.w	r0, r4, #1090519040	; 0x41000000
    9f9c:	f500 4020 	add.w	r0, r0, #40960	; 0xa000
    9fa0:	680e      	ldr	r6, [r1, #0]
    9fa2:	6406      	str	r6, [r0, #64]	; 0x40
    9fa4:	790e      	ldrb	r6, [r1, #4]
    9fa6:	f880 6045 	strb.w	r6, [r0, #69]	; 0x45
    9faa:	794e      	ldrb	r6, [r1, #5]
    9fac:	f880 6046 	strb.w	r6, [r0, #70]	; 0x46
    9fb0:	3301      	adds	r3, #1
    9fb2:	1910      	adds	r0, r2, r4
    9fb4:	88ce      	ldrh	r6, [r1, #6]
    9fb6:	5316      	strh	r6, [r2, r4]
    9fb8:	2b20      	cmp	r3, #32
    9fba:	60c5      	str	r5, [r0, #12]
    9fbc:	f101 0108 	add.w	r1, r1, #8
    9fc0:	d1e9      	bne.n	9f96 <_dma_init+0x52>
    9fc2:	221f      	movs	r2, #31
    9fc4:	2001      	movs	r0, #1
    9fc6:	0953      	lsrs	r3, r2, #5
    9fc8:	009b      	lsls	r3, r3, #2
    9fca:	f103 4360 	add.w	r3, r3, #3758096384	; 0xe0000000
    9fce:	f002 011f 	and.w	r1, r2, #31
    9fd2:	f503 4361 	add.w	r3, r3, #57600	; 0xe100
    9fd6:	fa00 f101 	lsl.w	r1, r0, r1
    9fda:	f8c3 1080 	str.w	r1, [r3, #128]	; 0x80
    9fde:	f3bf 8f4f 	dsb	sy
    9fe2:	f3bf 8f6f 	isb	sy
    9fe6:	3201      	adds	r2, #1
    9fe8:	2a24      	cmp	r2, #36	; 0x24
    9fea:	f8c3 1180 	str.w	r1, [r3, #384]	; 0x180
    9fee:	6019      	str	r1, [r3, #0]
    9ff0:	d1e9      	bne.n	9fc6 <_dma_init+0x82>
    9ff2:	4a04      	ldr	r2, [pc, #16]	; (a004 <_dma_init+0xc0>)
    9ff4:	8813      	ldrh	r3, [r2, #0]
    9ff6:	b29b      	uxth	r3, r3
    9ff8:	f043 0302 	orr.w	r3, r3, #2
    9ffc:	8013      	strh	r3, [r2, #0]
    9ffe:	2000      	movs	r0, #0
    a000:	bd70      	pop	{r4, r5, r6, pc}
    a002:	bf00      	nop
    a004:	4100a000 	.word	0x4100a000
    a008:	20007df0 	.word	0x20007df0
    a00c:	20007ff0 	.word	0x20007ff0
    a010:	00010468 	.word	0x00010468

0000a014 <_dma_set_irq_state>:
    a014:	b939      	cbnz	r1, a026 <_dma_set_irq_state+0x12>
    a016:	4b08      	ldr	r3, [pc, #32]	; (a038 <_dma_set_irq_state+0x24>)
    a018:	0100      	lsls	r0, r0, #4
    a01a:	2102      	movs	r1, #2
    a01c:	4418      	add	r0, r3
    a01e:	b93a      	cbnz	r2, a030 <_dma_set_irq_state+0x1c>
    a020:	f880 104c 	strb.w	r1, [r0, #76]	; 0x4c
    a024:	4770      	bx	lr
    a026:	2901      	cmp	r1, #1
    a028:	d104      	bne.n	a034 <_dma_set_irq_state+0x20>
    a02a:	4b03      	ldr	r3, [pc, #12]	; (a038 <_dma_set_irq_state+0x24>)
    a02c:	0100      	lsls	r0, r0, #4
    a02e:	e7f5      	b.n	a01c <_dma_set_irq_state+0x8>
    a030:	f880 104d 	strb.w	r1, [r0, #77]	; 0x4d
    a034:	4770      	bx	lr
    a036:	bf00      	nop
    a038:	4100a000 	.word	0x4100a000

0000a03c <_dma_set_destination_address>:
    a03c:	4b02      	ldr	r3, [pc, #8]	; (a048 <_dma_set_destination_address+0xc>)
    a03e:	eb03 1000 	add.w	r0, r3, r0, lsl #4
    a042:	6081      	str	r1, [r0, #8]
    a044:	2000      	movs	r0, #0
    a046:	4770      	bx	lr
    a048:	20007df0 	.word	0x20007df0

0000a04c <_dma_set_source_address>:
    a04c:	4b02      	ldr	r3, [pc, #8]	; (a058 <_dma_set_source_address+0xc>)
    a04e:	eb03 1000 	add.w	r0, r3, r0, lsl #4
    a052:	6041      	str	r1, [r0, #4]
    a054:	2000      	movs	r0, #0
    a056:	4770      	bx	lr
    a058:	20007df0 	.word	0x20007df0

0000a05c <_dma_srcinc_enable>:
    a05c:	4a05      	ldr	r2, [pc, #20]	; (a074 <_dma_srcinc_enable+0x18>)
    a05e:	0100      	lsls	r0, r0, #4
    a060:	5a13      	ldrh	r3, [r2, r0]
    a062:	b29b      	uxth	r3, r3
    a064:	f423 6380 	bic.w	r3, r3, #1024	; 0x400
    a068:	ea43 2181 	orr.w	r1, r3, r1, lsl #10
    a06c:	b289      	uxth	r1, r1
    a06e:	5211      	strh	r1, [r2, r0]
    a070:	2000      	movs	r0, #0
    a072:	4770      	bx	lr
    a074:	20007df0 	.word	0x20007df0

0000a078 <_dma_set_data_amount>:
    a078:	b570      	push	{r4, r5, r6, lr}
    a07a:	4b0f      	ldr	r3, [pc, #60]	; (a0b8 <_dma_set_data_amount+0x40>)
    a07c:	0100      	lsls	r0, r0, #4
    a07e:	181d      	adds	r5, r3, r0
    a080:	68ae      	ldr	r6, [r5, #8]
    a082:	5a1a      	ldrh	r2, [r3, r0]
    a084:	5a1c      	ldrh	r4, [r3, r0]
    a086:	f3c2 2201 	ubfx	r2, r2, #8, #2
    a08a:	0524      	lsls	r4, r4, #20
    a08c:	bf42      	ittt	mi
    a08e:	fa01 f402 	lslmi.w	r4, r1, r2
    a092:	19a4      	addmi	r4, r4, r6
    a094:	60ac      	strmi	r4, [r5, #8]
    a096:	181c      	adds	r4, r3, r0
    a098:	6865      	ldr	r5, [r4, #4]
    a09a:	5a1e      	ldrh	r6, [r3, r0]
    a09c:	0576      	lsls	r6, r6, #21
    a09e:	bf48      	it	mi
    a0a0:	fa01 f202 	lslmi.w	r2, r1, r2
    a0a4:	4403      	add	r3, r0
    a0a6:	bf48      	it	mi
    a0a8:	1952      	addmi	r2, r2, r5
    a0aa:	b289      	uxth	r1, r1
    a0ac:	bf48      	it	mi
    a0ae:	6062      	strmi	r2, [r4, #4]
    a0b0:	8059      	strh	r1, [r3, #2]
    a0b2:	2000      	movs	r0, #0
    a0b4:	bd70      	pop	{r4, r5, r6, pc}
    a0b6:	bf00      	nop
    a0b8:	20007df0 	.word	0x20007df0

0000a0bc <_dma_enable_transaction>:
    a0bc:	b510      	push	{r4, lr}
    a0be:	0102      	lsls	r2, r0, #4
    a0c0:	4c0b      	ldr	r4, [pc, #44]	; (a0f0 <_dma_enable_transaction+0x34>)
    a0c2:	5aa3      	ldrh	r3, [r4, r2]
    a0c4:	b29b      	uxth	r3, r3
    a0c6:	f043 0301 	orr.w	r3, r3, #1
    a0ca:	52a3      	strh	r3, [r4, r2]
    a0cc:	f102 4382 	add.w	r3, r2, #1090519040	; 0x41000000
    a0d0:	f503 4320 	add.w	r3, r3, #40960	; 0xa000
    a0d4:	6c1a      	ldr	r2, [r3, #64]	; 0x40
    a0d6:	f042 0202 	orr.w	r2, r2, #2
    a0da:	641a      	str	r2, [r3, #64]	; 0x40
    a0dc:	b131      	cbz	r1, a0ec <_dma_enable_transaction+0x30>
    a0de:	4a05      	ldr	r2, [pc, #20]	; (a0f4 <_dma_enable_transaction+0x38>)
    a0e0:	2301      	movs	r3, #1
    a0e2:	6911      	ldr	r1, [r2, #16]
    a0e4:	fa03 f000 	lsl.w	r0, r3, r0
    a0e8:	4308      	orrs	r0, r1
    a0ea:	6110      	str	r0, [r2, #16]
    a0ec:	2000      	movs	r0, #0
    a0ee:	bd10      	pop	{r4, pc}
    a0f0:	20007df0 	.word	0x20007df0
    a0f4:	4100a000 	.word	0x4100a000

0000a0f8 <_dma_get_channel_resource>:
    a0f8:	4b03      	ldr	r3, [pc, #12]	; (a108 <_dma_get_channel_resource+0x10>)
    a0fa:	eb01 0141 	add.w	r1, r1, r1, lsl #1
    a0fe:	eb03 0181 	add.w	r1, r3, r1, lsl #2
    a102:	6001      	str	r1, [r0, #0]
    a104:	2000      	movs	r0, #0
    a106:	4770      	bx	lr
    a108:	20000874 	.word	0x20000874

0000a10c <DMAC_0_Handler>:
    a10c:	4b00      	ldr	r3, [pc, #0]	; (a110 <DMAC_0_Handler+0x4>)
    a10e:	4718      	bx	r3
    a110:	00009ef5 	.word	0x00009ef5

0000a114 <DMAC_1_Handler>:
    a114:	4b00      	ldr	r3, [pc, #0]	; (a118 <DMAC_1_Handler+0x4>)
    a116:	4718      	bx	r3
    a118:	00009ef5 	.word	0x00009ef5

0000a11c <DMAC_2_Handler>:
    a11c:	4b00      	ldr	r3, [pc, #0]	; (a120 <DMAC_2_Handler+0x4>)
    a11e:	4718      	bx	r3
    a120:	00009ef5 	.word	0x00009ef5

0000a124 <DMAC_3_Handler>:
    a124:	4b00      	ldr	r3, [pc, #0]	; (a128 <DMAC_3_Handler+0x4>)
    a126:	4718      	bx	r3
    a128:	00009ef5 	.word	0x00009ef5

0000a12c <DMAC_4_Handler>:
    a12c:	4b00      	ldr	r3, [pc, #0]	; (a130 <DMAC_4_Handler+0x4>)
    a12e:	4718      	bx	r3
    a130:	00009ef5 	.word	0x00009ef5

0000a134 <_crc_sync_init>:
    a134:	6001      	str	r1, [r0, #0]
    a136:	2000      	movs	r0, #0
    a138:	4770      	bx	lr
	...

0000a13c <_event_system_init>:
    a13c:	b510      	push	{r4, lr}
    a13e:	4a12      	ldr	r2, [pc, #72]	; (a188 <_event_system_init+0x4c>)
    a140:	4c12      	ldr	r4, [pc, #72]	; (a18c <_event_system_init+0x50>)
    a142:	2300      	movs	r3, #0
    a144:	5d18      	ldrb	r0, [r3, r4]
    a146:	f103 0148 	add.w	r1, r3, #72	; 0x48
    a14a:	3301      	adds	r3, #1
    a14c:	2b43      	cmp	r3, #67	; 0x43
    a14e:	f842 0021 	str.w	r0, [r2, r1, lsl #2]
    a152:	d1f7      	bne.n	a144 <_event_system_init+0x8>
    a154:	480e      	ldr	r0, [pc, #56]	; (a190 <_event_system_init+0x54>)
    a156:	2200      	movs	r2, #0
    a158:	f100 0440 	add.w	r4, r0, #64	; 0x40
    a15c:	00d3      	lsls	r3, r2, #3
    a15e:	f103 4382 	add.w	r3, r3, #1090519040	; 0x41000000
    a162:	f503 4360 	add.w	r3, r3, #57344	; 0xe000
    a166:	f830 1012 	ldrh.w	r1, [r0, r2, lsl #1]
    a16a:	6219      	str	r1, [r3, #32]
    a16c:	f814 1022 	ldrb.w	r1, [r4, r2, lsl #2]
    a170:	f883 1025 	strb.w	r1, [r3, #37]	; 0x25
    a174:	3201      	adds	r2, #1
    a176:	43c9      	mvns	r1, r1
    a178:	b2c9      	uxtb	r1, r1
    a17a:	2a20      	cmp	r2, #32
    a17c:	f883 1024 	strb.w	r1, [r3, #36]	; 0x24
    a180:	d1ec      	bne.n	a15c <_event_system_init+0x20>
    a182:	2000      	movs	r0, #0
    a184:	bd10      	pop	{r4, pc}
    a186:	bf00      	nop
    a188:	4100e000 	.word	0x4100e000
    a18c:	00010568 	.word	0x00010568
    a190:	000105ac 	.word	0x000105ac

0000a194 <hri_gclk_wait_for_sync.constprop.0>:
    a194:	4903      	ldr	r1, [pc, #12]	; (a1a4 <hri_gclk_wait_for_sync.constprop.0+0x10>)
    a196:	f643 73fd 	movw	r3, #16381	; 0x3ffd
    a19a:	684a      	ldr	r2, [r1, #4]
    a19c:	421a      	tst	r2, r3
    a19e:	d1fc      	bne.n	a19a <hri_gclk_wait_for_sync.constprop.0+0x6>
    a1a0:	4770      	bx	lr
    a1a2:	bf00      	nop
    a1a4:	40001c00 	.word	0x40001c00

0000a1a8 <_gclk_init_generators_by_fref>:
    a1a8:	b510      	push	{r4, lr}
    a1aa:	07c4      	lsls	r4, r0, #31
    a1ac:	d504      	bpl.n	a1b8 <_gclk_init_generators_by_fref+0x10>
    a1ae:	4b0e      	ldr	r3, [pc, #56]	; (a1e8 <_gclk_init_generators_by_fref+0x40>)
    a1b0:	4a0e      	ldr	r2, [pc, #56]	; (a1ec <_gclk_init_generators_by_fref+0x44>)
    a1b2:	621a      	str	r2, [r3, #32]
    a1b4:	4b0e      	ldr	r3, [pc, #56]	; (a1f0 <_gclk_init_generators_by_fref+0x48>)
    a1b6:	4798      	blx	r3
    a1b8:	0781      	lsls	r1, r0, #30
    a1ba:	d504      	bpl.n	a1c6 <_gclk_init_generators_by_fref+0x1e>
    a1bc:	4b0a      	ldr	r3, [pc, #40]	; (a1e8 <_gclk_init_generators_by_fref+0x40>)
    a1be:	4a0d      	ldr	r2, [pc, #52]	; (a1f4 <_gclk_init_generators_by_fref+0x4c>)
    a1c0:	625a      	str	r2, [r3, #36]	; 0x24
    a1c2:	4b0b      	ldr	r3, [pc, #44]	; (a1f0 <_gclk_init_generators_by_fref+0x48>)
    a1c4:	4798      	blx	r3
    a1c6:	0742      	lsls	r2, r0, #29
    a1c8:	d504      	bpl.n	a1d4 <_gclk_init_generators_by_fref+0x2c>
    a1ca:	4b07      	ldr	r3, [pc, #28]	; (a1e8 <_gclk_init_generators_by_fref+0x40>)
    a1cc:	4a0a      	ldr	r2, [pc, #40]	; (a1f8 <_gclk_init_generators_by_fref+0x50>)
    a1ce:	629a      	str	r2, [r3, #40]	; 0x28
    a1d0:	4b07      	ldr	r3, [pc, #28]	; (a1f0 <_gclk_init_generators_by_fref+0x48>)
    a1d2:	4798      	blx	r3
    a1d4:	0703      	lsls	r3, r0, #28
    a1d6:	d506      	bpl.n	a1e6 <_gclk_init_generators_by_fref+0x3e>
    a1d8:	4b03      	ldr	r3, [pc, #12]	; (a1e8 <_gclk_init_generators_by_fref+0x40>)
    a1da:	4a08      	ldr	r2, [pc, #32]	; (a1fc <_gclk_init_generators_by_fref+0x54>)
    a1dc:	62da      	str	r2, [r3, #44]	; 0x2c
    a1de:	e8bd 4010 	ldmia.w	sp!, {r4, lr}
    a1e2:	4b03      	ldr	r3, [pc, #12]	; (a1f0 <_gclk_init_generators_by_fref+0x48>)
    a1e4:	4718      	bx	r3
    a1e6:	bd10      	pop	{r4, pc}
    a1e8:	40001c00 	.word	0x40001c00
    a1ec:	00010108 	.word	0x00010108
    a1f0:	0000a195 	.word	0x0000a195
    a1f4:	00010106 	.word	0x00010106
    a1f8:	00100106 	.word	0x00100106
    a1fc:	00010104 	.word	0x00010104

0000a200 <_mclk_init>:
    a200:	4b01      	ldr	r3, [pc, #4]	; (a208 <_mclk_init+0x8>)
    a202:	2201      	movs	r2, #1
    a204:	715a      	strb	r2, [r3, #5]
    a206:	4770      	bx	lr
    a208:	40000800 	.word	0x40000800

0000a20c <_user_row_write_exec>:
    a20c:	b5f0      	push	{r4, r5, r6, r7, lr}
    a20e:	4b1d      	ldr	r3, [pc, #116]	; (a284 <_user_row_write_exec+0x78>)
    a210:	4a1d      	ldr	r2, [pc, #116]	; (a288 <_user_row_write_exec+0x7c>)
    a212:	8819      	ldrh	r1, [r3, #0]
    a214:	7892      	ldrb	r2, [r2, #2]
    a216:	07d4      	lsls	r4, r2, #31
    a218:	b289      	uxth	r1, r1
    a21a:	d430      	bmi.n	a27e <_user_row_write_exec+0x72>
    a21c:	8a5a      	ldrh	r2, [r3, #18]
    a21e:	07d2      	lsls	r2, r2, #31
    a220:	d5fc      	bpl.n	a21c <_user_row_write_exec+0x10>
    a222:	881a      	ldrh	r2, [r3, #0]
    a224:	b292      	uxth	r2, r2
    a226:	801a      	strh	r2, [r3, #0]
    a228:	4a18      	ldr	r2, [pc, #96]	; (a28c <_user_row_write_exec+0x80>)
    a22a:	615a      	str	r2, [r3, #20]
    a22c:	f44f 4225 	mov.w	r2, #42240	; 0xa500
    a230:	809a      	strh	r2, [r3, #4]
    a232:	4a14      	ldr	r2, [pc, #80]	; (a284 <_user_row_write_exec+0x78>)
    a234:	8a53      	ldrh	r3, [r2, #18]
    a236:	07db      	lsls	r3, r3, #31
    a238:	d5fc      	bpl.n	a234 <_user_row_write_exec+0x28>
    a23a:	4a12      	ldr	r2, [pc, #72]	; (a284 <_user_row_write_exec+0x78>)
    a23c:	4b13      	ldr	r3, [pc, #76]	; (a28c <_user_row_write_exec+0x80>)
    a23e:	4d14      	ldr	r5, [pc, #80]	; (a290 <_user_row_write_exec+0x84>)
    a240:	f24a 5e15 	movw	lr, #42261	; 0xa515
    a244:	4614      	mov	r4, r2
    a246:	f24a 5604 	movw	r6, #42244	; 0xa504
    a24a:	f8a2 e004 	strh.w	lr, [r2, #4]
    a24e:	8a67      	ldrh	r7, [r4, #18]
    a250:	07ff      	lsls	r7, r7, #31
    a252:	d5fc      	bpl.n	a24e <_user_row_write_exec+0x42>
    a254:	6807      	ldr	r7, [r0, #0]
    a256:	601f      	str	r7, [r3, #0]
    a258:	6847      	ldr	r7, [r0, #4]
    a25a:	605f      	str	r7, [r3, #4]
    a25c:	6887      	ldr	r7, [r0, #8]
    a25e:	609f      	str	r7, [r3, #8]
    a260:	68c7      	ldr	r7, [r0, #12]
    a262:	60df      	str	r7, [r3, #12]
    a264:	6163      	str	r3, [r4, #20]
    a266:	80a6      	strh	r6, [r4, #4]
    a268:	8a57      	ldrh	r7, [r2, #18]
    a26a:	07ff      	lsls	r7, r7, #31
    a26c:	d5fc      	bpl.n	a268 <_user_row_write_exec+0x5c>
    a26e:	3310      	adds	r3, #16
    a270:	42ab      	cmp	r3, r5
    a272:	f100 0010 	add.w	r0, r0, #16
    a276:	d1e8      	bne.n	a24a <_user_row_write_exec+0x3e>
    a278:	8011      	strh	r1, [r2, #0]
    a27a:	2000      	movs	r0, #0
    a27c:	bdf0      	pop	{r4, r5, r6, r7, pc}
    a27e:	f06f 0010 	mvn.w	r0, #16
    a282:	bdf0      	pop	{r4, r5, r6, r7, pc}
    a284:	41004000 	.word	0x41004000
    a288:	41002000 	.word	0x41002000
    a28c:	00804000 	.word	0x00804000
    a290:	00804200 	.word	0x00804200

0000a294 <_flash_init>:
    a294:	6101      	str	r1, [r0, #16]
    a296:	880b      	ldrh	r3, [r1, #0]
    a298:	f023 03c0 	bic.w	r3, r3, #192	; 0xc0
    a29c:	049b      	lsls	r3, r3, #18
    a29e:	0c9b      	lsrs	r3, r3, #18
    a2a0:	800b      	strh	r3, [r1, #0]
    a2a2:	4b0d      	ldr	r3, [pc, #52]	; (a2d8 <_flash_init+0x44>)
    a2a4:	6018      	str	r0, [r3, #0]
    a2a6:	4b0d      	ldr	r3, [pc, #52]	; (a2dc <_flash_init+0x48>)
    a2a8:	f04f 5100 	mov.w	r1, #536870912	; 0x20000000
    a2ac:	f8c3 1080 	str.w	r1, [r3, #128]	; 0x80
    a2b0:	f3bf 8f4f 	dsb	sy
    a2b4:	f3bf 8f6f 	isb	sy
    a2b8:	f04f 4280 	mov.w	r2, #1073741824	; 0x40000000
    a2bc:	f8c3 2080 	str.w	r2, [r3, #128]	; 0x80
    a2c0:	f3bf 8f4f 	dsb	sy
    a2c4:	f3bf 8f6f 	isb	sy
    a2c8:	2000      	movs	r0, #0
    a2ca:	f8c3 1180 	str.w	r1, [r3, #384]	; 0x180
    a2ce:	f8c3 2180 	str.w	r2, [r3, #384]	; 0x180
    a2d2:	6019      	str	r1, [r3, #0]
    a2d4:	601a      	str	r2, [r3, #0]
    a2d6:	4770      	bx	lr
    a2d8:	200009f4 	.word	0x200009f4
    a2dc:	e000e100 	.word	0xe000e100

0000a2e0 <NVMCTRL_1_Handler>:
    a2e0:	4b09      	ldr	r3, [pc, #36]	; (a308 <NVMCTRL_1_Handler+0x28>)
    a2e2:	6818      	ldr	r0, [r3, #0]
    a2e4:	6903      	ldr	r3, [r0, #16]
    a2e6:	8a1a      	ldrh	r2, [r3, #16]
    a2e8:	07d2      	lsls	r2, r2, #31
    a2ea:	d504      	bpl.n	a2f6 <NVMCTRL_1_Handler+0x16>
    a2ec:	2201      	movs	r2, #1
    a2ee:	821a      	strh	r2, [r3, #16]
    a2f0:	6803      	ldr	r3, [r0, #0]
    a2f2:	b143      	cbz	r3, a306 <NVMCTRL_1_Handler+0x26>
    a2f4:	4718      	bx	r3
    a2f6:	8a1a      	ldrh	r2, [r3, #16]
    a2f8:	b292      	uxth	r2, r2
    a2fa:	b122      	cbz	r2, a306 <NVMCTRL_1_Handler+0x26>
    a2fc:	f240 225e 	movw	r2, #606	; 0x25e
    a300:	821a      	strh	r2, [r3, #16]
    a302:	6843      	ldr	r3, [r0, #4]
    a304:	e7f5      	b.n	a2f2 <NVMCTRL_1_Handler+0x12>
    a306:	4770      	bx	lr
    a308:	200009f4 	.word	0x200009f4

0000a30c <NVMCTRL_0_Handler>:
    a30c:	4b00      	ldr	r3, [pc, #0]	; (a310 <NVMCTRL_0_Handler+0x4>)
    a30e:	4718      	bx	r3
    a310:	0000a2e1 	.word	0x0000a2e1

0000a314 <_user_area_read>:
    a314:	b538      	push	{r3, r4, r5, lr}
    a316:	4615      	mov	r5, r2
    a318:	f5a0 0200 	sub.w	r2, r0, #8388608	; 0x800000
    a31c:	f5a2 4280 	sub.w	r2, r2, #16384	; 0x4000
    a320:	f5b2 7f00 	cmp.w	r2, #512	; 0x200
    a324:	d20f      	bcs.n	a346 <_user_area_read+0x32>
    a326:	4a10      	ldr	r2, [pc, #64]	; (a368 <_user_area_read+0x54>)
    a328:	1844      	adds	r4, r0, r1
    a32a:	4294      	cmp	r4, r2
    a32c:	d815      	bhi.n	a35a <_user_area_read+0x46>
    a32e:	1e5c      	subs	r4, r3, #1
    a330:	440c      	add	r4, r1
    a332:	4404      	add	r4, r0
    a334:	4294      	cmp	r4, r2
    a336:	d813      	bhi.n	a360 <_user_area_read+0x4c>
    a338:	461a      	mov	r2, r3
    a33a:	4401      	add	r1, r0
    a33c:	4b0b      	ldr	r3, [pc, #44]	; (a36c <_user_area_read+0x58>)
    a33e:	4628      	mov	r0, r5
    a340:	4798      	blx	r3
    a342:	2000      	movs	r0, #0
    a344:	bd38      	pop	{r3, r4, r5, pc}
    a346:	f1a0 1280 	sub.w	r2, r0, #8388736	; 0x800080
    a34a:	2a04      	cmp	r2, #4
    a34c:	d802      	bhi.n	a354 <_user_area_read+0x40>
    a34e:	1844      	adds	r4, r0, r1
    a350:	4a07      	ldr	r2, [pc, #28]	; (a370 <_user_area_read+0x5c>)
    a352:	e7ea      	b.n	a32a <_user_area_read+0x16>
    a354:	f06f 001a 	mvn.w	r0, #26
    a358:	bd38      	pop	{r3, r4, r5, pc}
    a35a:	f06f 000d 	mvn.w	r0, #13
    a35e:	bd38      	pop	{r3, r4, r5, pc}
    a360:	f06f 000c 	mvn.w	r0, #12
    a364:	bd38      	pop	{r3, r4, r5, pc}
    a366:	bf00      	nop
    a368:	008041ff 	.word	0x008041ff
    a36c:	0000e9f9 	.word	0x0000e9f9
    a370:	00800084 	.word	0x00800084

0000a374 <_user_area_write>:
    a374:	b5f0      	push	{r4, r5, r6, r7, lr}
    a376:	4616      	mov	r6, r2
    a378:	f5a0 0200 	sub.w	r2, r0, #8388608	; 0x800000
    a37c:	f5a2 4280 	sub.w	r2, r2, #16384	; 0x4000
    a380:	f5b2 7f00 	cmp.w	r2, #512	; 0x200
    a384:	f5ad 7d01 	sub.w	sp, sp, #516	; 0x204
    a388:	460c      	mov	r4, r1
    a38a:	461f      	mov	r7, r3
    a38c:	d20b      	bcs.n	a3a6 <_user_area_write+0x32>
    a38e:	4b14      	ldr	r3, [pc, #80]	; (a3e0 <_user_area_write+0x6c>)
    a390:	1842      	adds	r2, r0, r1
    a392:	429a      	cmp	r2, r3
    a394:	d821      	bhi.n	a3da <_user_area_write+0x66>
    a396:	1e7a      	subs	r2, r7, #1
    a398:	440a      	add	r2, r1
    a39a:	4402      	add	r2, r0
    a39c:	429a      	cmp	r2, r3
    a39e:	d90d      	bls.n	a3bc <_user_area_write+0x48>
    a3a0:	f06f 000c 	mvn.w	r0, #12
    a3a4:	e007      	b.n	a3b6 <_user_area_write+0x42>
    a3a6:	f1a0 1080 	sub.w	r0, r0, #8388736	; 0x800080
    a3aa:	2805      	cmp	r0, #5
    a3ac:	bf34      	ite	cc
    a3ae:	f06f 0010 	mvncc.w	r0, #16
    a3b2:	f06f 001a 	mvncs.w	r0, #26
    a3b6:	f50d 7d01 	add.w	sp, sp, #516	; 0x204
    a3ba:	bdf0      	pop	{r4, r5, r6, r7, pc}
    a3bc:	4601      	mov	r1, r0
    a3be:	4d09      	ldr	r5, [pc, #36]	; (a3e4 <_user_area_write+0x70>)
    a3c0:	f44f 7200 	mov.w	r2, #512	; 0x200
    a3c4:	4668      	mov	r0, sp
    a3c6:	47a8      	blx	r5
    a3c8:	463a      	mov	r2, r7
    a3ca:	4631      	mov	r1, r6
    a3cc:	eb0d 0004 	add.w	r0, sp, r4
    a3d0:	47a8      	blx	r5
    a3d2:	4668      	mov	r0, sp
    a3d4:	4b04      	ldr	r3, [pc, #16]	; (a3e8 <_user_area_write+0x74>)
    a3d6:	4798      	blx	r3
    a3d8:	e7ed      	b.n	a3b6 <_user_area_write+0x42>
    a3da:	f06f 000d 	mvn.w	r0, #13
    a3de:	e7ea      	b.n	a3b6 <_user_area_write+0x42>
    a3e0:	008041ff 	.word	0x008041ff
    a3e4:	0000e9f9 	.word	0x0000e9f9
    a3e8:	0000a20d 	.word	0x0000a20d

0000a3ec <_osc32kctrl_init_sources>:
    a3ec:	4b03      	ldr	r3, [pc, #12]	; (a3fc <_osc32kctrl_init_sources+0x10>)
    a3ee:	69da      	ldr	r2, [r3, #28]
    a3f0:	f402 527c 	and.w	r2, r2, #16128	; 0x3f00
    a3f4:	61da      	str	r2, [r3, #28]
    a3f6:	2201      	movs	r2, #1
    a3f8:	741a      	strb	r2, [r3, #16]
    a3fa:	4770      	bx	lr
    a3fc:	40001400 	.word	0x40001400

0000a400 <_oscctrl_init_sources>:
    a400:	4770      	bx	lr
	...

0000a404 <_oscctrl_init_referenced_generators>:
    a404:	4b3b      	ldr	r3, [pc, #236]	; (a4f4 <_oscctrl_init_referenced_generators+0xf0>)
    a406:	6a1a      	ldr	r2, [r3, #32]
    a408:	f022 020f 	bic.w	r2, r2, #15
    a40c:	f042 0204 	orr.w	r2, r2, #4
    a410:	621a      	str	r2, [r3, #32]
    a412:	f643 72fd 	movw	r2, #16381	; 0x3ffd
    a416:	6859      	ldr	r1, [r3, #4]
    a418:	4211      	tst	r1, r2
    a41a:	d1fc      	bne.n	a416 <_oscctrl_init_referenced_generators+0x12>
    a41c:	685a      	ldr	r2, [r3, #4]
    a41e:	f012 0204 	ands.w	r2, r2, #4
    a422:	d1fb      	bne.n	a41c <_oscctrl_init_referenced_generators+0x18>
    a424:	4b34      	ldr	r3, [pc, #208]	; (a4f8 <_oscctrl_init_referenced_generators+0xf4>)
    a426:	771a      	strb	r2, [r3, #28]
    a428:	4a34      	ldr	r2, [pc, #208]	; (a4fc <_oscctrl_init_referenced_generators+0xf8>)
    a42a:	629a      	str	r2, [r3, #40]	; 0x28
    a42c:	f893 202c 	ldrb.w	r2, [r3, #44]	; 0x2c
    a430:	f012 0210 	ands.w	r2, r2, #16
    a434:	d1fa      	bne.n	a42c <_oscctrl_init_referenced_generators+0x28>
    a436:	f883 2020 	strb.w	r2, [r3, #32]
    a43a:	4a2f      	ldr	r2, [pc, #188]	; (a4f8 <_oscctrl_init_referenced_generators+0xf4>)
    a43c:	4613      	mov	r3, r2
    a43e:	f892 102c 	ldrb.w	r1, [r2, #44]	; 0x2c
    a442:	0749      	lsls	r1, r1, #29
    a444:	d4fb      	bmi.n	a43e <_oscctrl_init_referenced_generators+0x3a>
    a446:	2102      	movs	r1, #2
    a448:	7711      	strb	r1, [r2, #28]
    a44a:	f893 202c 	ldrb.w	r2, [r3, #44]	; 0x2c
    a44e:	0792      	lsls	r2, r2, #30
    a450:	d4fb      	bmi.n	a44a <_oscctrl_init_referenced_generators+0x46>
    a452:	6a5a      	ldr	r2, [r3, #36]	; 0x24
    a454:	625a      	str	r2, [r3, #36]	; 0x24
    a456:	4b28      	ldr	r3, [pc, #160]	; (a4f8 <_oscctrl_init_referenced_generators+0xf4>)
    a458:	461a      	mov	r2, r3
    a45a:	f893 102c 	ldrb.w	r1, [r3, #44]	; 0x2c
    a45e:	0708      	lsls	r0, r1, #28
    a460:	d4fb      	bmi.n	a45a <_oscctrl_init_referenced_generators+0x56>
    a462:	2188      	movs	r1, #136	; 0x88
    a464:	f883 1020 	strb.w	r1, [r3, #32]
    a468:	f892 302c 	ldrb.w	r3, [r2, #44]	; 0x2c
    a46c:	0759      	lsls	r1, r3, #29
    a46e:	d4fb      	bmi.n	a468 <_oscctrl_init_referenced_generators+0x64>
    a470:	4b20      	ldr	r3, [pc, #128]	; (a4f4 <_oscctrl_init_referenced_generators+0xf0>)
    a472:	2142      	movs	r1, #66	; 0x42
    a474:	f8c3 1088 	str.w	r1, [r3, #136]	; 0x88
    a478:	2327      	movs	r3, #39	; 0x27
    a47a:	6493      	str	r3, [r2, #72]	; 0x48
    a47c:	4b1e      	ldr	r3, [pc, #120]	; (a4f8 <_oscctrl_init_referenced_generators+0xf4>)
    a47e:	461a      	mov	r2, r3
    a480:	6d19      	ldr	r1, [r3, #80]	; 0x50
    a482:	f011 0f06 	tst.w	r1, #6
    a486:	d1fb      	bne.n	a480 <_oscctrl_init_referenced_generators+0x7c>
    a488:	f44f 6100 	mov.w	r1, #2048	; 0x800
    a48c:	64d9      	str	r1, [r3, #76]	; 0x4c
    a48e:	2102      	movs	r1, #2
    a490:	f883 1044 	strb.w	r1, [r3, #68]	; 0x44
    a494:	6d13      	ldr	r3, [r2, #80]	; 0x50
    a496:	079b      	lsls	r3, r3, #30
    a498:	d4fc      	bmi.n	a494 <_oscctrl_init_referenced_generators+0x90>
    a49a:	f892 3020 	ldrb.w	r3, [r2, #32]
    a49e:	4a16      	ldr	r2, [pc, #88]	; (a4f8 <_oscctrl_init_referenced_generators+0xf4>)
    a4a0:	f013 0f01 	tst.w	r3, #1
    a4a4:	d021      	beq.n	a4ea <_oscctrl_init_referenced_generators+0xe6>
    a4a6:	6913      	ldr	r3, [r2, #16]
    a4a8:	f403 6310 	and.w	r3, r3, #2304	; 0x900
    a4ac:	f5b3 6f10 	cmp.w	r3, #2304	; 0x900
    a4b0:	d1f9      	bne.n	a4a6 <_oscctrl_init_referenced_generators+0xa2>
    a4b2:	4b11      	ldr	r3, [pc, #68]	; (a4f8 <_oscctrl_init_referenced_generators+0xf4>)
    a4b4:	6d5a      	ldr	r2, [r3, #84]	; 0x54
    a4b6:	07d1      	lsls	r1, r2, #31
    a4b8:	d402      	bmi.n	a4c0 <_oscctrl_init_referenced_generators+0xbc>
    a4ba:	6d5a      	ldr	r2, [r3, #84]	; 0x54
    a4bc:	0792      	lsls	r2, r2, #30
    a4be:	d5f9      	bpl.n	a4b4 <_oscctrl_init_referenced_generators+0xb0>
    a4c0:	4a0c      	ldr	r2, [pc, #48]	; (a4f4 <_oscctrl_init_referenced_generators+0xf0>)
    a4c2:	4611      	mov	r1, r2
    a4c4:	6853      	ldr	r3, [r2, #4]
    a4c6:	2b00      	cmp	r3, #0
    a4c8:	d1fc      	bne.n	a4c4 <_oscctrl_init_referenced_generators+0xc0>
    a4ca:	6a13      	ldr	r3, [r2, #32]
    a4cc:	f023 030f 	bic.w	r3, r3, #15
    a4d0:	f043 0308 	orr.w	r3, r3, #8
    a4d4:	6213      	str	r3, [r2, #32]
    a4d6:	f643 73fd 	movw	r3, #16381	; 0x3ffd
    a4da:	684a      	ldr	r2, [r1, #4]
    a4dc:	421a      	tst	r2, r3
    a4de:	d1fc      	bne.n	a4da <_oscctrl_init_referenced_generators+0xd6>
    a4e0:	4a04      	ldr	r2, [pc, #16]	; (a4f4 <_oscctrl_init_referenced_generators+0xf0>)
    a4e2:	6853      	ldr	r3, [r2, #4]
    a4e4:	075b      	lsls	r3, r3, #29
    a4e6:	d4fc      	bmi.n	a4e2 <_oscctrl_init_referenced_generators+0xde>
    a4e8:	4770      	bx	lr
    a4ea:	6913      	ldr	r3, [r2, #16]
    a4ec:	05d8      	lsls	r0, r3, #23
    a4ee:	d5fc      	bpl.n	a4ea <_oscctrl_init_referenced_generators+0xe6>
    a4f0:	e7df      	b.n	a4b2 <_oscctrl_init_referenced_generators+0xae>
    a4f2:	bf00      	nop
    a4f4:	40001c00 	.word	0x40001c00
    a4f8:	40001000 	.word	0x40001000
    a4fc:	04010000 	.word	0x04010000

0000a500 <_qspi_dma_tx_complete>:
    a500:	6883      	ldr	r3, [r0, #8]
    a502:	4903      	ldr	r1, [pc, #12]	; (a510 <_qspi_dma_tx_complete+0x10>)
    a504:	681a      	ldr	r2, [r3, #0]
    a506:	6011      	str	r1, [r2, #0]
    a508:	685b      	ldr	r3, [r3, #4]
    a50a:	b103      	cbz	r3, a50e <_qspi_dma_tx_complete+0xe>
    a50c:	4718      	bx	r3
    a50e:	4770      	bx	lr
    a510:	01000002 	.word	0x01000002

0000a514 <_qspi_dma_rx_complete>:
    a514:	4b00      	ldr	r3, [pc, #0]	; (a518 <_qspi_dma_rx_complete+0x4>)
    a516:	4718      	bx	r3
    a518:	0000a501 	.word	0x0000a501

0000a51c <_qspi_dma_error_occured>:
    a51c:	6883      	ldr	r3, [r0, #8]
    a51e:	689b      	ldr	r3, [r3, #8]
    a520:	b103      	cbz	r3, a524 <_qspi_dma_error_occured+0x8>
    a522:	4718      	bx	r3
    a524:	4770      	bx	lr
	...

0000a528 <_qspi_dma_init>:
    a528:	b5f8      	push	{r3, r4, r5, r6, r7, lr}
    a52a:	4605      	mov	r5, r0
    a52c:	2301      	movs	r3, #1
    a52e:	f845 1b0c 	str.w	r1, [r5], #12
    a532:	600b      	str	r3, [r1, #0]
    a534:	4b0c      	ldr	r3, [pc, #48]	; (a568 <_qspi_dma_init+0x40>)
    a536:	604b      	str	r3, [r1, #4]
    a538:	4604      	mov	r4, r0
    a53a:	4b0c      	ldr	r3, [pc, #48]	; (a56c <_qspi_dma_init+0x44>)
    a53c:	608b      	str	r3, [r1, #8]
    a53e:	4f0c      	ldr	r7, [pc, #48]	; (a570 <_qspi_dma_init+0x48>)
    a540:	4e0c      	ldr	r6, [pc, #48]	; (a574 <_qspi_dma_init+0x4c>)
    a542:	211f      	movs	r1, #31
    a544:	4628      	mov	r0, r5
    a546:	47b8      	blx	r7
    a548:	68e3      	ldr	r3, [r4, #12]
    a54a:	4a0b      	ldr	r2, [pc, #44]	; (a578 <_qspi_dma_init+0x50>)
    a54c:	609c      	str	r4, [r3, #8]
    a54e:	601a      	str	r2, [r3, #0]
    a550:	605e      	str	r6, [r3, #4]
    a552:	211e      	movs	r1, #30
    a554:	4628      	mov	r0, r5
    a556:	47b8      	blx	r7
    a558:	68e3      	ldr	r3, [r4, #12]
    a55a:	4a08      	ldr	r2, [pc, #32]	; (a57c <_qspi_dma_init+0x54>)
    a55c:	609c      	str	r4, [r3, #8]
    a55e:	e883 0044 	stmia.w	r3, {r2, r6}
    a562:	2000      	movs	r0, #0
    a564:	bdf8      	pop	{r3, r4, r5, r6, r7, pc}
    a566:	bf00      	nop
    a568:	06000011 	.word	0x06000011
    a56c:	00243b00 	.word	0x00243b00
    a570:	0000a0f9 	.word	0x0000a0f9
    a574:	0000a51d 	.word	0x0000a51d
    a578:	0000a515 	.word	0x0000a515
    a57c:	0000a501 	.word	0x0000a501

0000a580 <RAMECC_Handler>:
    a580:	b507      	push	{r0, r1, r2, lr}
    a582:	4a0c      	ldr	r2, [pc, #48]	; (a5b4 <RAMECC_Handler+0x34>)
    a584:	7893      	ldrb	r3, [r2, #2]
    a586:	b2db      	uxtb	r3, r3
    a588:	9301      	str	r3, [sp, #4]
    a58a:	9b01      	ldr	r3, [sp, #4]
    a58c:	0799      	lsls	r1, r3, #30
    a58e:	d507      	bpl.n	a5a0 <RAMECC_Handler+0x20>
    a590:	4b09      	ldr	r3, [pc, #36]	; (a5b8 <RAMECC_Handler+0x38>)
    a592:	681b      	ldr	r3, [r3, #0]
    a594:	b123      	cbz	r3, a5a0 <RAMECC_Handler+0x20>
    a596:	6850      	ldr	r0, [r2, #4]
    a598:	4798      	blx	r3
    a59a:	b003      	add	sp, #12
    a59c:	f85d fb04 	ldr.w	pc, [sp], #4
    a5a0:	9b01      	ldr	r3, [sp, #4]
    a5a2:	07db      	lsls	r3, r3, #31
    a5a4:	d5f9      	bpl.n	a59a <RAMECC_Handler+0x1a>
    a5a6:	4b04      	ldr	r3, [pc, #16]	; (a5b8 <RAMECC_Handler+0x38>)
    a5a8:	685b      	ldr	r3, [r3, #4]
    a5aa:	2b00      	cmp	r3, #0
    a5ac:	d0f5      	beq.n	a59a <RAMECC_Handler+0x1a>
    a5ae:	4a01      	ldr	r2, [pc, #4]	; (a5b4 <RAMECC_Handler+0x34>)
    a5b0:	e7f1      	b.n	a596 <RAMECC_Handler+0x16>
    a5b2:	bf00      	nop
    a5b4:	41020000 	.word	0x41020000
    a5b8:	200081f0 	.word	0x200081f0

0000a5bc <hri_rtcmode0_wait_for_sync>:
    a5bc:	6903      	ldr	r3, [r0, #16]
    a5be:	420b      	tst	r3, r1
    a5c0:	d1fc      	bne.n	a5bc <hri_rtcmode0_wait_for_sync>
    a5c2:	4770      	bx	lr

0000a5c4 <_rtc_timer_stop>:
    a5c4:	68c0      	ldr	r0, [r0, #12]
    a5c6:	8803      	ldrh	r3, [r0, #0]
    a5c8:	f023 0302 	bic.w	r3, r3, #2
    a5cc:	041b      	lsls	r3, r3, #16
    a5ce:	0c1b      	lsrs	r3, r3, #16
    a5d0:	8003      	strh	r3, [r0, #0]
    a5d2:	f248 0103 	movw	r1, #32771	; 0x8003
    a5d6:	4b01      	ldr	r3, [pc, #4]	; (a5dc <_rtc_timer_stop+0x18>)
    a5d8:	4718      	bx	r3
    a5da:	bf00      	nop
    a5dc:	0000a5bd 	.word	0x0000a5bd

0000a5e0 <_rtc_timer_set_period>:
    a5e0:	68c0      	ldr	r0, [r0, #12]
    a5e2:	4b02      	ldr	r3, [pc, #8]	; (a5ec <_rtc_timer_set_period+0xc>)
    a5e4:	6201      	str	r1, [r0, #32]
    a5e6:	2160      	movs	r1, #96	; 0x60
    a5e8:	4718      	bx	r3
    a5ea:	bf00      	nop
    a5ec:	0000a5bd 	.word	0x0000a5bd

0000a5f0 <_rtc_timer_get_period>:
    a5f0:	68c2      	ldr	r2, [r0, #12]
    a5f2:	b508      	push	{r3, lr}
    a5f4:	4610      	mov	r0, r2
    a5f6:	2160      	movs	r1, #96	; 0x60
    a5f8:	4b01      	ldr	r3, [pc, #4]	; (a600 <_rtc_timer_get_period+0x10>)
    a5fa:	4798      	blx	r3
    a5fc:	6a10      	ldr	r0, [r2, #32]
    a5fe:	bd08      	pop	{r3, pc}
    a600:	0000a5bd 	.word	0x0000a5bd

0000a604 <_rtc_timer_is_started>:
    a604:	68c2      	ldr	r2, [r0, #12]
    a606:	b508      	push	{r3, lr}
    a608:	4610      	mov	r0, r2
    a60a:	f248 0103 	movw	r1, #32771	; 0x8003
    a60e:	4b03      	ldr	r3, [pc, #12]	; (a61c <_rtc_timer_is_started+0x18>)
    a610:	4798      	blx	r3
    a612:	8810      	ldrh	r0, [r2, #0]
    a614:	f3c0 0040 	ubfx	r0, r0, #1, #1
    a618:	bd08      	pop	{r3, pc}
    a61a:	bf00      	nop
    a61c:	0000a5bd 	.word	0x0000a5bd

0000a620 <_rtc_timer_set_irq>:
    a620:	4770      	bx	lr
	...

0000a624 <_rtc_timer_start>:
    a624:	4b0c      	ldr	r3, [pc, #48]	; (a658 <_rtc_timer_start+0x34>)
    a626:	b510      	push	{r4, lr}
    a628:	f44f 6200 	mov.w	r2, #2048	; 0x800
    a62c:	4604      	mov	r4, r0
    a62e:	68c0      	ldr	r0, [r0, #12]
    a630:	601a      	str	r2, [r3, #0]
    a632:	2300      	movs	r3, #0
    a634:	6183      	str	r3, [r0, #24]
    a636:	2108      	movs	r1, #8
    a638:	4a08      	ldr	r2, [pc, #32]	; (a65c <_rtc_timer_start+0x38>)
    a63a:	4790      	blx	r2
    a63c:	68e0      	ldr	r0, [r4, #12]
    a63e:	2108      	movs	r1, #8
    a640:	4790      	blx	r2
    a642:	68e0      	ldr	r0, [r4, #12]
    a644:	8803      	ldrh	r3, [r0, #0]
    a646:	b29b      	uxth	r3, r3
    a648:	f043 0302 	orr.w	r3, r3, #2
    a64c:	8003      	strh	r3, [r0, #0]
    a64e:	f248 0103 	movw	r1, #32771	; 0x8003
    a652:	e8bd 4010 	ldmia.w	sp!, {r4, lr}
    a656:	4710      	bx	r2
    a658:	e000e100 	.word	0xe000e100
    a65c:	0000a5bd 	.word	0x0000a5bd

0000a660 <_rtc_timer_deinit>:
    a660:	4b07      	ldr	r3, [pc, #28]	; (a680 <_rtc_timer_deinit+0x20>)
    a662:	f44f 6200 	mov.w	r2, #2048	; 0x800
    a666:	f8c3 2080 	str.w	r2, [r3, #128]	; 0x80
    a66a:	f3bf 8f4f 	dsb	sy
    a66e:	f3bf 8f6f 	isb	sy
    a672:	68c0      	ldr	r0, [r0, #12]
    a674:	2301      	movs	r3, #1
    a676:	8003      	strh	r3, [r0, #0]
    a678:	f248 0103 	movw	r1, #32771	; 0x8003
    a67c:	4b01      	ldr	r3, [pc, #4]	; (a684 <_rtc_timer_deinit+0x24>)
    a67e:	4718      	bx	r3
    a680:	e000e100 	.word	0xe000e100
    a684:	0000a5bd 	.word	0x0000a5bd

0000a688 <_rtc_timer_init>:
    a688:	4602      	mov	r2, r0
    a68a:	b538      	push	{r3, r4, r5, lr}
    a68c:	2501      	movs	r5, #1
    a68e:	60d1      	str	r1, [r2, #12]
    a690:	4c0d      	ldr	r4, [pc, #52]	; (a6c8 <_rtc_timer_init+0x40>)
    a692:	800d      	strh	r5, [r1, #0]
    a694:	4608      	mov	r0, r1
    a696:	f248 0103 	movw	r1, #32771	; 0x8003
    a69a:	47a0      	blx	r4
    a69c:	4629      	mov	r1, r5
    a69e:	68d0      	ldr	r0, [r2, #12]
    a6a0:	47a0      	blx	r4
    a6a2:	68d0      	ldr	r0, [r2, #12]
    a6a4:	f248 0380 	movw	r3, #32896	; 0x8080
    a6a8:	8003      	strh	r3, [r0, #0]
    a6aa:	f248 0103 	movw	r1, #32771	; 0x8003
    a6ae:	47a0      	blx	r4
    a6b0:	68d0      	ldr	r0, [r2, #12]
    a6b2:	2160      	movs	r1, #96	; 0x60
    a6b4:	6205      	str	r5, [r0, #32]
    a6b6:	47a0      	blx	r4
    a6b8:	68d3      	ldr	r3, [r2, #12]
    a6ba:	f44f 7180 	mov.w	r1, #256	; 0x100
    a6be:	8159      	strh	r1, [r3, #10]
    a6c0:	4b02      	ldr	r3, [pc, #8]	; (a6cc <_rtc_timer_init+0x44>)
    a6c2:	2000      	movs	r0, #0
    a6c4:	601a      	str	r2, [r3, #0]
    a6c6:	bd38      	pop	{r3, r4, r5, pc}
    a6c8:	0000a5bd 	.word	0x0000a5bd
    a6cc:	200009f8 	.word	0x200009f8

0000a6d0 <_rtc_get_timer>:
    a6d0:	4800      	ldr	r0, [pc, #0]	; (a6d4 <_rtc_get_timer+0x4>)
    a6d2:	4770      	bx	lr
    a6d4:	20000348 	.word	0x20000348

0000a6d8 <RTC_Handler>:
    a6d8:	4b07      	ldr	r3, [pc, #28]	; (a6f8 <RTC_Handler+0x20>)
    a6da:	b510      	push	{r4, lr}
    a6dc:	681c      	ldr	r4, [r3, #0]
    a6de:	68e3      	ldr	r3, [r4, #12]
    a6e0:	899b      	ldrh	r3, [r3, #12]
    a6e2:	05db      	lsls	r3, r3, #23
    a6e4:	d507      	bpl.n	a6f6 <RTC_Handler+0x1e>
    a6e6:	6823      	ldr	r3, [r4, #0]
    a6e8:	b10b      	cbz	r3, a6ee <RTC_Handler+0x16>
    a6ea:	4620      	mov	r0, r4
    a6ec:	4798      	blx	r3
    a6ee:	68e3      	ldr	r3, [r4, #12]
    a6f0:	f44f 7280 	mov.w	r2, #256	; 0x100
    a6f4:	819a      	strh	r2, [r3, #12]
    a6f6:	bd10      	pop	{r4, pc}
    a6f8:	200009f8 	.word	0x200009f8

0000a6fc <__NVIC_EnableIRQ>:
    a6fc:	2800      	cmp	r0, #0
    a6fe:	db08      	blt.n	a712 <__NVIC_EnableIRQ+0x16>
    a700:	0942      	lsrs	r2, r0, #5
    a702:	2301      	movs	r3, #1
    a704:	f000 001f 	and.w	r0, r0, #31
    a708:	fa03 f000 	lsl.w	r0, r3, r0
    a70c:	4b01      	ldr	r3, [pc, #4]	; (a714 <__NVIC_EnableIRQ+0x18>)
    a70e:	f843 0022 	str.w	r0, [r3, r2, lsl #2]
    a712:	4770      	bx	lr
    a714:	e000e100 	.word	0xe000e100

0000a718 <__NVIC_DisableIRQ>:
    a718:	2800      	cmp	r0, #0
    a71a:	db0d      	blt.n	a738 <__NVIC_DisableIRQ+0x20>
    a71c:	0943      	lsrs	r3, r0, #5
    a71e:	2201      	movs	r2, #1
    a720:	f000 001f 	and.w	r0, r0, #31
    a724:	fa02 f000 	lsl.w	r0, r2, r0
    a728:	3320      	adds	r3, #32
    a72a:	4a04      	ldr	r2, [pc, #16]	; (a73c <__NVIC_DisableIRQ+0x24>)
    a72c:	f842 0023 	str.w	r0, [r2, r3, lsl #2]
    a730:	f3bf 8f4f 	dsb	sy
    a734:	f3bf 8f6f 	isb	sy
    a738:	4770      	bx	lr
    a73a:	bf00      	nop
    a73c:	e000e100 	.word	0xe000e100

0000a740 <__NVIC_ClearPendingIRQ>:
    a740:	2800      	cmp	r0, #0
    a742:	db09      	blt.n	a758 <__NVIC_ClearPendingIRQ+0x18>
    a744:	0943      	lsrs	r3, r0, #5
    a746:	2201      	movs	r2, #1
    a748:	f000 001f 	and.w	r0, r0, #31
    a74c:	fa02 f000 	lsl.w	r0, r2, r0
    a750:	3360      	adds	r3, #96	; 0x60
    a752:	4a02      	ldr	r2, [pc, #8]	; (a75c <__NVIC_ClearPendingIRQ+0x1c>)
    a754:	f842 0023 	str.w	r0, [r2, r3, lsl #2]
    a758:	4770      	bx	lr
    a75a:	bf00      	nop
    a75c:	e000e100 	.word	0xe000e100

0000a760 <hri_sercomi2cm_wait_for_sync>:
    a760:	69c3      	ldr	r3, [r0, #28]
    a762:	420b      	tst	r3, r1
    a764:	d1fc      	bne.n	a760 <hri_sercomi2cm_wait_for_sync>
    a766:	4770      	bx	lr

0000a768 <hri_sercomspi_wait_for_sync>:
    a768:	69c3      	ldr	r3, [r0, #28]
    a76a:	420b      	tst	r3, r1
    a76c:	d1fc      	bne.n	a768 <hri_sercomspi_wait_for_sync>
    a76e:	4770      	bx	lr

0000a770 <hri_sercomusart_wait_for_sync>:
    a770:	69c3      	ldr	r3, [r0, #28]
    a772:	420b      	tst	r3, r1
    a774:	d1fc      	bne.n	a770 <hri_sercomusart_wait_for_sync>
    a776:	4770      	bx	lr

0000a778 <hri_sercomi2cm_clear_CTRLA_ENABLE_bit>:
    a778:	6803      	ldr	r3, [r0, #0]
    a77a:	f023 0302 	bic.w	r3, r3, #2
    a77e:	6003      	str	r3, [r0, #0]
    a780:	2103      	movs	r1, #3
    a782:	4b01      	ldr	r3, [pc, #4]	; (a788 <hri_sercomi2cm_clear_CTRLA_ENABLE_bit+0x10>)
    a784:	4718      	bx	r3
    a786:	bf00      	nop
    a788:	0000a761 	.word	0x0000a761

0000a78c <hri_sercomspi_clear_CTRLA_ENABLE_bit>:
    a78c:	6803      	ldr	r3, [r0, #0]
    a78e:	f023 0302 	bic.w	r3, r3, #2
    a792:	6003      	str	r3, [r0, #0]
    a794:	2103      	movs	r1, #3
    a796:	4b01      	ldr	r3, [pc, #4]	; (a79c <hri_sercomspi_clear_CTRLA_ENABLE_bit+0x10>)
    a798:	4718      	bx	r3
    a79a:	bf00      	nop
    a79c:	0000a769 	.word	0x0000a769

0000a7a0 <hri_sercomusart_get_CTRLA_ENABLE_bit>:
    a7a0:	b508      	push	{r3, lr}
    a7a2:	2103      	movs	r1, #3
    a7a4:	4b02      	ldr	r3, [pc, #8]	; (a7b0 <hri_sercomusart_get_CTRLA_ENABLE_bit+0x10>)
    a7a6:	4798      	blx	r3
    a7a8:	6800      	ldr	r0, [r0, #0]
    a7aa:	f3c0 0040 	ubfx	r0, r0, #1, #1
    a7ae:	bd08      	pop	{r3, pc}
    a7b0:	0000a771 	.word	0x0000a771

0000a7b4 <hri_sercomusart_write_CTRLA_ENABLE_bit>:
    a7b4:	6803      	ldr	r3, [r0, #0]
    a7b6:	f023 0302 	bic.w	r3, r3, #2
    a7ba:	ea43 0141 	orr.w	r1, r3, r1, lsl #1
    a7be:	6001      	str	r1, [r0, #0]
    a7c0:	4b01      	ldr	r3, [pc, #4]	; (a7c8 <hri_sercomusart_write_CTRLA_ENABLE_bit+0x14>)
    a7c2:	2103      	movs	r1, #3
    a7c4:	4718      	bx	r3
    a7c6:	bf00      	nop
    a7c8:	0000a771 	.word	0x0000a771

0000a7cc <hri_sercomusart_clear_CTRLA_ENABLE_bit>:
    a7cc:	6803      	ldr	r3, [r0, #0]
    a7ce:	f023 0302 	bic.w	r3, r3, #2
    a7d2:	6003      	str	r3, [r0, #0]
    a7d4:	2103      	movs	r1, #3
    a7d6:	4b01      	ldr	r3, [pc, #4]	; (a7dc <hri_sercomusart_clear_CTRLA_ENABLE_bit+0x10>)
    a7d8:	4718      	bx	r3
    a7da:	bf00      	nop
    a7dc:	0000a771 	.word	0x0000a771

0000a7e0 <_sercom_get_hardware_index>:
    a7e0:	b570      	push	{r4, r5, r6, lr}
    a7e2:	4d0b      	ldr	r5, [pc, #44]	; (a810 <_sercom_get_hardware_index+0x30>)
    a7e4:	4606      	mov	r6, r0
    a7e6:	cd0f      	ldmia	r5!, {r0, r1, r2, r3}
    a7e8:	b088      	sub	sp, #32
    a7ea:	466c      	mov	r4, sp
    a7ec:	c40f      	stmia	r4!, {r0, r1, r2, r3}
    a7ee:	e895 000f 	ldmia.w	r5, {r0, r1, r2, r3}
    a7f2:	e884 000f 	stmia.w	r4, {r0, r1, r2, r3}
    a7f6:	2000      	movs	r0, #0
    a7f8:	f85d 3020 	ldr.w	r3, [sp, r0, lsl #2]
    a7fc:	42b3      	cmp	r3, r6
    a7fe:	d102      	bne.n	a806 <_sercom_get_hardware_index+0x26>
    a800:	b2c0      	uxtb	r0, r0
    a802:	b008      	add	sp, #32
    a804:	bd70      	pop	{r4, r5, r6, pc}
    a806:	3001      	adds	r0, #1
    a808:	2808      	cmp	r0, #8
    a80a:	d1f5      	bne.n	a7f8 <_sercom_get_hardware_index+0x18>
    a80c:	2000      	movs	r0, #0
    a80e:	e7f8      	b.n	a802 <_sercom_get_hardware_index+0x22>
    a810:	0001066c 	.word	0x0001066c

0000a814 <_sercom_usart_interrupt_handler>:
    a814:	b510      	push	{r4, lr}
    a816:	6984      	ldr	r4, [r0, #24]
    a818:	7e22      	ldrb	r2, [r4, #24]
    a81a:	07d1      	lsls	r1, r2, #31
    a81c:	4603      	mov	r3, r0
    a81e:	d508      	bpl.n	a832 <_sercom_usart_interrupt_handler+0x1e>
    a820:	7da2      	ldrb	r2, [r4, #22]
    a822:	07d2      	lsls	r2, r2, #31
    a824:	d505      	bpl.n	a832 <_sercom_usart_interrupt_handler+0x1e>
    a826:	2201      	movs	r2, #1
    a828:	7522      	strb	r2, [r4, #20]
    a82a:	6803      	ldr	r3, [r0, #0]
    a82c:	e8bd 4010 	ldmia.w	sp!, {r4, lr}
    a830:	4718      	bx	r3
    a832:	7e22      	ldrb	r2, [r4, #24]
    a834:	0790      	lsls	r0, r2, #30
    a836:	d509      	bpl.n	a84c <_sercom_usart_interrupt_handler+0x38>
    a838:	7da2      	ldrb	r2, [r4, #22]
    a83a:	0791      	lsls	r1, r2, #30
    a83c:	d506      	bpl.n	a84c <_sercom_usart_interrupt_handler+0x38>
    a83e:	2202      	movs	r2, #2
    a840:	7522      	strb	r2, [r4, #20]
    a842:	689a      	ldr	r2, [r3, #8]
    a844:	4618      	mov	r0, r3
    a846:	e8bd 4010 	ldmia.w	sp!, {r4, lr}
    a84a:	4710      	bx	r2
    a84c:	7e22      	ldrb	r2, [r4, #24]
    a84e:	0752      	lsls	r2, r2, #29
    a850:	d50d      	bpl.n	a86e <_sercom_usart_interrupt_handler+0x5a>
    a852:	8b62      	ldrh	r2, [r4, #26]
    a854:	f002 0237 	and.w	r2, r2, #55	; 0x37
    a858:	b112      	cbz	r2, a860 <_sercom_usart_interrupt_handler+0x4c>
    a85a:	23ff      	movs	r3, #255	; 0xff
    a85c:	8363      	strh	r3, [r4, #26]
    a85e:	bd10      	pop	{r4, pc}
    a860:	6aa1      	ldr	r1, [r4, #40]	; 0x28
    a862:	685a      	ldr	r2, [r3, #4]
    a864:	b2c9      	uxtb	r1, r1
    a866:	4618      	mov	r0, r3
    a868:	e8bd 4010 	ldmia.w	sp!, {r4, lr}
    a86c:	4710      	bx	r2
    a86e:	7e22      	ldrb	r2, [r4, #24]
    a870:	09d2      	lsrs	r2, r2, #7
    a872:	d0f4      	beq.n	a85e <_sercom_usart_interrupt_handler+0x4a>
    a874:	2280      	movs	r2, #128	; 0x80
    a876:	7622      	strb	r2, [r4, #24]
    a878:	68da      	ldr	r2, [r3, #12]
    a87a:	4618      	mov	r0, r3
    a87c:	4790      	blx	r2
    a87e:	8b63      	ldrh	r3, [r4, #26]
    a880:	b29b      	uxth	r3, r3
    a882:	e7eb      	b.n	a85c <_sercom_usart_interrupt_handler+0x48>

0000a884 <_sercom_init_irq_param>:
    a884:	4b11      	ldr	r3, [pc, #68]	; (a8cc <_sercom_init_irq_param+0x48>)
    a886:	4298      	cmp	r0, r3
    a888:	d107      	bne.n	a89a <_sercom_init_irq_param+0x16>
    a88a:	4b11      	ldr	r3, [pc, #68]	; (a8d0 <_sercom_init_irq_param+0x4c>)
    a88c:	6019      	str	r1, [r3, #0]
    a88e:	4b11      	ldr	r3, [pc, #68]	; (a8d4 <_sercom_init_irq_param+0x50>)
    a890:	4298      	cmp	r0, r3
    a892:	bf04      	itt	eq
    a894:	4b0e      	ldreq	r3, [pc, #56]	; (a8d0 <_sercom_init_irq_param+0x4c>)
    a896:	6159      	streq	r1, [r3, #20]
    a898:	4770      	bx	lr
    a89a:	4b0f      	ldr	r3, [pc, #60]	; (a8d8 <_sercom_init_irq_param+0x54>)
    a89c:	4298      	cmp	r0, r3
    a89e:	d102      	bne.n	a8a6 <_sercom_init_irq_param+0x22>
    a8a0:	4b0b      	ldr	r3, [pc, #44]	; (a8d0 <_sercom_init_irq_param+0x4c>)
    a8a2:	6059      	str	r1, [r3, #4]
    a8a4:	e7f3      	b.n	a88e <_sercom_init_irq_param+0xa>
    a8a6:	4b0d      	ldr	r3, [pc, #52]	; (a8dc <_sercom_init_irq_param+0x58>)
    a8a8:	4298      	cmp	r0, r3
    a8aa:	d102      	bne.n	a8b2 <_sercom_init_irq_param+0x2e>
    a8ac:	4b08      	ldr	r3, [pc, #32]	; (a8d0 <_sercom_init_irq_param+0x4c>)
    a8ae:	6099      	str	r1, [r3, #8]
    a8b0:	4770      	bx	lr
    a8b2:	f1b0 4f86 	cmp.w	r0, #1124073472	; 0x43000000
    a8b6:	d102      	bne.n	a8be <_sercom_init_irq_param+0x3a>
    a8b8:	4b05      	ldr	r3, [pc, #20]	; (a8d0 <_sercom_init_irq_param+0x4c>)
    a8ba:	60d9      	str	r1, [r3, #12]
    a8bc:	4770      	bx	lr
    a8be:	4b08      	ldr	r3, [pc, #32]	; (a8e0 <_sercom_init_irq_param+0x5c>)
    a8c0:	4298      	cmp	r0, r3
    a8c2:	d1e4      	bne.n	a88e <_sercom_init_irq_param+0xa>
    a8c4:	4b02      	ldr	r3, [pc, #8]	; (a8d0 <_sercom_init_irq_param+0x4c>)
    a8c6:	6119      	str	r1, [r3, #16]
    a8c8:	4770      	bx	lr
    a8ca:	bf00      	nop
    a8cc:	40003000 	.word	0x40003000
    a8d0:	200009fc 	.word	0x200009fc
    a8d4:	43000800 	.word	0x43000800
    a8d8:	40003400 	.word	0x40003400
    a8dc:	41014000 	.word	0x41014000
    a8e0:	43000400 	.word	0x43000400

0000a8e4 <_get_i2cm_index>:
    a8e4:	b508      	push	{r3, lr}
    a8e6:	4b03      	ldr	r3, [pc, #12]	; (a8f4 <_get_i2cm_index+0x10>)
    a8e8:	4798      	blx	r3
    a8ea:	3805      	subs	r0, #5
    a8ec:	bf18      	it	ne
    a8ee:	f04f 30ff 	movne.w	r0, #4294967295
    a8f2:	bd08      	pop	{r3, pc}
    a8f4:	0000a7e1 	.word	0x0000a7e1

0000a8f8 <_sercom_get_irq_num>:
    a8f8:	b508      	push	{r3, lr}
    a8fa:	4b03      	ldr	r3, [pc, #12]	; (a908 <_sercom_get_irq_num+0x10>)
    a8fc:	4798      	blx	r3
    a8fe:	0080      	lsls	r0, r0, #2
    a900:	302e      	adds	r0, #46	; 0x2e
    a902:	f000 00fe 	and.w	r0, r0, #254	; 0xfe
    a906:	bd08      	pop	{r3, pc}
    a908:	0000a7e1 	.word	0x0000a7e1

0000a90c <_spi_sync_enable>:
    a90c:	b508      	push	{r3, lr}
    a90e:	69c2      	ldr	r2, [r0, #28]
    a910:	f012 0201 	ands.w	r2, r2, #1
    a914:	d108      	bne.n	a928 <_spi_sync_enable+0x1c>
    a916:	6803      	ldr	r3, [r0, #0]
    a918:	f043 0302 	orr.w	r3, r3, #2
    a91c:	6003      	str	r3, [r0, #0]
    a91e:	2103      	movs	r1, #3
    a920:	4b03      	ldr	r3, [pc, #12]	; (a930 <_spi_sync_enable+0x24>)
    a922:	4798      	blx	r3
    a924:	4610      	mov	r0, r2
    a926:	bd08      	pop	{r3, pc}
    a928:	f06f 0003 	mvn.w	r0, #3
    a92c:	bd08      	pop	{r3, pc}
    a92e:	bf00      	nop
    a930:	0000a769 	.word	0x0000a769

0000a934 <_spi_get_regs>:
    a934:	b508      	push	{r3, lr}
    a936:	4b08      	ldr	r3, [pc, #32]	; (a958 <_spi_get_regs+0x24>)
    a938:	4798      	blx	r3
    a93a:	2803      	cmp	r0, #3
    a93c:	d007      	beq.n	a94e <_spi_get_regs+0x1a>
    a93e:	2807      	cmp	r0, #7
    a940:	d107      	bne.n	a952 <_spi_get_regs+0x1e>
    a942:	2301      	movs	r3, #1
    a944:	4805      	ldr	r0, [pc, #20]	; (a95c <_spi_get_regs+0x28>)
    a946:	eb00 1003 	add.w	r0, r0, r3, lsl #4
    a94a:	4418      	add	r0, r3
    a94c:	bd08      	pop	{r3, pc}
    a94e:	2300      	movs	r3, #0
    a950:	e7f8      	b.n	a944 <_spi_get_regs+0x10>
    a952:	2000      	movs	r0, #0
    a954:	bd08      	pop	{r3, pc}
    a956:	bf00      	nop
    a958:	0000a7e1 	.word	0x0000a7e1
    a95c:	0001068c 	.word	0x0001068c

0000a960 <_spi_get_tx_dma_channel>:
    a960:	b508      	push	{r3, lr}
    a962:	4b03      	ldr	r3, [pc, #12]	; (a970 <_spi_get_tx_dma_channel+0x10>)
    a964:	4798      	blx	r3
    a966:	2807      	cmp	r0, #7
    a968:	bf0c      	ite	eq
    a96a:	2008      	moveq	r0, #8
    a96c:	2000      	movne	r0, #0
    a96e:	bd08      	pop	{r3, pc}
    a970:	0000a7e1 	.word	0x0000a7e1

0000a974 <_spi_get_rx_dma_channel>:
    a974:	b508      	push	{r3, lr}
    a976:	4b03      	ldr	r3, [pc, #12]	; (a984 <_spi_get_rx_dma_channel+0x10>)
    a978:	4798      	blx	r3
    a97a:	2807      	cmp	r0, #7
    a97c:	bf8c      	ite	hi
    a97e:	2000      	movhi	r0, #0
    a980:	2001      	movls	r0, #1
    a982:	bd08      	pop	{r3, pc}
    a984:	0000a7e1 	.word	0x0000a7e1

0000a988 <_spi_dma_rx_complete>:
    a988:	6883      	ldr	r3, [r0, #8]
    a98a:	689b      	ldr	r3, [r3, #8]
    a98c:	b103      	cbz	r3, a990 <_spi_dma_rx_complete+0x8>
    a98e:	4718      	bx	r3
    a990:	4770      	bx	lr

0000a992 <_spi_dma_tx_complete>:
    a992:	6883      	ldr	r3, [r0, #8]
    a994:	685b      	ldr	r3, [r3, #4]
    a996:	b103      	cbz	r3, a99a <_spi_dma_tx_complete+0x8>
    a998:	4718      	bx	r3
    a99a:	4770      	bx	lr

0000a99c <_spi_dma_error_occured>:
    a99c:	6883      	ldr	r3, [r0, #8]
    a99e:	68db      	ldr	r3, [r3, #12]
    a9a0:	b103      	cbz	r3, a9a4 <_spi_dma_error_occured+0x8>
    a9a2:	4718      	bx	r3
    a9a4:	4770      	bx	lr
	...

0000a9a8 <_usart_set_parity>:
    a9a8:	b573      	push	{r0, r1, r4, r5, r6, lr}
    a9aa:	4b17      	ldr	r3, [pc, #92]	; (aa08 <_usart_set_parity+0x60>)
    a9ac:	4604      	mov	r4, r0
    a9ae:	460d      	mov	r5, r1
    a9b0:	4798      	blx	r3
    a9b2:	4b16      	ldr	r3, [pc, #88]	; (aa0c <_usart_set_parity+0x64>)
    a9b4:	4606      	mov	r6, r0
    a9b6:	4620      	mov	r0, r4
    a9b8:	4798      	blx	r3
    a9ba:	a801      	add	r0, sp, #4
    a9bc:	4b14      	ldr	r3, [pc, #80]	; (aa10 <_usart_set_parity+0x68>)
    a9be:	4798      	blx	r3
    a9c0:	4a14      	ldr	r2, [pc, #80]	; (aa14 <_usart_set_parity+0x6c>)
    a9c2:	4620      	mov	r0, r4
    a9c4:	2102      	movs	r1, #2
    a9c6:	4790      	blx	r2
    a9c8:	6823      	ldr	r3, [r4, #0]
    a9ca:	2d02      	cmp	r5, #2
    a9cc:	bf14      	ite	ne
    a9ce:	f043 7380 	orrne.w	r3, r3, #16777216	; 0x1000000
    a9d2:	f023 7380 	biceq.w	r3, r3, #16777216	; 0x1000000
    a9d6:	6023      	str	r3, [r4, #0]
    a9d8:	4620      	mov	r0, r4
    a9da:	211f      	movs	r1, #31
    a9dc:	4790      	blx	r2
    a9de:	6861      	ldr	r1, [r4, #4]
    a9e0:	3500      	adds	r5, #0
    a9e2:	bf18      	it	ne
    a9e4:	2501      	movne	r5, #1
    a9e6:	f421 5100 	bic.w	r1, r1, #8192	; 0x2000
    a9ea:	ea41 3145 	orr.w	r1, r1, r5, lsl #13
    a9ee:	6061      	str	r1, [r4, #4]
    a9f0:	4620      	mov	r0, r4
    a9f2:	211f      	movs	r1, #31
    a9f4:	4790      	blx	r2
    a9f6:	a801      	add	r0, sp, #4
    a9f8:	4b07      	ldr	r3, [pc, #28]	; (aa18 <_usart_set_parity+0x70>)
    a9fa:	4798      	blx	r3
    a9fc:	4631      	mov	r1, r6
    a9fe:	4620      	mov	r0, r4
    aa00:	4b06      	ldr	r3, [pc, #24]	; (aa1c <_usart_set_parity+0x74>)
    aa02:	4798      	blx	r3
    aa04:	b002      	add	sp, #8
    aa06:	bd70      	pop	{r4, r5, r6, pc}
    aa08:	0000a7a1 	.word	0x0000a7a1
    aa0c:	0000a7cd 	.word	0x0000a7cd
    aa10:	00008cf5 	.word	0x00008cf5
    aa14:	0000a771 	.word	0x0000a771
    aa18:	00008d03 	.word	0x00008d03
    aa1c:	0000a7b5 	.word	0x0000a7b5

0000aa20 <_sercom_i2c_send_stop>:
    aa20:	6843      	ldr	r3, [r0, #4]
    aa22:	f443 3340 	orr.w	r3, r3, #196608	; 0x30000
    aa26:	6043      	str	r3, [r0, #4]
    aa28:	2104      	movs	r1, #4
    aa2a:	4b01      	ldr	r3, [pc, #4]	; (aa30 <_sercom_i2c_send_stop+0x10>)
    aa2c:	4718      	bx	r3
    aa2e:	bf00      	nop
    aa30:	0000a761 	.word	0x0000a761

0000aa34 <_sercom_i2c_sync_analyse_flags>:
    aa34:	e92d 41f0 	stmdb	sp!, {r4, r5, r6, r7, r8, lr}
    aa38:	460d      	mov	r5, r1
    aa3a:	4e57      	ldr	r6, [pc, #348]	; (ab98 <_sercom_i2c_sync_analyse_flags+0x164>)
    aa3c:	f8d0 8000 	ldr.w	r8, [r0]
    aa40:	2104      	movs	r1, #4
    aa42:	4604      	mov	r4, r0
    aa44:	47b0      	blx	r6
    aa46:	8b43      	ldrh	r3, [r0, #26]
    aa48:	f015 0f01 	tst.w	r5, #1
    aa4c:	b29b      	uxth	r3, r3
    aa4e:	4637      	mov	r7, r6
    aa50:	d064      	beq.n	ab1c <_sercom_i2c_sync_analyse_flags+0xe8>
    aa52:	0799      	lsls	r1, r3, #30
    aa54:	d517      	bpl.n	aa86 <_sercom_i2c_sync_analyse_flags+0x52>
    aa56:	2101      	movs	r1, #1
    aa58:	7601      	strb	r1, [r0, #24]
    aa5a:	8851      	ldrh	r1, [r2, #2]
    aa5c:	b289      	uxth	r1, r1
    aa5e:	f441 5180 	orr.w	r1, r1, #4096	; 0x1000
    aa62:	8051      	strh	r1, [r2, #2]
    aa64:	8851      	ldrh	r1, [r2, #2]
    aa66:	f421 7180 	bic.w	r1, r1, #256	; 0x100
    aa6a:	0409      	lsls	r1, r1, #16
    aa6c:	f013 0f01 	tst.w	r3, #1
    aa70:	ea4f 4111 	mov.w	r1, r1, lsr #16
    aa74:	8051      	strh	r1, [r2, #2]
    aa76:	bf14      	ite	ne
    aa78:	f06f 0504 	mvnne.w	r5, #4
    aa7c:	f06f 0503 	mvneq.w	r5, #3
    aa80:	4628      	mov	r0, r5
    aa82:	e8bd 81f0 	ldmia.w	sp!, {r4, r5, r6, r7, r8, pc}
    aa86:	f013 0504 	ands.w	r5, r3, #4
    aa8a:	d015      	beq.n	aab8 <_sercom_i2c_sync_analyse_flags+0x84>
    aa8c:	6853      	ldr	r3, [r2, #4]
    aa8e:	2b00      	cmp	r3, #0
    aa90:	bfc1      	itttt	gt
    aa92:	8853      	ldrhgt	r3, [r2, #2]
    aa94:	b29b      	uxthgt	r3, r3
    aa96:	f443 5380 	orrgt.w	r3, r3, #4096	; 0x1000
    aa9a:	8053      	strhgt	r3, [r2, #2]
    aa9c:	8853      	ldrh	r3, [r2, #2]
    aa9e:	041f      	lsls	r7, r3, #16
    aaa0:	d501      	bpl.n	aaa6 <_sercom_i2c_sync_analyse_flags+0x72>
    aaa2:	4b3e      	ldr	r3, [pc, #248]	; (ab9c <_sercom_i2c_sync_analyse_flags+0x168>)
    aaa4:	4798      	blx	r3
    aaa6:	8853      	ldrh	r3, [r2, #2]
    aaa8:	f423 7380 	bic.w	r3, r3, #256	; 0x100
    aaac:	041b      	lsls	r3, r3, #16
    aaae:	0c1b      	lsrs	r3, r3, #16
    aab0:	8053      	strh	r3, [r2, #2]
    aab2:	f06f 0501 	mvn.w	r5, #1
    aab6:	e7e3      	b.n	aa80 <_sercom_i2c_sync_analyse_flags+0x4c>
    aab8:	8853      	ldrh	r3, [r2, #2]
    aaba:	f413 6780 	ands.w	r7, r3, #1024	; 0x400
    aabe:	d015      	beq.n	aaec <_sercom_i2c_sync_analyse_flags+0xb8>
    aac0:	8813      	ldrh	r3, [r2, #0]
    aac2:	2104      	movs	r1, #4
    aac4:	09db      	lsrs	r3, r3, #7
    aac6:	f003 0706 	and.w	r7, r3, #6
    aaca:	47b0      	blx	r6
    aacc:	6a43      	ldr	r3, [r0, #36]	; 0x24
    aace:	f403 4380 	and.w	r3, r3, #16384	; 0x4000
    aad2:	f043 03f1 	orr.w	r3, r3, #241	; 0xf1
    aad6:	433b      	orrs	r3, r7
    aad8:	6243      	str	r3, [r0, #36]	; 0x24
    aada:	2104      	movs	r1, #4
    aadc:	47b0      	blx	r6
    aade:	8853      	ldrh	r3, [r2, #2]
    aae0:	f423 6380 	bic.w	r3, r3, #1024	; 0x400
    aae4:	041b      	lsls	r3, r3, #16
    aae6:	0c1b      	lsrs	r3, r3, #16
    aae8:	8053      	strh	r3, [r2, #2]
    aaea:	e7c9      	b.n	aa80 <_sercom_i2c_sync_analyse_flags+0x4c>
    aaec:	6855      	ldr	r5, [r2, #4]
    aaee:	b945      	cbnz	r5, ab02 <_sercom_i2c_sync_analyse_flags+0xce>
    aaf0:	8853      	ldrh	r3, [r2, #2]
    aaf2:	041e      	lsls	r6, r3, #16
    aaf4:	d501      	bpl.n	aafa <_sercom_i2c_sync_analyse_flags+0xc6>
    aaf6:	4b29      	ldr	r3, [pc, #164]	; (ab9c <_sercom_i2c_sync_analyse_flags+0x168>)
    aaf8:	4798      	blx	r3
    aafa:	8853      	ldrh	r3, [r2, #2]
    aafc:	f423 7380 	bic.w	r3, r3, #256	; 0x100
    ab00:	e7f0      	b.n	aae4 <_sercom_i2c_sync_analyse_flags+0xb0>
    ab02:	6893      	ldr	r3, [r2, #8]
    ab04:	781b      	ldrb	r3, [r3, #0]
    ab06:	6283      	str	r3, [r0, #40]	; 0x28
    ab08:	2104      	movs	r1, #4
    ab0a:	47b0      	blx	r6
    ab0c:	6893      	ldr	r3, [r2, #8]
    ab0e:	3301      	adds	r3, #1
    ab10:	6093      	str	r3, [r2, #8]
    ab12:	6853      	ldr	r3, [r2, #4]
    ab14:	3b01      	subs	r3, #1
    ab16:	6053      	str	r3, [r2, #4]
    ab18:	2500      	movs	r5, #0
    ab1a:	e7b1      	b.n	aa80 <_sercom_i2c_sync_analyse_flags+0x4c>
    ab1c:	f015 0502 	ands.w	r5, r5, #2
    ab20:	d0ae      	beq.n	aa80 <_sercom_i2c_sync_analyse_flags+0x4c>
    ab22:	6851      	ldr	r1, [r2, #4]
    ab24:	2900      	cmp	r1, #0
    ab26:	d033      	beq.n	ab90 <_sercom_i2c_sync_analyse_flags+0x15c>
    ab28:	0758      	lsls	r0, r3, #29
    ab2a:	d431      	bmi.n	ab90 <_sercom_i2c_sync_analyse_flags+0x15c>
    ab2c:	3901      	subs	r1, #1
    ab2e:	f3c8 60c0 	ubfx	r0, r8, #27, #1
    ab32:	6051      	str	r1, [r2, #4]
    ab34:	b941      	cbnz	r1, ab48 <_sercom_i2c_sync_analyse_flags+0x114>
    ab36:	b958      	cbnz	r0, ab50 <_sercom_i2c_sync_analyse_flags+0x11c>
    ab38:	6863      	ldr	r3, [r4, #4]
    ab3a:	f443 2380 	orr.w	r3, r3, #262144	; 0x40000
    ab3e:	6063      	str	r3, [r4, #4]
    ab40:	2104      	movs	r1, #4
    ab42:	4620      	mov	r0, r4
    ab44:	47b8      	blx	r7
    ab46:	e003      	b.n	ab50 <_sercom_i2c_sync_analyse_flags+0x11c>
    ab48:	2901      	cmp	r1, #1
    ab4a:	d101      	bne.n	ab50 <_sercom_i2c_sync_analyse_flags+0x11c>
    ab4c:	2800      	cmp	r0, #0
    ab4e:	d1f3      	bne.n	ab38 <_sercom_i2c_sync_analyse_flags+0x104>
    ab50:	6853      	ldr	r3, [r2, #4]
    ab52:	b993      	cbnz	r3, ab7a <_sercom_i2c_sync_analyse_flags+0x146>
    ab54:	8853      	ldrh	r3, [r2, #2]
    ab56:	041b      	lsls	r3, r3, #16
    ab58:	d509      	bpl.n	ab6e <_sercom_i2c_sync_analyse_flags+0x13a>
    ab5a:	6863      	ldr	r3, [r4, #4]
    ab5c:	f423 7380 	bic.w	r3, r3, #256	; 0x100
    ab60:	6063      	str	r3, [r4, #4]
    ab62:	4620      	mov	r0, r4
    ab64:	2104      	movs	r1, #4
    ab66:	47b8      	blx	r7
    ab68:	4620      	mov	r0, r4
    ab6a:	4b0c      	ldr	r3, [pc, #48]	; (ab9c <_sercom_i2c_sync_analyse_flags+0x168>)
    ab6c:	4798      	blx	r3
    ab6e:	8853      	ldrh	r3, [r2, #2]
    ab70:	f423 7380 	bic.w	r3, r3, #256	; 0x100
    ab74:	041b      	lsls	r3, r3, #16
    ab76:	0c1b      	lsrs	r3, r3, #16
    ab78:	8053      	strh	r3, [r2, #2]
    ab7a:	6895      	ldr	r5, [r2, #8]
    ab7c:	1c6b      	adds	r3, r5, #1
    ab7e:	6093      	str	r3, [r2, #8]
    ab80:	2104      	movs	r1, #4
    ab82:	4620      	mov	r0, r4
    ab84:	47b8      	blx	r7
    ab86:	6aa3      	ldr	r3, [r4, #40]	; 0x28
    ab88:	702b      	strb	r3, [r5, #0]
    ab8a:	2302      	movs	r3, #2
    ab8c:	7623      	strb	r3, [r4, #24]
    ab8e:	e7c3      	b.n	ab18 <_sercom_i2c_sync_analyse_flags+0xe4>
    ab90:	2302      	movs	r3, #2
    ab92:	7623      	strb	r3, [r4, #24]
    ab94:	e78d      	b.n	aab2 <_sercom_i2c_sync_analyse_flags+0x7e>
    ab96:	bf00      	nop
    ab98:	0000a761 	.word	0x0000a761
    ab9c:	0000aa21 	.word	0x0000aa21

0000aba0 <_spi_load_regs_master>:
    aba0:	b538      	push	{r3, r4, r5, lr}
    aba2:	680b      	ldr	r3, [r1, #0]
    aba4:	4d0c      	ldr	r5, [pc, #48]	; (abd8 <_spi_load_regs_master+0x38>)
    aba6:	f423 7381 	bic.w	r3, r3, #258	; 0x102
    abaa:	460c      	mov	r4, r1
    abac:	f023 0301 	bic.w	r3, r3, #1
    abb0:	6003      	str	r3, [r0, #0]
    abb2:	2103      	movs	r1, #3
    abb4:	47a8      	blx	r5
    abb6:	6863      	ldr	r3, [r4, #4]
    abb8:	f423 3338 	bic.w	r3, r3, #188416	; 0x2e000
    abbc:	f423 7310 	bic.w	r3, r3, #576	; 0x240
    abc0:	f443 3300 	orr.w	r3, r3, #131072	; 0x20000
    abc4:	6043      	str	r3, [r0, #4]
    abc6:	2117      	movs	r1, #23
    abc8:	47a8      	blx	r5
    abca:	7b23      	ldrb	r3, [r4, #12]
    abcc:	7303      	strb	r3, [r0, #12]
    abce:	7b63      	ldrb	r3, [r4, #13]
    abd0:	f880 3030 	strb.w	r3, [r0, #48]	; 0x30
    abd4:	bd38      	pop	{r3, r4, r5, pc}
    abd6:	bf00      	nop
    abd8:	0000a769 	.word	0x0000a769

0000abdc <_spi_set_mode>:
    abdc:	b570      	push	{r4, r5, r6, lr}
    abde:	69c2      	ldr	r2, [r0, #28]
    abe0:	f012 0203 	ands.w	r2, r2, #3
    abe4:	460c      	mov	r4, r1
    abe6:	d10e      	bne.n	ac06 <_spi_set_mode+0x2a>
    abe8:	4e08      	ldr	r6, [pc, #32]	; (ac0c <_spi_set_mode+0x30>)
    abea:	2103      	movs	r1, #3
    abec:	47b0      	blx	r6
    abee:	6803      	ldr	r3, [r0, #0]
    abf0:	0724      	lsls	r4, r4, #28
    abf2:	f023 5340 	bic.w	r3, r3, #805306368	; 0x30000000
    abf6:	f004 5440 	and.w	r4, r4, #805306368	; 0x30000000
    abfa:	431c      	orrs	r4, r3
    abfc:	6004      	str	r4, [r0, #0]
    abfe:	2103      	movs	r1, #3
    ac00:	47b0      	blx	r6
    ac02:	4610      	mov	r0, r2
    ac04:	bd70      	pop	{r4, r5, r6, pc}
    ac06:	f06f 0003 	mvn.w	r0, #3
    ac0a:	bd70      	pop	{r4, r5, r6, pc}
    ac0c:	0000a769 	.word	0x0000a769

0000ac10 <_i2c_m_sync_init_impl>:
    ac10:	e92d 41f0 	stmdb	sp!, {r4, r5, r6, r7, r8, lr}
    ac14:	460c      	mov	r4, r1
    ac16:	4b26      	ldr	r3, [pc, #152]	; (acb0 <_i2c_m_sync_init_impl+0xa0>)
    ac18:	4e26      	ldr	r6, [pc, #152]	; (acb4 <_i2c_m_sync_init_impl+0xa4>)
    ac1a:	4607      	mov	r7, r0
    ac1c:	4608      	mov	r0, r1
    ac1e:	4798      	blx	r3
    ac20:	69e3      	ldr	r3, [r4, #28]
    ac22:	4a25      	ldr	r2, [pc, #148]	; (acb8 <_i2c_m_sync_init_impl+0xa8>)
    ac24:	f013 0f01 	tst.w	r3, #1
    ac28:	fa5f f880 	uxtb.w	r8, r0
    ac2c:	d117      	bne.n	ac5e <_i2c_m_sync_init_impl+0x4e>
    ac2e:	2318      	movs	r3, #24
    ac30:	fb03 6308 	mla	r3, r3, r8, r6
    ac34:	2103      	movs	r1, #3
    ac36:	4620      	mov	r0, r4
    ac38:	6c9d      	ldr	r5, [r3, #72]	; 0x48
    ac3a:	4790      	blx	r2
    ac3c:	6823      	ldr	r3, [r4, #0]
    ac3e:	079b      	lsls	r3, r3, #30
    ac40:	f005 051c 	and.w	r5, r5, #28
    ac44:	d505      	bpl.n	ac52 <_i2c_m_sync_init_impl+0x42>
    ac46:	4620      	mov	r0, r4
    ac48:	4b1c      	ldr	r3, [pc, #112]	; (acbc <_i2c_m_sync_init_impl+0xac>)
    ac4a:	4798      	blx	r3
    ac4c:	2102      	movs	r1, #2
    ac4e:	4620      	mov	r0, r4
    ac50:	4790      	blx	r2
    ac52:	f045 0501 	orr.w	r5, r5, #1
    ac56:	6025      	str	r5, [r4, #0]
    ac58:	2103      	movs	r1, #3
    ac5a:	4620      	mov	r0, r4
    ac5c:	4790      	blx	r2
    ac5e:	4620      	mov	r0, r4
    ac60:	2101      	movs	r1, #1
    ac62:	4790      	blx	r2
    ac64:	2318      	movs	r3, #24
    ac66:	fb03 6608 	mla	r6, r3, r8, r6
    ac6a:	4620      	mov	r0, r4
    ac6c:	6cb5      	ldr	r5, [r6, #72]	; 0x48
    ac6e:	6025      	str	r5, [r4, #0]
    ac70:	2103      	movs	r1, #3
    ac72:	4790      	blx	r2
    ac74:	6cf3      	ldr	r3, [r6, #76]	; 0x4c
    ac76:	6063      	str	r3, [r4, #4]
    ac78:	4620      	mov	r0, r4
    ac7a:	2104      	movs	r1, #4
    ac7c:	4790      	blx	r2
    ac7e:	f3c5 6501 	ubfx	r5, r5, #24, #2
    ac82:	6d33      	ldr	r3, [r6, #80]	; 0x50
    ac84:	60e3      	str	r3, [r4, #12]
    ac86:	81bd      	strh	r5, [r7, #12]
    ac88:	6a63      	ldr	r3, [r4, #36]	; 0x24
    ac8a:	2d01      	cmp	r5, #1
    ac8c:	f423 4380 	bic.w	r3, r3, #16384	; 0x4000
    ac90:	bf94      	ite	ls
    ac92:	2500      	movls	r5, #0
    ac94:	2501      	movhi	r5, #1
    ac96:	ea43 3585 	orr.w	r5, r3, r5, lsl #14
    ac9a:	4620      	mov	r0, r4
    ac9c:	6265      	str	r5, [r4, #36]	; 0x24
    ac9e:	2104      	movs	r1, #4
    aca0:	4790      	blx	r2
    aca2:	f8b6 3056 	ldrh.w	r3, [r6, #86]	; 0x56
    aca6:	81fb      	strh	r3, [r7, #14]
    aca8:	2000      	movs	r0, #0
    acaa:	e8bd 81f0 	ldmia.w	sp!, {r4, r5, r6, r7, r8, pc}
    acae:	bf00      	nop
    acb0:	0000a8e5 	.word	0x0000a8e5
    acb4:	0001066c 	.word	0x0001066c
    acb8:	0000a761 	.word	0x0000a761
    acbc:	0000a779 	.word	0x0000a779

0000acc0 <_usart_init>:
    acc0:	e92d 41f0 	stmdb	sp!, {r4, r5, r6, r7, r8, lr}
    acc4:	4b31      	ldr	r3, [pc, #196]	; (ad8c <_usart_init+0xcc>)
    acc6:	4604      	mov	r4, r0
    acc8:	4798      	blx	r3
    acca:	4605      	mov	r5, r0
    accc:	b148      	cbz	r0, ace2 <_usart_init+0x22>
    acce:	2801      	cmp	r0, #1
    acd0:	d007      	beq.n	ace2 <_usart_init+0x22>
    acd2:	2802      	cmp	r0, #2
    acd4:	d005      	beq.n	ace2 <_usart_init+0x22>
    acd6:	2804      	cmp	r0, #4
    acd8:	d056      	beq.n	ad88 <_usart_init+0xc8>
    acda:	2806      	cmp	r0, #6
    acdc:	bf14      	ite	ne
    acde:	2500      	movne	r5, #0
    ace0:	2504      	moveq	r5, #4
    ace2:	69e3      	ldr	r3, [r4, #28]
    ace4:	4f2a      	ldr	r7, [pc, #168]	; (ad90 <_usart_init+0xd0>)
    ace6:	4e2b      	ldr	r6, [pc, #172]	; (ad94 <_usart_init+0xd4>)
    ace8:	f013 0f01 	tst.w	r3, #1
    acec:	d117      	bne.n	ad1e <_usart_init+0x5e>
    acee:	2318      	movs	r3, #24
    acf0:	fb03 7305 	mla	r3, r3, r5, r7
    acf4:	2103      	movs	r1, #3
    acf6:	6e1a      	ldr	r2, [r3, #96]	; 0x60
    acf8:	4620      	mov	r0, r4
    acfa:	f002 021c 	and.w	r2, r2, #28
    acfe:	47b0      	blx	r6
    ad00:	6823      	ldr	r3, [r4, #0]
    ad02:	079b      	lsls	r3, r3, #30
    ad04:	d505      	bpl.n	ad12 <_usart_init+0x52>
    ad06:	4620      	mov	r0, r4
    ad08:	4b23      	ldr	r3, [pc, #140]	; (ad98 <_usart_init+0xd8>)
    ad0a:	4798      	blx	r3
    ad0c:	2102      	movs	r1, #2
    ad0e:	4620      	mov	r0, r4
    ad10:	47b0      	blx	r6
    ad12:	f042 0201 	orr.w	r2, r2, #1
    ad16:	6022      	str	r2, [r4, #0]
    ad18:	2103      	movs	r1, #3
    ad1a:	4620      	mov	r0, r4
    ad1c:	47b0      	blx	r6
    ad1e:	4620      	mov	r0, r4
    ad20:	2101      	movs	r1, #1
    ad22:	47b0      	blx	r6
    ad24:	2218      	movs	r2, #24
    ad26:	fb02 7205 	mla	r2, r2, r5, r7
    ad2a:	4620      	mov	r0, r4
    ad2c:	f8d2 8060 	ldr.w	r8, [r2, #96]	; 0x60
    ad30:	f8c4 8000 	str.w	r8, [r4]
    ad34:	2103      	movs	r1, #3
    ad36:	47b0      	blx	r6
    ad38:	6e53      	ldr	r3, [r2, #100]	; 0x64
    ad3a:	6063      	str	r3, [r4, #4]
    ad3c:	211f      	movs	r1, #31
    ad3e:	4620      	mov	r0, r4
    ad40:	47b0      	blx	r6
    ad42:	6e93      	ldr	r3, [r2, #104]	; 0x68
    ad44:	60a3      	str	r3, [r4, #8]
    ad46:	f418 4fc0 	tst.w	r8, #24576	; 0x6000
    ad4a:	bf1d      	ittte	ne
    ad4c:	89a3      	ldrhne	r3, [r4, #12]
    ad4e:	f8b2 106c 	ldrhne.w	r1, [r2, #108]	; 0x6c
    ad52:	f892 206e 	ldrbne.w	r2, [r2, #110]	; 0x6e
    ad56:	f8b2 306c 	ldrheq.w	r3, [r2, #108]	; 0x6c
    ad5a:	bf1e      	ittt	ne
    ad5c:	f361 030c 	bfine	r3, r1, #0, #13
    ad60:	81a3      	strhne	r3, [r4, #12]
    ad62:	89a3      	ldrhne	r3, [r4, #12]
    ad64:	f04f 0018 	mov.w	r0, #24
    ad68:	fb00 7005 	mla	r0, r0, r5, r7
    ad6c:	bf18      	it	ne
    ad6e:	f362 334f 	bfine	r3, r2, #13, #3
    ad72:	81a3      	strh	r3, [r4, #12]
    ad74:	f890 306f 	ldrb.w	r3, [r0, #111]	; 0x6f
    ad78:	73a3      	strb	r3, [r4, #14]
    ad7a:	f890 3070 	ldrb.w	r3, [r0, #112]	; 0x70
    ad7e:	f884 3030 	strb.w	r3, [r4, #48]	; 0x30
    ad82:	2000      	movs	r0, #0
    ad84:	e8bd 81f0 	ldmia.w	sp!, {r4, r5, r6, r7, r8, pc}
    ad88:	2503      	movs	r5, #3
    ad8a:	e7aa      	b.n	ace2 <_usart_init+0x22>
    ad8c:	0000a7e1 	.word	0x0000a7e1
    ad90:	0001066c 	.word	0x0001066c
    ad94:	0000a771 	.word	0x0000a771
    ad98:	0000a7cd 	.word	0x0000a7cd

0000ad9c <_usart_sync_init>:
    ad9c:	6001      	str	r1, [r0, #0]
    ad9e:	4b01      	ldr	r3, [pc, #4]	; (ada4 <_usart_sync_init+0x8>)
    ada0:	4608      	mov	r0, r1
    ada2:	4718      	bx	r3
    ada4:	0000acc1 	.word	0x0000acc1

0000ada8 <_usart_async_init>:
    ada8:	e92d 43f8 	stmdb	sp!, {r3, r4, r5, r6, r7, r8, r9, lr}
    adac:	4606      	mov	r6, r0
    adae:	4b11      	ldr	r3, [pc, #68]	; (adf4 <_usart_async_init+0x4c>)
    adb0:	4608      	mov	r0, r1
    adb2:	460c      	mov	r4, r1
    adb4:	4798      	blx	r3
    adb6:	4605      	mov	r5, r0
    adb8:	b9c8      	cbnz	r0, adee <_usart_async_init+0x46>
    adba:	61b4      	str	r4, [r6, #24]
    adbc:	4631      	mov	r1, r6
    adbe:	4620      	mov	r0, r4
    adc0:	4b0d      	ldr	r3, [pc, #52]	; (adf8 <_usart_async_init+0x50>)
    adc2:	f8df 8044 	ldr.w	r8, [pc, #68]	; ae08 <_usart_async_init+0x60>
    adc6:	4f0d      	ldr	r7, [pc, #52]	; (adfc <_usart_async_init+0x54>)
    adc8:	4e0d      	ldr	r6, [pc, #52]	; (ae00 <_usart_async_init+0x58>)
    adca:	4798      	blx	r3
    adcc:	4620      	mov	r0, r4
    adce:	4b0d      	ldr	r3, [pc, #52]	; (ae04 <_usart_async_init+0x5c>)
    add0:	4798      	blx	r3
    add2:	462c      	mov	r4, r5
    add4:	4681      	mov	r9, r0
    add6:	eb09 0104 	add.w	r1, r9, r4
    adda:	b2c9      	uxtb	r1, r1
    addc:	4608      	mov	r0, r1
    adde:	47c0      	blx	r8
    ade0:	4608      	mov	r0, r1
    ade2:	47b8      	blx	r7
    ade4:	3401      	adds	r4, #1
    ade6:	4608      	mov	r0, r1
    ade8:	47b0      	blx	r6
    adea:	2c04      	cmp	r4, #4
    adec:	d1f3      	bne.n	add6 <_usart_async_init+0x2e>
    adee:	4628      	mov	r0, r5
    adf0:	e8bd 83f8 	ldmia.w	sp!, {r3, r4, r5, r6, r7, r8, r9, pc}
    adf4:	0000acc1 	.word	0x0000acc1
    adf8:	0000a885 	.word	0x0000a885
    adfc:	0000a741 	.word	0x0000a741
    ae00:	0000a6fd 	.word	0x0000a6fd
    ae04:	0000a8f9 	.word	0x0000a8f9
    ae08:	0000a719 	.word	0x0000a719

0000ae0c <_usart_sync_enable>:
    ae0c:	6800      	ldr	r0, [r0, #0]
    ae0e:	6803      	ldr	r3, [r0, #0]
    ae10:	f043 0302 	orr.w	r3, r3, #2
    ae14:	6003      	str	r3, [r0, #0]
    ae16:	2103      	movs	r1, #3
    ae18:	4b00      	ldr	r3, [pc, #0]	; (ae1c <_usart_sync_enable+0x10>)
    ae1a:	4718      	bx	r3
    ae1c:	0000a771 	.word	0x0000a771

0000ae20 <_usart_async_enable>:
    ae20:	6980      	ldr	r0, [r0, #24]
    ae22:	6803      	ldr	r3, [r0, #0]
    ae24:	f043 0302 	orr.w	r3, r3, #2
    ae28:	6003      	str	r3, [r0, #0]
    ae2a:	2103      	movs	r1, #3
    ae2c:	4b00      	ldr	r3, [pc, #0]	; (ae30 <_usart_async_enable+0x10>)
    ae2e:	4718      	bx	r3
    ae30:	0000a771 	.word	0x0000a771

0000ae34 <_usart_async_disable>:
    ae34:	6980      	ldr	r0, [r0, #24]
    ae36:	4b01      	ldr	r3, [pc, #4]	; (ae3c <_usart_async_disable+0x8>)
    ae38:	4718      	bx	r3
    ae3a:	bf00      	nop
    ae3c:	0000a7cd 	.word	0x0000a7cd

0000ae40 <_usart_async_set_parity>:
    ae40:	6980      	ldr	r0, [r0, #24]
    ae42:	4b01      	ldr	r3, [pc, #4]	; (ae48 <_usart_async_set_parity+0x8>)
    ae44:	4718      	bx	r3
    ae46:	bf00      	nop
    ae48:	0000a9a9 	.word	0x0000a9a9

0000ae4c <_usart_sync_write_byte>:
    ae4c:	6803      	ldr	r3, [r0, #0]
    ae4e:	6299      	str	r1, [r3, #40]	; 0x28
    ae50:	4770      	bx	lr

0000ae52 <_usart_async_write_byte>:
    ae52:	6983      	ldr	r3, [r0, #24]
    ae54:	6299      	str	r1, [r3, #40]	; 0x28
    ae56:	4770      	bx	lr

0000ae58 <_usart_sync_read_byte>:
    ae58:	6803      	ldr	r3, [r0, #0]
    ae5a:	6a98      	ldr	r0, [r3, #40]	; 0x28
    ae5c:	b2c0      	uxtb	r0, r0
    ae5e:	4770      	bx	lr

0000ae60 <_usart_sync_is_ready_to_send>:
    ae60:	6803      	ldr	r3, [r0, #0]
    ae62:	7e18      	ldrb	r0, [r3, #24]
    ae64:	f000 0001 	and.w	r0, r0, #1
    ae68:	4770      	bx	lr

0000ae6a <_usart_sync_is_transmit_done>:
    ae6a:	6803      	ldr	r3, [r0, #0]
    ae6c:	7e18      	ldrb	r0, [r3, #24]
    ae6e:	f3c0 0040 	ubfx	r0, r0, #1, #1
    ae72:	4770      	bx	lr

0000ae74 <_usart_sync_is_byte_received>:
    ae74:	6803      	ldr	r3, [r0, #0]
    ae76:	7e18      	ldrb	r0, [r3, #24]
    ae78:	f3c0 0080 	ubfx	r0, r0, #2, #1
    ae7c:	4770      	bx	lr

0000ae7e <_usart_async_enable_byte_sent_irq>:
    ae7e:	6983      	ldr	r3, [r0, #24]
    ae80:	2201      	movs	r2, #1
    ae82:	759a      	strb	r2, [r3, #22]
    ae84:	4770      	bx	lr

0000ae86 <_usart_async_enable_tx_done_irq>:
    ae86:	6983      	ldr	r3, [r0, #24]
    ae88:	2202      	movs	r2, #2
    ae8a:	759a      	strb	r2, [r3, #22]
    ae8c:	4770      	bx	lr

0000ae8e <_usart_async_set_irq_state>:
    ae8e:	f011 0ffd 	tst.w	r1, #253	; 0xfd
    ae92:	d109      	bne.n	aea8 <_usart_async_set_irq_state+0x1a>
    ae94:	6983      	ldr	r3, [r0, #24]
    ae96:	2102      	movs	r1, #2
    ae98:	2001      	movs	r0, #1
    ae9a:	b912      	cbnz	r2, aea2 <_usart_async_set_irq_state+0x14>
    ae9c:	7518      	strb	r0, [r3, #20]
    ae9e:	7519      	strb	r1, [r3, #20]
    aea0:	4770      	bx	lr
    aea2:	7598      	strb	r0, [r3, #22]
    aea4:	7599      	strb	r1, [r3, #22]
    aea6:	4770      	bx	lr
    aea8:	2901      	cmp	r1, #1
    aeaa:	d104      	bne.n	aeb6 <_usart_async_set_irq_state+0x28>
    aeac:	6983      	ldr	r3, [r0, #24]
    aeae:	2104      	movs	r1, #4
    aeb0:	2a00      	cmp	r2, #0
    aeb2:	d1f7      	bne.n	aea4 <_usart_async_set_irq_state+0x16>
    aeb4:	e7f3      	b.n	ae9e <_usart_async_set_irq_state+0x10>
    aeb6:	2903      	cmp	r1, #3
    aeb8:	d1f5      	bne.n	aea6 <_usart_async_set_irq_state+0x18>
    aeba:	6983      	ldr	r3, [r0, #24]
    aebc:	2180      	movs	r1, #128	; 0x80
    aebe:	e7f7      	b.n	aeb0 <_usart_async_set_irq_state+0x22>

0000aec0 <_i2c_m_async_init>:
    aec0:	e92d 43f8 	stmdb	sp!, {r3, r4, r5, r6, r7, r8, r9, lr}
    aec4:	4606      	mov	r6, r0
    aec6:	4b11      	ldr	r3, [pc, #68]	; (af0c <_i2c_m_async_init+0x4c>)
    aec8:	6131      	str	r1, [r6, #16]
    aeca:	460c      	mov	r4, r1
    aecc:	4798      	blx	r3
    aece:	4605      	mov	r5, r0
    aed0:	b9c0      	cbnz	r0, af04 <_i2c_m_async_init+0x44>
    aed2:	4631      	mov	r1, r6
    aed4:	4620      	mov	r0, r4
    aed6:	4b0e      	ldr	r3, [pc, #56]	; (af10 <_i2c_m_async_init+0x50>)
    aed8:	f8df 8044 	ldr.w	r8, [pc, #68]	; af20 <_i2c_m_async_init+0x60>
    aedc:	4f0d      	ldr	r7, [pc, #52]	; (af14 <_i2c_m_async_init+0x54>)
    aede:	4e0e      	ldr	r6, [pc, #56]	; (af18 <_i2c_m_async_init+0x58>)
    aee0:	4798      	blx	r3
    aee2:	4620      	mov	r0, r4
    aee4:	4b0d      	ldr	r3, [pc, #52]	; (af1c <_i2c_m_async_init+0x5c>)
    aee6:	4798      	blx	r3
    aee8:	462c      	mov	r4, r5
    aeea:	4681      	mov	r9, r0
    aeec:	eb09 0104 	add.w	r1, r9, r4
    aef0:	b2c9      	uxtb	r1, r1
    aef2:	4608      	mov	r0, r1
    aef4:	47c0      	blx	r8
    aef6:	4608      	mov	r0, r1
    aef8:	47b8      	blx	r7
    aefa:	3401      	adds	r4, #1
    aefc:	4608      	mov	r0, r1
    aefe:	47b0      	blx	r6
    af00:	2c04      	cmp	r4, #4
    af02:	d1f3      	bne.n	aeec <_i2c_m_async_init+0x2c>
    af04:	4628      	mov	r0, r5
    af06:	e8bd 83f8 	ldmia.w	sp!, {r3, r4, r5, r6, r7, r8, r9, pc}
    af0a:	bf00      	nop
    af0c:	0000ac11 	.word	0x0000ac11
    af10:	0000a885 	.word	0x0000a885
    af14:	0000a741 	.word	0x0000a741
    af18:	0000a6fd 	.word	0x0000a6fd
    af1c:	0000a8f9 	.word	0x0000a8f9
    af20:	0000a719 	.word	0x0000a719

0000af24 <_i2c_m_async_transfer>:
    af24:	b5f8      	push	{r3, r4, r5, r6, r7, lr}
    af26:	4604      	mov	r4, r0
    af28:	6848      	ldr	r0, [r1, #4]
    af2a:	2800      	cmp	r0, #0
    af2c:	d056      	beq.n	afdc <_i2c_m_async_transfer+0xb8>
    af2e:	8863      	ldrh	r3, [r4, #2]
    af30:	05d8      	lsls	r0, r3, #23
    af32:	d451      	bmi.n	afd8 <_i2c_m_async_transfer+0xb4>
    af34:	884b      	ldrh	r3, [r1, #2]
    af36:	4e2a      	ldr	r6, [pc, #168]	; (afe0 <_i2c_m_async_transfer+0xbc>)
    af38:	b29b      	uxth	r3, r3
    af3a:	f443 7380 	orr.w	r3, r3, #256	; 0x100
    af3e:	804b      	strh	r3, [r1, #2]
    af40:	c907      	ldmia	r1, {r0, r1, r2}
    af42:	e884 0007 	stmia.w	r4, {r0, r1, r2}
    af46:	6920      	ldr	r0, [r4, #16]
    af48:	6843      	ldr	r3, [r0, #4]
    af4a:	f443 7380 	orr.w	r3, r3, #256	; 0x100
    af4e:	6043      	str	r3, [r0, #4]
    af50:	2104      	movs	r1, #4
    af52:	47b0      	blx	r6
    af54:	6862      	ldr	r2, [r4, #4]
    af56:	6925      	ldr	r5, [r4, #16]
    af58:	2a01      	cmp	r2, #1
    af5a:	682b      	ldr	r3, [r5, #0]
    af5c:	d129      	bne.n	afb2 <_i2c_m_async_transfer+0x8e>
    af5e:	011a      	lsls	r2, r3, #4
    af60:	d527      	bpl.n	afb2 <_i2c_m_async_transfer+0x8e>
    af62:	686b      	ldr	r3, [r5, #4]
    af64:	f443 2380 	orr.w	r3, r3, #262144	; 0x40000
    af68:	606b      	str	r3, [r5, #4]
    af6a:	2104      	movs	r1, #4
    af6c:	4628      	mov	r0, r5
    af6e:	47b0      	blx	r6
    af70:	8822      	ldrh	r2, [r4, #0]
    af72:	f412 6780 	ands.w	r7, r2, #1024	; 0x400
    af76:	ea4f 0242 	mov.w	r2, r2, lsl #1
    af7a:	d01e      	beq.n	afba <_i2c_m_async_transfer+0x96>
    af7c:	8863      	ldrh	r3, [r4, #2]
    af7e:	07db      	lsls	r3, r3, #31
    af80:	bf41      	itttt	mi
    af82:	8863      	ldrhmi	r3, [r4, #2]
    af84:	b29b      	uxthmi	r3, r3
    af86:	f443 6380 	orrmi.w	r3, r3, #1024	; 0x400
    af8a:	8063      	strhmi	r3, [r4, #2]
    af8c:	2104      	movs	r1, #4
    af8e:	4628      	mov	r0, r5
    af90:	47b0      	blx	r6
    af92:	6a6b      	ldr	r3, [r5, #36]	; 0x24
    af94:	f022 0201 	bic.w	r2, r2, #1
    af98:	0552      	lsls	r2, r2, #21
    af9a:	f403 4380 	and.w	r3, r3, #16384	; 0x4000
    af9e:	0d52      	lsrs	r2, r2, #21
    afa0:	f443 4300 	orr.w	r3, r3, #32768	; 0x8000
    afa4:	4313      	orrs	r3, r2
    afa6:	626b      	str	r3, [r5, #36]	; 0x24
    afa8:	4628      	mov	r0, r5
    afaa:	2104      	movs	r1, #4
    afac:	47b0      	blx	r6
    afae:	2000      	movs	r0, #0
    afb0:	bdf8      	pop	{r3, r4, r5, r6, r7, pc}
    afb2:	686b      	ldr	r3, [r5, #4]
    afb4:	f423 2380 	bic.w	r3, r3, #262144	; 0x40000
    afb8:	e7d6      	b.n	af68 <_i2c_m_async_transfer+0x44>
    afba:	2104      	movs	r1, #4
    afbc:	4628      	mov	r0, r5
    afbe:	8864      	ldrh	r4, [r4, #2]
    afc0:	47b0      	blx	r6
    afc2:	b2a4      	uxth	r4, r4
    afc4:	6a6b      	ldr	r3, [r5, #36]	; 0x24
    afc6:	b2d2      	uxtb	r2, r2
    afc8:	f004 0401 	and.w	r4, r4, #1
    afcc:	4322      	orrs	r2, r4
    afce:	f403 4380 	and.w	r3, r3, #16384	; 0x4000
    afd2:	431a      	orrs	r2, r3
    afd4:	626a      	str	r2, [r5, #36]	; 0x24
    afd6:	e7e7      	b.n	afa8 <_i2c_m_async_transfer+0x84>
    afd8:	f06f 0003 	mvn.w	r0, #3
    afdc:	bdf8      	pop	{r3, r4, r5, r6, r7, pc}
    afde:	bf00      	nop
    afe0:	0000a761 	.word	0x0000a761

0000afe4 <_i2c_m_async_register_callback>:
    afe4:	2901      	cmp	r1, #1
    afe6:	d006      	beq.n	aff6 <_i2c_m_async_register_callback+0x12>
    afe8:	d303      	bcc.n	aff2 <_i2c_m_async_register_callback+0xe>
    afea:	2902      	cmp	r1, #2
    afec:	d005      	beq.n	affa <_i2c_m_async_register_callback+0x16>
    afee:	2000      	movs	r0, #0
    aff0:	4770      	bx	lr
    aff2:	6142      	str	r2, [r0, #20]
    aff4:	e7fb      	b.n	afee <_i2c_m_async_register_callback+0xa>
    aff6:	6182      	str	r2, [r0, #24]
    aff8:	e7f9      	b.n	afee <_i2c_m_async_register_callback+0xa>
    affa:	61c2      	str	r2, [r0, #28]
    affc:	e7f7      	b.n	afee <_i2c_m_async_register_callback+0xa>
	...

0000b000 <SERCOM0_3_Handler>:
    b000:	4b01      	ldr	r3, [pc, #4]	; (b008 <SERCOM0_3_Handler+0x8>)
    b002:	6818      	ldr	r0, [r3, #0]
    b004:	4b01      	ldr	r3, [pc, #4]	; (b00c <SERCOM0_3_Handler+0xc>)
    b006:	4718      	bx	r3
    b008:	200009fc 	.word	0x200009fc
    b00c:	0000a815 	.word	0x0000a815

0000b010 <SERCOM0_2_Handler>:
    b010:	4b00      	ldr	r3, [pc, #0]	; (b014 <SERCOM0_2_Handler+0x4>)
    b012:	4718      	bx	r3
    b014:	0000b001 	.word	0x0000b001

0000b018 <SERCOM0_1_Handler>:
    b018:	4b00      	ldr	r3, [pc, #0]	; (b01c <SERCOM0_1_Handler+0x4>)
    b01a:	4718      	bx	r3
    b01c:	0000b001 	.word	0x0000b001

0000b020 <SERCOM0_0_Handler>:
    b020:	4b00      	ldr	r3, [pc, #0]	; (b024 <SERCOM0_0_Handler+0x4>)
    b022:	4718      	bx	r3
    b024:	0000b001 	.word	0x0000b001

0000b028 <SERCOM1_3_Handler>:
    b028:	4b01      	ldr	r3, [pc, #4]	; (b030 <SERCOM1_3_Handler+0x8>)
    b02a:	6858      	ldr	r0, [r3, #4]
    b02c:	4b01      	ldr	r3, [pc, #4]	; (b034 <SERCOM1_3_Handler+0xc>)
    b02e:	4718      	bx	r3
    b030:	200009fc 	.word	0x200009fc
    b034:	0000a815 	.word	0x0000a815

0000b038 <SERCOM1_2_Handler>:
    b038:	4b00      	ldr	r3, [pc, #0]	; (b03c <SERCOM1_2_Handler+0x4>)
    b03a:	4718      	bx	r3
    b03c:	0000b029 	.word	0x0000b029

0000b040 <SERCOM1_1_Handler>:
    b040:	4b00      	ldr	r3, [pc, #0]	; (b044 <SERCOM1_1_Handler+0x4>)
    b042:	4718      	bx	r3
    b044:	0000b029 	.word	0x0000b029

0000b048 <SERCOM1_0_Handler>:
    b048:	4b00      	ldr	r3, [pc, #0]	; (b04c <SERCOM1_0_Handler+0x4>)
    b04a:	4718      	bx	r3
    b04c:	0000b029 	.word	0x0000b029

0000b050 <SERCOM3_3_Handler>:
    b050:	4b0f      	ldr	r3, [pc, #60]	; (b090 <SERCOM3_3_Handler+0x40>)
    b052:	6898      	ldr	r0, [r3, #8]
    b054:	6802      	ldr	r2, [r0, #0]
    b056:	7e13      	ldrb	r3, [r2, #24]
    b058:	7d91      	ldrb	r1, [r2, #22]
    b05a:	400b      	ands	r3, r1
    b05c:	07d9      	lsls	r1, r3, #31
    b05e:	d501      	bpl.n	b064 <SERCOM3_3_Handler+0x14>
    b060:	6883      	ldr	r3, [r0, #8]
    b062:	4718      	bx	r3
    b064:	0759      	lsls	r1, r3, #29
    b066:	d501      	bpl.n	b06c <SERCOM3_3_Handler+0x1c>
    b068:	68c3      	ldr	r3, [r0, #12]
    b06a:	e7fa      	b.n	b062 <SERCOM3_3_Handler+0x12>
    b06c:	0799      	lsls	r1, r3, #30
    b06e:	d503      	bpl.n	b078 <SERCOM3_3_Handler+0x28>
    b070:	2302      	movs	r3, #2
    b072:	7613      	strb	r3, [r2, #24]
    b074:	6903      	ldr	r3, [r0, #16]
    b076:	e7f4      	b.n	b062 <SERCOM3_3_Handler+0x12>
    b078:	061b      	lsls	r3, r3, #24
    b07a:	d507      	bpl.n	b08c <SERCOM3_3_Handler+0x3c>
    b07c:	2304      	movs	r3, #4
    b07e:	8353      	strh	r3, [r2, #26]
    b080:	2380      	movs	r3, #128	; 0x80
    b082:	7613      	strb	r3, [r2, #24]
    b084:	6943      	ldr	r3, [r0, #20]
    b086:	f06f 0112 	mvn.w	r1, #18
    b08a:	4718      	bx	r3
    b08c:	4770      	bx	lr
    b08e:	bf00      	nop
    b090:	200009fc 	.word	0x200009fc

0000b094 <SERCOM3_2_Handler>:
    b094:	4b00      	ldr	r3, [pc, #0]	; (b098 <SERCOM3_2_Handler+0x4>)
    b096:	4718      	bx	r3
    b098:	0000b051 	.word	0x0000b051

0000b09c <SERCOM3_1_Handler>:
    b09c:	4b00      	ldr	r3, [pc, #0]	; (b0a0 <SERCOM3_1_Handler+0x4>)
    b09e:	4718      	bx	r3
    b0a0:	0000b051 	.word	0x0000b051

0000b0a4 <SERCOM3_0_Handler>:
    b0a4:	4b00      	ldr	r3, [pc, #0]	; (b0a8 <SERCOM3_0_Handler+0x4>)
    b0a6:	4718      	bx	r3
    b0a8:	0000b051 	.word	0x0000b051

0000b0ac <SERCOM4_3_Handler>:
    b0ac:	4b01      	ldr	r3, [pc, #4]	; (b0b4 <SERCOM4_3_Handler+0x8>)
    b0ae:	68d8      	ldr	r0, [r3, #12]
    b0b0:	4b01      	ldr	r3, [pc, #4]	; (b0b8 <SERCOM4_3_Handler+0xc>)
    b0b2:	4718      	bx	r3
    b0b4:	200009fc 	.word	0x200009fc
    b0b8:	0000a815 	.word	0x0000a815

0000b0bc <SERCOM4_2_Handler>:
    b0bc:	4b00      	ldr	r3, [pc, #0]	; (b0c0 <SERCOM4_2_Handler+0x4>)
    b0be:	4718      	bx	r3
    b0c0:	0000b0ad 	.word	0x0000b0ad

0000b0c4 <SERCOM4_1_Handler>:
    b0c4:	4b00      	ldr	r3, [pc, #0]	; (b0c8 <SERCOM4_1_Handler+0x4>)
    b0c6:	4718      	bx	r3
    b0c8:	0000b0ad 	.word	0x0000b0ad

0000b0cc <SERCOM4_0_Handler>:
    b0cc:	4b00      	ldr	r3, [pc, #0]	; (b0d0 <SERCOM4_0_Handler+0x4>)
    b0ce:	4718      	bx	r3
    b0d0:	0000b0ad 	.word	0x0000b0ad

0000b0d4 <SERCOM5_3_Handler>:
    b0d4:	4b16      	ldr	r3, [pc, #88]	; (b130 <SERCOM5_3_Handler+0x5c>)
    b0d6:	b570      	push	{r4, r5, r6, lr}
    b0d8:	691c      	ldr	r4, [r3, #16]
    b0da:	6920      	ldr	r0, [r4, #16]
    b0dc:	7e05      	ldrb	r5, [r0, #24]
    b0de:	b2ed      	uxtb	r5, r5
    b0e0:	0629      	lsls	r1, r5, #24
    b0e2:	d413      	bmi.n	b10c <SERCOM5_3_Handler+0x38>
    b0e4:	4629      	mov	r1, r5
    b0e6:	4622      	mov	r2, r4
    b0e8:	4b12      	ldr	r3, [pc, #72]	; (b134 <SERCOM5_3_Handler+0x60>)
    b0ea:	4798      	blx	r3
    b0ec:	4601      	mov	r1, r0
    b0ee:	b970      	cbnz	r0, b10e <SERCOM5_3_Handler+0x3a>
    b0f0:	07ea      	lsls	r2, r5, #31
    b0f2:	d505      	bpl.n	b100 <SERCOM5_3_Handler+0x2c>
    b0f4:	69a3      	ldr	r3, [r4, #24]
    b0f6:	b11b      	cbz	r3, b100 <SERCOM5_3_Handler+0x2c>
    b0f8:	4620      	mov	r0, r4
    b0fa:	e8bd 4070 	ldmia.w	sp!, {r4, r5, r6, lr}
    b0fe:	4718      	bx	r3
    b100:	07ab      	lsls	r3, r5, #30
    b102:	d502      	bpl.n	b10a <SERCOM5_3_Handler+0x36>
    b104:	69e3      	ldr	r3, [r4, #28]
    b106:	2b00      	cmp	r3, #0
    b108:	d1f6      	bne.n	b0f8 <SERCOM5_3_Handler+0x24>
    b10a:	bd70      	pop	{r4, r5, r6, pc}
    b10c:	2100      	movs	r1, #0
    b10e:	8863      	ldrh	r3, [r4, #2]
    b110:	f423 7380 	bic.w	r3, r3, #256	; 0x100
    b114:	041b      	lsls	r3, r3, #16
    b116:	0c1b      	lsrs	r3, r3, #16
    b118:	8063      	strh	r3, [r4, #2]
    b11a:	6963      	ldr	r3, [r4, #20]
    b11c:	2b00      	cmp	r3, #0
    b11e:	d0f4      	beq.n	b10a <SERCOM5_3_Handler+0x36>
    b120:	b119      	cbz	r1, b12a <SERCOM5_3_Handler+0x56>
    b122:	4620      	mov	r0, r4
    b124:	e8bd 4070 	ldmia.w	sp!, {r4, r5, r6, lr}
    b128:	4718      	bx	r3
    b12a:	f06f 0104 	mvn.w	r1, #4
    b12e:	e7f8      	b.n	b122 <SERCOM5_3_Handler+0x4e>
    b130:	200009fc 	.word	0x200009fc
    b134:	0000aa35 	.word	0x0000aa35

0000b138 <SERCOM5_2_Handler>:
    b138:	4b00      	ldr	r3, [pc, #0]	; (b13c <SERCOM5_2_Handler+0x4>)
    b13a:	4718      	bx	r3
    b13c:	0000b0d5 	.word	0x0000b0d5

0000b140 <SERCOM5_1_Handler>:
    b140:	4b00      	ldr	r3, [pc, #0]	; (b144 <SERCOM5_1_Handler+0x4>)
    b142:	4718      	bx	r3
    b144:	0000b0d5 	.word	0x0000b0d5

0000b148 <SERCOM5_0_Handler>:
    b148:	4b00      	ldr	r3, [pc, #0]	; (b14c <SERCOM5_0_Handler+0x4>)
    b14a:	4718      	bx	r3
    b14c:	0000b0d5 	.word	0x0000b0d5

0000b150 <SERCOM6_3_Handler>:
    b150:	4b01      	ldr	r3, [pc, #4]	; (b158 <SERCOM6_3_Handler+0x8>)
    b152:	6958      	ldr	r0, [r3, #20]
    b154:	4b01      	ldr	r3, [pc, #4]	; (b15c <SERCOM6_3_Handler+0xc>)
    b156:	4718      	bx	r3
    b158:	200009fc 	.word	0x200009fc
    b15c:	0000a815 	.word	0x0000a815

0000b160 <SERCOM6_2_Handler>:
    b160:	4b00      	ldr	r3, [pc, #0]	; (b164 <SERCOM6_2_Handler+0x4>)
    b162:	4718      	bx	r3
    b164:	0000b151 	.word	0x0000b151

0000b168 <SERCOM6_1_Handler>:
    b168:	4b00      	ldr	r3, [pc, #0]	; (b16c <SERCOM6_1_Handler+0x4>)
    b16a:	4718      	bx	r3
    b16c:	0000b151 	.word	0x0000b151

0000b170 <SERCOM6_0_Handler>:
    b170:	4b00      	ldr	r3, [pc, #0]	; (b174 <SERCOM6_0_Handler+0x4>)
    b172:	4718      	bx	r3
    b174:	0000b151 	.word	0x0000b151

0000b178 <_spi_m_sync_init>:
    b178:	b5f8      	push	{r3, r4, r5, r6, r7, lr}
    b17a:	4606      	mov	r6, r0
    b17c:	4b2e      	ldr	r3, [pc, #184]	; (b238 <_spi_m_sync_init+0xc0>)
    b17e:	4608      	mov	r0, r1
    b180:	460c      	mov	r4, r1
    b182:	4798      	blx	r3
    b184:	4602      	mov	r2, r0
    b186:	2800      	cmp	r0, #0
    b188:	d052      	beq.n	b230 <_spi_m_sync_init+0xb8>
    b18a:	69e3      	ldr	r3, [r4, #28]
    b18c:	4d2b      	ldr	r5, [pc, #172]	; (b23c <_spi_m_sync_init+0xc4>)
    b18e:	f013 0f01 	tst.w	r3, #1
    b192:	d114      	bne.n	b1be <_spi_m_sync_init+0x46>
    b194:	6807      	ldr	r7, [r0, #0]
    b196:	2103      	movs	r1, #3
    b198:	4620      	mov	r0, r4
    b19a:	47a8      	blx	r5
    b19c:	6823      	ldr	r3, [r4, #0]
    b19e:	079b      	lsls	r3, r3, #30
    b1a0:	f007 071c 	and.w	r7, r7, #28
    b1a4:	d505      	bpl.n	b1b2 <_spi_m_sync_init+0x3a>
    b1a6:	4620      	mov	r0, r4
    b1a8:	4b25      	ldr	r3, [pc, #148]	; (b240 <_spi_m_sync_init+0xc8>)
    b1aa:	4798      	blx	r3
    b1ac:	2102      	movs	r1, #2
    b1ae:	4620      	mov	r0, r4
    b1b0:	47a8      	blx	r5
    b1b2:	f047 0701 	orr.w	r7, r7, #1
    b1b6:	6027      	str	r7, [r4, #0]
    b1b8:	2103      	movs	r1, #3
    b1ba:	4620      	mov	r0, r4
    b1bc:	47a8      	blx	r5
    b1be:	2101      	movs	r1, #1
    b1c0:	4620      	mov	r0, r4
    b1c2:	47a8      	blx	r5
    b1c4:	6813      	ldr	r3, [r2, #0]
    b1c6:	6034      	str	r4, [r6, #0]
    b1c8:	f003 011c 	and.w	r1, r3, #28
    b1cc:	2908      	cmp	r1, #8
    b1ce:	d12a      	bne.n	b226 <_spi_m_sync_init+0xae>
    b1d0:	f423 7381 	bic.w	r3, r3, #258	; 0x102
    b1d4:	f023 0301 	bic.w	r3, r3, #1
    b1d8:	6023      	str	r3, [r4, #0]
    b1da:	2103      	movs	r1, #3
    b1dc:	4620      	mov	r0, r4
    b1de:	47a8      	blx	r5
    b1e0:	6853      	ldr	r3, [r2, #4]
    b1e2:	f423 3308 	bic.w	r3, r3, #139264	; 0x22000
    b1e6:	f423 7310 	bic.w	r3, r3, #576	; 0x240
    b1ea:	f443 3300 	orr.w	r3, r3, #131072	; 0x20000
    b1ee:	f443 7310 	orr.w	r3, r3, #576	; 0x240
    b1f2:	6063      	str	r3, [r4, #4]
    b1f4:	2117      	movs	r1, #23
    b1f6:	4620      	mov	r0, r4
    b1f8:	47a8      	blx	r5
    b1fa:	6893      	ldr	r3, [r2, #8]
    b1fc:	6263      	str	r3, [r4, #36]	; 0x24
    b1fe:	7b53      	ldrb	r3, [r2, #13]
    b200:	f884 3030 	strb.w	r3, [r4, #48]	; 0x30
    b204:	69e3      	ldr	r3, [r4, #28]
    b206:	2b00      	cmp	r3, #0
    b208:	d1fc      	bne.n	b204 <_spi_m_sync_init+0x8c>
    b20a:	6853      	ldr	r3, [r2, #4]
    b20c:	f013 0f07 	tst.w	r3, #7
    b210:	bf0c      	ite	eq
    b212:	2301      	moveq	r3, #1
    b214:	2302      	movne	r3, #2
    b216:	7133      	strb	r3, [r6, #4]
    b218:	7b93      	ldrb	r3, [r2, #14]
    b21a:	7bd2      	ldrb	r2, [r2, #15]
    b21c:	ea43 2302 	orr.w	r3, r3, r2, lsl #8
    b220:	80f3      	strh	r3, [r6, #6]
    b222:	2000      	movs	r0, #0
    b224:	bdf8      	pop	{r3, r4, r5, r6, r7, pc}
    b226:	4611      	mov	r1, r2
    b228:	4620      	mov	r0, r4
    b22a:	4b06      	ldr	r3, [pc, #24]	; (b244 <_spi_m_sync_init+0xcc>)
    b22c:	4798      	blx	r3
    b22e:	e7ec      	b.n	b20a <_spi_m_sync_init+0x92>
    b230:	f06f 000c 	mvn.w	r0, #12
    b234:	bdf8      	pop	{r3, r4, r5, r6, r7, pc}
    b236:	bf00      	nop
    b238:	0000a935 	.word	0x0000a935
    b23c:	0000a769 	.word	0x0000a769
    b240:	0000a78d 	.word	0x0000a78d
    b244:	0000aba1 	.word	0x0000aba1

0000b248 <_spi_m_async_init>:
    b248:	b5f8      	push	{r3, r4, r5, r6, r7, lr}
    b24a:	4b10      	ldr	r3, [pc, #64]	; (b28c <_spi_m_async_init+0x44>)
    b24c:	4605      	mov	r5, r0
    b24e:	460e      	mov	r6, r1
    b250:	4798      	blx	r3
    b252:	2800      	cmp	r0, #0
    b254:	db18      	blt.n	b288 <_spi_m_async_init+0x40>
    b256:	4629      	mov	r1, r5
    b258:	2400      	movs	r4, #0
    b25a:	4630      	mov	r0, r6
    b25c:	4b0c      	ldr	r3, [pc, #48]	; (b290 <_spi_m_async_init+0x48>)
    b25e:	4798      	blx	r3
    b260:	612c      	str	r4, [r5, #16]
    b262:	60ec      	str	r4, [r5, #12]
    b264:	60ac      	str	r4, [r5, #8]
    b266:	4630      	mov	r0, r6
    b268:	4b0a      	ldr	r3, [pc, #40]	; (b294 <_spi_m_async_init+0x4c>)
    b26a:	4e0b      	ldr	r6, [pc, #44]	; (b298 <_spi_m_async_init+0x50>)
    b26c:	4d0b      	ldr	r5, [pc, #44]	; (b29c <_spi_m_async_init+0x54>)
    b26e:	4798      	blx	r3
    b270:	4621      	mov	r1, r4
    b272:	4607      	mov	r7, r0
    b274:	187c      	adds	r4, r7, r1
    b276:	b2e4      	uxtb	r4, r4
    b278:	4620      	mov	r0, r4
    b27a:	47b0      	blx	r6
    b27c:	4620      	mov	r0, r4
    b27e:	47a8      	blx	r5
    b280:	3101      	adds	r1, #1
    b282:	2904      	cmp	r1, #4
    b284:	d1f6      	bne.n	b274 <_spi_m_async_init+0x2c>
    b286:	2000      	movs	r0, #0
    b288:	bdf8      	pop	{r3, r4, r5, r6, r7, pc}
    b28a:	bf00      	nop
    b28c:	0000b179 	.word	0x0000b179
    b290:	0000a885 	.word	0x0000a885
    b294:	0000a8f9 	.word	0x0000a8f9
    b298:	0000a719 	.word	0x0000a719
    b29c:	0000a741 	.word	0x0000a741

0000b2a0 <_spi_s_async_enable>:
    b2a0:	b538      	push	{r3, r4, r5, lr}
    b2a2:	6804      	ldr	r4, [r0, #0]
    b2a4:	4b08      	ldr	r3, [pc, #32]	; (b2c8 <_spi_s_async_enable+0x28>)
    b2a6:	4620      	mov	r0, r4
    b2a8:	4798      	blx	r3
    b2aa:	4620      	mov	r0, r4
    b2ac:	4b07      	ldr	r3, [pc, #28]	; (b2cc <_spi_s_async_enable+0x2c>)
    b2ae:	4c08      	ldr	r4, [pc, #32]	; (b2d0 <_spi_s_async_enable+0x30>)
    b2b0:	4798      	blx	r3
    b2b2:	2100      	movs	r1, #0
    b2b4:	4605      	mov	r5, r0
    b2b6:	1868      	adds	r0, r5, r1
    b2b8:	b2c0      	uxtb	r0, r0
    b2ba:	47a0      	blx	r4
    b2bc:	3101      	adds	r1, #1
    b2be:	2904      	cmp	r1, #4
    b2c0:	d1f9      	bne.n	b2b6 <_spi_s_async_enable+0x16>
    b2c2:	2000      	movs	r0, #0
    b2c4:	bd38      	pop	{r3, r4, r5, pc}
    b2c6:	bf00      	nop
    b2c8:	0000a90d 	.word	0x0000a90d
    b2cc:	0000a8f9 	.word	0x0000a8f9
    b2d0:	0000a6fd 	.word	0x0000a6fd

0000b2d4 <_spi_m_async_enable>:
    b2d4:	4b00      	ldr	r3, [pc, #0]	; (b2d8 <_spi_m_async_enable+0x4>)
    b2d6:	4718      	bx	r3
    b2d8:	0000b2a1 	.word	0x0000b2a1

0000b2dc <_spi_s_async_set_mode>:
    b2dc:	6800      	ldr	r0, [r0, #0]
    b2de:	4b01      	ldr	r3, [pc, #4]	; (b2e4 <_spi_s_async_set_mode+0x8>)
    b2e0:	4718      	bx	r3
    b2e2:	bf00      	nop
    b2e4:	0000abdd 	.word	0x0000abdd

0000b2e8 <_spi_m_async_set_mode>:
    b2e8:	4b00      	ldr	r3, [pc, #0]	; (b2ec <_spi_m_async_set_mode+0x4>)
    b2ea:	4718      	bx	r3
    b2ec:	0000b2dd 	.word	0x0000b2dd

0000b2f0 <_spi_m_async_set_baudrate>:
    b2f0:	6803      	ldr	r3, [r0, #0]
    b2f2:	69d8      	ldr	r0, [r3, #28]
    b2f4:	f010 0001 	ands.w	r0, r0, #1
    b2f8:	bf06      	itte	eq
    b2fa:	b2c9      	uxtbeq	r1, r1
    b2fc:	7319      	strbeq	r1, [r3, #12]
    b2fe:	f06f 0003 	mvnne.w	r0, #3
    b302:	4770      	bx	lr

0000b304 <_spi_m_async_enable_tx>:
    b304:	6803      	ldr	r3, [r0, #0]
    b306:	2201      	movs	r2, #1
    b308:	b111      	cbz	r1, b310 <_spi_m_async_enable_tx+0xc>
    b30a:	759a      	strb	r2, [r3, #22]
    b30c:	2000      	movs	r0, #0
    b30e:	4770      	bx	lr
    b310:	751a      	strb	r2, [r3, #20]
    b312:	e7fb      	b.n	b30c <_spi_m_async_enable_tx+0x8>

0000b314 <_spi_m_async_enable_rx>:
    b314:	6803      	ldr	r3, [r0, #0]
    b316:	2204      	movs	r2, #4
    b318:	b111      	cbz	r1, b320 <_spi_m_async_enable_rx+0xc>
    b31a:	759a      	strb	r2, [r3, #22]
    b31c:	2000      	movs	r0, #0
    b31e:	4770      	bx	lr
    b320:	751a      	strb	r2, [r3, #20]
    b322:	e7fb      	b.n	b31c <_spi_m_async_enable_rx+0x8>

0000b324 <_spi_m_async_enable_tx_complete>:
    b324:	6803      	ldr	r3, [r0, #0]
    b326:	2202      	movs	r2, #2
    b328:	b111      	cbz	r1, b330 <_spi_m_async_enable_tx_complete+0xc>
    b32a:	759a      	strb	r2, [r3, #22]
    b32c:	2000      	movs	r0, #0
    b32e:	4770      	bx	lr
    b330:	751a      	strb	r2, [r3, #20]
    b332:	e7fb      	b.n	b32c <_spi_m_async_enable_tx_complete+0x8>

0000b334 <_spi_m_async_write_one>:
    b334:	6803      	ldr	r3, [r0, #0]
    b336:	2000      	movs	r0, #0
    b338:	6299      	str	r1, [r3, #40]	; 0x28
    b33a:	4770      	bx	lr

0000b33c <_spi_m_async_read_one>:
    b33c:	6803      	ldr	r3, [r0, #0]
    b33e:	6a98      	ldr	r0, [r3, #40]	; 0x28
    b340:	b280      	uxth	r0, r0
    b342:	4770      	bx	lr

0000b344 <_spi_m_async_register_callback>:
    b344:	eb00 0181 	add.w	r1, r0, r1, lsl #2
    b348:	2000      	movs	r0, #0
    b34a:	608a      	str	r2, [r1, #8]
    b34c:	4770      	bx	lr

0000b34e <_spi_m_async_set_irq_state>:
    b34e:	2903      	cmp	r1, #3
    b350:	d105      	bne.n	b35e <_spi_m_async_set_irq_state+0x10>
    b352:	6803      	ldr	r3, [r0, #0]
    b354:	2180      	movs	r1, #128	; 0x80
    b356:	b90a      	cbnz	r2, b35c <_spi_m_async_set_irq_state+0xe>
    b358:	7519      	strb	r1, [r3, #20]
    b35a:	4770      	bx	lr
    b35c:	7599      	strb	r1, [r3, #22]
    b35e:	4770      	bx	lr

0000b360 <_spi_m_dma_init>:
    b360:	e92d 41f0 	stmdb	sp!, {r4, r5, r6, r7, r8, lr}
    b364:	4b25      	ldr	r3, [pc, #148]	; (b3fc <_spi_m_dma_init+0x9c>)
    b366:	4605      	mov	r5, r0
    b368:	4608      	mov	r0, r1
    b36a:	460c      	mov	r4, r1
    b36c:	4798      	blx	r3
    b36e:	4607      	mov	r7, r0
    b370:	2800      	cmp	r0, #0
    b372:	d03f      	beq.n	b3f4 <_spi_m_dma_init+0x94>
    b374:	69e3      	ldr	r3, [r4, #28]
    b376:	4e22      	ldr	r6, [pc, #136]	; (b400 <_spi_m_dma_init+0xa0>)
    b378:	f013 0f01 	tst.w	r3, #1
    b37c:	d114      	bne.n	b3a8 <_spi_m_dma_init+0x48>
    b37e:	6802      	ldr	r2, [r0, #0]
    b380:	2103      	movs	r1, #3
    b382:	4620      	mov	r0, r4
    b384:	f002 021c 	and.w	r2, r2, #28
    b388:	47b0      	blx	r6
    b38a:	6823      	ldr	r3, [r4, #0]
    b38c:	079b      	lsls	r3, r3, #30
    b38e:	d505      	bpl.n	b39c <_spi_m_dma_init+0x3c>
    b390:	4620      	mov	r0, r4
    b392:	4b1c      	ldr	r3, [pc, #112]	; (b404 <_spi_m_dma_init+0xa4>)
    b394:	4798      	blx	r3
    b396:	2102      	movs	r1, #2
    b398:	4620      	mov	r0, r4
    b39a:	47b0      	blx	r6
    b39c:	f042 0201 	orr.w	r2, r2, #1
    b3a0:	6022      	str	r2, [r4, #0]
    b3a2:	2103      	movs	r1, #3
    b3a4:	4620      	mov	r0, r4
    b3a6:	47b0      	blx	r6
    b3a8:	4620      	mov	r0, r4
    b3aa:	2101      	movs	r1, #1
    b3ac:	47b0      	blx	r6
    b3ae:	462e      	mov	r6, r5
    b3b0:	4639      	mov	r1, r7
    b3b2:	f846 4b18 	str.w	r4, [r6], #24
    b3b6:	4620      	mov	r0, r4
    b3b8:	4b13      	ldr	r3, [pc, #76]	; (b408 <_spi_m_dma_init+0xa8>)
    b3ba:	f8df 8064 	ldr.w	r8, [pc, #100]	; b420 <_spi_m_dma_init+0xc0>
    b3be:	4f13      	ldr	r7, [pc, #76]	; (b40c <_spi_m_dma_init+0xac>)
    b3c0:	4798      	blx	r3
    b3c2:	4b13      	ldr	r3, [pc, #76]	; (b410 <_spi_m_dma_init+0xb0>)
    b3c4:	4620      	mov	r0, r4
    b3c6:	4798      	blx	r3
    b3c8:	4601      	mov	r1, r0
    b3ca:	4630      	mov	r0, r6
    b3cc:	47c0      	blx	r8
    b3ce:	69ab      	ldr	r3, [r5, #24]
    b3d0:	4a10      	ldr	r2, [pc, #64]	; (b414 <_spi_m_dma_init+0xb4>)
    b3d2:	601a      	str	r2, [r3, #0]
    b3d4:	609d      	str	r5, [r3, #8]
    b3d6:	605f      	str	r7, [r3, #4]
    b3d8:	4620      	mov	r0, r4
    b3da:	4b0f      	ldr	r3, [pc, #60]	; (b418 <_spi_m_dma_init+0xb8>)
    b3dc:	4798      	blx	r3
    b3de:	4601      	mov	r1, r0
    b3e0:	4630      	mov	r0, r6
    b3e2:	47c0      	blx	r8
    b3e4:	69ab      	ldr	r3, [r5, #24]
    b3e6:	4a0d      	ldr	r2, [pc, #52]	; (b41c <_spi_m_dma_init+0xbc>)
    b3e8:	609d      	str	r5, [r3, #8]
    b3ea:	e883 0084 	stmia.w	r3, {r2, r7}
    b3ee:	2000      	movs	r0, #0
    b3f0:	e8bd 81f0 	ldmia.w	sp!, {r4, r5, r6, r7, r8, pc}
    b3f4:	f06f 000c 	mvn.w	r0, #12
    b3f8:	e8bd 81f0 	ldmia.w	sp!, {r4, r5, r6, r7, r8, pc}
    b3fc:	0000a935 	.word	0x0000a935
    b400:	0000a769 	.word	0x0000a769
    b404:	0000a78d 	.word	0x0000a78d
    b408:	0000aba1 	.word	0x0000aba1
    b40c:	0000a99d 	.word	0x0000a99d
    b410:	0000a975 	.word	0x0000a975
    b414:	0000a989 	.word	0x0000a989
    b418:	0000a961 	.word	0x0000a961
    b41c:	0000a993 	.word	0x0000a993
    b420:	0000a0f9 	.word	0x0000a0f9

0000b424 <_spi_m_dma_enable>:
    b424:	6800      	ldr	r0, [r0, #0]
    b426:	4b01      	ldr	r3, [pc, #4]	; (b42c <_spi_m_dma_enable+0x8>)
    b428:	4718      	bx	r3
    b42a:	bf00      	nop
    b42c:	0000a90d 	.word	0x0000a90d

0000b430 <_spi_m_dma_register_callback>:
    b430:	2901      	cmp	r1, #1
    b432:	b570      	push	{r4, r5, r6, lr}
    b434:	4605      	mov	r5, r0
    b436:	4614      	mov	r4, r2
    b438:	d00f      	beq.n	b45a <_spi_m_dma_register_callback+0x2a>
    b43a:	d302      	bcc.n	b442 <_spi_m_dma_register_callback+0x12>
    b43c:	2902      	cmp	r1, #2
    b43e:	d010      	beq.n	b462 <_spi_m_dma_register_callback+0x32>
    b440:	bd70      	pop	{r4, r5, r6, pc}
    b442:	6800      	ldr	r0, [r0, #0]
    b444:	4b10      	ldr	r3, [pc, #64]	; (b488 <_spi_m_dma_register_callback+0x58>)
    b446:	606a      	str	r2, [r5, #4]
    b448:	4798      	blx	r3
    b44a:	1c22      	adds	r2, r4, #0
    b44c:	4b0f      	ldr	r3, [pc, #60]	; (b48c <_spi_m_dma_register_callback+0x5c>)
    b44e:	bf18      	it	ne
    b450:	2201      	movne	r2, #1
    b452:	2100      	movs	r1, #0
    b454:	e8bd 4070 	ldmia.w	sp!, {r4, r5, r6, lr}
    b458:	4718      	bx	r3
    b45a:	60aa      	str	r2, [r5, #8]
    b45c:	6800      	ldr	r0, [r0, #0]
    b45e:	4b0c      	ldr	r3, [pc, #48]	; (b490 <_spi_m_dma_register_callback+0x60>)
    b460:	e7f2      	b.n	b448 <_spi_m_dma_register_callback+0x18>
    b462:	4b0b      	ldr	r3, [pc, #44]	; (b490 <_spi_m_dma_register_callback+0x60>)
    b464:	60ea      	str	r2, [r5, #12]
    b466:	6800      	ldr	r0, [r0, #0]
    b468:	4e08      	ldr	r6, [pc, #32]	; (b48c <_spi_m_dma_register_callback+0x5c>)
    b46a:	4798      	blx	r3
    b46c:	3400      	adds	r4, #0
    b46e:	bf18      	it	ne
    b470:	2401      	movne	r4, #1
    b472:	4622      	mov	r2, r4
    b474:	2101      	movs	r1, #1
    b476:	47b0      	blx	r6
    b478:	4b03      	ldr	r3, [pc, #12]	; (b488 <_spi_m_dma_register_callback+0x58>)
    b47a:	6828      	ldr	r0, [r5, #0]
    b47c:	4798      	blx	r3
    b47e:	4622      	mov	r2, r4
    b480:	2101      	movs	r1, #1
    b482:	4633      	mov	r3, r6
    b484:	e7e6      	b.n	b454 <_spi_m_dma_register_callback+0x24>
    b486:	bf00      	nop
    b488:	0000a961 	.word	0x0000a961
    b48c:	0000a015 	.word	0x0000a015
    b490:	0000a975 	.word	0x0000a975

0000b494 <_spi_m_dma_transfer>:
    b494:	e92d 4ff7 	stmdb	sp!, {r0, r1, r2, r4, r5, r6, r7, r8, r9, sl, fp, lr}
    b498:	f8d0 a000 	ldr.w	sl, [r0]
    b49c:	9200      	str	r2, [sp, #0]
    b49e:	4605      	mov	r5, r0
    b4a0:	4a31      	ldr	r2, [pc, #196]	; (b568 <_spi_m_dma_transfer+0xd4>)
    b4a2:	f8df b0e4 	ldr.w	fp, [pc, #228]	; b588 <_spi_m_dma_transfer+0xf4>
    b4a6:	4f31      	ldr	r7, [pc, #196]	; (b56c <_spi_m_dma_transfer+0xd8>)
    b4a8:	4650      	mov	r0, sl
    b4aa:	4698      	mov	r8, r3
    b4ac:	4689      	mov	r9, r1
    b4ae:	4790      	blx	r2
    b4b0:	4a2f      	ldr	r2, [pc, #188]	; (b570 <_spi_m_dma_transfer+0xdc>)
    b4b2:	9001      	str	r0, [sp, #4]
    b4b4:	4650      	mov	r0, sl
    b4b6:	4790      	blx	r2
    b4b8:	4a2e      	ldr	r2, [pc, #184]	; (b574 <_spi_m_dma_transfer+0xe0>)
    b4ba:	4606      	mov	r6, r0
    b4bc:	4650      	mov	r0, sl
    b4be:	4790      	blx	r2
    b4c0:	9b00      	ldr	r3, [sp, #0]
    b4c2:	f8da 201c 	ldr.w	r2, [sl, #28]
    b4c6:	4604      	mov	r4, r0
    b4c8:	2b00      	cmp	r3, #0
    b4ca:	d034      	beq.n	b536 <_spi_m_dma_transfer+0xa2>
    b4cc:	0752      	lsls	r2, r2, #29
    b4ce:	d409      	bmi.n	b4e4 <_spi_m_dma_transfer+0x50>
    b4d0:	f8da 2004 	ldr.w	r2, [sl, #4]
    b4d4:	4b28      	ldr	r3, [pc, #160]	; (b578 <_spi_m_dma_transfer+0xe4>)
    b4d6:	f442 3200 	orr.w	r2, r2, #131072	; 0x20000
    b4da:	f8ca 2004 	str.w	r2, [sl, #4]
    b4de:	2117      	movs	r1, #23
    b4e0:	4650      	mov	r0, sl
    b4e2:	4798      	blx	r3
    b4e4:	6829      	ldr	r1, [r5, #0]
    b4e6:	4630      	mov	r0, r6
    b4e8:	3128      	adds	r1, #40	; 0x28
    b4ea:	47d8      	blx	fp
    b4ec:	4b23      	ldr	r3, [pc, #140]	; (b57c <_spi_m_dma_transfer+0xe8>)
    b4ee:	9900      	ldr	r1, [sp, #0]
    b4f0:	4630      	mov	r0, r6
    b4f2:	4798      	blx	r3
    b4f4:	4641      	mov	r1, r8
    b4f6:	4630      	mov	r0, r6
    b4f8:	47b8      	blx	r7
    b4fa:	2100      	movs	r1, #0
    b4fc:	4630      	mov	r0, r6
    b4fe:	4b20      	ldr	r3, [pc, #128]	; (b580 <_spi_m_dma_transfer+0xec>)
    b500:	4798      	blx	r3
    b502:	4e20      	ldr	r6, [pc, #128]	; (b584 <_spi_m_dma_transfer+0xf0>)
    b504:	f1b9 0f00 	cmp.w	r9, #0
    b508:	d022      	beq.n	b550 <_spi_m_dma_transfer+0xbc>
    b50a:	4649      	mov	r1, r9
    b50c:	4620      	mov	r0, r4
    b50e:	47d8      	blx	fp
    b510:	6829      	ldr	r1, [r5, #0]
    b512:	4b1a      	ldr	r3, [pc, #104]	; (b57c <_spi_m_dma_transfer+0xe8>)
    b514:	3128      	adds	r1, #40	; 0x28
    b516:	4620      	mov	r0, r4
    b518:	4798      	blx	r3
    b51a:	2101      	movs	r1, #1
    b51c:	4620      	mov	r0, r4
    b51e:	47b0      	blx	r6
    b520:	4641      	mov	r1, r8
    b522:	4620      	mov	r0, r4
    b524:	47b8      	blx	r7
    b526:	2100      	movs	r1, #0
    b528:	4620      	mov	r0, r4
    b52a:	4b15      	ldr	r3, [pc, #84]	; (b580 <_spi_m_dma_transfer+0xec>)
    b52c:	4798      	blx	r3
    b52e:	2000      	movs	r0, #0
    b530:	b003      	add	sp, #12
    b532:	e8bd 8ff0 	ldmia.w	sp!, {r4, r5, r6, r7, r8, r9, sl, fp, pc}
    b536:	0753      	lsls	r3, r2, #29
    b538:	d4e3      	bmi.n	b502 <_spi_m_dma_transfer+0x6e>
    b53a:	f8da 2004 	ldr.w	r2, [sl, #4]
    b53e:	4b0e      	ldr	r3, [pc, #56]	; (b578 <_spi_m_dma_transfer+0xe4>)
    b540:	f422 3200 	bic.w	r2, r2, #131072	; 0x20000
    b544:	f8ca 2004 	str.w	r2, [sl, #4]
    b548:	2117      	movs	r1, #23
    b54a:	4650      	mov	r0, sl
    b54c:	4798      	blx	r3
    b54e:	e7d8      	b.n	b502 <_spi_m_dma_transfer+0x6e>
    b550:	9901      	ldr	r1, [sp, #4]
    b552:	4620      	mov	r0, r4
    b554:	310e      	adds	r1, #14
    b556:	47d8      	blx	fp
    b558:	6829      	ldr	r1, [r5, #0]
    b55a:	4b08      	ldr	r3, [pc, #32]	; (b57c <_spi_m_dma_transfer+0xe8>)
    b55c:	3128      	adds	r1, #40	; 0x28
    b55e:	4620      	mov	r0, r4
    b560:	4798      	blx	r3
    b562:	4649      	mov	r1, r9
    b564:	e7da      	b.n	b51c <_spi_m_dma_transfer+0x88>
    b566:	bf00      	nop
    b568:	0000a935 	.word	0x0000a935
    b56c:	0000a079 	.word	0x0000a079
    b570:	0000a975 	.word	0x0000a975
    b574:	0000a961 	.word	0x0000a961
    b578:	0000a769 	.word	0x0000a769
    b57c:	0000a03d 	.word	0x0000a03d
    b580:	0000a0bd 	.word	0x0000a0bd
    b584:	0000a05d 	.word	0x0000a05d
    b588:	0000a04d 	.word	0x0000a04d

0000b58c <_delay_init>:
    b58c:	4b03      	ldr	r3, [pc, #12]	; (b59c <_delay_init+0x10>)
    b58e:	f06f 427f 	mvn.w	r2, #4278190080	; 0xff000000
    b592:	605a      	str	r2, [r3, #4]
    b594:	2205      	movs	r2, #5
    b596:	601a      	str	r2, [r3, #0]
    b598:	4770      	bx	lr
    b59a:	bf00      	nop
    b59c:	e000e010 	.word	0xe000e010

0000b5a0 <_delay_cycles>:
    b5a0:	0e0b      	lsrs	r3, r1, #24
    b5a2:	4a0c      	ldr	r2, [pc, #48]	; (b5d4 <_delay_cycles+0x34>)
    b5a4:	b530      	push	{r4, r5, lr}
    b5a6:	b2d8      	uxtb	r0, r3
    b5a8:	f06f 447f 	mvn.w	r4, #4278190080	; 0xff000000
    b5ac:	3801      	subs	r0, #1
    b5ae:	b2c0      	uxtb	r0, r0
    b5b0:	28ff      	cmp	r0, #255	; 0xff
    b5b2:	d108      	bne.n	b5c6 <_delay_cycles+0x26>
    b5b4:	eba3 6303 	sub.w	r3, r3, r3, lsl #24
    b5b8:	4419      	add	r1, r3
    b5ba:	6051      	str	r1, [r2, #4]
    b5bc:	6091      	str	r1, [r2, #8]
    b5be:	6813      	ldr	r3, [r2, #0]
    b5c0:	03db      	lsls	r3, r3, #15
    b5c2:	d5fc      	bpl.n	b5be <_delay_cycles+0x1e>
    b5c4:	bd30      	pop	{r4, r5, pc}
    b5c6:	6054      	str	r4, [r2, #4]
    b5c8:	6094      	str	r4, [r2, #8]
    b5ca:	6815      	ldr	r5, [r2, #0]
    b5cc:	03ed      	lsls	r5, r5, #15
    b5ce:	d5fc      	bpl.n	b5ca <_delay_cycles+0x2a>
    b5d0:	e7ec      	b.n	b5ac <_delay_cycles+0xc>
    b5d2:	bf00      	nop
    b5d4:	e000e010 	.word	0xe000e010

0000b5d8 <__NVIC_DisableIRQ>:
    b5d8:	2800      	cmp	r0, #0
    b5da:	db0d      	blt.n	b5f8 <__NVIC_DisableIRQ+0x20>
    b5dc:	0943      	lsrs	r3, r0, #5
    b5de:	2201      	movs	r2, #1
    b5e0:	f000 001f 	and.w	r0, r0, #31
    b5e4:	fa02 f000 	lsl.w	r0, r2, r0
    b5e8:	3320      	adds	r3, #32
    b5ea:	4a04      	ldr	r2, [pc, #16]	; (b5fc <__NVIC_DisableIRQ+0x24>)
    b5ec:	f842 0023 	str.w	r0, [r2, r3, lsl #2]
    b5f0:	f3bf 8f4f 	dsb	sy
    b5f4:	f3bf 8f6f 	isb	sy
    b5f8:	4770      	bx	lr
    b5fa:	bf00      	nop
    b5fc:	e000e100 	.word	0xe000e100

0000b600 <hri_tc_wait_for_sync>:
    b600:	6903      	ldr	r3, [r0, #16]
    b602:	420b      	tst	r3, r1
    b604:	d1fc      	bne.n	b600 <hri_tc_wait_for_sync>
    b606:	4770      	bx	lr

0000b608 <_tc_timer_start>:
    b608:	68c0      	ldr	r0, [r0, #12]
    b60a:	6803      	ldr	r3, [r0, #0]
    b60c:	f043 0302 	orr.w	r3, r3, #2
    b610:	6003      	str	r3, [r0, #0]
    b612:	2103      	movs	r1, #3
    b614:	4b00      	ldr	r3, [pc, #0]	; (b618 <_tc_timer_start+0x10>)
    b616:	4718      	bx	r3
    b618:	0000b601 	.word	0x0000b601

0000b61c <_tc_timer_get_period>:
    b61c:	b508      	push	{r3, lr}
    b61e:	68c2      	ldr	r2, [r0, #12]
    b620:	6813      	ldr	r3, [r2, #0]
    b622:	f3c3 0381 	ubfx	r3, r3, #2, #2
    b626:	2b02      	cmp	r3, #2
    b628:	d105      	bne.n	b636 <_tc_timer_get_period+0x1a>
    b62a:	4610      	mov	r0, r2
    b62c:	21c0      	movs	r1, #192	; 0xc0
    b62e:	4b0e      	ldr	r3, [pc, #56]	; (b668 <_tc_timer_get_period+0x4c>)
    b630:	4798      	blx	r3
    b632:	69d0      	ldr	r0, [r2, #28]
    b634:	bd08      	pop	{r3, pc}
    b636:	6813      	ldr	r3, [r2, #0]
    b638:	f013 0f0c 	tst.w	r3, #12
    b63c:	d106      	bne.n	b64c <_tc_timer_get_period+0x30>
    b63e:	4610      	mov	r0, r2
    b640:	21c0      	movs	r1, #192	; 0xc0
    b642:	4b09      	ldr	r3, [pc, #36]	; (b668 <_tc_timer_get_period+0x4c>)
    b644:	4798      	blx	r3
    b646:	8b90      	ldrh	r0, [r2, #28]
    b648:	b280      	uxth	r0, r0
    b64a:	bd08      	pop	{r3, pc}
    b64c:	6813      	ldr	r3, [r2, #0]
    b64e:	f3c3 0381 	ubfx	r3, r3, #2, #2
    b652:	2b01      	cmp	r3, #1
    b654:	d106      	bne.n	b664 <_tc_timer_get_period+0x48>
    b656:	4610      	mov	r0, r2
    b658:	2120      	movs	r1, #32
    b65a:	4b03      	ldr	r3, [pc, #12]	; (b668 <_tc_timer_get_period+0x4c>)
    b65c:	4798      	blx	r3
    b65e:	7ed0      	ldrb	r0, [r2, #27]
    b660:	b2c0      	uxtb	r0, r0
    b662:	bd08      	pop	{r3, pc}
    b664:	2000      	movs	r0, #0
    b666:	bd08      	pop	{r3, pc}
    b668:	0000b601 	.word	0x0000b601

0000b66c <_tc_timer_is_started>:
    b66c:	68c2      	ldr	r2, [r0, #12]
    b66e:	b508      	push	{r3, lr}
    b670:	4610      	mov	r0, r2
    b672:	2103      	movs	r1, #3
    b674:	4b02      	ldr	r3, [pc, #8]	; (b680 <_tc_timer_is_started+0x14>)
    b676:	4798      	blx	r3
    b678:	6810      	ldr	r0, [r2, #0]
    b67a:	f3c0 0040 	ubfx	r0, r0, #1, #1
    b67e:	bd08      	pop	{r3, pc}
    b680:	0000b601 	.word	0x0000b601

0000b684 <tc_interrupt_handler>:
    b684:	68c2      	ldr	r2, [r0, #12]
    b686:	7a91      	ldrb	r1, [r2, #10]
    b688:	07c9      	lsls	r1, r1, #31
    b68a:	d503      	bpl.n	b694 <tc_interrupt_handler+0x10>
    b68c:	2101      	movs	r1, #1
    b68e:	7291      	strb	r1, [r2, #10]
    b690:	6803      	ldr	r3, [r0, #0]
    b692:	4718      	bx	r3
    b694:	4770      	bx	lr
	...

0000b698 <get_tc_index>:
    b698:	b570      	push	{r4, r5, r6, lr}
    b69a:	4d12      	ldr	r5, [pc, #72]	; (b6e4 <get_tc_index+0x4c>)
    b69c:	4606      	mov	r6, r0
    b69e:	cd0f      	ldmia	r5!, {r0, r1, r2, r3}
    b6a0:	b088      	sub	sp, #32
    b6a2:	466c      	mov	r4, sp
    b6a4:	c40f      	stmia	r4!, {r0, r1, r2, r3}
    b6a6:	e895 000f 	ldmia.w	r5, {r0, r1, r2, r3}
    b6aa:	e884 000f 	stmia.w	r4, {r0, r1, r2, r3}
    b6ae:	2300      	movs	r3, #0
    b6b0:	f85d 2023 	ldr.w	r2, [sp, r3, lsl #2]
    b6b4:	42b2      	cmp	r2, r6
    b6b6:	d103      	bne.n	b6c0 <get_tc_index+0x28>
    b6b8:	b2d8      	uxtb	r0, r3
    b6ba:	b933      	cbnz	r3, b6ca <get_tc_index+0x32>
    b6bc:	4618      	mov	r0, r3
    b6be:	e00a      	b.n	b6d6 <get_tc_index+0x3e>
    b6c0:	3301      	adds	r3, #1
    b6c2:	2b08      	cmp	r3, #8
    b6c4:	d1f4      	bne.n	b6b0 <get_tc_index+0x18>
    b6c6:	2000      	movs	r0, #0
    b6c8:	e005      	b.n	b6d6 <get_tc_index+0x3e>
    b6ca:	2801      	cmp	r0, #1
    b6cc:	d003      	beq.n	b6d6 <get_tc_index+0x3e>
    b6ce:	2802      	cmp	r0, #2
    b6d0:	d001      	beq.n	b6d6 <get_tc_index+0x3e>
    b6d2:	2803      	cmp	r0, #3
    b6d4:	d102      	bne.n	b6dc <get_tc_index+0x44>
    b6d6:	b240      	sxtb	r0, r0
    b6d8:	b008      	add	sp, #32
    b6da:	bd70      	pop	{r4, r5, r6, pc}
    b6dc:	f04f 30ff 	mov.w	r0, #4294967295
    b6e0:	e7fa      	b.n	b6d8 <get_tc_index+0x40>
    b6e2:	bf00      	nop
    b6e4:	00010740 	.word	0x00010740

0000b6e8 <_tc_timer_set_irq>:
    b6e8:	b510      	push	{r4, lr}
    b6ea:	4b06      	ldr	r3, [pc, #24]	; (b704 <_tc_timer_set_irq+0x1c>)
    b6ec:	68c0      	ldr	r0, [r0, #12]
    b6ee:	4798      	blx	r3
    b6f0:	4a05      	ldr	r2, [pc, #20]	; (b708 <_tc_timer_set_irq+0x20>)
    b6f2:	2314      	movs	r3, #20
    b6f4:	fb03 2000 	mla	r0, r3, r0, r2
    b6f8:	e8bd 4010 	ldmia.w	sp!, {r4, lr}
    b6fc:	f890 0022 	ldrb.w	r0, [r0, #34]	; 0x22
    b700:	4b02      	ldr	r3, [pc, #8]	; (b70c <_tc_timer_set_irq+0x24>)
    b702:	4718      	bx	r3
    b704:	0000b699 	.word	0x0000b699
    b708:	00010740 	.word	0x00010740
    b70c:	00009e69 	.word	0x00009e69

0000b710 <_tc_timer_stop>:
    b710:	68c0      	ldr	r0, [r0, #12]
    b712:	6803      	ldr	r3, [r0, #0]
    b714:	f023 0302 	bic.w	r3, r3, #2
    b718:	6003      	str	r3, [r0, #0]
    b71a:	2103      	movs	r1, #3
    b71c:	4b00      	ldr	r3, [pc, #0]	; (b720 <_tc_timer_stop+0x10>)
    b71e:	4718      	bx	r3
    b720:	0000b601 	.word	0x0000b601

0000b724 <_tc_timer_deinit>:
    b724:	b510      	push	{r4, lr}
    b726:	68c4      	ldr	r4, [r0, #12]
    b728:	4b0d      	ldr	r3, [pc, #52]	; (b760 <_tc_timer_deinit+0x3c>)
    b72a:	4620      	mov	r0, r4
    b72c:	4798      	blx	r3
    b72e:	4a0d      	ldr	r2, [pc, #52]	; (b764 <_tc_timer_deinit+0x40>)
    b730:	2314      	movs	r3, #20
    b732:	fb03 2000 	mla	r0, r3, r0, r2
    b736:	4b0c      	ldr	r3, [pc, #48]	; (b768 <_tc_timer_deinit+0x44>)
    b738:	f9b0 0022 	ldrsh.w	r0, [r0, #34]	; 0x22
    b73c:	4798      	blx	r3
    b73e:	6823      	ldr	r3, [r4, #0]
    b740:	4a0a      	ldr	r2, [pc, #40]	; (b76c <_tc_timer_deinit+0x48>)
    b742:	f023 0302 	bic.w	r3, r3, #2
    b746:	6023      	str	r3, [r4, #0]
    b748:	4620      	mov	r0, r4
    b74a:	2103      	movs	r1, #3
    b74c:	4790      	blx	r2
    b74e:	6823      	ldr	r3, [r4, #0]
    b750:	f043 0301 	orr.w	r3, r3, #1
    b754:	6023      	str	r3, [r4, #0]
    b756:	4620      	mov	r0, r4
    b758:	2101      	movs	r1, #1
    b75a:	e8bd 4010 	ldmia.w	sp!, {r4, lr}
    b75e:	4710      	bx	r2
    b760:	0000b699 	.word	0x0000b699
    b764:	00010740 	.word	0x00010740
    b768:	0000b5d9 	.word	0x0000b5d9
    b76c:	0000b601 	.word	0x0000b601

0000b770 <_tc_timer_init>:
    b770:	e92d 43f8 	stmdb	sp!, {r3, r4, r5, r6, r7, r8, r9, lr}
    b774:	4607      	mov	r7, r0
    b776:	460c      	mov	r4, r1
    b778:	4b48      	ldr	r3, [pc, #288]	; (b89c <_tc_timer_init+0x12c>)
    b77a:	4608      	mov	r0, r1
    b77c:	4798      	blx	r3
    b77e:	60fc      	str	r4, [r7, #12]
    b780:	6923      	ldr	r3, [r4, #16]
    b782:	4a47      	ldr	r2, [pc, #284]	; (b8a0 <_tc_timer_init+0x130>)
    b784:	f013 0f01 	tst.w	r3, #1
    b788:	4680      	mov	r8, r0
    b78a:	d114      	bne.n	b7b6 <_tc_timer_init+0x46>
    b78c:	2103      	movs	r1, #3
    b78e:	4620      	mov	r0, r4
    b790:	4790      	blx	r2
    b792:	6823      	ldr	r3, [r4, #0]
    b794:	079b      	lsls	r3, r3, #30
    b796:	d509      	bpl.n	b7ac <_tc_timer_init+0x3c>
    b798:	6823      	ldr	r3, [r4, #0]
    b79a:	f023 0302 	bic.w	r3, r3, #2
    b79e:	2103      	movs	r1, #3
    b7a0:	4620      	mov	r0, r4
    b7a2:	6023      	str	r3, [r4, #0]
    b7a4:	4790      	blx	r2
    b7a6:	2102      	movs	r1, #2
    b7a8:	4620      	mov	r0, r4
    b7aa:	4790      	blx	r2
    b7ac:	2301      	movs	r3, #1
    b7ae:	6023      	str	r3, [r4, #0]
    b7b0:	2103      	movs	r1, #3
    b7b2:	4620      	mov	r0, r4
    b7b4:	4790      	blx	r2
    b7b6:	f8df 9104 	ldr.w	r9, [pc, #260]	; b8bc <_tc_timer_init+0x14c>
    b7ba:	2514      	movs	r5, #20
    b7bc:	fb05 9508 	mla	r5, r5, r8, r9
    b7c0:	2101      	movs	r1, #1
    b7c2:	4620      	mov	r0, r4
    b7c4:	4790      	blx	r2
    b7c6:	6a6e      	ldr	r6, [r5, #36]	; 0x24
    b7c8:	6026      	str	r6, [r4, #0]
    b7ca:	2103      	movs	r1, #3
    b7cc:	4620      	mov	r0, r4
    b7ce:	4790      	blx	r2
    b7d0:	f895 302a 	ldrb.w	r3, [r5, #42]	; 0x2a
    b7d4:	73e3      	strb	r3, [r4, #15]
    b7d6:	f006 060c 	and.w	r6, r6, #12
    b7da:	8d2b      	ldrh	r3, [r5, #40]	; 0x28
    b7dc:	80e3      	strh	r3, [r4, #6]
    b7de:	2e08      	cmp	r6, #8
    b7e0:	f04f 0301 	mov.w	r3, #1
    b7e4:	7323      	strb	r3, [r4, #12]
    b7e6:	d12a      	bne.n	b83e <_tc_timer_init+0xce>
    b7e8:	6aeb      	ldr	r3, [r5, #44]	; 0x2c
    b7ea:	61e3      	str	r3, [r4, #28]
    b7ec:	21c0      	movs	r1, #192	; 0xc0
    b7ee:	4620      	mov	r0, r4
    b7f0:	4790      	blx	r2
    b7f2:	6b2b      	ldr	r3, [r5, #48]	; 0x30
    b7f4:	6223      	str	r3, [r4, #32]
    b7f6:	21c0      	movs	r1, #192	; 0xc0
    b7f8:	4620      	mov	r0, r4
    b7fa:	4790      	blx	r2
    b7fc:	2301      	movs	r3, #1
    b7fe:	7263      	strb	r3, [r4, #9]
    b800:	4b28      	ldr	r3, [pc, #160]	; (b8a4 <_tc_timer_init+0x134>)
    b802:	429c      	cmp	r4, r3
    b804:	d137      	bne.n	b876 <_tc_timer_init+0x106>
    b806:	4b28      	ldr	r3, [pc, #160]	; (b8a8 <_tc_timer_init+0x138>)
    b808:	601f      	str	r7, [r3, #0]
    b80a:	2314      	movs	r3, #20
    b80c:	fb03 9808 	mla	r8, r3, r8, r9
    b810:	4b26      	ldr	r3, [pc, #152]	; (b8ac <_tc_timer_init+0x13c>)
    b812:	f9b8 1022 	ldrsh.w	r1, [r8, #34]	; 0x22
    b816:	4608      	mov	r0, r1
    b818:	4798      	blx	r3
    b81a:	2900      	cmp	r1, #0
    b81c:	db0c      	blt.n	b838 <_tc_timer_init+0xc8>
    b81e:	f001 021f 	and.w	r2, r1, #31
    b822:	0949      	lsrs	r1, r1, #5
    b824:	0089      	lsls	r1, r1, #2
    b826:	f101 4160 	add.w	r1, r1, #3758096384	; 0xe0000000
    b82a:	f501 4161 	add.w	r1, r1, #57600	; 0xe100
    b82e:	2301      	movs	r3, #1
    b830:	4093      	lsls	r3, r2
    b832:	f8c1 3180 	str.w	r3, [r1, #384]	; 0x180
    b836:	600b      	str	r3, [r1, #0]
    b838:	2000      	movs	r0, #0
    b83a:	e8bd 83f8 	ldmia.w	sp!, {r3, r4, r5, r6, r7, r8, r9, pc}
    b83e:	b93e      	cbnz	r6, b850 <_tc_timer_init+0xe0>
    b840:	8dab      	ldrh	r3, [r5, #44]	; 0x2c
    b842:	83a3      	strh	r3, [r4, #28]
    b844:	21c0      	movs	r1, #192	; 0xc0
    b846:	4620      	mov	r0, r4
    b848:	4790      	blx	r2
    b84a:	8e2b      	ldrh	r3, [r5, #48]	; 0x30
    b84c:	83e3      	strh	r3, [r4, #30]
    b84e:	e7d2      	b.n	b7f6 <_tc_timer_init+0x86>
    b850:	2e04      	cmp	r6, #4
    b852:	d1d3      	bne.n	b7fc <_tc_timer_init+0x8c>
    b854:	f895 302c 	ldrb.w	r3, [r5, #44]	; 0x2c
    b858:	7723      	strb	r3, [r4, #28]
    b85a:	21c0      	movs	r1, #192	; 0xc0
    b85c:	4620      	mov	r0, r4
    b85e:	4790      	blx	r2
    b860:	f895 3030 	ldrb.w	r3, [r5, #48]	; 0x30
    b864:	7763      	strb	r3, [r4, #29]
    b866:	21c0      	movs	r1, #192	; 0xc0
    b868:	4620      	mov	r0, r4
    b86a:	4790      	blx	r2
    b86c:	f895 302b 	ldrb.w	r3, [r5, #43]	; 0x2b
    b870:	76e3      	strb	r3, [r4, #27]
    b872:	2120      	movs	r1, #32
    b874:	e7c0      	b.n	b7f8 <_tc_timer_init+0x88>
    b876:	4b0e      	ldr	r3, [pc, #56]	; (b8b0 <_tc_timer_init+0x140>)
    b878:	429c      	cmp	r4, r3
    b87a:	d102      	bne.n	b882 <_tc_timer_init+0x112>
    b87c:	4b0a      	ldr	r3, [pc, #40]	; (b8a8 <_tc_timer_init+0x138>)
    b87e:	605f      	str	r7, [r3, #4]
    b880:	e7c3      	b.n	b80a <_tc_timer_init+0x9a>
    b882:	4b0c      	ldr	r3, [pc, #48]	; (b8b4 <_tc_timer_init+0x144>)
    b884:	429c      	cmp	r4, r3
    b886:	d102      	bne.n	b88e <_tc_timer_init+0x11e>
    b888:	4b07      	ldr	r3, [pc, #28]	; (b8a8 <_tc_timer_init+0x138>)
    b88a:	609f      	str	r7, [r3, #8]
    b88c:	e7bd      	b.n	b80a <_tc_timer_init+0x9a>
    b88e:	4b0a      	ldr	r3, [pc, #40]	; (b8b8 <_tc_timer_init+0x148>)
    b890:	429c      	cmp	r4, r3
    b892:	bf04      	itt	eq
    b894:	4b04      	ldreq	r3, [pc, #16]	; (b8a8 <_tc_timer_init+0x138>)
    b896:	60df      	streq	r7, [r3, #12]
    b898:	e7b7      	b.n	b80a <_tc_timer_init+0x9a>
    b89a:	bf00      	nop
    b89c:	0000b699 	.word	0x0000b699
    b8a0:	0000b601 	.word	0x0000b601
    b8a4:	40003800 	.word	0x40003800
    b8a8:	20000a14 	.word	0x20000a14
    b8ac:	0000b5d9 	.word	0x0000b5d9
    b8b0:	40003c00 	.word	0x40003c00
    b8b4:	4101a000 	.word	0x4101a000
    b8b8:	4101c000 	.word	0x4101c000
    b8bc:	00010740 	.word	0x00010740

0000b8c0 <_tc_timer_set_period>:
    b8c0:	68c0      	ldr	r0, [r0, #12]
    b8c2:	6803      	ldr	r3, [r0, #0]
    b8c4:	f3c3 0381 	ubfx	r3, r3, #2, #2
    b8c8:	2b02      	cmp	r3, #2
    b8ca:	d103      	bne.n	b8d4 <_tc_timer_set_period+0x14>
    b8cc:	61c1      	str	r1, [r0, #28]
    b8ce:	21c0      	movs	r1, #192	; 0xc0
    b8d0:	4b09      	ldr	r3, [pc, #36]	; (b8f8 <_tc_timer_set_period+0x38>)
    b8d2:	4718      	bx	r3
    b8d4:	6803      	ldr	r3, [r0, #0]
    b8d6:	f013 0f0c 	tst.w	r3, #12
    b8da:	d102      	bne.n	b8e2 <_tc_timer_set_period+0x22>
    b8dc:	b289      	uxth	r1, r1
    b8de:	8381      	strh	r1, [r0, #28]
    b8e0:	e7f5      	b.n	b8ce <_tc_timer_set_period+0xe>
    b8e2:	6803      	ldr	r3, [r0, #0]
    b8e4:	f3c3 0381 	ubfx	r3, r3, #2, #2
    b8e8:	2b01      	cmp	r3, #1
    b8ea:	d103      	bne.n	b8f4 <_tc_timer_set_period+0x34>
    b8ec:	b2c9      	uxtb	r1, r1
    b8ee:	76c1      	strb	r1, [r0, #27]
    b8f0:	2120      	movs	r1, #32
    b8f2:	e7ed      	b.n	b8d0 <_tc_timer_set_period+0x10>
    b8f4:	4770      	bx	lr
    b8f6:	bf00      	nop
    b8f8:	0000b601 	.word	0x0000b601

0000b8fc <_tc_get_timer>:
    b8fc:	4800      	ldr	r0, [pc, #0]	; (b900 <_tc_get_timer+0x4>)
    b8fe:	4770      	bx	lr
    b900:	20000368 	.word	0x20000368

0000b904 <TC0_Handler>:
    b904:	4b01      	ldr	r3, [pc, #4]	; (b90c <TC0_Handler+0x8>)
    b906:	6818      	ldr	r0, [r3, #0]
    b908:	4b01      	ldr	r3, [pc, #4]	; (b910 <TC0_Handler+0xc>)
    b90a:	4718      	bx	r3
    b90c:	20000a14 	.word	0x20000a14
    b910:	0000b685 	.word	0x0000b685

0000b914 <TC1_Handler>:
    b914:	4b01      	ldr	r3, [pc, #4]	; (b91c <TC1_Handler+0x8>)
    b916:	6858      	ldr	r0, [r3, #4]
    b918:	4b01      	ldr	r3, [pc, #4]	; (b920 <TC1_Handler+0xc>)
    b91a:	4718      	bx	r3
    b91c:	20000a14 	.word	0x20000a14
    b920:	0000b685 	.word	0x0000b685

0000b924 <TC2_Handler>:
    b924:	4b01      	ldr	r3, [pc, #4]	; (b92c <TC2_Handler+0x8>)
    b926:	6898      	ldr	r0, [r3, #8]
    b928:	4b01      	ldr	r3, [pc, #4]	; (b930 <TC2_Handler+0xc>)
    b92a:	4718      	bx	r3
    b92c:	20000a14 	.word	0x20000a14
    b930:	0000b685 	.word	0x0000b685

0000b934 <TC3_Handler>:
    b934:	4b01      	ldr	r3, [pc, #4]	; (b93c <TC3_Handler+0x8>)
    b936:	68d8      	ldr	r0, [r3, #12]
    b938:	4b01      	ldr	r3, [pc, #4]	; (b940 <TC3_Handler+0xc>)
    b93a:	4718      	bx	r3
    b93c:	20000a14 	.word	0x20000a14
    b940:	0000b685 	.word	0x0000b685

0000b944 <_dummy_func_no_return>:
    b944:	2000      	movs	r0, #0
    b946:	4770      	bx	lr

0000b948 <_usb_d_dev_wait_dfll_rdy>:
    b948:	4b07      	ldr	r3, [pc, #28]	; (b968 <_usb_d_dev_wait_dfll_rdy+0x20>)
    b94a:	f893 2020 	ldrb.w	r2, [r3, #32]
    b94e:	07d1      	lsls	r1, r2, #31
    b950:	d506      	bpl.n	b960 <_usb_d_dev_wait_dfll_rdy+0x18>
    b952:	691a      	ldr	r2, [r3, #16]
    b954:	f402 6210 	and.w	r2, r2, #2304	; 0x900
    b958:	f5b2 6f10 	cmp.w	r2, #2304	; 0x900
    b95c:	d1f9      	bne.n	b952 <_usb_d_dev_wait_dfll_rdy+0xa>
    b95e:	4770      	bx	lr
    b960:	691a      	ldr	r2, [r3, #16]
    b962:	05d2      	lsls	r2, r2, #23
    b964:	d5fc      	bpl.n	b960 <_usb_d_dev_wait_dfll_rdy+0x18>
    b966:	4770      	bx	lr
    b968:	40001000 	.word	0x40001000

0000b96c <_usb_d_dev_ept>:
    b96c:	b110      	cbz	r0, b974 <_usb_d_dev_ept+0x8>
    b96e:	b109      	cbz	r1, b974 <_usb_d_dev_ept+0x8>
    b970:	3005      	adds	r0, #5
    b972:	b2c0      	uxtb	r0, r0
    b974:	2314      	movs	r3, #20
    b976:	fb00 3003 	mla	r0, r0, r3, r3
    b97a:	4b01      	ldr	r3, [pc, #4]	; (b980 <_usb_d_dev_ept+0x14>)
    b97c:	4418      	add	r0, r3
    b97e:	4770      	bx	lr
    b980:	20000a24 	.word	0x20000a24

0000b984 <_usb_d_dev_handle_setup>:
    b984:	b430      	push	{r4, r5}
    b986:	7cc1      	ldrb	r1, [r0, #19]
    b988:	7c85      	ldrb	r5, [r0, #18]
    b98a:	f001 0307 	and.w	r3, r1, #7
    b98e:	f005 020f 	and.w	r2, r5, #15
    b992:	2b01      	cmp	r3, #1
    b994:	ea4f 1442 	mov.w	r4, r2, lsl #5
    b998:	f102 0308 	add.w	r3, r2, #8
    b99c:	d00a      	beq.n	b9b4 <_usb_d_dev_handle_setup+0x30>
    b99e:	015a      	lsls	r2, r3, #5
    b9a0:	f102 4282 	add.w	r2, r2, #1090519040	; 0x41000000
    b9a4:	f104 4382 	add.w	r3, r4, #1090519040	; 0x41000000
    b9a8:	2110      	movs	r1, #16
    b9aa:	71d1      	strb	r1, [r2, #7]
    b9ac:	f883 1108 	strb.w	r1, [r3, #264]	; 0x108
    b9b0:	bc30      	pop	{r4, r5}
    b9b2:	4770      	bx	lr
    b9b4:	f011 0f40 	tst.w	r1, #64	; 0x40
    b9b8:	d00b      	beq.n	b9d2 <_usb_d_dev_handle_setup+0x4e>
    b9ba:	0152      	lsls	r2, r2, #5
    b9bc:	f36f 1186 	bfc	r1, #6, #1
    b9c0:	f102 4282 	add.w	r2, r2, #1090519040	; 0x41000000
    b9c4:	74c1      	strb	r1, [r0, #19]
    b9c6:	2180      	movs	r1, #128	; 0x80
    b9c8:	f882 1104 	strb.w	r1, [r2, #260]	; 0x104
    b9cc:	2140      	movs	r1, #64	; 0x40
    b9ce:	f882 1105 	strb.w	r1, [r2, #261]	; 0x105
    b9d2:	7cc2      	ldrb	r2, [r0, #19]
    b9d4:	f36f 02c3 	bfc	r2, #3, #1
    b9d8:	74c2      	strb	r2, [r0, #19]
    b9da:	4a0a      	ldr	r2, [pc, #40]	; (ba04 <_usb_d_dev_handle_setup+0x80>)
    b9dc:	015b      	lsls	r3, r3, #5
    b9de:	1911      	adds	r1, r2, r4
    b9e0:	2000      	movs	r0, #0
    b9e2:	f103 4382 	add.w	r3, r3, #1090519040	; 0x41000000
    b9e6:	f881 023a 	strb.w	r0, [r1, #570]	; 0x23a
    b9ea:	f881 024a 	strb.w	r0, [r1, #586]	; 0x24a
    b9ee:	216f      	movs	r1, #111	; 0x6f
    b9f0:	71d9      	strb	r1, [r3, #7]
    b9f2:	f104 4382 	add.w	r3, r4, #1090519040	; 0x41000000
    b9f6:	4628      	mov	r0, r5
    b9f8:	f883 1108 	strb.w	r1, [r3, #264]	; 0x108
    b9fc:	6893      	ldr	r3, [r2, #8]
    b9fe:	bc30      	pop	{r4, r5}
    ba00:	4718      	bx	r3
    ba02:	bf00      	nop
    ba04:	20000a24 	.word	0x20000a24

0000ba08 <_usb_d_dev_handle_stall>:
    ba08:	4602      	mov	r2, r0
    ba0a:	7c80      	ldrb	r0, [r0, #18]
    ba0c:	2320      	movs	r3, #32
    ba0e:	fa03 f101 	lsl.w	r1, r3, r1
    ba12:	f000 030f 	and.w	r3, r0, #15
    ba16:	015b      	lsls	r3, r3, #5
    ba18:	f103 4382 	add.w	r3, r3, #1090519040	; 0x41000000
    ba1c:	b2c9      	uxtb	r1, r1
    ba1e:	f883 1108 	strb.w	r1, [r3, #264]	; 0x108
    ba22:	4b02      	ldr	r3, [pc, #8]	; (ba2c <_usb_d_dev_handle_stall+0x24>)
    ba24:	6892      	ldr	r2, [r2, #8]
    ba26:	691b      	ldr	r3, [r3, #16]
    ba28:	2101      	movs	r1, #1
    ba2a:	4718      	bx	r3
    ba2c:	20000a24 	.word	0x20000a24

0000ba30 <_usb_d_dev_trans_done>:
    ba30:	4602      	mov	r2, r0
    ba32:	7c80      	ldrb	r0, [r0, #18]
    ba34:	28ff      	cmp	r0, #255	; 0xff
    ba36:	d00a      	beq.n	ba4e <_usb_d_dev_trans_done+0x1e>
    ba38:	7cd3      	ldrb	r3, [r2, #19]
    ba3a:	f013 0f40 	tst.w	r3, #64	; 0x40
    ba3e:	d006      	beq.n	ba4e <_usb_d_dev_trans_done+0x1e>
    ba40:	f36f 1386 	bfc	r3, #6, #1
    ba44:	74d3      	strb	r3, [r2, #19]
    ba46:	4b02      	ldr	r3, [pc, #8]	; (ba50 <_usb_d_dev_trans_done+0x20>)
    ba48:	6892      	ldr	r2, [r2, #8]
    ba4a:	691b      	ldr	r3, [r3, #16]
    ba4c:	4718      	bx	r3
    ba4e:	4770      	bx	lr
    ba50:	20000a24 	.word	0x20000a24

0000ba54 <_usb_d_dev_trans_stop>:
    ba54:	b477      	push	{r0, r1, r2, r4, r5, r6}
    ba56:	7c83      	ldrb	r3, [r0, #18]
    ba58:	2425      	movs	r4, #37	; 0x25
    ba5a:	f88d 4004 	strb.w	r4, [sp, #4]
    ba5e:	2bff      	cmp	r3, #255	; 0xff
    ba60:	f04f 044a 	mov.w	r4, #74	; 0x4a
    ba64:	f88d 4005 	strb.w	r4, [sp, #5]
    ba68:	d021      	beq.n	baae <_usb_d_dev_trans_stop+0x5a>
    ba6a:	7cc4      	ldrb	r4, [r0, #19]
    ba6c:	0664      	lsls	r4, r4, #25
    ba6e:	d51e      	bpl.n	baae <_usb_d_dev_trans_stop+0x5a>
    ba70:	f003 030f 	and.w	r3, r3, #15
    ba74:	f103 0408 	add.w	r4, r3, #8
    ba78:	0165      	lsls	r5, r4, #5
    ba7a:	f105 4582 	add.w	r5, r5, #1090519040	; 0x41000000
    ba7e:	b199      	cbz	r1, baa8 <_usb_d_dev_trans_stop+0x54>
    ba80:	2680      	movs	r6, #128	; 0x80
    ba82:	712e      	strb	r6, [r5, #4]
    ba84:	ad02      	add	r5, sp, #8
    ba86:	440d      	add	r5, r1
    ba88:	0164      	lsls	r4, r4, #5
    ba8a:	015b      	lsls	r3, r3, #5
    ba8c:	f104 4482 	add.w	r4, r4, #1090519040	; 0x41000000
    ba90:	f103 4382 	add.w	r3, r3, #1090519040	; 0x41000000
    ba94:	f815 1c04 	ldrb.w	r1, [r5, #-4]
    ba98:	71e1      	strb	r1, [r4, #7]
    ba9a:	f883 1108 	strb.w	r1, [r3, #264]	; 0x108
    ba9e:	4b05      	ldr	r3, [pc, #20]	; (bab4 <_usb_d_dev_trans_stop+0x60>)
    baa0:	4611      	mov	r1, r2
    baa2:	b003      	add	sp, #12
    baa4:	bc70      	pop	{r4, r5, r6}
    baa6:	4718      	bx	r3
    baa8:	2640      	movs	r6, #64	; 0x40
    baaa:	716e      	strb	r6, [r5, #5]
    baac:	e7ea      	b.n	ba84 <_usb_d_dev_trans_stop+0x30>
    baae:	b003      	add	sp, #12
    bab0:	bc70      	pop	{r4, r5, r6}
    bab2:	4770      	bx	lr
    bab4:	0000ba31 	.word	0x0000ba31

0000bab8 <_usb_d_dev_handle_trfail>:
    bab8:	b4f3      	push	{r0, r1, r4, r5, r6, r7}
    baba:	7c86      	ldrb	r6, [r0, #18]
    babc:	2304      	movs	r3, #4
    babe:	f006 060f 	and.w	r6, r6, #15
    bac2:	f88d 3004 	strb.w	r3, [sp, #4]
    bac6:	2308      	movs	r3, #8
    bac8:	f88d 3005 	strb.w	r3, [sp, #5]
    bacc:	18f3      	adds	r3, r6, r3
    bace:	015a      	lsls	r2, r3, #5
    bad0:	f102 4282 	add.w	r2, r2, #1090519040	; 0x41000000
    bad4:	0175      	lsls	r5, r6, #5
    bad6:	7812      	ldrb	r2, [r2, #0]
    bad8:	b339      	cbz	r1, bb2a <_usb_d_dev_handle_trfail+0x72>
    bada:	f3c2 1202 	ubfx	r2, r2, #4, #3
    bade:	4c2e      	ldr	r4, [pc, #184]	; (bb98 <_usb_d_dev_handle_trfail+0xe0>)
    bae0:	eb05 1501 	add.w	r5, r5, r1, lsl #4
    bae4:	4425      	add	r5, r4
    bae6:	2a02      	cmp	r2, #2
    bae8:	7aac      	ldrb	r4, [r5, #10]
    baea:	aa02      	add	r2, sp, #8
    baec:	eb02 0701 	add.w	r7, r2, r1
    baf0:	b2e4      	uxtb	r4, r4
    baf2:	ea4f 1246 	mov.w	r2, r6, lsl #5
    baf6:	d11b      	bne.n	bb30 <_usb_d_dev_handle_trfail+0x78>
    baf8:	f014 0f01 	tst.w	r4, #1
    bafc:	d018      	beq.n	bb30 <_usb_d_dev_handle_trfail+0x78>
    bafe:	7aac      	ldrb	r4, [r5, #10]
    bb00:	015b      	lsls	r3, r3, #5
    bb02:	f36f 0400 	bfc	r4, #0, #1
    bb06:	f102 4282 	add.w	r2, r2, #1090519040	; 0x41000000
    bb0a:	f103 4382 	add.w	r3, r3, #1090519040	; 0x41000000
    bb0e:	72ac      	strb	r4, [r5, #10]
    bb10:	3100      	adds	r1, #0
    bb12:	f817 4c04 	ldrb.w	r4, [r7, #-4]
    bb16:	71dc      	strb	r4, [r3, #7]
    bb18:	bf18      	it	ne
    bb1a:	2101      	movne	r1, #1
    bb1c:	f882 4108 	strb.w	r4, [r2, #264]	; 0x108
    bb20:	2204      	movs	r2, #4
    bb22:	4b1e      	ldr	r3, [pc, #120]	; (bb9c <_usb_d_dev_handle_trfail+0xe4>)
    bb24:	b002      	add	sp, #8
    bb26:	bcf0      	pop	{r4, r5, r6, r7}
    bb28:	4718      	bx	r3
    bb2a:	f002 0207 	and.w	r2, r2, #7
    bb2e:	e7d6      	b.n	bade <_usb_d_dev_handle_trfail+0x26>
    bb30:	f014 0402 	ands.w	r4, r4, #2
    bb34:	d01b      	beq.n	bb6e <_usb_d_dev_handle_trfail+0xb6>
    bb36:	7aac      	ldrb	r4, [r5, #10]
    bb38:	7cc6      	ldrb	r6, [r0, #19]
    bb3a:	015b      	lsls	r3, r3, #5
    bb3c:	f36f 0441 	bfc	r4, #1, #1
    bb40:	f103 4382 	add.w	r3, r3, #1090519040	; 0x41000000
    bb44:	72ac      	strb	r4, [r5, #10]
    bb46:	f817 4c04 	ldrb.w	r4, [r7, #-4]
    bb4a:	71dc      	strb	r4, [r3, #7]
    bb4c:	f102 4282 	add.w	r2, r2, #1090519040	; 0x41000000
    bb50:	f006 0307 	and.w	r3, r6, #7
    bb54:	2b01      	cmp	r3, #1
    bb56:	f882 4108 	strb.w	r4, [r2, #264]	; 0x108
    bb5a:	d119      	bne.n	bb90 <_usb_d_dev_handle_trfail+0xd8>
    bb5c:	0673      	lsls	r3, r6, #25
    bb5e:	d517      	bpl.n	bb90 <_usb_d_dev_handle_trfail+0xd8>
    bb60:	7cc3      	ldrb	r3, [r0, #19]
    bb62:	09db      	lsrs	r3, r3, #7
    bb64:	4299      	cmp	r1, r3
    bb66:	d013      	beq.n	bb90 <_usb_d_dev_handle_trfail+0xd8>
    bb68:	2200      	movs	r2, #0
    bb6a:	4619      	mov	r1, r3
    bb6c:	e7d9      	b.n	bb22 <_usb_d_dev_handle_trfail+0x6a>
    bb6e:	480c      	ldr	r0, [pc, #48]	; (bba0 <_usb_d_dev_handle_trfail+0xe8>)
    bb70:	eb01 0146 	add.w	r1, r1, r6, lsl #1
    bb74:	eb00 1101 	add.w	r1, r0, r1, lsl #4
    bb78:	015b      	lsls	r3, r3, #5
    bb7a:	f103 4382 	add.w	r3, r3, #1090519040	; 0x41000000
    bb7e:	f102 4282 	add.w	r2, r2, #1090519040	; 0x41000000
    bb82:	f881 423a 	strb.w	r4, [r1, #570]	; 0x23a
    bb86:	f817 1c04 	ldrb.w	r1, [r7, #-4]
    bb8a:	71d9      	strb	r1, [r3, #7]
    bb8c:	f882 1108 	strb.w	r1, [r2, #264]	; 0x108
    bb90:	b002      	add	sp, #8
    bb92:	bcf0      	pop	{r4, r5, r6, r7}
    bb94:	4770      	bx	lr
    bb96:	bf00      	nop
    bb98:	20000c54 	.word	0x20000c54
    bb9c:	0000ba55 	.word	0x0000ba55
    bba0:	20000a24 	.word	0x20000a24

0000bba4 <_usb_d_dev_reset_epts>:
    bba4:	e92d 41f0 	stmdb	sp!, {r4, r5, r6, r7, r8, lr}
    bba8:	4c09      	ldr	r4, [pc, #36]	; (bbd0 <_usb_d_dev_reset_epts+0x2c>)
    bbaa:	4f0a      	ldr	r7, [pc, #40]	; (bbd4 <_usb_d_dev_reset_epts+0x30>)
    bbac:	f504 7507 	add.w	r5, r4, #540	; 0x21c
    bbb0:	26ff      	movs	r6, #255	; 0xff
    bbb2:	2103      	movs	r1, #3
    bbb4:	4620      	mov	r0, r4
    bbb6:	47b8      	blx	r7
    bbb8:	2100      	movs	r1, #0
    bbba:	74a6      	strb	r6, [r4, #18]
    bbbc:	74e1      	strb	r1, [r4, #19]
    bbbe:	3414      	adds	r4, #20
    bbc0:	42ac      	cmp	r4, r5
    bbc2:	d1f6      	bne.n	bbb2 <_usb_d_dev_reset_epts+0xe>
    bbc4:	22c0      	movs	r2, #192	; 0xc0
    bbc6:	4804      	ldr	r0, [pc, #16]	; (bbd8 <_usb_d_dev_reset_epts+0x34>)
    bbc8:	4b04      	ldr	r3, [pc, #16]	; (bbdc <_usb_d_dev_reset_epts+0x38>)
    bbca:	e8bd 41f0 	ldmia.w	sp!, {r4, r5, r6, r7, r8, lr}
    bbce:	4718      	bx	r3
    bbd0:	20000a38 	.word	0x20000a38
    bbd4:	0000ba31 	.word	0x0000ba31
    bbd8:	20000c54 	.word	0x20000c54
    bbdc:	0000ea0f 	.word	0x0000ea0f

0000bbe0 <_usb_d_dev_in_next>:
    bbe0:	e92d 47f0 	stmdb	sp!, {r4, r5, r6, r7, r8, r9, sl, lr}
    bbe4:	4604      	mov	r4, r0
    bbe6:	7c80      	ldrb	r0, [r0, #18]
    bbe8:	4689      	mov	r9, r1
    bbea:	f000 080f 	and.w	r8, r0, #15
    bbee:	2900      	cmp	r1, #0
    bbf0:	d05a      	beq.n	bca8 <_usb_d_dev_in_next+0xc8>
    bbf2:	4b4c      	ldr	r3, [pc, #304]	; (bd24 <_usb_d_dev_in_next+0x144>)
    bbf4:	eb03 1348 	add.w	r3, r3, r8, lsl #5
    bbf8:	695e      	ldr	r6, [r3, #20]
    bbfa:	f3c6 060d 	ubfx	r6, r6, #0, #14
    bbfe:	f8b4 e010 	ldrh.w	lr, [r4, #16]
    bc02:	f894 c013 	ldrb.w	ip, [r4, #19]
    bc06:	f240 33ff 	movw	r3, #1023	; 0x3ff
    bc0a:	459e      	cmp	lr, r3
    bc0c:	bf1a      	itte	ne
    bc0e:	f10e 32ff 	addne.w	r2, lr, #4294967295
    bc12:	b292      	uxthne	r2, r2
    bc14:	4672      	moveq	r2, lr
    bc16:	f00c 0a07 	and.w	sl, ip, #7
    bc1a:	f1b9 0f00 	cmp.w	r9, #0
    bc1e:	d006      	beq.n	bc2e <_usb_d_dev_in_next+0x4e>
    bc20:	ea4f 1348 	mov.w	r3, r8, lsl #5
    bc24:	f103 4382 	add.w	r3, r3, #1090519040	; 0x41000000
    bc28:	2102      	movs	r1, #2
    bc2a:	f883 1107 	strb.w	r1, [r3, #263]	; 0x107
    bc2e:	68a1      	ldr	r1, [r4, #8]
    bc30:	6863      	ldr	r3, [r4, #4]
    bc32:	4431      	add	r1, r6
    bc34:	4299      	cmp	r1, r3
    bc36:	60a1      	str	r1, [r4, #8]
    bc38:	ea4f 1548 	mov.w	r5, r8, lsl #5
    bc3c:	d240      	bcs.n	bcc0 <_usb_d_dev_in_next+0xe0>
    bc3e:	1a5b      	subs	r3, r3, r1
    bc40:	f01c 0f20 	tst.w	ip, #32
    bc44:	b29f      	uxth	r7, r3
    bc46:	4e38      	ldr	r6, [pc, #224]	; (bd28 <_usb_d_dev_in_next+0x148>)
    bc48:	6823      	ldr	r3, [r4, #0]
    bc4a:	d02f      	beq.n	bcac <_usb_d_dev_in_next+0xcc>
    bc4c:	4577      	cmp	r7, lr
    bc4e:	bf28      	it	cs
    bc50:	4677      	movcs	r7, lr
    bc52:	463a      	mov	r2, r7
    bc54:	4419      	add	r1, r3
    bc56:	68e0      	ldr	r0, [r4, #12]
    bc58:	4b34      	ldr	r3, [pc, #208]	; (bd2c <_usb_d_dev_in_next+0x14c>)
    bc5a:	4798      	blx	r3
    bc5c:	1973      	adds	r3, r6, r5
    bc5e:	68e2      	ldr	r2, [r4, #12]
    bc60:	f8c3 2240 	str.w	r2, [r3, #576]	; 0x240
    bc64:	1972      	adds	r2, r6, r5
    bc66:	f8d2 3244 	ldr.w	r3, [r2, #580]	; 0x244
    bc6a:	f367 030d 	bfi	r3, r7, #0, #14
    bc6e:	f8c2 3244 	str.w	r3, [r2, #580]	; 0x244
    bc72:	f8d2 3244 	ldr.w	r3, [r2, #580]	; 0x244
    bc76:	f36f 339b 	bfc	r3, #14, #14
    bc7a:	f8c2 3244 	str.w	r3, [r2, #580]	; 0x244
    bc7e:	f1b9 0f00 	cmp.w	r9, #0
    bc82:	d108      	bne.n	bc96 <_usb_d_dev_in_next+0xb6>
    bc84:	f1ba 0f01 	cmp.w	sl, #1
    bc88:	f105 4582 	add.w	r5, r5, #1090519040	; 0x41000000
    bc8c:	bf0c      	ite	eq
    bc8e:	234e      	moveq	r3, #78	; 0x4e
    bc90:	234a      	movne	r3, #74	; 0x4a
    bc92:	f885 3109 	strb.w	r3, [r5, #265]	; 0x109
    bc96:	ea4f 1348 	mov.w	r3, r8, lsl #5
    bc9a:	f103 4382 	add.w	r3, r3, #1090519040	; 0x41000000
    bc9e:	2280      	movs	r2, #128	; 0x80
    bca0:	f883 2105 	strb.w	r2, [r3, #261]	; 0x105
    bca4:	e8bd 87f0 	ldmia.w	sp!, {r4, r5, r6, r7, r8, r9, sl, pc}
    bca8:	460e      	mov	r6, r1
    bcaa:	e7a8      	b.n	bbfe <_usb_d_dev_in_next+0x1e>
    bcac:	4419      	add	r1, r3
    bcae:	1973      	adds	r3, r6, r5
    bcb0:	f5b7 5f00 	cmp.w	r7, #8192	; 0x2000
    bcb4:	bf28      	it	cs
    bcb6:	f44f 5700 	movcs.w	r7, #8192	; 0x2000
    bcba:	f8c3 1240 	str.w	r1, [r3, #576]	; 0x240
    bcbe:	e7d1      	b.n	bc64 <_usb_d_dev_in_next+0x84>
    bcc0:	f01c 0f10 	tst.w	ip, #16
    bcc4:	d00e      	beq.n	bce4 <_usb_d_dev_in_next+0x104>
    bcc6:	7ce3      	ldrb	r3, [r4, #19]
    bcc8:	f36f 1304 	bfc	r3, #4, #1
    bccc:	74e3      	strb	r3, [r4, #19]
    bcce:	4b18      	ldr	r3, [pc, #96]	; (bd30 <_usb_d_dev_in_next+0x150>)
    bcd0:	442b      	add	r3, r5
    bcd2:	685a      	ldr	r2, [r3, #4]
    bcd4:	f36f 020d 	bfc	r2, #0, #14
    bcd8:	605a      	str	r2, [r3, #4]
    bcda:	685a      	ldr	r2, [r3, #4]
    bcdc:	f36f 329b 	bfc	r2, #14, #14
    bce0:	605a      	str	r2, [r3, #4]
    bce2:	e7cc      	b.n	bc7e <_usb_d_dev_in_next+0x9e>
    bce4:	f1ba 0f01 	cmp.w	sl, #1
    bce8:	f105 4582 	add.w	r5, r5, #1090519040	; 0x41000000
    bcec:	ea02 0206 	and.w	r2, r2, r6
    bcf0:	bf0c      	ite	eq
    bcf2:	234b      	moveq	r3, #75	; 0x4b
    bcf4:	234a      	movne	r3, #74	; 0x4a
    bcf6:	4596      	cmp	lr, r2
    bcf8:	f885 3108 	strb.w	r3, [r5, #264]	; 0x108
    bcfc:	d10c      	bne.n	bd18 <_usb_d_dev_in_next+0x138>
    bcfe:	7ce3      	ldrb	r3, [r4, #19]
    bd00:	f36f 1386 	bfc	r3, #6, #1
    bd04:	74e3      	strb	r3, [r4, #19]
    bd06:	4b08      	ldr	r3, [pc, #32]	; (bd28 <_usb_d_dev_in_next+0x148>)
    bd08:	68db      	ldr	r3, [r3, #12]
    bd0a:	4798      	blx	r3
    bd0c:	2800      	cmp	r0, #0
    bd0e:	d1c9      	bne.n	bca4 <_usb_d_dev_in_next+0xc4>
    bd10:	7ce3      	ldrb	r3, [r4, #19]
    bd12:	f043 0340 	orr.w	r3, r3, #64	; 0x40
    bd16:	74e3      	strb	r3, [r4, #19]
    bd18:	4620      	mov	r0, r4
    bd1a:	2100      	movs	r1, #0
    bd1c:	4b05      	ldr	r3, [pc, #20]	; (bd34 <_usb_d_dev_in_next+0x154>)
    bd1e:	e8bd 47f0 	ldmia.w	sp!, {r4, r5, r6, r7, r8, r9, sl, lr}
    bd22:	4718      	bx	r3
    bd24:	20000c54 	.word	0x20000c54
    bd28:	20000a24 	.word	0x20000a24
    bd2c:	0000e9f9 	.word	0x0000e9f9
    bd30:	20000c64 	.word	0x20000c64
    bd34:	0000ba31 	.word	0x0000ba31

0000bd38 <_usb_d_dev_out_next>:
    bd38:	e92d 4ff7 	stmdb	sp!, {r0, r1, r2, r4, r5, r6, r7, r8, r9, sl, fp, lr}
    bd3c:	7c86      	ldrb	r6, [r0, #18]
    bd3e:	f006 060f 	and.w	r6, r6, #15
    bd42:	4604      	mov	r4, r0
    bd44:	460f      	mov	r7, r1
    bd46:	0175      	lsls	r5, r6, #5
    bd48:	2900      	cmp	r1, #0
    bd4a:	d062      	beq.n	be12 <_usb_d_dev_out_next+0xda>
    bd4c:	4b61      	ldr	r3, [pc, #388]	; (bed4 <_usb_d_dev_out_next+0x19c>)
    bd4e:	442b      	add	r3, r5
    bd50:	685a      	ldr	r2, [r3, #4]
    bd52:	685b      	ldr	r3, [r3, #4]
    bd54:	f3c2 398d 	ubfx	r9, r2, #14, #14
    bd58:	f3c3 0a0d 	ubfx	sl, r3, #0, #14
    bd5c:	f8b4 8010 	ldrh.w	r8, [r4, #16]
    bd60:	7ce2      	ldrb	r2, [r4, #19]
    bd62:	f240 33ff 	movw	r3, #1023	; 0x3ff
    bd66:	4598      	cmp	r8, r3
    bd68:	bf1c      	itt	ne
    bd6a:	f108 38ff 	addne.w	r8, r8, #4294967295
    bd6e:	fa1f f888 	uxthne.w	r8, r8
    bd72:	f002 0307 	and.w	r3, r2, #7
    bd76:	ea0a 0b08 	and.w	fp, sl, r8
    bd7a:	9301      	str	r3, [sp, #4]
    bd7c:	b12f      	cbz	r7, bd8a <_usb_d_dev_out_next+0x52>
    bd7e:	0173      	lsls	r3, r6, #5
    bd80:	f103 4382 	add.w	r3, r3, #1090519040	; 0x41000000
    bd84:	2101      	movs	r1, #1
    bd86:	f883 1107 	strb.w	r1, [r3, #263]	; 0x107
    bd8a:	0690      	lsls	r0, r2, #26
    bd8c:	d50c      	bpl.n	bda8 <_usb_d_dev_out_next+0x70>
    bd8e:	6862      	ldr	r2, [r4, #4]
    bd90:	b152      	cbz	r2, bda8 <_usb_d_dev_out_next+0x70>
    bd92:	68a0      	ldr	r0, [r4, #8]
    bd94:	6823      	ldr	r3, [r4, #0]
    bd96:	68e1      	ldr	r1, [r4, #12]
    bd98:	1a12      	subs	r2, r2, r0
    bd9a:	b292      	uxth	r2, r2
    bd9c:	455a      	cmp	r2, fp
    bd9e:	4418      	add	r0, r3
    bda0:	bf28      	it	cs
    bda2:	465a      	movcs	r2, fp
    bda4:	4b4c      	ldr	r3, [pc, #304]	; (bed8 <_usb_d_dev_out_next+0x1a0>)
    bda6:	4798      	blx	r3
    bda8:	6862      	ldr	r2, [r4, #4]
    bdaa:	2a00      	cmp	r2, #0
    bdac:	d134      	bne.n	be18 <_usb_d_dev_out_next+0xe0>
    bdae:	7ce3      	ldrb	r3, [r4, #19]
    bdb0:	06d9      	lsls	r1, r3, #27
    bdb2:	f140 8089 	bpl.w	bec8 <_usb_d_dev_out_next+0x190>
    bdb6:	f362 1304 	bfi	r3, r2, #4, #1
    bdba:	4848      	ldr	r0, [pc, #288]	; (bedc <_usb_d_dev_out_next+0x1a4>)
    bdbc:	68e1      	ldr	r1, [r4, #12]
    bdbe:	b2db      	uxtb	r3, r3
    bdc0:	4428      	add	r0, r5
    bdc2:	f043 0320 	orr.w	r3, r3, #32
    bdc6:	74e3      	strb	r3, [r4, #19]
    bdc8:	f500 730c 	add.w	r3, r0, #560	; 0x230
    bdcc:	f8c0 1230 	str.w	r1, [r0, #560]	; 0x230
    bdd0:	6859      	ldr	r1, [r3, #4]
    bdd2:	8a20      	ldrh	r0, [r4, #16]
    bdd4:	f360 319b 	bfi	r1, r0, #14, #14
    bdd8:	6059      	str	r1, [r3, #4]
    bdda:	6859      	ldr	r1, [r3, #4]
    bddc:	f362 010d 	bfi	r1, r2, #0, #14
    bde0:	6059      	str	r1, [r3, #4]
    bde2:	b96f      	cbnz	r7, be00 <_usb_d_dev_out_next+0xc8>
    bde4:	9b01      	ldr	r3, [sp, #4]
    bde6:	2b01      	cmp	r3, #1
    bde8:	bf04      	itt	eq
    bdea:	4b3c      	ldreq	r3, [pc, #240]	; (bedc <_usb_d_dev_out_next+0x1a4>)
    bdec:	195b      	addeq	r3, r3, r5
    bdee:	f105 4582 	add.w	r5, r5, #1090519040	; 0x41000000
    bdf2:	bf0a      	itet	eq
    bdf4:	f883 724a 	strbeq.w	r7, [r3, #586]	; 0x24a
    bdf8:	2325      	movne	r3, #37	; 0x25
    bdfa:	232d      	moveq	r3, #45	; 0x2d
    bdfc:	f885 3109 	strb.w	r3, [r5, #265]	; 0x109
    be00:	0176      	lsls	r6, r6, #5
    be02:	f106 4682 	add.w	r6, r6, #1090519040	; 0x41000000
    be06:	2340      	movs	r3, #64	; 0x40
    be08:	f886 3104 	strb.w	r3, [r6, #260]	; 0x104
    be0c:	b003      	add	sp, #12
    be0e:	e8bd 8ff0 	ldmia.w	sp!, {r4, r5, r6, r7, r8, r9, sl, fp, pc}
    be12:	4689      	mov	r9, r1
    be14:	468a      	mov	sl, r1
    be16:	e7a1      	b.n	bd5c <_usb_d_dev_out_next+0x24>
    be18:	b1f7      	cbz	r7, be58 <_usb_d_dev_out_next+0x120>
    be1a:	8a23      	ldrh	r3, [r4, #16]
    be1c:	455b      	cmp	r3, fp
    be1e:	d91b      	bls.n	be58 <_usb_d_dev_out_next+0x120>
    be20:	7ce3      	ldrb	r3, [r4, #19]
    be22:	f36f 1304 	bfc	r3, #4, #1
    be26:	74e3      	strb	r3, [r4, #19]
    be28:	68a3      	ldr	r3, [r4, #8]
    be2a:	4453      	add	r3, sl
    be2c:	60a3      	str	r3, [r4, #8]
    be2e:	9b01      	ldr	r3, [sp, #4]
    be30:	f105 4582 	add.w	r5, r5, #1090519040	; 0x41000000
    be34:	2b01      	cmp	r3, #1
    be36:	bf0c      	ite	eq
    be38:	232d      	moveq	r3, #45	; 0x2d
    be3a:	2325      	movne	r3, #37	; 0x25
    be3c:	f885 3108 	strb.w	r3, [r5, #264]	; 0x108
    be40:	b91e      	cbnz	r6, be4a <_usb_d_dev_out_next+0x112>
    be42:	4b26      	ldr	r3, [pc, #152]	; (bedc <_usb_d_dev_out_next+0x1a4>)
    be44:	68e2      	ldr	r2, [r4, #12]
    be46:	f8c3 2230 	str.w	r2, [r3, #560]	; 0x230
    be4a:	4b25      	ldr	r3, [pc, #148]	; (bee0 <_usb_d_dev_out_next+0x1a8>)
    be4c:	2100      	movs	r1, #0
    be4e:	4620      	mov	r0, r4
    be50:	b003      	add	sp, #12
    be52:	e8bd 4ff0 	ldmia.w	sp!, {r4, r5, r6, r7, r8, r9, sl, fp, lr}
    be56:	4718      	bx	r3
    be58:	68a1      	ldr	r1, [r4, #8]
    be5a:	4449      	add	r1, r9
    be5c:	428a      	cmp	r2, r1
    be5e:	60a1      	str	r1, [r4, #8]
    be60:	d9e5      	bls.n	be2e <_usb_d_dev_out_next+0xf6>
    be62:	7ce0      	ldrb	r0, [r4, #19]
    be64:	4b1d      	ldr	r3, [pc, #116]	; (bedc <_usb_d_dev_out_next+0x1a4>)
    be66:	f8b4 e010 	ldrh.w	lr, [r4, #16]
    be6a:	1a52      	subs	r2, r2, r1
    be6c:	f010 0f20 	tst.w	r0, #32
    be70:	b292      	uxth	r2, r2
    be72:	d014      	beq.n	be9e <_usb_d_dev_out_next+0x166>
    be74:	1959      	adds	r1, r3, r5
    be76:	4572      	cmp	r2, lr
    be78:	68e0      	ldr	r0, [r4, #12]
    be7a:	f8c1 0230 	str.w	r0, [r1, #560]	; 0x230
    be7e:	bf28      	it	cs
    be80:	4672      	movcs	r2, lr
    be82:	442b      	add	r3, r5
    be84:	f8d3 1234 	ldr.w	r1, [r3, #564]	; 0x234
    be88:	f362 319b 	bfi	r1, r2, #14, #14
    be8c:	f8c3 1234 	str.w	r1, [r3, #564]	; 0x234
    be90:	f8d3 2234 	ldr.w	r2, [r3, #564]	; 0x234
    be94:	f36f 020d 	bfc	r2, #0, #14
    be98:	f8c3 2234 	str.w	r2, [r3, #564]	; 0x234
    be9c:	e7a1      	b.n	bde2 <_usb_d_dev_out_next+0xaa>
    be9e:	4572      	cmp	r2, lr
    bea0:	d90a      	bls.n	beb8 <_usb_d_dev_out_next+0x180>
    bea2:	f5b2 5f00 	cmp.w	r2, #8192	; 0x2000
    bea6:	d80c      	bhi.n	bec2 <_usb_d_dev_out_next+0x18a>
    bea8:	ea22 0208 	bic.w	r2, r2, r8
    beac:	6820      	ldr	r0, [r4, #0]
    beae:	4401      	add	r1, r0
    beb0:	1958      	adds	r0, r3, r5
    beb2:	f8c0 1230 	str.w	r1, [r0, #560]	; 0x230
    beb6:	e7e4      	b.n	be82 <_usb_d_dev_out_next+0x14a>
    beb8:	d2f8      	bcs.n	beac <_usb_d_dev_out_next+0x174>
    beba:	f040 0020 	orr.w	r0, r0, #32
    bebe:	74e0      	strb	r0, [r4, #19]
    bec0:	e7f4      	b.n	beac <_usb_d_dev_out_next+0x174>
    bec2:	f44f 5200 	mov.w	r2, #8192	; 0x2000
    bec6:	e7f1      	b.n	beac <_usb_d_dev_out_next+0x174>
    bec8:	2f00      	cmp	r7, #0
    beca:	d1a6      	bne.n	be1a <_usb_d_dev_out_next+0xe2>
    becc:	68a3      	ldr	r3, [r4, #8]
    bece:	444b      	add	r3, r9
    bed0:	e7ac      	b.n	be2c <_usb_d_dev_out_next+0xf4>
    bed2:	bf00      	nop
    bed4:	20000c54 	.word	0x20000c54
    bed8:	0000e9f9 	.word	0x0000e9f9
    bedc:	20000a24 	.word	0x20000a24
    bee0:	0000ba31 	.word	0x0000ba31

0000bee4 <_usb_d_dev_handler>:
    bee4:	e92d 47f0 	stmdb	sp!, {r4, r5, r6, r7, r8, r9, sl, lr}
    bee8:	f04f 4382 	mov.w	r3, #1090519040	; 0x41000000
    beec:	8c1d      	ldrh	r5, [r3, #32]
    beee:	b2ad      	uxth	r5, r5
    bef0:	2d00      	cmp	r5, #0
    bef2:	d16a      	bne.n	bfca <_usb_d_dev_handler+0xe6>
    bef4:	8b99      	ldrh	r1, [r3, #28]
    bef6:	8b1a      	ldrh	r2, [r3, #24]
    bef8:	b292      	uxth	r2, r2
    befa:	400a      	ands	r2, r1
    befc:	f012 0004 	ands.w	r0, r2, #4
    bf00:	d006      	beq.n	bf10 <_usb_d_dev_handler+0x2c>
    bf02:	2204      	movs	r2, #4
    bf04:	839a      	strh	r2, [r3, #28]
    bf06:	4b65      	ldr	r3, [pc, #404]	; (c09c <_usb_d_dev_handler+0x1b8>)
    bf08:	e8bd 47f0 	ldmia.w	sp!, {r4, r5, r6, r7, r8, r9, sl, lr}
    bf0c:	681b      	ldr	r3, [r3, #0]
    bf0e:	4718      	bx	r3
    bf10:	f412 7100 	ands.w	r1, r2, #512	; 0x200
    bf14:	d021      	beq.n	bf5a <_usb_d_dev_handler+0x76>
    bf16:	f240 2201 	movw	r2, #513	; 0x201
    bf1a:	4960      	ldr	r1, [pc, #384]	; (c09c <_usb_d_dev_handler+0x1b8>)
    bf1c:	839a      	strh	r2, [r3, #28]
    bf1e:	829a      	strh	r2, [r3, #20]
    bf20:	2270      	movs	r2, #112	; 0x70
    bf22:	831a      	strh	r2, [r3, #24]
    bf24:	460c      	mov	r4, r1
    bf26:	4603      	mov	r3, r0
    bf28:	eb01 1243 	add.w	r2, r1, r3, lsl #5
    bf2c:	f502 700e 	add.w	r0, r2, #568	; 0x238
    bf30:	f8b2 2238 	ldrh.w	r2, [r2, #568]	; 0x238
    bf34:	f002 020f 	and.w	r2, r2, #15
    bf38:	2a03      	cmp	r2, #3
    bf3a:	d109      	bne.n	bf50 <_usb_d_dev_handler+0x6c>
    bf3c:	8801      	ldrh	r1, [r0, #0]
    bf3e:	2300      	movs	r3, #0
    bf40:	f3c1 110a 	ubfx	r1, r1, #4, #11
    bf44:	8003      	strh	r3, [r0, #0]
    bf46:	6863      	ldr	r3, [r4, #4]
    bf48:	2003      	movs	r0, #3
    bf4a:	e8bd 47f0 	ldmia.w	sp!, {r4, r5, r6, r7, r8, r9, sl, lr}
    bf4e:	4718      	bx	r3
    bf50:	3301      	adds	r3, #1
    bf52:	2b05      	cmp	r3, #5
    bf54:	d1e8      	bne.n	bf28 <_usb_d_dev_handler+0x44>
    bf56:	2100      	movs	r1, #0
    bf58:	e7f5      	b.n	bf46 <_usb_d_dev_handler+0x62>
    bf5a:	f012 0080 	ands.w	r0, r2, #128	; 0x80
    bf5e:	d005      	beq.n	bf6c <_usb_d_dev_handler+0x88>
    bf60:	2280      	movs	r2, #128	; 0x80
    bf62:	839a      	strh	r2, [r3, #28]
    bf64:	4b4d      	ldr	r3, [pc, #308]	; (c09c <_usb_d_dev_handler+0x1b8>)
    bf66:	2005      	movs	r0, #5
    bf68:	685b      	ldr	r3, [r3, #4]
    bf6a:	e7ee      	b.n	bf4a <_usb_d_dev_handler+0x66>
    bf6c:	f012 0470 	ands.w	r4, r2, #112	; 0x70
    bf70:	d00c      	beq.n	bf8c <_usb_d_dev_handler+0xa8>
    bf72:	2270      	movs	r2, #112	; 0x70
    bf74:	839a      	strh	r2, [r3, #28]
    bf76:	829a      	strh	r2, [r3, #20]
    bf78:	f240 2201 	movw	r2, #513	; 0x201
    bf7c:	831a      	strh	r2, [r3, #24]
    bf7e:	4b48      	ldr	r3, [pc, #288]	; (c0a0 <_usb_d_dev_handler+0x1bc>)
    bf80:	4798      	blx	r3
    bf82:	4b46      	ldr	r3, [pc, #280]	; (c09c <_usb_d_dev_handler+0x1b8>)
    bf84:	4601      	mov	r1, r0
    bf86:	685b      	ldr	r3, [r3, #4]
    bf88:	2002      	movs	r0, #2
    bf8a:	e7de      	b.n	bf4a <_usb_d_dev_handler+0x66>
    bf8c:	f012 0108 	ands.w	r1, r2, #8
    bf90:	d00f      	beq.n	bfb2 <_usb_d_dev_handler+0xce>
    bf92:	2208      	movs	r2, #8
    bf94:	f883 4100 	strb.w	r4, [r3, #256]	; 0x100
    bf98:	839a      	strh	r2, [r3, #28]
    bf9a:	2270      	movs	r2, #112	; 0x70
    bf9c:	829a      	strh	r2, [r3, #20]
    bf9e:	f240 2201 	movw	r2, #513	; 0x201
    bfa2:	831a      	strh	r2, [r3, #24]
    bfa4:	4b3f      	ldr	r3, [pc, #252]	; (c0a4 <_usb_d_dev_handler+0x1c0>)
    bfa6:	4798      	blx	r3
    bfa8:	4b3c      	ldr	r3, [pc, #240]	; (c09c <_usb_d_dev_handler+0x1b8>)
    bfaa:	4621      	mov	r1, r4
    bfac:	685b      	ldr	r3, [r3, #4]
    bfae:	2001      	movs	r0, #1
    bfb0:	e7cb      	b.n	bf4a <_usb_d_dev_handler+0x66>
    bfb2:	07d0      	lsls	r0, r2, #31
    bfb4:	d509      	bpl.n	bfca <_usb_d_dev_handler+0xe6>
    bfb6:	f240 2201 	movw	r2, #513	; 0x201
    bfba:	839a      	strh	r2, [r3, #28]
    bfbc:	829a      	strh	r2, [r3, #20]
    bfbe:	2270      	movs	r2, #112	; 0x70
    bfc0:	831a      	strh	r2, [r3, #24]
    bfc2:	4b36      	ldr	r3, [pc, #216]	; (c09c <_usb_d_dev_handler+0x1b8>)
    bfc4:	2004      	movs	r0, #4
    bfc6:	685b      	ldr	r3, [r3, #4]
    bfc8:	e7bf      	b.n	bf4a <_usb_d_dev_handler+0x66>
    bfca:	4c37      	ldr	r4, [pc, #220]	; (c0a8 <_usb_d_dev_handler+0x1c4>)
    bfcc:	f8df 80ec 	ldr.w	r8, [pc, #236]	; c0bc <_usb_d_dev_handler+0x1d8>
    bfd0:	4f36      	ldr	r7, [pc, #216]	; (c0ac <_usb_d_dev_handler+0x1c8>)
    bfd2:	2600      	movs	r6, #0
    bfd4:	f1a4 0914 	sub.w	r9, r4, #20
    bfd8:	7ca2      	ldrb	r2, [r4, #18]
    bfda:	2aff      	cmp	r2, #255	; 0xff
    bfdc:	d029      	beq.n	c032 <_usb_d_dev_handler+0x14e>
    bfde:	f002 020f 	and.w	r2, r2, #15
    bfe2:	2101      	movs	r1, #1
    bfe4:	fa01 f302 	lsl.w	r3, r1, r2
    bfe8:	422b      	tst	r3, r5
    bfea:	d022      	beq.n	c032 <_usb_d_dev_handler+0x14e>
    bfec:	0153      	lsls	r3, r2, #5
    bfee:	0152      	lsls	r2, r2, #5
    bff0:	f103 4382 	add.w	r3, r3, #1090519040	; 0x41000000
    bff4:	f102 4282 	add.w	r2, r2, #1090519040	; 0x41000000
    bff8:	f893 0107 	ldrb.w	r0, [r3, #263]	; 0x107
    bffc:	f892 3109 	ldrb.w	r3, [r2, #265]	; 0x109
    c000:	4003      	ands	r3, r0
    c002:	d016      	beq.n	c032 <_usb_d_dev_handler+0x14e>
    c004:	2214      	movs	r2, #20
    c006:	fb02 9206 	mla	r2, r2, r6, r9
    c00a:	f892 2027 	ldrb.w	r2, [r2, #39]	; 0x27
    c00e:	f002 0047 	and.w	r0, r2, #71	; 0x47
    c012:	4288      	cmp	r0, r1
    c014:	d114      	bne.n	c040 <_usb_d_dev_handler+0x15c>
    c016:	06da      	lsls	r2, r3, #27
    c018:	d502      	bpl.n	c020 <_usb_d_dev_handler+0x13c>
    c01a:	4620      	mov	r0, r4
    c01c:	47c0      	blx	r8
    c01e:	e008      	b.n	c032 <_usb_d_dev_handler+0x14e>
    c020:	f013 0140 	ands.w	r1, r3, #64	; 0x40
    c024:	d003      	beq.n	c02e <_usb_d_dev_handler+0x14a>
    c026:	4601      	mov	r1, r0
    c028:	4620      	mov	r0, r4
    c02a:	4b21      	ldr	r3, [pc, #132]	; (c0b0 <_usb_d_dev_handler+0x1cc>)
    c02c:	e015      	b.n	c05a <_usb_d_dev_handler+0x176>
    c02e:	069b      	lsls	r3, r3, #26
    c030:	d4fa      	bmi.n	c028 <_usb_d_dev_handler+0x144>
    c032:	3601      	adds	r6, #1
    c034:	2e1b      	cmp	r6, #27
    c036:	f104 0414 	add.w	r4, r4, #20
    c03a:	d1cd      	bne.n	bfd8 <_usb_d_dev_handler+0xf4>
    c03c:	e8bd 87f0 	ldmia.w	sp!, {r4, r5, r6, r7, r8, r9, sl, pc}
    c040:	0610      	lsls	r0, r2, #24
    c042:	d514      	bpl.n	c06e <_usb_d_dev_handler+0x18a>
    c044:	0658      	lsls	r0, r3, #25
    c046:	d4ef      	bmi.n	c028 <_usb_d_dev_handler+0x144>
    c048:	0718      	lsls	r0, r3, #28
    c04a:	d502      	bpl.n	c052 <_usb_d_dev_handler+0x16e>
    c04c:	4620      	mov	r0, r4
    c04e:	47b8      	blx	r7
    c050:	e7ef      	b.n	c032 <_usb_d_dev_handler+0x14e>
    c052:	0798      	lsls	r0, r3, #30
    c054:	d503      	bpl.n	c05e <_usb_d_dev_handler+0x17a>
    c056:	4b17      	ldr	r3, [pc, #92]	; (c0b4 <_usb_d_dev_handler+0x1d0>)
    c058:	4620      	mov	r0, r4
    c05a:	4798      	blx	r3
    c05c:	e7e9      	b.n	c032 <_usb_d_dev_handler+0x14e>
    c05e:	f002 0207 	and.w	r2, r2, #7
    c062:	2a01      	cmp	r2, #1
    c064:	d1e5      	bne.n	c032 <_usb_d_dev_handler+0x14e>
    c066:	075a      	lsls	r2, r3, #29
    c068:	d515      	bpl.n	c096 <_usb_d_dev_handler+0x1b2>
    c06a:	2100      	movs	r1, #0
    c06c:	e7ee      	b.n	c04c <_usb_d_dev_handler+0x168>
    c06e:	f013 0020 	ands.w	r0, r3, #32
    c072:	d001      	beq.n	c078 <_usb_d_dev_handler+0x194>
    c074:	2100      	movs	r1, #0
    c076:	e7d7      	b.n	c028 <_usb_d_dev_handler+0x144>
    c078:	0758      	lsls	r0, r3, #29
    c07a:	d4f6      	bmi.n	c06a <_usb_d_dev_handler+0x186>
    c07c:	07d8      	lsls	r0, r3, #31
    c07e:	d502      	bpl.n	c086 <_usb_d_dev_handler+0x1a2>
    c080:	4620      	mov	r0, r4
    c082:	4b0d      	ldr	r3, [pc, #52]	; (c0b8 <_usb_d_dev_handler+0x1d4>)
    c084:	e7e9      	b.n	c05a <_usb_d_dev_handler+0x176>
    c086:	f002 0207 	and.w	r2, r2, #7
    c08a:	2a01      	cmp	r2, #1
    c08c:	d1d1      	bne.n	c032 <_usb_d_dev_handler+0x14e>
    c08e:	071a      	lsls	r2, r3, #28
    c090:	d501      	bpl.n	c096 <_usb_d_dev_handler+0x1b2>
    c092:	2101      	movs	r1, #1
    c094:	e7da      	b.n	c04c <_usb_d_dev_handler+0x168>
    c096:	06db      	lsls	r3, r3, #27
    c098:	d5cb      	bpl.n	c032 <_usb_d_dev_handler+0x14e>
    c09a:	e7be      	b.n	c01a <_usb_d_dev_handler+0x136>
    c09c:	20000a24 	.word	0x20000a24
    c0a0:	0000b949 	.word	0x0000b949
    c0a4:	0000bba5 	.word	0x0000bba5
    c0a8:	20000a38 	.word	0x20000a38
    c0ac:	0000bab9 	.word	0x0000bab9
    c0b0:	0000ba09 	.word	0x0000ba09
    c0b4:	0000bbe1 	.word	0x0000bbe1
    c0b8:	0000bd39 	.word	0x0000bd39
    c0bc:	0000b985 	.word	0x0000b985

0000c0c0 <_usbd_ep_pcksize_size>:
    c0c0:	f5b0 7f00 	cmp.w	r0, #512	; 0x200
    c0c4:	d80f      	bhi.n	c0e6 <_usbd_ep_pcksize_size+0x26>
    c0c6:	f5b0 7f80 	cmp.w	r0, #256	; 0x100
    c0ca:	d80e      	bhi.n	c0ea <_usbd_ep_pcksize_size+0x2a>
    c0cc:	2880      	cmp	r0, #128	; 0x80
    c0ce:	d80e      	bhi.n	c0ee <_usbd_ep_pcksize_size+0x2e>
    c0d0:	2840      	cmp	r0, #64	; 0x40
    c0d2:	d80e      	bhi.n	c0f2 <_usbd_ep_pcksize_size+0x32>
    c0d4:	2820      	cmp	r0, #32
    c0d6:	d80e      	bhi.n	c0f6 <_usbd_ep_pcksize_size+0x36>
    c0d8:	2810      	cmp	r0, #16
    c0da:	d80e      	bhi.n	c0fa <_usbd_ep_pcksize_size+0x3a>
    c0dc:	2808      	cmp	r0, #8
    c0de:	bf94      	ite	ls
    c0e0:	2000      	movls	r0, #0
    c0e2:	2001      	movhi	r0, #1
    c0e4:	4770      	bx	lr
    c0e6:	2007      	movs	r0, #7
    c0e8:	4770      	bx	lr
    c0ea:	2006      	movs	r0, #6
    c0ec:	4770      	bx	lr
    c0ee:	2005      	movs	r0, #5
    c0f0:	4770      	bx	lr
    c0f2:	2004      	movs	r0, #4
    c0f4:	4770      	bx	lr
    c0f6:	2003      	movs	r0, #3
    c0f8:	4770      	bx	lr
    c0fa:	2002      	movs	r0, #2
    c0fc:	4770      	bx	lr
	...

0000c100 <_usb_d_dev_init>:
    c100:	b508      	push	{r3, lr}
    c102:	f04f 4382 	mov.w	r3, #1090519040	; 0x41000000
    c106:	789a      	ldrb	r2, [r3, #2]
    c108:	07d0      	lsls	r0, r2, #31
    c10a:	d540      	bpl.n	c18e <_usb_d_dev_init+0x8e>
    c10c:	f04f 4282 	mov.w	r2, #1090519040	; 0x41000000
    c110:	7893      	ldrb	r3, [r2, #2]
    c112:	07db      	lsls	r3, r3, #31
    c114:	d4fc      	bmi.n	c110 <_usb_d_dev_init+0x10>
    c116:	4b2f      	ldr	r3, [pc, #188]	; (c1d4 <_usb_d_dev_init+0xd4>)
    c118:	4a2f      	ldr	r2, [pc, #188]	; (c1d8 <_usb_d_dev_init+0xd8>)
    c11a:	601a      	str	r2, [r3, #0]
    c11c:	605a      	str	r2, [r3, #4]
    c11e:	609a      	str	r2, [r3, #8]
    c120:	60da      	str	r2, [r3, #12]
    c122:	611a      	str	r2, [r3, #16]
    c124:	4b2d      	ldr	r3, [pc, #180]	; (c1dc <_usb_d_dev_init+0xdc>)
    c126:	4798      	blx	r3
    c128:	4b2d      	ldr	r3, [pc, #180]	; (c1e0 <_usb_d_dev_init+0xe0>)
    c12a:	6819      	ldr	r1, [r3, #0]
    c12c:	f3c1 1344 	ubfx	r3, r1, #5, #5
    c130:	f3c1 2282 	ubfx	r2, r1, #10, #3
    c134:	f011 011f 	ands.w	r1, r1, #31
    c138:	d046      	beq.n	c1c8 <_usb_d_dev_init+0xc8>
    c13a:	291f      	cmp	r1, #31
    c13c:	bf08      	it	eq
    c13e:	2109      	moveq	r1, #9
    c140:	2b00      	cmp	r3, #0
    c142:	d043      	beq.n	c1cc <_usb_d_dev_init+0xcc>
    c144:	2b1f      	cmp	r3, #31
    c146:	bf08      	it	eq
    c148:	2319      	moveq	r3, #25
    c14a:	2a00      	cmp	r2, #0
    c14c:	d040      	beq.n	c1d0 <_usb_d_dev_init+0xd0>
    c14e:	2a07      	cmp	r2, #7
    c150:	bf08      	it	eq
    c152:	2206      	moveq	r2, #6
    c154:	0312      	lsls	r2, r2, #12
    c156:	f402 42e0 	and.w	r2, r2, #28672	; 0x7000
    c15a:	ea43 1381 	orr.w	r3, r3, r1, lsl #6
    c15e:	4313      	orrs	r3, r2
    c160:	f04f 4282 	mov.w	r2, #1090519040	; 0x41000000
    c164:	b29b      	uxth	r3, r3
    c166:	8513      	strh	r3, [r2, #40]	; 0x28
    c168:	78d3      	ldrb	r3, [r2, #3]
    c16a:	f043 0303 	orr.w	r3, r3, #3
    c16e:	70d3      	strb	r3, [r2, #3]
    c170:	78d3      	ldrb	r3, [r2, #3]
    c172:	f043 030c 	orr.w	r3, r3, #12
    c176:	70d3      	strb	r3, [r2, #3]
    c178:	2304      	movs	r3, #4
    c17a:	7013      	strb	r3, [r2, #0]
    c17c:	7890      	ldrb	r0, [r2, #2]
    c17e:	f010 0003 	ands.w	r0, r0, #3
    c182:	d1fb      	bne.n	c17c <_usb_d_dev_init+0x7c>
    c184:	4b17      	ldr	r3, [pc, #92]	; (c1e4 <_usb_d_dev_init+0xe4>)
    c186:	6253      	str	r3, [r2, #36]	; 0x24
    c188:	2301      	movs	r3, #1
    c18a:	8113      	strh	r3, [r2, #8]
    c18c:	bd08      	pop	{r3, pc}
    c18e:	789a      	ldrb	r2, [r3, #2]
    c190:	0791      	lsls	r1, r2, #30
    c192:	d1fc      	bne.n	c18e <_usb_d_dev_init+0x8e>
    c194:	781a      	ldrb	r2, [r3, #0]
    c196:	0792      	lsls	r2, r2, #30
    c198:	d407      	bmi.n	c1aa <_usb_d_dev_init+0xaa>
    c19a:	f04f 4382 	mov.w	r3, #1090519040	; 0x41000000
    c19e:	2201      	movs	r2, #1
    c1a0:	701a      	strb	r2, [r3, #0]
    c1a2:	789a      	ldrb	r2, [r3, #2]
    c1a4:	0792      	lsls	r2, r2, #30
    c1a6:	d1fc      	bne.n	c1a2 <_usb_d_dev_init+0xa2>
    c1a8:	e7b0      	b.n	c10c <_usb_d_dev_init+0xc>
    c1aa:	781a      	ldrb	r2, [r3, #0]
    c1ac:	f002 02fd 	and.w	r2, r2, #253	; 0xfd
    c1b0:	701a      	strb	r2, [r3, #0]
    c1b2:	f04f 4282 	mov.w	r2, #1090519040	; 0x41000000
    c1b6:	7893      	ldrb	r3, [r2, #2]
    c1b8:	0798      	lsls	r0, r3, #30
    c1ba:	d1fc      	bne.n	c1b6 <_usb_d_dev_init+0xb6>
    c1bc:	f04f 4282 	mov.w	r2, #1090519040	; 0x41000000
    c1c0:	7893      	ldrb	r3, [r2, #2]
    c1c2:	0799      	lsls	r1, r3, #30
    c1c4:	d4fc      	bmi.n	c1c0 <_usb_d_dev_init+0xc0>
    c1c6:	e7e8      	b.n	c19a <_usb_d_dev_init+0x9a>
    c1c8:	2109      	movs	r1, #9
    c1ca:	e7b9      	b.n	c140 <_usb_d_dev_init+0x40>
    c1cc:	2319      	movs	r3, #25
    c1ce:	e7bc      	b.n	c14a <_usb_d_dev_init+0x4a>
    c1d0:	2206      	movs	r2, #6
    c1d2:	e7bf      	b.n	c154 <_usb_d_dev_init+0x54>
    c1d4:	20000a24 	.word	0x20000a24
    c1d8:	0000b945 	.word	0x0000b945
    c1dc:	0000bba5 	.word	0x0000bba5
    c1e0:	00800084 	.word	0x00800084
    c1e4:	20000c54 	.word	0x20000c54

0000c1e8 <_usb_d_dev_enable>:
    c1e8:	f04f 4382 	mov.w	r3, #1090519040	; 0x41000000
    c1ec:	789a      	ldrb	r2, [r3, #2]
    c1ee:	0792      	lsls	r2, r2, #30
    c1f0:	d123      	bne.n	c23a <_usb_d_dev_enable+0x52>
    c1f2:	789a      	ldrb	r2, [r3, #2]
    c1f4:	0790      	lsls	r0, r2, #30
    c1f6:	d1fc      	bne.n	c1f2 <_usb_d_dev_enable+0xa>
    c1f8:	781a      	ldrb	r2, [r3, #0]
    c1fa:	b2d2      	uxtb	r2, r2
    c1fc:	0791      	lsls	r1, r2, #30
    c1fe:	d513      	bpl.n	c228 <_usb_d_dev_enable+0x40>
    c200:	4b0f      	ldr	r3, [pc, #60]	; (c240 <_usb_d_dev_enable+0x58>)
    c202:	f44f 3280 	mov.w	r2, #65536	; 0x10000
    c206:	609a      	str	r2, [r3, #8]
    c208:	f44f 3200 	mov.w	r2, #131072	; 0x20000
    c20c:	609a      	str	r2, [r3, #8]
    c20e:	f44f 2280 	mov.w	r2, #262144	; 0x40000
    c212:	609a      	str	r2, [r3, #8]
    c214:	f44f 2200 	mov.w	r2, #524288	; 0x80000
    c218:	609a      	str	r2, [r3, #8]
    c21a:	f04f 4382 	mov.w	r3, #1090519040	; 0x41000000
    c21e:	f240 228d 	movw	r2, #653	; 0x28d
    c222:	831a      	strh	r2, [r3, #24]
    c224:	2000      	movs	r0, #0
    c226:	4770      	bx	lr
    c228:	f042 0202 	orr.w	r2, r2, #2
    c22c:	701a      	strb	r2, [r3, #0]
    c22e:	f04f 4282 	mov.w	r2, #1090519040	; 0x41000000
    c232:	7893      	ldrb	r3, [r2, #2]
    c234:	079b      	lsls	r3, r3, #30
    c236:	d1fc      	bne.n	c232 <_usb_d_dev_enable+0x4a>
    c238:	e7e2      	b.n	c200 <_usb_d_dev_enable+0x18>
    c23a:	f06f 0010 	mvn.w	r0, #16
    c23e:	4770      	bx	lr
    c240:	e000e100 	.word	0xe000e100

0000c244 <_usb_d_dev_attach>:
    c244:	f04f 4282 	mov.w	r2, #1090519040	; 0x41000000
    c248:	8913      	ldrh	r3, [r2, #8]
    c24a:	f023 0301 	bic.w	r3, r3, #1
    c24e:	041b      	lsls	r3, r3, #16
    c250:	0c1b      	lsrs	r3, r3, #16
    c252:	8113      	strh	r3, [r2, #8]
    c254:	4770      	bx	lr

0000c256 <_usb_d_dev_set_address>:
    c256:	f04f 4382 	mov.w	r3, #1090519040	; 0x41000000
    c25a:	f040 0080 	orr.w	r0, r0, #128	; 0x80
    c25e:	7298      	strb	r0, [r3, #10]
    c260:	4770      	bx	lr

0000c262 <_usb_d_dev_get_frame_n>:
    c262:	f04f 4382 	mov.w	r3, #1090519040	; 0x41000000
    c266:	8a18      	ldrh	r0, [r3, #16]
    c268:	f3c0 00ca 	ubfx	r0, r0, #3, #11
    c26c:	4770      	bx	lr
	...

0000c270 <_usb_d_dev_ep_init>:
    c270:	e92d 43f8 	stmdb	sp!, {r3, r4, r5, r6, r7, r8, r9, lr}
    c274:	f000 040f 	and.w	r4, r0, #15
    c278:	b247      	sxtb	r7, r0
    c27a:	460d      	mov	r5, r1
    c27c:	4680      	mov	r8, r0
    c27e:	0ff9      	lsrs	r1, r7, #31
    c280:	4620      	mov	r0, r4
    c282:	f8df 90a8 	ldr.w	r9, [pc, #168]	; c32c <_usb_d_dev_ep_init+0xbc>
    c286:	47c8      	blx	r9
    c288:	2c05      	cmp	r4, #5
    c28a:	4606      	mov	r6, r0
    c28c:	f005 0503 	and.w	r5, r5, #3
    c290:	d83f      	bhi.n	c312 <_usb_d_dev_ep_init+0xa2>
    c292:	7c83      	ldrb	r3, [r0, #18]
    c294:	2bff      	cmp	r3, #255	; 0xff
    c296:	d140      	bne.n	c31a <_usb_d_dev_ep_init+0xaa>
    c298:	b985      	cbnz	r5, c2bc <_usb_d_dev_ep_init+0x4c>
    c29a:	43f9      	mvns	r1, r7
    c29c:	0fc9      	lsrs	r1, r1, #31
    c29e:	4620      	mov	r0, r4
    c2a0:	47c8      	blx	r9
    c2a2:	7c83      	ldrb	r3, [r0, #18]
    c2a4:	2bff      	cmp	r3, #255	; 0xff
    c2a6:	d138      	bne.n	c31a <_usb_d_dev_ep_init+0xaa>
    c2a8:	230c      	movs	r3, #12
    c2aa:	4363      	muls	r3, r4
    c2ac:	491e      	ldr	r1, [pc, #120]	; (c328 <_usb_d_dev_ep_init+0xb8>)
    c2ae:	58cb      	ldr	r3, [r1, r3]
    c2b0:	2b00      	cmp	r3, #0
    c2b2:	d136      	bne.n	c322 <_usb_d_dev_ep_init+0xb2>
    c2b4:	f06f 0012 	mvn.w	r0, #18
    c2b8:	e8bd 83f8 	ldmia.w	sp!, {r3, r4, r5, r6, r7, r8, r9, pc}
    c2bc:	2f00      	cmp	r7, #0
    c2be:	da18      	bge.n	c2f2 <_usb_d_dev_ep_init+0x82>
    c2c0:	4919      	ldr	r1, [pc, #100]	; (c328 <_usb_d_dev_ep_init+0xb8>)
    c2c2:	230c      	movs	r3, #12
    c2c4:	fb03 1304 	mla	r3, r3, r4, r1
    c2c8:	6859      	ldr	r1, [r3, #4]
    c2ca:	b9f1      	cbnz	r1, c30a <_usb_d_dev_ep_init+0x9a>
    c2cc:	4916      	ldr	r1, [pc, #88]	; (c328 <_usb_d_dev_ep_init+0xb8>)
    c2ce:	f886 8012 	strb.w	r8, [r6, #18]
    c2d2:	230c      	movs	r3, #12
    c2d4:	435c      	muls	r4, r3
    c2d6:	190b      	adds	r3, r1, r4
    c2d8:	5909      	ldr	r1, [r1, r4]
    c2da:	685b      	ldr	r3, [r3, #4]
    c2dc:	8232      	strh	r2, [r6, #16]
    c2de:	3501      	adds	r5, #1
    c2e0:	ea13 0327 	ands.w	r3, r3, r7, asr #32
    c2e4:	bf38      	it	cc
    c2e6:	460b      	movcc	r3, r1
    c2e8:	74f5      	strb	r5, [r6, #19]
    c2ea:	60f3      	str	r3, [r6, #12]
    c2ec:	2000      	movs	r0, #0
    c2ee:	e8bd 83f8 	ldmia.w	sp!, {r3, r4, r5, r6, r7, r8, r9, pc}
    c2f2:	230c      	movs	r3, #12
    c2f4:	4363      	muls	r3, r4
    c2f6:	490c      	ldr	r1, [pc, #48]	; (c328 <_usb_d_dev_ep_init+0xb8>)
    c2f8:	58cb      	ldr	r3, [r1, r3]
    c2fa:	2b00      	cmp	r3, #0
    c2fc:	d0e6      	beq.n	c2cc <_usb_d_dev_ep_init+0x5c>
    c2fe:	490a      	ldr	r1, [pc, #40]	; (c328 <_usb_d_dev_ep_init+0xb8>)
    c300:	230c      	movs	r3, #12
    c302:	fb03 1304 	mla	r3, r3, r4, r1
    c306:	891b      	ldrh	r3, [r3, #8]
    c308:	e000      	b.n	c30c <_usb_d_dev_ep_init+0x9c>
    c30a:	895b      	ldrh	r3, [r3, #10]
    c30c:	4293      	cmp	r3, r2
    c30e:	dadd      	bge.n	c2cc <_usb_d_dev_ep_init+0x5c>
    c310:	e7d0      	b.n	c2b4 <_usb_d_dev_ep_init+0x44>
    c312:	f06f 0011 	mvn.w	r0, #17
    c316:	e8bd 83f8 	ldmia.w	sp!, {r3, r4, r5, r6, r7, r8, r9, pc}
    c31a:	f06f 0013 	mvn.w	r0, #19
    c31e:	e8bd 83f8 	ldmia.w	sp!, {r3, r4, r5, r6, r7, r8, r9, pc}
    c322:	2f00      	cmp	r7, #0
    c324:	daeb      	bge.n	c2fe <_usb_d_dev_ep_init+0x8e>
    c326:	e7cb      	b.n	c2c0 <_usb_d_dev_ep_init+0x50>
    c328:	000107b0 	.word	0x000107b0
    c32c:	0000b96d 	.word	0x0000b96d

0000c330 <_usb_d_dev_ep_deinit>:
    c330:	e92d 41f0 	stmdb	sp!, {r4, r5, r6, r7, r8, lr}
    c334:	b247      	sxtb	r7, r0
    c336:	f000 050f 	and.w	r5, r0, #15
    c33a:	ea4f 78d7 	mov.w	r8, r7, lsr #31
    c33e:	4604      	mov	r4, r0
    c340:	4641      	mov	r1, r8
    c342:	4628      	mov	r0, r5
    c344:	4b19      	ldr	r3, [pc, #100]	; (c3ac <_usb_d_dev_ep_deinit+0x7c>)
    c346:	4798      	blx	r3
    c348:	2d05      	cmp	r5, #5
    c34a:	4606      	mov	r6, r0
    c34c:	d815      	bhi.n	c37a <_usb_d_dev_ep_deinit+0x4a>
    c34e:	7c83      	ldrb	r3, [r0, #18]
    c350:	2bff      	cmp	r3, #255	; 0xff
    c352:	d012      	beq.n	c37a <_usb_d_dev_ep_deinit+0x4a>
    c354:	4b16      	ldr	r3, [pc, #88]	; (c3b0 <_usb_d_dev_ep_deinit+0x80>)
    c356:	2203      	movs	r2, #3
    c358:	4641      	mov	r1, r8
    c35a:	4798      	blx	r3
    c35c:	7cf3      	ldrb	r3, [r6, #19]
    c35e:	f003 0307 	and.w	r3, r3, #7
    c362:	2b01      	cmp	r3, #1
    c364:	d10b      	bne.n	c37e <_usb_d_dev_ep_deinit+0x4e>
    c366:	0164      	lsls	r4, r4, #5
    c368:	f104 4482 	add.w	r4, r4, #1090519040	; 0x41000000
    c36c:	2300      	movs	r3, #0
    c36e:	f884 3100 	strb.w	r3, [r4, #256]	; 0x100
    c372:	2300      	movs	r3, #0
    c374:	74f3      	strb	r3, [r6, #19]
    c376:	23ff      	movs	r3, #255	; 0xff
    c378:	74b3      	strb	r3, [r6, #18]
    c37a:	e8bd 81f0 	ldmia.w	sp!, {r4, r5, r6, r7, r8, pc}
    c37e:	2f00      	cmp	r7, #0
    c380:	da09      	bge.n	c396 <_usb_d_dev_ep_deinit+0x66>
    c382:	0168      	lsls	r0, r5, #5
    c384:	f100 4082 	add.w	r0, r0, #1090519040	; 0x41000000
    c388:	f890 3100 	ldrb.w	r3, [r0, #256]	; 0x100
    c38c:	f003 038f 	and.w	r3, r3, #143	; 0x8f
    c390:	f880 3100 	strb.w	r3, [r0, #256]	; 0x100
    c394:	e7ed      	b.n	c372 <_usb_d_dev_ep_deinit+0x42>
    c396:	0164      	lsls	r4, r4, #5
    c398:	f104 4482 	add.w	r4, r4, #1090519040	; 0x41000000
    c39c:	f894 3100 	ldrb.w	r3, [r4, #256]	; 0x100
    c3a0:	f003 03f8 	and.w	r3, r3, #248	; 0xf8
    c3a4:	f884 3100 	strb.w	r3, [r4, #256]	; 0x100
    c3a8:	e7e3      	b.n	c372 <_usb_d_dev_ep_deinit+0x42>
    c3aa:	bf00      	nop
    c3ac:	0000b96d 	.word	0x0000b96d
    c3b0:	0000ba55 	.word	0x0000ba55

0000c3b4 <_usb_d_dev_ep_enable>:
    c3b4:	e92d 43f8 	stmdb	sp!, {r3, r4, r5, r6, r7, r8, r9, lr}
    c3b8:	f000 050f 	and.w	r5, r0, #15
    c3bc:	fa4f f980 	sxtb.w	r9, r0
    c3c0:	4b57      	ldr	r3, [pc, #348]	; (c520 <_usb_d_dev_ep_enable+0x16c>)
    c3c2:	ea4f 71d9 	mov.w	r1, r9, lsr #31
    c3c6:	4628      	mov	r0, r5
    c3c8:	4798      	blx	r3
    c3ca:	016f      	lsls	r7, r5, #5
    c3cc:	f107 4682 	add.w	r6, r7, #1090519040	; 0x41000000
    c3d0:	4680      	mov	r8, r0
    c3d2:	f896 0100 	ldrb.w	r0, [r6, #256]	; 0x100
    c3d6:	2d05      	cmp	r5, #5
    c3d8:	b2c3      	uxtb	r3, r0
    c3da:	f200 8098 	bhi.w	c50e <_usb_d_dev_ep_enable+0x15a>
    c3de:	f898 2012 	ldrb.w	r2, [r8, #18]
    c3e2:	2aff      	cmp	r2, #255	; 0xff
    c3e4:	f000 8093 	beq.w	c50e <_usb_d_dev_ep_enable+0x15a>
    c3e8:	4c4e      	ldr	r4, [pc, #312]	; (c524 <_usb_d_dev_ep_enable+0x170>)
    c3ea:	f504 710c 	add.w	r1, r4, #560	; 0x230
    c3ee:	440f      	add	r7, r1
    c3f0:	f898 1013 	ldrb.w	r1, [r8, #19]
    c3f4:	f001 0007 	and.w	r0, r1, #7
    c3f8:	2801      	cmp	r0, #1
    c3fa:	d148      	bne.n	c48e <_usb_d_dev_ep_enable+0xda>
    c3fc:	f013 0377 	ands.w	r3, r3, #119	; 0x77
    c400:	f040 8089 	bne.w	c516 <_usb_d_dev_ep_enable+0x162>
    c404:	2111      	movs	r1, #17
    c406:	f886 1100 	strb.w	r1, [r6, #256]	; 0x100
    c40a:	f8b8 1010 	ldrh.w	r1, [r8, #16]
    c40e:	f8df 9118 	ldr.w	r9, [pc, #280]	; c528 <_usb_d_dev_ep_enable+0x174>
    c412:	4608      	mov	r0, r1
    c414:	47c8      	blx	r9
    c416:	f8df e114 	ldr.w	lr, [pc, #276]	; c52c <_usb_d_dev_ep_enable+0x178>
    c41a:	0700      	lsls	r0, r0, #28
    c41c:	f000 40e0 	and.w	r0, r0, #1879048192	; 0x70000000
    c420:	ea0e 3e81 	and.w	lr, lr, r1, lsl #14
    c424:	f3c1 010d 	ubfx	r1, r1, #0, #14
    c428:	ea4e 0e00 	orr.w	lr, lr, r0
    c42c:	4308      	orrs	r0, r1
    c42e:	f8c7 e004 	str.w	lr, [r7, #4]
    c432:	eb04 1545 	add.w	r5, r4, r5, lsl #5
    c436:	6178      	str	r0, [r7, #20]
    c438:	f002 020f 	and.w	r2, r2, #15
    c43c:	2740      	movs	r7, #64	; 0x40
    c43e:	2080      	movs	r0, #128	; 0x80
    c440:	f886 7105 	strb.w	r7, [r6, #261]	; 0x105
    c444:	f886 0104 	strb.w	r0, [r6, #260]	; 0x104
    c448:	0150      	lsls	r0, r2, #5
    c44a:	f885 323a 	strb.w	r3, [r5, #570]	; 0x23a
    c44e:	4404      	add	r4, r0
    c450:	f885 324a 	strb.w	r3, [r5, #586]	; 0x24a
    c454:	f8d8 600c 	ldr.w	r6, [r8, #12]
    c458:	f8c4 6230 	str.w	r6, [r4, #560]	; 0x230
    c45c:	f504 750c 	add.w	r5, r4, #560	; 0x230
    c460:	f8d4 4234 	ldr.w	r4, [r4, #564]	; 0x234
    c464:	f361 349b 	bfi	r4, r1, #14, #14
    c468:	606c      	str	r4, [r5, #4]
    c46a:	6869      	ldr	r1, [r5, #4]
    c46c:	f100 4282 	add.w	r2, r0, #1090519040	; 0x41000000
    c470:	f363 010d 	bfi	r1, r3, #0, #14
    c474:	6069      	str	r1, [r5, #4]
    c476:	4610      	mov	r0, r2
    c478:	21b0      	movs	r1, #176	; 0xb0
    c47a:	f882 1104 	strb.w	r1, [r2, #260]	; 0x104
    c47e:	f882 7105 	strb.w	r7, [r2, #261]	; 0x105
    c482:	2210      	movs	r2, #16
    c484:	f880 2109 	strb.w	r2, [r0, #265]	; 0x109
    c488:	4618      	mov	r0, r3
    c48a:	e8bd 83f8 	ldmia.w	sp!, {r3, r4, r5, r6, r7, r8, r9, pc}
    c48e:	f1b9 0f00 	cmp.w	r9, #0
    c492:	da1e      	bge.n	c4d2 <_usb_d_dev_ep_enable+0x11e>
    c494:	f013 0270 	ands.w	r2, r3, #112	; 0x70
    c498:	d13d      	bne.n	c516 <_usb_d_dev_ep_enable+0x162>
    c49a:	0108      	lsls	r0, r1, #4
    c49c:	f000 0070 	and.w	r0, r0, #112	; 0x70
    c4a0:	4318      	orrs	r0, r3
    c4a2:	f8b8 3010 	ldrh.w	r3, [r8, #16]
    c4a6:	f886 0100 	strb.w	r0, [r6, #256]	; 0x100
    c4aa:	491f      	ldr	r1, [pc, #124]	; (c528 <_usb_d_dev_ep_enable+0x174>)
    c4ac:	4618      	mov	r0, r3
    c4ae:	4788      	blx	r1
    c4b0:	0700      	lsls	r0, r0, #28
    c4b2:	f3c3 030d 	ubfx	r3, r3, #0, #14
    c4b6:	f000 40e0 	and.w	r0, r0, #1879048192	; 0x70000000
    c4ba:	eb04 1445 	add.w	r4, r4, r5, lsl #5
    c4be:	4318      	orrs	r0, r3
    c4c0:	2380      	movs	r3, #128	; 0x80
    c4c2:	6178      	str	r0, [r7, #20]
    c4c4:	f886 3104 	strb.w	r3, [r6, #260]	; 0x104
    c4c8:	f884 224a 	strb.w	r2, [r4, #586]	; 0x24a
    c4cc:	4610      	mov	r0, r2
    c4ce:	e8bd 83f8 	ldmia.w	sp!, {r3, r4, r5, r6, r7, r8, r9, pc}
    c4d2:	f013 0207 	ands.w	r2, r3, #7
    c4d6:	d11e      	bne.n	c516 <_usb_d_dev_ep_enable+0x162>
    c4d8:	f001 0107 	and.w	r1, r1, #7
    c4dc:	ea41 0003 	orr.w	r0, r1, r3
    c4e0:	f8b8 1010 	ldrh.w	r1, [r8, #16]
    c4e4:	f886 0100 	strb.w	r0, [r6, #256]	; 0x100
    c4e8:	4b0f      	ldr	r3, [pc, #60]	; (c528 <_usb_d_dev_ep_enable+0x174>)
    c4ea:	4608      	mov	r0, r1
    c4ec:	4798      	blx	r3
    c4ee:	4b0f      	ldr	r3, [pc, #60]	; (c52c <_usb_d_dev_ep_enable+0x178>)
    c4f0:	0700      	lsls	r0, r0, #28
    c4f2:	ea03 3381 	and.w	r3, r3, r1, lsl #14
    c4f6:	f000 40e0 	and.w	r0, r0, #1879048192	; 0x70000000
    c4fa:	4303      	orrs	r3, r0
    c4fc:	eb04 1445 	add.w	r4, r4, r5, lsl #5
    c500:	607b      	str	r3, [r7, #4]
    c502:	2340      	movs	r3, #64	; 0x40
    c504:	f886 3105 	strb.w	r3, [r6, #261]	; 0x105
    c508:	f884 223a 	strb.w	r2, [r4, #570]	; 0x23a
    c50c:	e7de      	b.n	c4cc <_usb_d_dev_ep_enable+0x118>
    c50e:	f06f 0011 	mvn.w	r0, #17
    c512:	e8bd 83f8 	ldmia.w	sp!, {r3, r4, r5, r6, r7, r8, r9, pc}
    c516:	f06f 0013 	mvn.w	r0, #19
    c51a:	e8bd 83f8 	ldmia.w	sp!, {r3, r4, r5, r6, r7, r8, r9, pc}
    c51e:	bf00      	nop
    c520:	0000b96d 	.word	0x0000b96d
    c524:	20000a24 	.word	0x20000a24
    c528:	0000c0c1 	.word	0x0000c0c1
    c52c:	0fffc000 	.word	0x0fffc000

0000c530 <_usb_d_dev_ep_stall>:
    c530:	b538      	push	{r3, r4, r5, lr}
    c532:	09c2      	lsrs	r2, r0, #7
    c534:	f000 050f 	and.w	r5, r0, #15
    c538:	460c      	mov	r4, r1
    c53a:	4628      	mov	r0, r5
    c53c:	4611      	mov	r1, r2
    c53e:	4b34      	ldr	r3, [pc, #208]	; (c610 <_usb_d_dev_ep_stall+0xe0>)
    c540:	4798      	blx	r3
    c542:	2d05      	cmp	r5, #5
    c544:	d861      	bhi.n	c60a <_usb_d_dev_ep_stall+0xda>
    c546:	2c01      	cmp	r4, #1
    c548:	d119      	bne.n	c57e <_usb_d_dev_ep_stall+0x4e>
    c54a:	7c83      	ldrb	r3, [r0, #18]
    c54c:	f003 030f 	and.w	r3, r3, #15
    c550:	0159      	lsls	r1, r3, #5
    c552:	2410      	movs	r4, #16
    c554:	4094      	lsls	r4, r2
    c556:	f101 4182 	add.w	r1, r1, #1090519040	; 0x41000000
    c55a:	b2e4      	uxtb	r4, r4
    c55c:	f881 4105 	strb.w	r4, [r1, #261]	; 0x105
    c560:	015b      	lsls	r3, r3, #5
    c562:	2120      	movs	r1, #32
    c564:	f103 4382 	add.w	r3, r3, #1090519040	; 0x41000000
    c568:	fa01 f202 	lsl.w	r2, r1, r2
    c56c:	b2d2      	uxtb	r2, r2
    c56e:	f883 2109 	strb.w	r2, [r3, #265]	; 0x109
    c572:	7cc3      	ldrb	r3, [r0, #19]
    c574:	f043 0308 	orr.w	r3, r3, #8
    c578:	74c3      	strb	r3, [r0, #19]
    c57a:	2000      	movs	r0, #0
    c57c:	bd38      	pop	{r3, r4, r5, pc}
    c57e:	bb9c      	cbnz	r4, c5e8 <_usb_d_dev_ep_stall+0xb8>
    c580:	7c81      	ldrb	r1, [r0, #18]
    c582:	f001 010f 	and.w	r1, r1, #15
    c586:	014b      	lsls	r3, r1, #5
    c588:	f103 4382 	add.w	r3, r3, #1090519040	; 0x41000000
    c58c:	2410      	movs	r4, #16
    c58e:	f893 5106 	ldrb.w	r5, [r3, #262]	; 0x106
    c592:	4094      	lsls	r4, r2
    c594:	4225      	tst	r5, r4
    c596:	d0f0      	beq.n	c57a <_usb_d_dev_ep_stall+0x4a>
    c598:	b2e4      	uxtb	r4, r4
    c59a:	f883 4104 	strb.w	r4, [r3, #260]	; 0x104
    c59e:	0149      	lsls	r1, r1, #5
    c5a0:	2420      	movs	r4, #32
    c5a2:	4094      	lsls	r4, r2
    c5a4:	f101 4182 	add.w	r1, r1, #1090519040	; 0x41000000
    c5a8:	b2e5      	uxtb	r5, r4
    c5aa:	f881 5108 	strb.w	r5, [r1, #264]	; 0x108
    c5ae:	f893 1107 	ldrb.w	r1, [r3, #263]	; 0x107
    c5b2:	4221      	tst	r1, r4
    c5b4:	d007      	beq.n	c5c6 <_usb_d_dev_ep_stall+0x96>
    c5b6:	2101      	movs	r1, #1
    c5b8:	fa01 f202 	lsl.w	r2, r1, r2
    c5bc:	b2d2      	uxtb	r2, r2
    c5be:	f883 5107 	strb.w	r5, [r3, #263]	; 0x107
    c5c2:	f883 2104 	strb.w	r2, [r3, #260]	; 0x104
    c5c6:	7cc2      	ldrb	r2, [r0, #19]
    c5c8:	f002 0107 	and.w	r1, r2, #7
    c5cc:	2901      	cmp	r1, #1
    c5ce:	d108      	bne.n	c5e2 <_usb_d_dev_ep_stall+0xb2>
    c5d0:	f893 3106 	ldrb.w	r3, [r3, #262]	; 0x106
    c5d4:	f013 0330 	ands.w	r3, r3, #48	; 0x30
    c5d8:	d1cf      	bne.n	c57a <_usb_d_dev_ep_stall+0x4a>
    c5da:	f363 02c3 	bfi	r2, r3, #3, #1
    c5de:	74c2      	strb	r2, [r0, #19]
    c5e0:	e7cb      	b.n	c57a <_usb_d_dev_ep_stall+0x4a>
    c5e2:	f36f 02c3 	bfc	r2, #3, #1
    c5e6:	e7fa      	b.n	c5de <_usb_d_dev_ep_stall+0xae>
    c5e8:	7c83      	ldrb	r3, [r0, #18]
    c5ea:	f003 030f 	and.w	r3, r3, #15
    c5ee:	015b      	lsls	r3, r3, #5
    c5f0:	f103 4382 	add.w	r3, r3, #1090519040	; 0x41000000
    c5f4:	f503 7380 	add.w	r3, r3, #256	; 0x100
    c5f8:	2010      	movs	r0, #16
    c5fa:	799b      	ldrb	r3, [r3, #6]
    c5fc:	fa00 f202 	lsl.w	r2, r0, r2
    c600:	421a      	tst	r2, r3
    c602:	bf14      	ite	ne
    c604:	2001      	movne	r0, #1
    c606:	2000      	moveq	r0, #0
    c608:	bd38      	pop	{r3, r4, r5, pc}
    c60a:	f06f 0011 	mvn.w	r0, #17
    c60e:	bd38      	pop	{r3, r4, r5, pc}
    c610:	0000b96d 	.word	0x0000b96d

0000c614 <_usb_d_dev_ep_read_req>:
    c614:	b530      	push	{r4, r5, lr}
    c616:	f000 000f 	and.w	r0, r0, #15
    c61a:	4b12      	ldr	r3, [pc, #72]	; (c664 <_usb_d_dev_ep_read_req+0x50>)
    c61c:	0142      	lsls	r2, r0, #5
    c61e:	189c      	adds	r4, r3, r2
    c620:	589d      	ldr	r5, [r3, r2]
    c622:	6864      	ldr	r4, [r4, #4]
    c624:	2805      	cmp	r0, #5
    c626:	f3c4 040d 	ubfx	r4, r4, #0, #14
    c62a:	d814      	bhi.n	c656 <_usb_d_dev_ep_read_req+0x42>
    c62c:	b199      	cbz	r1, c656 <_usb_d_dev_ep_read_req+0x42>
    c62e:	f102 4282 	add.w	r2, r2, #1090519040	; 0x41000000
    c632:	f892 3100 	ldrb.w	r3, [r2, #256]	; 0x100
    c636:	2b11      	cmp	r3, #17
    c638:	d110      	bne.n	c65c <_usb_d_dev_ep_read_req+0x48>
    c63a:	f892 3107 	ldrb.w	r3, [r2, #263]	; 0x107
    c63e:	f013 0010 	ands.w	r0, r3, #16
    c642:	d00d      	beq.n	c660 <_usb_d_dev_ep_read_req+0x4c>
    c644:	682b      	ldr	r3, [r5, #0]
    c646:	600b      	str	r3, [r1, #0]
    c648:	686b      	ldr	r3, [r5, #4]
    c64a:	604b      	str	r3, [r1, #4]
    c64c:	2310      	movs	r3, #16
    c64e:	f882 3107 	strb.w	r3, [r2, #263]	; 0x107
    c652:	4620      	mov	r0, r4
    c654:	bd30      	pop	{r4, r5, pc}
    c656:	f06f 0011 	mvn.w	r0, #17
    c65a:	bd30      	pop	{r4, r5, pc}
    c65c:	f06f 0012 	mvn.w	r0, #18
    c660:	bd30      	pop	{r4, r5, pc}
    c662:	bf00      	nop
    c664:	20000c54 	.word	0x20000c54

0000c668 <_usb_d_dev_ep_trans>:
    c668:	e92d 47f3 	stmdb	sp!, {r0, r1, r4, r5, r6, r7, r8, r9, sl, lr}
    c66c:	7a07      	ldrb	r7, [r0, #8]
    c66e:	4b3a      	ldr	r3, [pc, #232]	; (c758 <_usb_d_dev_ep_trans+0xf0>)
    c670:	f007 050f 	and.w	r5, r7, #15
    c674:	b27f      	sxtb	r7, r7
    c676:	ea4f 79d7 	mov.w	r9, r7, lsr #31
    c67a:	4680      	mov	r8, r0
    c67c:	4649      	mov	r1, r9
    c67e:	4628      	mov	r0, r5
    c680:	4798      	blx	r3
    c682:	8a02      	ldrh	r2, [r0, #16]
    c684:	f8d8 1004 	ldr.w	r1, [r8, #4]
    c688:	f240 33ff 	movw	r3, #1023	; 0x3ff
    c68c:	429a      	cmp	r2, r3
    c68e:	bf1a      	itte	ne
    c690:	f102 33ff 	addne.w	r3, r2, #4294967295
    c694:	b29b      	uxthne	r3, r3
    c696:	4613      	moveq	r3, r2
    c698:	2d05      	cmp	r5, #5
    c69a:	4604      	mov	r4, r0
    c69c:	ea03 0601 	and.w	r6, r3, r1
    c6a0:	d828      	bhi.n	c6f4 <_usb_d_dev_ep_trans+0x8c>
    c6a2:	f8d8 5000 	ldr.w	r5, [r8]
    c6a6:	f1b5 5f00 	cmp.w	r5, #536870912	; 0x20000000
    c6aa:	d30a      	bcc.n	c6c2 <_usb_d_dev_ep_trans+0x5a>
    c6ac:	4b2b      	ldr	r3, [pc, #172]	; (c75c <_usb_d_dev_ep_trans+0xf4>)
    c6ae:	1948      	adds	r0, r1, r5
    c6b0:	4298      	cmp	r0, r3
    c6b2:	d806      	bhi.n	c6c2 <_usb_d_dev_ep_trans+0x5a>
    c6b4:	f015 0503 	ands.w	r5, r5, #3
    c6b8:	d103      	bne.n	c6c2 <_usb_d_dev_ep_trans+0x5a>
    c6ba:	2f00      	cmp	r7, #0
    c6bc:	db05      	blt.n	c6ca <_usb_d_dev_ep_trans+0x62>
    c6be:	4291      	cmp	r1, r2
    c6c0:	d214      	bcs.n	c6ec <_usb_d_dev_ep_trans+0x84>
    c6c2:	68e3      	ldr	r3, [r4, #12]
    c6c4:	2b00      	cmp	r3, #0
    c6c6:	d041      	beq.n	c74c <_usb_d_dev_ep_trans+0xe4>
    c6c8:	2501      	movs	r5, #1
    c6ca:	7ce3      	ldrb	r3, [r4, #19]
    c6cc:	071b      	lsls	r3, r3, #28
    c6ce:	d440      	bmi.n	c752 <_usb_d_dev_ep_trans+0xea>
    c6d0:	4b23      	ldr	r3, [pc, #140]	; (c760 <_usb_d_dev_ep_trans+0xf8>)
    c6d2:	a801      	add	r0, sp, #4
    c6d4:	4798      	blx	r3
    c6d6:	7ce3      	ldrb	r3, [r4, #19]
    c6d8:	4a22      	ldr	r2, [pc, #136]	; (c764 <_usb_d_dev_ep_trans+0xfc>)
    c6da:	f013 0a40 	ands.w	sl, r3, #64	; 0x40
    c6de:	d00e      	beq.n	c6fe <_usb_d_dev_ep_trans+0x96>
    c6e0:	a801      	add	r0, sp, #4
    c6e2:	4790      	blx	r2
    c6e4:	2001      	movs	r0, #1
    c6e6:	b002      	add	sp, #8
    c6e8:	e8bd 87f0 	ldmia.w	sp!, {r4, r5, r6, r7, r8, r9, sl, pc}
    c6ec:	b12e      	cbz	r6, c6fa <_usb_d_dev_ep_trans+0x92>
    c6ee:	68e3      	ldr	r3, [r4, #12]
    c6f0:	2b00      	cmp	r3, #0
    c6f2:	d1ea      	bne.n	c6ca <_usb_d_dev_ep_trans+0x62>
    c6f4:	f06f 0011 	mvn.w	r0, #17
    c6f8:	e7f5      	b.n	c6e6 <_usb_d_dev_ep_trans+0x7e>
    c6fa:	4635      	mov	r5, r6
    c6fc:	e7e5      	b.n	c6ca <_usb_d_dev_ep_trans+0x62>
    c6fe:	f043 0340 	orr.w	r3, r3, #64	; 0x40
    c702:	74e3      	strb	r3, [r4, #19]
    c704:	a801      	add	r0, sp, #4
    c706:	4790      	blx	r2
    c708:	f8d8 3000 	ldr.w	r3, [r8]
    c70c:	6023      	str	r3, [r4, #0]
    c70e:	f8d8 3004 	ldr.w	r3, [r8, #4]
    c712:	6063      	str	r3, [r4, #4]
    c714:	7ce3      	ldrb	r3, [r4, #19]
    c716:	f8c4 a008 	str.w	sl, [r4, #8]
    c71a:	f369 13c7 	bfi	r3, r9, #7, #1
    c71e:	f365 1345 	bfi	r3, r5, #5, #1
    c722:	74e3      	strb	r3, [r4, #19]
    c724:	f898 3009 	ldrb.w	r3, [r8, #9]
    c728:	b113      	cbz	r3, c730 <_usb_d_dev_ep_trans+0xc8>
    c72a:	fab6 f386 	clz	r3, r6
    c72e:	095b      	lsrs	r3, r3, #5
    c730:	7ce2      	ldrb	r2, [r4, #19]
    c732:	2f00      	cmp	r7, #0
    c734:	f363 1204 	bfi	r2, r3, #4, #1
    c738:	4620      	mov	r0, r4
    c73a:	74e2      	strb	r2, [r4, #19]
    c73c:	f04f 0100 	mov.w	r1, #0
    c740:	bfb4      	ite	lt
    c742:	4b09      	ldrlt	r3, [pc, #36]	; (c768 <_usb_d_dev_ep_trans+0x100>)
    c744:	4b09      	ldrge	r3, [pc, #36]	; (c76c <_usb_d_dev_ep_trans+0x104>)
    c746:	4798      	blx	r3
    c748:	2000      	movs	r0, #0
    c74a:	e7cc      	b.n	c6e6 <_usb_d_dev_ep_trans+0x7e>
    c74c:	f06f 0012 	mvn.w	r0, #18
    c750:	e7c9      	b.n	c6e6 <_usb_d_dev_ep_trans+0x7e>
    c752:	2002      	movs	r0, #2
    c754:	e7c7      	b.n	c6e6 <_usb_d_dev_ep_trans+0x7e>
    c756:	bf00      	nop
    c758:	0000b96d 	.word	0x0000b96d
    c75c:	20041fff 	.word	0x20041fff
    c760:	00008cf5 	.word	0x00008cf5
    c764:	00008d03 	.word	0x00008d03
    c768:	0000bbe1 	.word	0x0000bbe1
    c76c:	0000bd39 	.word	0x0000bd39

0000c770 <_usb_d_dev_register_callback>:
    c770:	4b06      	ldr	r3, [pc, #24]	; (c78c <_usb_d_dev_register_callback+0x1c>)
    c772:	2900      	cmp	r1, #0
    c774:	bf08      	it	eq
    c776:	4619      	moveq	r1, r3
    c778:	2801      	cmp	r0, #1
    c77a:	d102      	bne.n	c782 <_usb_d_dev_register_callback+0x12>
    c77c:	4b04      	ldr	r3, [pc, #16]	; (c790 <_usb_d_dev_register_callback+0x20>)
    c77e:	6059      	str	r1, [r3, #4]
    c780:	4770      	bx	lr
    c782:	b908      	cbnz	r0, c788 <_usb_d_dev_register_callback+0x18>
    c784:	4b02      	ldr	r3, [pc, #8]	; (c790 <_usb_d_dev_register_callback+0x20>)
    c786:	6019      	str	r1, [r3, #0]
    c788:	4770      	bx	lr
    c78a:	bf00      	nop
    c78c:	0000b945 	.word	0x0000b945
    c790:	20000a24 	.word	0x20000a24

0000c794 <_usb_d_dev_register_ep_callback>:
    c794:	4b08      	ldr	r3, [pc, #32]	; (c7b8 <_usb_d_dev_register_ep_callback+0x24>)
    c796:	2900      	cmp	r1, #0
    c798:	bf08      	it	eq
    c79a:	4619      	moveq	r1, r3
    c79c:	b910      	cbnz	r0, c7a4 <_usb_d_dev_register_ep_callback+0x10>
    c79e:	4b07      	ldr	r3, [pc, #28]	; (c7bc <_usb_d_dev_register_ep_callback+0x28>)
    c7a0:	6099      	str	r1, [r3, #8]
    c7a2:	4770      	bx	lr
    c7a4:	2801      	cmp	r0, #1
    c7a6:	d102      	bne.n	c7ae <_usb_d_dev_register_ep_callback+0x1a>
    c7a8:	4b04      	ldr	r3, [pc, #16]	; (c7bc <_usb_d_dev_register_ep_callback+0x28>)
    c7aa:	60d9      	str	r1, [r3, #12]
    c7ac:	4770      	bx	lr
    c7ae:	2802      	cmp	r0, #2
    c7b0:	bf04      	itt	eq
    c7b2:	4b02      	ldreq	r3, [pc, #8]	; (c7bc <_usb_d_dev_register_ep_callback+0x28>)
    c7b4:	6119      	streq	r1, [r3, #16]
    c7b6:	4770      	bx	lr
    c7b8:	0000b945 	.word	0x0000b945
    c7bc:	20000a24 	.word	0x20000a24

0000c7c0 <USB_0_Handler>:
    c7c0:	4b00      	ldr	r3, [pc, #0]	; (c7c4 <USB_0_Handler+0x4>)
    c7c2:	4718      	bx	r3
    c7c4:	0000bee5 	.word	0x0000bee5

0000c7c8 <USB_1_Handler>:
    c7c8:	4b00      	ldr	r3, [pc, #0]	; (c7cc <USB_1_Handler+0x4>)
    c7ca:	4718      	bx	r3
    c7cc:	0000bee5 	.word	0x0000bee5

0000c7d0 <USB_2_Handler>:
    c7d0:	4b00      	ldr	r3, [pc, #0]	; (c7d4 <USB_2_Handler+0x4>)
    c7d2:	4718      	bx	r3
    c7d4:	0000bee5 	.word	0x0000bee5

0000c7d8 <USB_3_Handler>:
    c7d8:	4b00      	ldr	r3, [pc, #0]	; (c7dc <USB_3_Handler+0x4>)
    c7da:	4718      	bx	r3
    c7dc:	0000bee5 	.word	0x0000bee5

0000c7e0 <_wdt_init>:
    c7e0:	6803      	ldr	r3, [r0, #0]
    c7e2:	689a      	ldr	r2, [r3, #8]
    c7e4:	f012 0f0e 	tst.w	r2, #14
    c7e8:	d1fb      	bne.n	c7e2 <_wdt_init+0x2>
    c7ea:	781a      	ldrb	r2, [r3, #0]
    c7ec:	09d2      	lsrs	r2, r2, #7
    c7ee:	d115      	bne.n	c81c <_wdt_init+0x3c>
    c7f0:	689a      	ldr	r2, [r3, #8]
    c7f2:	f012 0f0e 	tst.w	r2, #14
    c7f6:	d1fb      	bne.n	c7f0 <_wdt_init+0x10>
    c7f8:	781a      	ldrb	r2, [r3, #0]
    c7fa:	0792      	lsls	r2, r2, #30
    c7fc:	d40e      	bmi.n	c81c <_wdt_init+0x3c>
    c7fe:	781a      	ldrb	r2, [r3, #0]
    c800:	f002 02fb 	and.w	r2, r2, #251	; 0xfb
    c804:	701a      	strb	r2, [r3, #0]
    c806:	6898      	ldr	r0, [r3, #8]
    c808:	f010 000e 	ands.w	r0, r0, #14
    c80c:	d1fb      	bne.n	c806 <_wdt_init+0x26>
    c80e:	785a      	ldrb	r2, [r3, #1]
    c810:	f002 02f0 	and.w	r2, r2, #240	; 0xf0
    c814:	f042 020b 	orr.w	r2, r2, #11
    c818:	705a      	strb	r2, [r3, #1]
    c81a:	4770      	bx	lr
    c81c:	f06f 0010 	mvn.w	r0, #16
    c820:	4770      	bx	lr
	...

0000c824 <RTC_Scheduler_ping_cb>:
    c824:	4a0e      	ldr	r2, [pc, #56]	; (c860 <RTC_Scheduler_ping_cb+0x3c>)
    c826:	7813      	ldrb	r3, [r2, #0]
    c828:	3301      	adds	r3, #1
    c82a:	b2db      	uxtb	r3, r3
    c82c:	7013      	strb	r3, [r2, #0]
    c82e:	7813      	ldrb	r3, [r2, #0]
    c830:	f003 0303 	and.w	r3, r3, #3
    c834:	2b02      	cmp	r3, #2
    c836:	f241 0218 	movw	r2, #4120	; 0x1018
    c83a:	d00a      	beq.n	c852 <RTC_Scheduler_ping_cb+0x2e>
    c83c:	2b03      	cmp	r3, #3
    c83e:	d00b      	beq.n	c858 <RTC_Scheduler_ping_cb+0x34>
    c840:	2b01      	cmp	r3, #1
    c842:	d003      	beq.n	c84c <RTC_Scheduler_ping_cb+0x28>
    c844:	4b07      	ldr	r3, [pc, #28]	; (c864 <RTC_Scheduler_ping_cb+0x40>)
    c846:	2101      	movs	r1, #1
    c848:	5499      	strb	r1, [r3, r2]
    c84a:	4770      	bx	lr
    c84c:	4906      	ldr	r1, [pc, #24]	; (c868 <RTC_Scheduler_ping_cb+0x44>)
    c84e:	548b      	strb	r3, [r1, r2]
    c850:	4770      	bx	lr
    c852:	2101      	movs	r1, #1
    c854:	4b05      	ldr	r3, [pc, #20]	; (c86c <RTC_Scheduler_ping_cb+0x48>)
    c856:	e7f7      	b.n	c848 <RTC_Scheduler_ping_cb+0x24>
    c858:	2101      	movs	r1, #1
    c85a:	4b05      	ldr	r3, [pc, #20]	; (c870 <RTC_Scheduler_ping_cb+0x4c>)
    c85c:	e7f4      	b.n	c848 <RTC_Scheduler_ping_cb+0x24>
    c85e:	bf00      	nop
    c860:	20000de4 	.word	0x20000de4
    c864:	20001298 	.word	0x20001298
    c868:	20006d38 	.word	0x20006d38
    c86c:	20004bfc 	.word	0x20004bfc
    c870:	20003bdc 	.word	0x20003bdc

0000c874 <RTC_Scheduler_report_cb>:
    c874:	4b01      	ldr	r3, [pc, #4]	; (c87c <RTC_Scheduler_report_cb+0x8>)
    c876:	2201      	movs	r2, #1
    c878:	705a      	strb	r2, [r3, #1]
    c87a:	4770      	bx	lr
    c87c:	20000de4 	.word	0x20000de4

0000c880 <RTC_Scheduler_heartbeat_cb>:
    c880:	b510      	push	{r4, lr}
    c882:	4c06      	ldr	r4, [pc, #24]	; (c89c <RTC_Scheduler_heartbeat_cb+0x1c>)
    c884:	4b06      	ldr	r3, [pc, #24]	; (c8a0 <RTC_Scheduler_heartbeat_cb+0x20>)
    c886:	6860      	ldr	r0, [r4, #4]
    c888:	2101      	movs	r1, #1
    c88a:	4798      	blx	r3
    c88c:	6863      	ldr	r3, [r4, #4]
    c88e:	4601      	mov	r1, r0
    c890:	e8bd 4010 	ldmia.w	sp!, {r4, lr}
    c894:	4618      	mov	r0, r3
    c896:	4b03      	ldr	r3, [pc, #12]	; (c8a4 <RTC_Scheduler_heartbeat_cb+0x24>)
    c898:	4718      	bx	r3
    c89a:	bf00      	nop
    c89c:	20007d58 	.word	0x20007d58
    c8a0:	00008567 	.word	0x00008567
    c8a4:	00008965 	.word	0x00008965

0000c8a8 <RTC_Scheduler_realtime_cb>:
    c8a8:	b537      	push	{r0, r1, r2, r4, r5, lr}
    c8aa:	4d11      	ldr	r5, [pc, #68]	; (c8f0 <RTC_Scheduler_realtime_cb+0x48>)
    c8ac:	4b11      	ldr	r3, [pc, #68]	; (c8f4 <RTC_Scheduler_realtime_cb+0x4c>)
    c8ae:	4628      	mov	r0, r5
    c8b0:	4798      	blx	r3
    c8b2:	4811      	ldr	r0, [pc, #68]	; (c8f8 <RTC_Scheduler_realtime_cb+0x50>)
    c8b4:	4b11      	ldr	r3, [pc, #68]	; (c8fc <RTC_Scheduler_realtime_cb+0x54>)
    c8b6:	4798      	blx	r3
    c8b8:	a801      	add	r0, sp, #4
    c8ba:	4b11      	ldr	r3, [pc, #68]	; (c900 <RTC_Scheduler_realtime_cb+0x58>)
    c8bc:	4798      	blx	r3
    c8be:	4a11      	ldr	r2, [pc, #68]	; (c904 <RTC_Scheduler_realtime_cb+0x5c>)
    c8c0:	f8d2 1100 	ldr.w	r1, [r2, #256]	; 0x100
    c8c4:	f8d2 3120 	ldr.w	r3, [r2, #288]	; 0x120
    c8c8:	f8d2 4110 	ldr.w	r4, [r2, #272]	; 0x110
    c8cc:	405c      	eors	r4, r3
    c8ce:	400c      	ands	r4, r1
    c8d0:	405c      	eors	r4, r3
    c8d2:	a801      	add	r0, sp, #4
    c8d4:	4b0c      	ldr	r3, [pc, #48]	; (c908 <RTC_Scheduler_realtime_cb+0x60>)
    c8d6:	4798      	blx	r3
    c8d8:	7aaa      	ldrb	r2, [r5, #10]
    c8da:	f484 6300 	eor.w	r3, r4, #2048	; 0x800
    c8de:	f3c3 23c0 	ubfx	r3, r3, #11, #1
    c8e2:	4293      	cmp	r3, r2
    c8e4:	bf1c      	itt	ne
    c8e6:	72ab      	strbne	r3, [r5, #10]
    c8e8:	7aab      	ldrbne	r3, [r5, #10]
    c8ea:	b003      	add	sp, #12
    c8ec:	bd30      	pop	{r4, r5, pc}
    c8ee:	bf00      	nop
    c8f0:	200032ec 	.word	0x200032ec
    c8f4:	00008087 	.word	0x00008087
    c8f8:	20003bb8 	.word	0x20003bb8
    c8fc:	00007c11 	.word	0x00007c11
    c900:	00008cf5 	.word	0x00008cf5
    c904:	41008000 	.word	0x41008000
    c908:	00008d03 	.word	0x00008d03

0000c90c <init_timer>:
    c90c:	b570      	push	{r4, r5, r6, lr}
    c90e:	4c18      	ldr	r4, [pc, #96]	; (c970 <init_timer+0x64>)
    c910:	4d18      	ldr	r5, [pc, #96]	; (c974 <init_timer+0x68>)
    c912:	4e19      	ldr	r6, [pc, #100]	; (c978 <init_timer+0x6c>)
    c914:	f44f 627a 	mov.w	r2, #4000	; 0xfa0
    c918:	6222      	str	r2, [r4, #32]
    c91a:	4a18      	ldr	r2, [pc, #96]	; (c97c <init_timer+0x70>)
    c91c:	6262      	str	r2, [r4, #36]	; 0x24
    c91e:	f44f 63c8 	mov.w	r3, #1600	; 0x640
    c922:	f240 6266 	movw	r2, #1638	; 0x666
    c926:	60e3      	str	r3, [r4, #12]
    c928:	6362      	str	r2, [r4, #52]	; 0x34
    c92a:	4b15      	ldr	r3, [pc, #84]	; (c980 <init_timer+0x74>)
    c92c:	4a15      	ldr	r2, [pc, #84]	; (c984 <init_timer+0x78>)
    c92e:	6123      	str	r3, [r4, #16]
    c930:	63a2      	str	r2, [r4, #56]	; 0x38
    c932:	2301      	movs	r3, #1
    c934:	4a14      	ldr	r2, [pc, #80]	; (c988 <init_timer+0x7c>)
    c936:	7523      	strb	r3, [r4, #20]
    c938:	1d21      	adds	r1, r4, #4
    c93a:	4628      	mov	r0, r5
    c93c:	f884 3028 	strb.w	r3, [r4, #40]	; 0x28
    c940:	f884 303c 	strb.w	r3, [r4, #60]	; 0x3c
    c944:	64a3      	str	r3, [r4, #72]	; 0x48
    c946:	f884 3050 	strb.w	r3, [r4, #80]	; 0x50
    c94a:	64e2      	str	r2, [r4, #76]	; 0x4c
    c94c:	47b0      	blx	r6
    c94e:	f104 0118 	add.w	r1, r4, #24
    c952:	4628      	mov	r0, r5
    c954:	47b0      	blx	r6
    c956:	f104 012c 	add.w	r1, r4, #44	; 0x2c
    c95a:	4628      	mov	r0, r5
    c95c:	47b0      	blx	r6
    c95e:	f104 0140 	add.w	r1, r4, #64	; 0x40
    c962:	4628      	mov	r0, r5
    c964:	47b0      	blx	r6
    c966:	4628      	mov	r0, r5
    c968:	4b08      	ldr	r3, [pc, #32]	; (c98c <init_timer+0x80>)
    c96a:	e8bd 4070 	ldmia.w	sp!, {r4, r5, r6, lr}
    c96e:	4718      	bx	r3
    c970:	20000de4 	.word	0x20000de4
    c974:	20000f80 	.word	0x20000f80
    c978:	00009289 	.word	0x00009289
    c97c:	0000c881 	.word	0x0000c881
    c980:	0000c825 	.word	0x0000c825
    c984:	0000c875 	.word	0x0000c875
    c988:	0000c8a9 	.word	0x0000c8a9
    c98c:	00009265 	.word	0x00009265

0000c990 <main>:
    c990:	e92d 4ff0 	stmdb	sp!, {r4, r5, r6, r7, r8, r9, sl, fp, lr}
    c994:	4b9c      	ldr	r3, [pc, #624]	; (cc08 <main+0x278>)
    c996:	4c9d      	ldr	r4, [pc, #628]	; (cc0c <main+0x27c>)
    c998:	f5ad 7d11 	sub.w	sp, sp, #580	; 0x244
    c99c:	4798      	blx	r3
    c99e:	499c      	ldr	r1, [pc, #624]	; (cc10 <main+0x280>)
    c9a0:	489c      	ldr	r0, [pc, #624]	; (cc14 <main+0x284>)
    c9a2:	47a0      	blx	r4
    c9a4:	499c      	ldr	r1, [pc, #624]	; (cc18 <main+0x288>)
    c9a6:	489b      	ldr	r0, [pc, #620]	; (cc14 <main+0x284>)
    c9a8:	47a0      	blx	r4
    c9aa:	4b9c      	ldr	r3, [pc, #624]	; (cc1c <main+0x28c>)
    c9ac:	4798      	blx	r3
    c9ae:	4b9c      	ldr	r3, [pc, #624]	; (cc20 <main+0x290>)
    c9b0:	4798      	blx	r3
    c9b2:	4b9c      	ldr	r3, [pc, #624]	; (cc24 <main+0x294>)
    c9b4:	4798      	blx	r3
    c9b6:	4b9c      	ldr	r3, [pc, #624]	; (cc28 <main+0x298>)
    c9b8:	4798      	blx	r3
    c9ba:	4b9c      	ldr	r3, [pc, #624]	; (cc2c <main+0x29c>)
    c9bc:	4798      	blx	r3
    c9be:	499c      	ldr	r1, [pc, #624]	; (cc30 <main+0x2a0>)
    c9c0:	4894      	ldr	r0, [pc, #592]	; (cc14 <main+0x284>)
    c9c2:	47a0      	blx	r4
    c9c4:	4b9b      	ldr	r3, [pc, #620]	; (cc34 <main+0x2a4>)
    c9c6:	4798      	blx	r3
    c9c8:	499b      	ldr	r1, [pc, #620]	; (cc38 <main+0x2a8>)
    c9ca:	4892      	ldr	r0, [pc, #584]	; (cc14 <main+0x284>)
    c9cc:	47a0      	blx	r4
    c9ce:	4b9b      	ldr	r3, [pc, #620]	; (cc3c <main+0x2ac>)
    c9d0:	4798      	blx	r3
    c9d2:	499b      	ldr	r1, [pc, #620]	; (cc40 <main+0x2b0>)
    c9d4:	488f      	ldr	r0, [pc, #572]	; (cc14 <main+0x284>)
    c9d6:	47a0      	blx	r4
    c9d8:	f04f 0b00 	mov.w	fp, #0
    c9dc:	f44f 72fa 	mov.w	r2, #500	; 0x1f4
    c9e0:	2100      	movs	r1, #0
    c9e2:	a813      	add	r0, sp, #76	; 0x4c
    c9e4:	4b97      	ldr	r3, [pc, #604]	; (cc44 <main+0x2b4>)
    c9e6:	4798      	blx	r3
    c9e8:	465c      	mov	r4, fp
    c9ea:	f8cd b014 	str.w	fp, [sp, #20]
    c9ee:	f8cd b010 	str.w	fp, [sp, #16]
    c9f2:	f8cd b00c 	str.w	fp, [sp, #12]
    c9f6:	f8cd b008 	str.w	fp, [sp, #8]
    c9fa:	9b05      	ldr	r3, [sp, #20]
    c9fc:	f8df 82e4 	ldr.w	r8, [pc, #740]	; cce4 <main+0x354>
    ca00:	2b00      	cmp	r3, #0
    ca02:	f000 8257 	beq.w	ceb4 <main+0x524>
    ca06:	4890      	ldr	r0, [pc, #576]	; (cc48 <main+0x2b8>)
    ca08:	47c0      	blx	r8
    ca0a:	f5b0 3f80 	cmp.w	r0, #65536	; 0x10000
    ca0e:	f240 8285 	bls.w	cf1c <main+0x58c>
    ca12:	f1bb 0f00 	cmp.w	fp, #0
    ca16:	f040 8281 	bne.w	cf1c <main+0x58c>
    ca1a:	f44f 73fa 	mov.w	r3, #500	; 0x1f4
    ca1e:	9301      	str	r3, [sp, #4]
    ca20:	23ff      	movs	r3, #255	; 0xff
    ca22:	461a      	mov	r2, r3
    ca24:	4619      	mov	r1, r3
    ca26:	4888      	ldr	r0, [pc, #544]	; (cc48 <main+0x2b8>)
    ca28:	4d88      	ldr	r5, [pc, #544]	; (cc4c <main+0x2bc>)
    ca2a:	f8cd b000 	str.w	fp, [sp]
    ca2e:	47a8      	blx	r5
    ca30:	4987      	ldr	r1, [pc, #540]	; (cc50 <main+0x2c0>)
    ca32:	4b88      	ldr	r3, [pc, #544]	; (cc54 <main+0x2c4>)
    ca34:	f8df a2b0 	ldr.w	sl, [pc, #688]	; cce8 <main+0x358>
    ca38:	f8df 92b0 	ldr.w	r9, [pc, #688]	; ccec <main+0x35c>
    ca3c:	a813      	add	r0, sp, #76	; 0x4c
    ca3e:	4798      	blx	r3
    ca40:	a813      	add	r0, sp, #76	; 0x4c
    ca42:	4b85      	ldr	r3, [pc, #532]	; (cc58 <main+0x2c8>)
    ca44:	4798      	blx	r3
    ca46:	465f      	mov	r7, fp
    ca48:	b285      	uxth	r5, r0
    ca4a:	f8da 3004 	ldr.w	r3, [sl, #4]
    ca4e:	f893 3038 	ldrb.w	r3, [r3, #56]	; 0x38
    ca52:	b2fe      	uxtb	r6, r7
    ca54:	42b3      	cmp	r3, r6
    ca56:	f200 816c 	bhi.w	cd32 <main+0x3a2>
    ca5a:	4629      	mov	r1, r5
    ca5c:	4b7f      	ldr	r3, [pc, #508]	; (cc5c <main+0x2cc>)
    ca5e:	a813      	add	r0, sp, #76	; 0x4c
    ca60:	4798      	blx	r3
    ca62:	2101      	movs	r1, #1
    ca64:	487e      	ldr	r0, [pc, #504]	; (cc60 <main+0x2d0>)
    ca66:	4b7f      	ldr	r3, [pc, #508]	; (cc64 <main+0x2d4>)
    ca68:	4798      	blx	r3
    ca6a:	f04f 0b02 	mov.w	fp, #2
    ca6e:	4876      	ldr	r0, [pc, #472]	; (cc48 <main+0x2b8>)
    ca70:	4b7d      	ldr	r3, [pc, #500]	; (cc68 <main+0x2d8>)
    ca72:	4798      	blx	r3
    ca74:	28ff      	cmp	r0, #255	; 0xff
    ca76:	d112      	bne.n	ca9e <main+0x10e>
    ca78:	4e7c      	ldr	r6, [pc, #496]	; (cc6c <main+0x2dc>)
    ca7a:	4b7d      	ldr	r3, [pc, #500]	; (cc70 <main+0x2e0>)
    ca7c:	6870      	ldr	r0, [r6, #4]
    ca7e:	210b      	movs	r1, #11
    ca80:	4798      	blx	r3
    ca82:	4605      	mov	r5, r0
    ca84:	4629      	mov	r1, r5
    ca86:	4b7b      	ldr	r3, [pc, #492]	; (cc74 <main+0x2e4>)
    ca88:	6870      	ldr	r0, [r6, #4]
    ca8a:	4798      	blx	r3
    ca8c:	6873      	ldr	r3, [r6, #4]
    ca8e:	b22d      	sxth	r5, r5
    ca90:	68d8      	ldr	r0, [r3, #12]
    ca92:	4b79      	ldr	r3, [pc, #484]	; (cc78 <main+0x2e8>)
    ca94:	ebc5 05c5 	rsb	r5, r5, r5, lsl #3
    ca98:	eb00 0085 	add.w	r0, r0, r5, lsl #2
    ca9c:	4798      	blx	r3
    ca9e:	9b02      	ldr	r3, [sp, #8]
    caa0:	4869      	ldr	r0, [pc, #420]	; (cc48 <main+0x2b8>)
    caa2:	3301      	adds	r3, #1
    caa4:	9302      	str	r3, [sp, #8]
    caa6:	47c0      	blx	r8
    caa8:	4b74      	ldr	r3, [pc, #464]	; (cc7c <main+0x2ec>)
    caaa:	785a      	ldrb	r2, [r3, #1]
    caac:	4682      	mov	sl, r0
    caae:	ad0b      	add	r5, sp, #44	; 0x2c
    cab0:	2a00      	cmp	r2, #0
    cab2:	d036      	beq.n	cb22 <main+0x192>
    cab4:	2600      	movs	r6, #0
    cab6:	705e      	strb	r6, [r3, #1]
    cab8:	2220      	movs	r2, #32
    caba:	4631      	mov	r1, r6
    cabc:	4628      	mov	r0, r5
    cabe:	4b61      	ldr	r3, [pc, #388]	; (cc44 <main+0x2b4>)
    cac0:	f8df 819c 	ldr.w	r8, [pc, #412]	; cc60 <main+0x2d0>
    cac4:	4f6e      	ldr	r7, [pc, #440]	; (cc80 <main+0x2f0>)
    cac6:	4798      	blx	r3
    cac8:	b2f1      	uxtb	r1, r6
    caca:	4640      	mov	r0, r8
    cacc:	47b8      	blx	r7
    cace:	f845 0026 	str.w	r0, [r5, r6, lsl #2]
    cad2:	3601      	adds	r6, #1
    cad4:	2e08      	cmp	r6, #8
    cad6:	d1f7      	bne.n	cac8 <main+0x138>
    cad8:	4861      	ldr	r0, [pc, #388]	; (cc60 <main+0x2d0>)
    cada:	4b6a      	ldr	r3, [pc, #424]	; (cc84 <main+0x2f4>)
    cadc:	4e4b      	ldr	r6, [pc, #300]	; (cc0c <main+0x27c>)
    cade:	4f6a      	ldr	r7, [pc, #424]	; (cc88 <main+0x2f8>)
    cae0:	f8df 820c 	ldr.w	r8, [pc, #524]	; ccf0 <main+0x360>
    cae4:	4798      	blx	r3
    cae6:	4869      	ldr	r0, [pc, #420]	; (cc8c <main+0x2fc>)
    cae8:	47b0      	blx	r6
    caea:	f04f 0900 	mov.w	r9, #0
    caee:	f855 1029 	ldr.w	r1, [r5, r9, lsl #2]
    caf2:	4638      	mov	r0, r7
    caf4:	47b0      	blx	r6
    caf6:	f1b9 0f07 	cmp.w	r9, #7
    cafa:	d001      	beq.n	cb00 <main+0x170>
    cafc:	4640      	mov	r0, r8
    cafe:	47b0      	blx	r6
    cb00:	f109 0901 	add.w	r9, r9, #1
    cb04:	f1b9 0f08 	cmp.w	r9, #8
    cb08:	d1f1      	bne.n	caee <main+0x15e>
    cb0a:	4b61      	ldr	r3, [pc, #388]	; (cc90 <main+0x300>)
    cb0c:	4861      	ldr	r0, [pc, #388]	; (cc94 <main+0x304>)
    cb0e:	4798      	blx	r3
    cb10:	9400      	str	r4, [sp, #0]
    cb12:	a902      	add	r1, sp, #8
    cb14:	2400      	movs	r4, #0
    cb16:	c90e      	ldmia	r1, {r1, r2, r3}
    cb18:	485f      	ldr	r0, [pc, #380]	; (cc98 <main+0x308>)
    cb1a:	47b0      	blx	r6
    cb1c:	9404      	str	r4, [sp, #16]
    cb1e:	9403      	str	r4, [sp, #12]
    cb20:	9402      	str	r4, [sp, #8]
    cb22:	2102      	movs	r1, #2
    cb24:	4f4f      	ldr	r7, [pc, #316]	; (cc64 <main+0x2d4>)
    cb26:	484e      	ldr	r0, [pc, #312]	; (cc60 <main+0x2d0>)
    cb28:	4e5c      	ldr	r6, [pc, #368]	; (cc9c <main+0x30c>)
    cb2a:	47b8      	blx	r7
    cb2c:	485c      	ldr	r0, [pc, #368]	; (cca0 <main+0x310>)
    cb2e:	47b0      	blx	r6
    cb30:	485c      	ldr	r0, [pc, #368]	; (cca4 <main+0x314>)
    cb32:	47b0      	blx	r6
    cb34:	485c      	ldr	r0, [pc, #368]	; (cca8 <main+0x318>)
    cb36:	47b0      	blx	r6
    cb38:	485c      	ldr	r0, [pc, #368]	; (ccac <main+0x31c>)
    cb3a:	47b0      	blx	r6
    cb3c:	2600      	movs	r6, #0
    cb3e:	2104      	movs	r1, #4
    cb40:	4628      	mov	r0, r5
    cb42:	4b5b      	ldr	r3, [pc, #364]	; (ccb0 <main+0x320>)
    cb44:	602e      	str	r6, [r5, #0]
    cb46:	606e      	str	r6, [r5, #4]
    cb48:	812e      	strh	r6, [r5, #8]
    cb4a:	4798      	blx	r3
    cb4c:	f44f 7100 	mov.w	r1, #512	; 0x200
    cb50:	4b58      	ldr	r3, [pc, #352]	; (ccb4 <main+0x324>)
    cb52:	4859      	ldr	r0, [pc, #356]	; (ccb8 <main+0x328>)
    cb54:	4798      	blx	r3
    cb56:	4858      	ldr	r0, [pc, #352]	; (ccb8 <main+0x328>)
    cb58:	4b3f      	ldr	r3, [pc, #252]	; (cc58 <main+0x2c8>)
    cb5a:	4798      	blx	r3
    cb5c:	b280      	uxth	r0, r0
    cb5e:	463d      	mov	r5, r7
    cb60:	2800      	cmp	r0, #0
    cb62:	f040 811b 	bne.w	cd9c <main+0x40c>
    cb66:	2103      	movs	r1, #3
    cb68:	483d      	ldr	r0, [pc, #244]	; (cc60 <main+0x2d0>)
    cb6a:	4e54      	ldr	r6, [pc, #336]	; (ccbc <main+0x32c>)
    cb6c:	47a8      	blx	r5
    cb6e:	4b54      	ldr	r3, [pc, #336]	; (ccc0 <main+0x330>)
    cb70:	4854      	ldr	r0, [pc, #336]	; (ccc4 <main+0x334>)
    cb72:	4798      	blx	r3
    cb74:	2104      	movs	r1, #4
    cb76:	483a      	ldr	r0, [pc, #232]	; (cc60 <main+0x2d0>)
    cb78:	47a8      	blx	r5
    cb7a:	2101      	movs	r1, #1
    cb7c:	4851      	ldr	r0, [pc, #324]	; (ccc4 <main+0x334>)
    cb7e:	47b0      	blx	r6
    cb80:	2100      	movs	r1, #0
    cb82:	4847      	ldr	r0, [pc, #284]	; (cca0 <main+0x310>)
    cb84:	47b0      	blx	r6
    cb86:	2100      	movs	r1, #0
    cb88:	4846      	ldr	r0, [pc, #280]	; (cca4 <main+0x314>)
    cb8a:	47b0      	blx	r6
    cb8c:	2100      	movs	r1, #0
    cb8e:	4846      	ldr	r0, [pc, #280]	; (cca8 <main+0x318>)
    cb90:	47b0      	blx	r6
    cb92:	2100      	movs	r1, #0
    cb94:	4845      	ldr	r0, [pc, #276]	; (ccac <main+0x31c>)
    cb96:	47b0      	blx	r6
    cb98:	2100      	movs	r1, #0
    cb9a:	484b      	ldr	r0, [pc, #300]	; (ccc8 <main+0x338>)
    cb9c:	47b0      	blx	r6
    cb9e:	2105      	movs	r1, #5
    cba0:	482f      	ldr	r0, [pc, #188]	; (cc60 <main+0x2d0>)
    cba2:	4e4a      	ldr	r6, [pc, #296]	; (cccc <main+0x33c>)
    cba4:	47a8      	blx	r5
    cba6:	483e      	ldr	r0, [pc, #248]	; (cca0 <main+0x310>)
    cba8:	47b0      	blx	r6
    cbaa:	483e      	ldr	r0, [pc, #248]	; (cca4 <main+0x314>)
    cbac:	47b0      	blx	r6
    cbae:	483e      	ldr	r0, [pc, #248]	; (cca8 <main+0x318>)
    cbb0:	47b0      	blx	r6
    cbb2:	483e      	ldr	r0, [pc, #248]	; (ccac <main+0x31c>)
    cbb4:	47b0      	blx	r6
    cbb6:	4b46      	ldr	r3, [pc, #280]	; (ccd0 <main+0x340>)
    cbb8:	4843      	ldr	r0, [pc, #268]	; (ccc8 <main+0x338>)
    cbba:	4798      	blx	r3
    cbbc:	4b45      	ldr	r3, [pc, #276]	; (ccd4 <main+0x344>)
    cbbe:	4841      	ldr	r0, [pc, #260]	; (ccc4 <main+0x334>)
    cbc0:	4798      	blx	r3
    cbc2:	2107      	movs	r1, #7
    cbc4:	4826      	ldr	r0, [pc, #152]	; (cc60 <main+0x2d0>)
    cbc6:	47a8      	blx	r5
    cbc8:	4d1f      	ldr	r5, [pc, #124]	; (cc48 <main+0x2b8>)
    cbca:	88ab      	ldrh	r3, [r5, #4]
    cbcc:	b29b      	uxth	r3, r3
    cbce:	2b00      	cmp	r3, #0
    cbd0:	f000 8092 	beq.w	ccf8 <main+0x368>
    cbd4:	88ab      	ldrh	r3, [r5, #4]
    cbd6:	3b01      	subs	r3, #1
    cbd8:	b29b      	uxth	r3, r3
    cbda:	80ab      	strh	r3, [r5, #4]
    cbdc:	4628      	mov	r0, r5
    cbde:	4b3e      	ldr	r3, [pc, #248]	; (ccd8 <main+0x348>)
    cbe0:	4798      	blx	r3
    cbe2:	2800      	cmp	r0, #0
    cbe4:	f040 80ea 	bne.w	cdbc <main+0x42c>
    cbe8:	4817      	ldr	r0, [pc, #92]	; (cc48 <main+0x2b8>)
    cbea:	4b3c      	ldr	r3, [pc, #240]	; (ccdc <main+0x34c>)
    cbec:	4e3c      	ldr	r6, [pc, #240]	; (cce0 <main+0x350>)
    cbee:	f8df 8104 	ldr.w	r8, [pc, #260]	; ccf4 <main+0x364>
    cbf2:	4798      	blx	r3
    cbf4:	2500      	movs	r5, #0
    cbf6:	4607      	mov	r7, r0
    cbf8:	7873      	ldrb	r3, [r6, #1]
    cbfa:	b2e9      	uxtb	r1, r5
    cbfc:	428b      	cmp	r3, r1
    cbfe:	f105 0501 	add.w	r5, r5, #1
    cc02:	f200 8130 	bhi.w	ce66 <main+0x4d6>
    cc06:	e077      	b.n	ccf8 <main+0x368>
    cc08:	000042d1 	.word	0x000042d1
    cc0c:	0000eb79 	.word	0x0000eb79
    cc10:	000107f8 	.word	0x000107f8
    cc14:	0000fe97 	.word	0x0000fe97
    cc18:	0001080a 	.word	0x0001080a
    cc1c:	000050c9 	.word	0x000050c9
    cc20:	0000d9d1 	.word	0x0000d9d1
    cc24:	0000e1a9 	.word	0x0000e1a9
    cc28:	00008ac1 	.word	0x00008ac1
    cc2c:	00008ad1 	.word	0x00008ad1
    cc30:	00010813 	.word	0x00010813
    cc34:	000069d5 	.word	0x000069d5
    cc38:	00010830 	.word	0x00010830
    cc3c:	0000c90d 	.word	0x0000c90d
    cc40:	00010848 	.word	0x00010848
    cc44:	0000ea0f 	.word	0x0000ea0f
    cc48:	200032ec 	.word	0x200032ec
    cc4c:	000080db 	.word	0x000080db
    cc50:	0001085b 	.word	0x0001085b
    cc54:	0000ee45 	.word	0x0000ee45
    cc58:	0000ee55 	.word	0x0000ee55
    cc5c:	0000d30d 	.word	0x0000d30d
    cc60:	20003bb8 	.word	0x20003bb8
    cc64:	00007c09 	.word	0x00007c09
    cc68:	00007f4d 	.word	0x00007f4d
    cc6c:	20007d58 	.word	0x20007d58
    cc70:	00008567 	.word	0x00008567
    cc74:	00008965 	.word	0x00008965
    cc78:	0000858d 	.word	0x0000858d
    cc7c:	20000de4 	.word	0x20000de4
    cc80:	00007c2f 	.word	0x00007c2f
    cc84:	00007c1f 	.word	0x00007c1f
    cc88:	000108b3 	.word	0x000108b3
    cc8c:	00010899 	.word	0x00010899
    cc90:	0000ec61 	.word	0x0000ec61
    cc94:	0001004c 	.word	0x0001004c
    cc98:	000108bb 	.word	0x000108bb
    cc9c:	00005a89 	.word	0x00005a89
    cca0:	20001298 	.word	0x20001298
    cca4:	20006d38 	.word	0x20006d38
    cca8:	20004bfc 	.word	0x20004bfc
    ccac:	20003bdc 	.word	0x20003bdc
    ccb0:	0000da3d 	.word	0x0000da3d
    ccb4:	0000d2e1 	.word	0x0000d2e1
    ccb8:	20006418 	.word	0x20006418
    ccbc:	00005e05 	.word	0x00005e05
    ccc0:	000085b1 	.word	0x000085b1
    ccc4:	200022c4 	.word	0x200022c4
    ccc8:	20005c1c 	.word	0x20005c1c
    cccc:	0000649d 	.word	0x0000649d
    ccd0:	00005fb1 	.word	0x00005fb1
    ccd4:	00006141 	.word	0x00006141
    ccd8:	0000808f 	.word	0x0000808f
    ccdc:	00008099 	.word	0x00008099
    cce0:	20007dcc 	.word	0x20007dcc
    cce4:	0000807d 	.word	0x0000807d
    cce8:	200032e0 	.word	0x200032e0
    ccec:	0001086b 	.word	0x0001086b
    ccf0:	000108b8 	.word	0x000108b8
    ccf4:	00006691 	.word	0x00006691
    ccf8:	2106      	movs	r1, #6
    ccfa:	4d8b      	ldr	r5, [pc, #556]	; (cf28 <main+0x598>)
    ccfc:	488b      	ldr	r0, [pc, #556]	; (cf2c <main+0x59c>)
    ccfe:	4e8c      	ldr	r6, [pc, #560]	; (cf30 <main+0x5a0>)
    cd00:	47a8      	blx	r5
    cd02:	488c      	ldr	r0, [pc, #560]	; (cf34 <main+0x5a4>)
    cd04:	4b8c      	ldr	r3, [pc, #560]	; (cf38 <main+0x5a8>)
    cd06:	4798      	blx	r3
    cd08:	488a      	ldr	r0, [pc, #552]	; (cf34 <main+0x5a4>)
    cd0a:	4b8c      	ldr	r3, [pc, #560]	; (cf3c <main+0x5ac>)
    cd0c:	4798      	blx	r3
    cd0e:	4b8c      	ldr	r3, [pc, #560]	; (cf40 <main+0x5b0>)
    cd10:	4888      	ldr	r0, [pc, #544]	; (cf34 <main+0x5a4>)
    cd12:	4798      	blx	r3
    cd14:	2100      	movs	r1, #0
    cd16:	4885      	ldr	r0, [pc, #532]	; (cf2c <main+0x59c>)
    cd18:	47a8      	blx	r5
    cd1a:	4651      	mov	r1, sl
    cd1c:	4889      	ldr	r0, [pc, #548]	; (cf44 <main+0x5b4>)
    cd1e:	47b0      	blx	r6
    cd20:	280f      	cmp	r0, #15
    cd22:	f240 80a5 	bls.w	ce70 <main+0x4e0>
    cd26:	9b03      	ldr	r3, [sp, #12]
    cd28:	3c10      	subs	r4, #16
    cd2a:	3301      	adds	r3, #1
    cd2c:	4404      	add	r4, r0
    cd2e:	9303      	str	r3, [sp, #12]
    cd30:	e0b9      	b.n	cea6 <main+0x516>
    cd32:	ab13      	add	r3, sp, #76	; 0x4c
    cd34:	eb03 0b05 	add.w	fp, r3, r5
    cd38:	4632      	mov	r2, r6
    cd3a:	4649      	mov	r1, r9
    cd3c:	4b82      	ldr	r3, [pc, #520]	; (cf48 <main+0x5b8>)
    cd3e:	4658      	mov	r0, fp
    cd40:	4798      	blx	r3
    cd42:	4b82      	ldr	r3, [pc, #520]	; (cf4c <main+0x5bc>)
    cd44:	4658      	mov	r0, fp
    cd46:	4798      	blx	r3
    cd48:	231c      	movs	r3, #28
    cd4a:	4405      	add	r5, r0
    cd4c:	b2ad      	uxth	r5, r5
    cd4e:	435e      	muls	r6, r3
    cd50:	ab13      	add	r3, sp, #76	; 0x4c
    cd52:	2200      	movs	r2, #0
    cd54:	442b      	add	r3, r5
    cd56:	f8da 0004 	ldr.w	r0, [sl, #4]
    cd5a:	6bc0      	ldr	r0, [r0, #60]	; 0x3c
    cd5c:	4430      	add	r0, r6
    cd5e:	b2d1      	uxtb	r1, r2
    cd60:	6840      	ldr	r0, [r0, #4]
    cd62:	4288      	cmp	r0, r1
    cd64:	f102 0201 	add.w	r2, r2, #1
    cd68:	d810      	bhi.n	cd8c <main+0x3fc>
    cd6a:	ab13      	add	r3, sp, #76	; 0x4c
    cd6c:	1958      	adds	r0, r3, r5
    cd6e:	4e77      	ldr	r6, [pc, #476]	; (cf4c <main+0x5bc>)
    cd70:	47b0      	blx	r6
    cd72:	4405      	add	r5, r0
    cd74:	b2ad      	uxth	r5, r5
    cd76:	ab13      	add	r3, sp, #76	; 0x4c
    cd78:	442b      	add	r3, r5
    cd7a:	4975      	ldr	r1, [pc, #468]	; (cf50 <main+0x5c0>)
    cd7c:	4a75      	ldr	r2, [pc, #468]	; (cf54 <main+0x5c4>)
    cd7e:	4618      	mov	r0, r3
    cd80:	4790      	blx	r2
    cd82:	47b0      	blx	r6
    cd84:	4405      	add	r5, r0
    cd86:	b2ad      	uxth	r5, r5
    cd88:	3701      	adds	r7, #1
    cd8a:	e65e      	b.n	ca4a <main+0xba>
    cd8c:	f8da 0004 	ldr.w	r0, [sl, #4]
    cd90:	6bc0      	ldr	r0, [r0, #60]	; 0x3c
    cd92:	4430      	add	r0, r6
    cd94:	6880      	ldr	r0, [r0, #8]
    cd96:	5c40      	ldrb	r0, [r0, r1]
    cd98:	5458      	strb	r0, [r3, r1]
    cd9a:	e7dc      	b.n	cd56 <main+0x3c6>
    cd9c:	4f6e      	ldr	r7, [pc, #440]	; (cf58 <main+0x5c8>)
    cd9e:	4b6f      	ldr	r3, [pc, #444]	; (cf5c <main+0x5cc>)
    cda0:	62be      	str	r6, [r7, #40]	; 0x28
    cda2:	1e82      	subs	r2, r0, #2
    cda4:	b292      	uxth	r2, r2
    cda6:	4631      	mov	r1, r6
    cda8:	4638      	mov	r0, r7
    cdaa:	4798      	blx	r3
    cdac:	4632      	mov	r2, r6
    cdae:	19bb      	adds	r3, r7, r6
    cdb0:	3601      	adds	r6, #1
    cdb2:	2e64      	cmp	r6, #100	; 0x64
    cdb4:	f883 27fc 	strb.w	r2, [r3, #2044]	; 0x7fc
    cdb8:	d1f9      	bne.n	cdae <main+0x41e>
    cdba:	e6d4      	b.n	cb66 <main+0x1d6>
    cdbc:	4628      	mov	r0, r5
    cdbe:	4b68      	ldr	r3, [pc, #416]	; (cf60 <main+0x5d0>)
    cdc0:	4798      	blx	r3
    cdc2:	4b68      	ldr	r3, [pc, #416]	; (cf64 <main+0x5d4>)
    cdc4:	4628      	mov	r0, r5
    cdc6:	4798      	blx	r3
    cdc8:	4b67      	ldr	r3, [pc, #412]	; (cf68 <main+0x5d8>)
    cdca:	9006      	str	r0, [sp, #24]
    cdcc:	4628      	mov	r0, r5
    cdce:	4798      	blx	r3
    cdd0:	4b66      	ldr	r3, [pc, #408]	; (cf6c <main+0x5dc>)
    cdd2:	9007      	str	r0, [sp, #28]
    cdd4:	4628      	mov	r0, r5
    cdd6:	4798      	blx	r3
    cdd8:	f04f 0900 	mov.w	r9, #0
    cddc:	9008      	str	r0, [sp, #32]
    cdde:	4855      	ldr	r0, [pc, #340]	; (cf34 <main+0x5a4>)
    cde0:	4b63      	ldr	r3, [pc, #396]	; (cf70 <main+0x5e0>)
    cde2:	4798      	blx	r3
    cde4:	fa5f f689 	uxtb.w	r6, r9
    cde8:	42b0      	cmp	r0, r6
    cdea:	f109 0901 	add.w	r9, r9, #1
    cdee:	f67f aefb 	bls.w	cbe8 <main+0x258>
    cdf2:	2500      	movs	r5, #0
    cdf4:	462a      	mov	r2, r5
    cdf6:	9501      	str	r5, [sp, #4]
    cdf8:	9500      	str	r5, [sp, #0]
    cdfa:	462b      	mov	r3, r5
    cdfc:	4631      	mov	r1, r6
    cdfe:	484d      	ldr	r0, [pc, #308]	; (cf34 <main+0x5a4>)
    ce00:	f8df 81ac 	ldr.w	r8, [pc, #428]	; cfb0 <main+0x620>
    ce04:	4f5b      	ldr	r7, [pc, #364]	; (cf74 <main+0x5e4>)
    ce06:	47c0      	blx	r8
    ce08:	9806      	ldr	r0, [sp, #24]
    ce0a:	4b5b      	ldr	r3, [pc, #364]	; (cf78 <main+0x5e8>)
    ce0c:	f8df 81a4 	ldr.w	r8, [pc, #420]	; cfb4 <main+0x624>
    ce10:	4798      	blx	r3
    ce12:	2200      	movs	r2, #0
    ce14:	4b59      	ldr	r3, [pc, #356]	; (cf7c <main+0x5ec>)
    ce16:	47b8      	blx	r7
    ce18:	47c0      	blx	r8
    ce1a:	b2c3      	uxtb	r3, r0
    ce1c:	9309      	str	r3, [sp, #36]	; 0x24
    ce1e:	9808      	ldr	r0, [sp, #32]
    ce20:	4b55      	ldr	r3, [pc, #340]	; (cf78 <main+0x5e8>)
    ce22:	4798      	blx	r3
    ce24:	2200      	movs	r2, #0
    ce26:	4b55      	ldr	r3, [pc, #340]	; (cf7c <main+0x5ec>)
    ce28:	47b8      	blx	r7
    ce2a:	47c0      	blx	r8
    ce2c:	b2c0      	uxtb	r0, r0
    ce2e:	9001      	str	r0, [sp, #4]
    ce30:	4b51      	ldr	r3, [pc, #324]	; (cf78 <main+0x5e8>)
    ce32:	9807      	ldr	r0, [sp, #28]
    ce34:	4798      	blx	r3
    ce36:	2200      	movs	r2, #0
    ce38:	4b50      	ldr	r3, [pc, #320]	; (cf7c <main+0x5ec>)
    ce3a:	47b8      	blx	r7
    ce3c:	47c0      	blx	r8
    ce3e:	b2c0      	uxtb	r0, r0
    ce40:	9000      	str	r0, [sp, #0]
    ce42:	9b09      	ldr	r3, [sp, #36]	; 0x24
    ce44:	483b      	ldr	r0, [pc, #236]	; (cf34 <main+0x5a4>)
    ce46:	f8df 8170 	ldr.w	r8, [pc, #368]	; cfb8 <main+0x628>
    ce4a:	462a      	mov	r2, r5
    ce4c:	4631      	mov	r1, r6
    ce4e:	47c0      	blx	r8
    ce50:	9b08      	ldr	r3, [sp, #32]
    ce52:	9301      	str	r3, [sp, #4]
    ce54:	9b07      	ldr	r3, [sp, #28]
    ce56:	9300      	str	r3, [sp, #0]
    ce58:	462a      	mov	r2, r5
    ce5a:	9b06      	ldr	r3, [sp, #24]
    ce5c:	4835      	ldr	r0, [pc, #212]	; (cf34 <main+0x5a4>)
    ce5e:	4d48      	ldr	r5, [pc, #288]	; (cf80 <main+0x5f0>)
    ce60:	4631      	mov	r1, r6
    ce62:	47a8      	blx	r5
    ce64:	e7bb      	b.n	cdde <main+0x44e>
    ce66:	463b      	mov	r3, r7
    ce68:	2200      	movs	r2, #0
    ce6a:	4630      	mov	r0, r6
    ce6c:	47c0      	blx	r8
    ce6e:	e6c3      	b.n	cbf8 <main+0x268>
    ce70:	2c05      	cmp	r4, #5
    ce72:	d910      	bls.n	ce96 <main+0x506>
    ce74:	f1c0 0310 	rsb	r3, r0, #16
    ce78:	429c      	cmp	r4, r3
    ce7a:	bf84      	itt	hi
    ce7c:	f1aa 0310 	subhi.w	r3, sl, #16
    ce80:	eb03 0a00 	addhi.w	sl, r3, r0
    ce84:	9b04      	ldr	r3, [sp, #16]
    ce86:	bf88      	it	hi
    ce88:	3c10      	subhi	r4, #16
    ce8a:	f103 0301 	add.w	r3, r3, #1
    ce8e:	bf8c      	ite	hi
    ce90:	1824      	addhi	r4, r4, r0
    ce92:	2400      	movls	r4, #0
    ce94:	9304      	str	r3, [sp, #16]
    ce96:	4f2b      	ldr	r7, [pc, #172]	; (cf44 <main+0x5b4>)
    ce98:	f8df 8120 	ldr.w	r8, [pc, #288]	; cfbc <main+0x62c>
    ce9c:	4651      	mov	r1, sl
    ce9e:	4638      	mov	r0, r7
    cea0:	47b0      	blx	r6
    cea2:	280f      	cmp	r0, #15
    cea4:	d903      	bls.n	ceae <main+0x51e>
    cea6:	2101      	movs	r1, #1
    cea8:	4820      	ldr	r0, [pc, #128]	; (cf2c <main+0x59c>)
    ceaa:	47a8      	blx	r5
    ceac:	e5a5      	b.n	c9fa <main+0x6a>
    ceae:	2001      	movs	r0, #1
    ceb0:	47c0      	blx	r8
    ceb2:	e7f3      	b.n	ce9c <main+0x50c>
    ceb4:	4b1c      	ldr	r3, [pc, #112]	; (cf28 <main+0x598>)
    ceb6:	481d      	ldr	r0, [pc, #116]	; (cf2c <main+0x59c>)
    ceb8:	2101      	movs	r1, #1
    ceba:	4798      	blx	r3
    cebc:	4b31      	ldr	r3, [pc, #196]	; (cf84 <main+0x5f4>)
    cebe:	4798      	blx	r3
    cec0:	2800      	cmp	r0, #0
    cec2:	f43f add4 	beq.w	ca6e <main+0xde>
    cec6:	f44f 73fa 	mov.w	r3, #500	; 0x1f4
    ceca:	9301      	str	r3, [sp, #4]
    cecc:	2300      	movs	r3, #0
    cece:	22ff      	movs	r2, #255	; 0xff
    ced0:	4619      	mov	r1, r3
    ced2:	9300      	str	r3, [sp, #0]
    ced4:	481b      	ldr	r0, [pc, #108]	; (cf44 <main+0x5b4>)
    ced6:	4d2c      	ldr	r5, [pc, #176]	; (cf88 <main+0x5f8>)
    ced8:	4e2c      	ldr	r6, [pc, #176]	; (cf8c <main+0x5fc>)
    ceda:	47a8      	blx	r5
    cedc:	492c      	ldr	r1, [pc, #176]	; (cf90 <main+0x600>)
    cede:	4b2d      	ldr	r3, [pc, #180]	; (cf94 <main+0x604>)
    cee0:	482d      	ldr	r0, [pc, #180]	; (cf98 <main+0x608>)
    cee2:	4798      	blx	r3
    cee4:	4b2d      	ldr	r3, [pc, #180]	; (cf9c <main+0x60c>)
    cee6:	4817      	ldr	r0, [pc, #92]	; (cf44 <main+0x5b4>)
    cee8:	4798      	blx	r3
    ceea:	4b2d      	ldr	r3, [pc, #180]	; (cfa0 <main+0x610>)
    ceec:	4601      	mov	r1, r0
    ceee:	4815      	ldr	r0, [pc, #84]	; (cf44 <main+0x5b4>)
    cef0:	4798      	blx	r3
    cef2:	210a      	movs	r1, #10
    cef4:	4b2b      	ldr	r3, [pc, #172]	; (cfa4 <main+0x614>)
    cef6:	6870      	ldr	r0, [r6, #4]
    cef8:	4798      	blx	r3
    cefa:	4605      	mov	r5, r0
    cefc:	4629      	mov	r1, r5
    cefe:	4b2a      	ldr	r3, [pc, #168]	; (cfa8 <main+0x618>)
    cf00:	6870      	ldr	r0, [r6, #4]
    cf02:	4798      	blx	r3
    cf04:	6873      	ldr	r3, [r6, #4]
    cf06:	b22d      	sxth	r5, r5
    cf08:	68d8      	ldr	r0, [r3, #12]
    cf0a:	4b28      	ldr	r3, [pc, #160]	; (cfac <main+0x61c>)
    cf0c:	ebc5 05c5 	rsb	r5, r5, r5, lsl #3
    cf10:	eb00 0085 	add.w	r0, r0, r5, lsl #2
    cf14:	4798      	blx	r3
    cf16:	2301      	movs	r3, #1
    cf18:	9305      	str	r3, [sp, #20]
    cf1a:	e5a8      	b.n	ca6e <main+0xde>
    cf1c:	2101      	movs	r1, #1
    cf1e:	4b02      	ldr	r3, [pc, #8]	; (cf28 <main+0x598>)
    cf20:	4802      	ldr	r0, [pc, #8]	; (cf2c <main+0x59c>)
    cf22:	4798      	blx	r3
    cf24:	e5a3      	b.n	ca6e <main+0xde>
    cf26:	bf00      	nop
    cf28:	00007c09 	.word	0x00007c09
    cf2c:	20003bb8 	.word	0x20003bb8
    cf30:	00008081 	.word	0x00008081
    cf34:	20007dcc 	.word	0x20007dcc
    cf38:	00006591 	.word	0x00006591
    cf3c:	00006985 	.word	0x00006985
    cf40:	000069a5 	.word	0x000069a5
    cf44:	200032ec 	.word	0x200032ec
    cf48:	0000edfd 	.word	0x0000edfd
    cf4c:	0000ee55 	.word	0x0000ee55
    cf50:	0000ff1c 	.word	0x0000ff1c
    cf54:	0000ee45 	.word	0x0000ee45
    cf58:	20005c1c 	.word	0x20005c1c
    cf5c:	00005565 	.word	0x00005565
    cf60:	00008093 	.word	0x00008093
    cf64:	000080f5 	.word	0x000080f5
    cf68:	000080f9 	.word	0x000080f9
    cf6c:	000080fd 	.word	0x000080fd
    cf70:	0000658d 	.word	0x0000658d
    cf74:	0000e53d 	.word	0x0000e53d
    cf78:	0000e471 	.word	0x0000e471
    cf7c:	3fe00000 	.word	0x3fe00000
    cf80:	00006605 	.word	0x00006605
    cf84:	0000980d 	.word	0x0000980d
    cf88:	000080db 	.word	0x000080db
    cf8c:	20007d58 	.word	0x20007d58
    cf90:	0001087e 	.word	0x0001087e
    cf94:	0000eb79 	.word	0x0000eb79
    cf98:	0000fe97 	.word	0x0000fe97
    cf9c:	00007f5d 	.word	0x00007f5d
    cfa0:	00007f81 	.word	0x00007f81
    cfa4:	00008567 	.word	0x00008567
    cfa8:	00008965 	.word	0x00008965
    cfac:	0000858d 	.word	0x0000858d
    cfb0:	000065c5 	.word	0x000065c5
    cfb4:	0000e961 	.word	0x0000e961
    cfb8:	000065e5 	.word	0x000065e5
    cfbc:	00008d29 	.word	0x00008d29

0000cfc0 <_read>:
    cfc0:	b508      	push	{r3, lr}
    cfc2:	460b      	mov	r3, r1
    cfc4:	b930      	cbnz	r0, cfd4 <_read+0x14>
    cfc6:	4611      	mov	r1, r2
    cfc8:	4618      	mov	r0, r3
    cfca:	4b04      	ldr	r3, [pc, #16]	; (cfdc <_read+0x1c>)
    cfcc:	4798      	blx	r3
    cfce:	ea40 70e0 	orr.w	r0, r0, r0, asr #31
    cfd2:	bd08      	pop	{r3, pc}
    cfd4:	f04f 30ff 	mov.w	r0, #4294967295
    cfd8:	bd08      	pop	{r3, pc}
    cfda:	bf00      	nop
    cfdc:	0000d031 	.word	0x0000d031

0000cfe0 <_write>:
    cfe0:	3801      	subs	r0, #1
    cfe2:	2802      	cmp	r0, #2
    cfe4:	b508      	push	{r3, lr}
    cfe6:	460b      	mov	r3, r1
    cfe8:	d806      	bhi.n	cff8 <_write+0x18>
    cfea:	4611      	mov	r1, r2
    cfec:	4618      	mov	r0, r3
    cfee:	4b04      	ldr	r3, [pc, #16]	; (d000 <_write+0x20>)
    cff0:	4798      	blx	r3
    cff2:	ea40 70e0 	orr.w	r0, r0, r0, asr #31
    cff6:	bd08      	pop	{r3, pc}
    cff8:	f04f 30ff 	mov.w	r0, #4294967295
    cffc:	bd08      	pop	{r3, pc}
    cffe:	bf00      	nop
    d000:	0000d04d 	.word	0x0000d04d

0000d004 <stdio_io_init>:
    d004:	b570      	push	{r4, r5, r6, lr}
    d006:	4d07      	ldr	r5, [pc, #28]	; (d024 <stdio_io_init+0x20>)
    d008:	4c07      	ldr	r4, [pc, #28]	; (d028 <stdio_io_init+0x24>)
    d00a:	682b      	ldr	r3, [r5, #0]
    d00c:	4606      	mov	r6, r0
    d00e:	2100      	movs	r1, #0
    d010:	6898      	ldr	r0, [r3, #8]
    d012:	47a0      	blx	r4
    d014:	682b      	ldr	r3, [r5, #0]
    d016:	2100      	movs	r1, #0
    d018:	6858      	ldr	r0, [r3, #4]
    d01a:	47a0      	blx	r4
    d01c:	4b03      	ldr	r3, [pc, #12]	; (d02c <stdio_io_init+0x28>)
    d01e:	601e      	str	r6, [r3, #0]
    d020:	bd70      	pop	{r4, r5, r6, pc}
    d022:	bf00      	nop
    d024:	20000548 	.word	0x20000548
    d028:	0000ec91 	.word	0x0000ec91
    d02c:	20000e3c 	.word	0x20000e3c

0000d030 <stdio_io_read>:
    d030:	4a04      	ldr	r2, [pc, #16]	; (d044 <stdio_io_read+0x14>)
    d032:	4603      	mov	r3, r0
    d034:	6810      	ldr	r0, [r2, #0]
    d036:	b118      	cbz	r0, d040 <stdio_io_read+0x10>
    d038:	b28a      	uxth	r2, r1
    d03a:	4619      	mov	r1, r3
    d03c:	4b02      	ldr	r3, [pc, #8]	; (d048 <stdio_io_read+0x18>)
    d03e:	4718      	bx	r3
    d040:	4770      	bx	lr
    d042:	bf00      	nop
    d044:	20000e3c 	.word	0x20000e3c
    d048:	00008e81 	.word	0x00008e81

0000d04c <stdio_io_write>:
    d04c:	4a04      	ldr	r2, [pc, #16]	; (d060 <stdio_io_write+0x14>)
    d04e:	4603      	mov	r3, r0
    d050:	6810      	ldr	r0, [r2, #0]
    d052:	b118      	cbz	r0, d05c <stdio_io_write+0x10>
    d054:	b28a      	uxth	r2, r1
    d056:	4619      	mov	r1, r3
    d058:	4b02      	ldr	r3, [pc, #8]	; (d064 <stdio_io_write+0x18>)
    d05a:	4718      	bx	r3
    d05c:	4770      	bx	lr
    d05e:	bf00      	nop
    d060:	20000e3c 	.word	0x20000e3c
    d064:	00008e7d 	.word	0x00008e7d

0000d068 <stdio_redirect_init>:
    d068:	b510      	push	{r4, lr}
    d06a:	4c04      	ldr	r4, [pc, #16]	; (d07c <stdio_redirect_init+0x14>)
    d06c:	4b04      	ldr	r3, [pc, #16]	; (d080 <stdio_redirect_init+0x18>)
    d06e:	4620      	mov	r0, r4
    d070:	4798      	blx	r3
    d072:	4620      	mov	r0, r4
    d074:	4b03      	ldr	r3, [pc, #12]	; (d084 <stdio_redirect_init+0x1c>)
    d076:	e8bd 4010 	ldmia.w	sp!, {r4, lr}
    d07a:	4718      	bx	r3
    d07c:	20001038 	.word	0x20001038
    d080:	00009585 	.word	0x00009585
    d084:	0000d005 	.word	0x0000d005

0000d088 <cdcdf_acm_req>:
    d088:	e92d 41f3 	stmdb	sp!, {r0, r1, r4, r5, r6, r7, r8, lr}
    d08c:	4616      	mov	r6, r2
    d08e:	780a      	ldrb	r2, [r1, #0]
    d090:	f3c2 1341 	ubfx	r3, r2, #5, #2
    d094:	2b01      	cmp	r3, #1
    d096:	4607      	mov	r7, r0
    d098:	460c      	mov	r4, r1
    d09a:	d155      	bne.n	d148 <cdcdf_acm_req+0xc0>
    d09c:	4b2d      	ldr	r3, [pc, #180]	; (d154 <cdcdf_acm_req+0xcc>)
    d09e:	8889      	ldrh	r1, [r1, #4]
    d0a0:	7818      	ldrb	r0, [r3, #0]
    d0a2:	4288      	cmp	r0, r1
    d0a4:	461d      	mov	r5, r3
    d0a6:	d002      	beq.n	d0ae <cdcdf_acm_req+0x26>
    d0a8:	785b      	ldrb	r3, [r3, #1]
    d0aa:	428b      	cmp	r3, r1
    d0ac:	d14c      	bne.n	d148 <cdcdf_acm_req+0xc0>
    d0ae:	0613      	lsls	r3, r2, #24
    d0b0:	d50f      	bpl.n	d0d2 <cdcdf_acm_req+0x4a>
    d0b2:	2e01      	cmp	r6, #1
    d0b4:	d035      	beq.n	d122 <cdcdf_acm_req+0x9a>
    d0b6:	7863      	ldrb	r3, [r4, #1]
    d0b8:	2b21      	cmp	r3, #33	; 0x21
    d0ba:	d114      	bne.n	d0e6 <cdcdf_acm_req+0x5e>
    d0bc:	88e2      	ldrh	r2, [r4, #6]
    d0be:	2a07      	cmp	r2, #7
    d0c0:	d145      	bne.n	d14e <cdcdf_acm_req+0xc6>
    d0c2:	4925      	ldr	r1, [pc, #148]	; (d158 <cdcdf_acm_req+0xd0>)
    d0c4:	2300      	movs	r3, #0
    d0c6:	4638      	mov	r0, r7
    d0c8:	4c24      	ldr	r4, [pc, #144]	; (d15c <cdcdf_acm_req+0xd4>)
    d0ca:	47a0      	blx	r4
    d0cc:	b002      	add	sp, #8
    d0ce:	e8bd 81f0 	ldmia.w	sp!, {r4, r5, r6, r7, r8, pc}
    d0d2:	4b23      	ldr	r3, [pc, #140]	; (d160 <cdcdf_acm_req+0xd8>)
    d0d4:	f8b4 8006 	ldrh.w	r8, [r4, #6]
    d0d8:	4798      	blx	r3
    d0da:	7863      	ldrb	r3, [r4, #1]
    d0dc:	2b20      	cmp	r3, #32
    d0de:	4601      	mov	r1, r0
    d0e0:	d004      	beq.n	d0ec <cdcdf_acm_req+0x64>
    d0e2:	2b22      	cmp	r3, #34	; 0x22
    d0e4:	d024      	beq.n	d130 <cdcdf_acm_req+0xa8>
    d0e6:	f06f 000c 	mvn.w	r0, #12
    d0ea:	e7ef      	b.n	d0cc <cdcdf_acm_req+0x44>
    d0ec:	f1b8 0f07 	cmp.w	r8, #7
    d0f0:	d12d      	bne.n	d14e <cdcdf_acm_req+0xc6>
    d0f2:	b916      	cbnz	r6, d0fa <cdcdf_acm_req+0x72>
    d0f4:	4633      	mov	r3, r6
    d0f6:	4642      	mov	r2, r8
    d0f8:	e7e5      	b.n	d0c6 <cdcdf_acm_req+0x3e>
    d0fa:	6800      	ldr	r0, [r0, #0]
    d0fc:	9000      	str	r0, [sp, #0]
    d0fe:	798b      	ldrb	r3, [r1, #6]
    d100:	888a      	ldrh	r2, [r1, #4]
    d102:	f88d 3006 	strb.w	r3, [sp, #6]
    d106:	692b      	ldr	r3, [r5, #16]
    d108:	f8ad 2004 	strh.w	r2, [sp, #4]
    d10c:	b95b      	cbnz	r3, d126 <cdcdf_acm_req+0x9e>
    d10e:	4b12      	ldr	r3, [pc, #72]	; (d158 <cdcdf_acm_req+0xd0>)
    d110:	9800      	ldr	r0, [sp, #0]
    d112:	f8bd 1004 	ldrh.w	r1, [sp, #4]
    d116:	f89d 2006 	ldrb.w	r2, [sp, #6]
    d11a:	f8c5 0006 	str.w	r0, [r5, #6]
    d11e:	8099      	strh	r1, [r3, #4]
    d120:	719a      	strb	r2, [r3, #6]
    d122:	2000      	movs	r0, #0
    d124:	e7d2      	b.n	d0cc <cdcdf_acm_req+0x44>
    d126:	4668      	mov	r0, sp
    d128:	4798      	blx	r3
    d12a:	2800      	cmp	r0, #0
    d12c:	d1ef      	bne.n	d10e <cdcdf_acm_req+0x86>
    d12e:	e7f8      	b.n	d122 <cdcdf_acm_req+0x9a>
    d130:	2300      	movs	r3, #0
    d132:	461a      	mov	r2, r3
    d134:	4619      	mov	r1, r3
    d136:	4618      	mov	r0, r3
    d138:	4e08      	ldr	r6, [pc, #32]	; (d15c <cdcdf_acm_req+0xd4>)
    d13a:	47b0      	blx	r6
    d13c:	696b      	ldr	r3, [r5, #20]
    d13e:	2b00      	cmp	r3, #0
    d140:	d0ef      	beq.n	d122 <cdcdf_acm_req+0x9a>
    d142:	8860      	ldrh	r0, [r4, #2]
    d144:	4798      	blx	r3
    d146:	e7ec      	b.n	d122 <cdcdf_acm_req+0x9a>
    d148:	f06f 0009 	mvn.w	r0, #9
    d14c:	e7be      	b.n	d0cc <cdcdf_acm_req+0x44>
    d14e:	f04f 30ff 	mov.w	r0, #4294967295
    d152:	e7bb      	b.n	d0cc <cdcdf_acm_req+0x44>
    d154:	20000e40 	.word	0x20000e40
    d158:	20000e46 	.word	0x20000e46
    d15c:	0000dbf5 	.word	0x0000dbf5
    d160:	0000dff9 	.word	0x0000dff9

0000d164 <cdcdf_acm_ctrl>:
    d164:	2901      	cmp	r1, #1
    d166:	e92d 4ff8 	stmdb	sp!, {r3, r4, r5, r6, r7, r8, r9, sl, fp, lr}
    d16a:	4615      	mov	r5, r2
    d16c:	d054      	beq.n	d218 <cdcdf_acm_ctrl+0xb4>
    d16e:	d307      	bcc.n	d180 <cdcdf_acm_ctrl+0x1c>
    d170:	2902      	cmp	r1, #2
    d172:	bf0c      	ite	eq
    d174:	f06f 001a 	mvneq.w	r0, #26
    d178:	f06f 000c 	mvnne.w	r0, #12
    d17c:	e8bd 8ff8 	ldmia.w	sp!, {r3, r4, r5, r6, r7, r8, r9, sl, fp, pc}
    d180:	6887      	ldr	r7, [r0, #8]
    d182:	f8df 8110 	ldr.w	r8, [pc, #272]	; d294 <cdcdf_acm_ctrl+0x130>
    d186:	6810      	ldr	r0, [r2, #0]
    d188:	1e7e      	subs	r6, r7, #1
    d18a:	f107 0a01 	add.w	sl, r7, #1
    d18e:	b918      	cbnz	r0, d198 <cdcdf_acm_ctrl+0x34>
    d190:	f06f 0009 	mvn.w	r0, #9
    d194:	e8bd 8ff8 	ldmia.w	sp!, {r3, r4, r5, r6, r7, r8, r9, sl, fp, pc}
    d198:	7943      	ldrb	r3, [r0, #5]
    d19a:	7882      	ldrb	r2, [r0, #2]
    d19c:	f003 03f7 	and.w	r3, r3, #247	; 0xf7
    d1a0:	2b02      	cmp	r3, #2
    d1a2:	d1f5      	bne.n	d190 <cdcdf_acm_ctrl+0x2c>
    d1a4:	f816 3f01 	ldrb.w	r3, [r6, #1]!
    d1a8:	429a      	cmp	r2, r3
    d1aa:	d05f      	beq.n	d26c <cdcdf_acm_ctrl+0x108>
    d1ac:	2bff      	cmp	r3, #255	; 0xff
    d1ae:	d161      	bne.n	d274 <cdcdf_acm_ctrl+0x110>
    d1b0:	7032      	strb	r2, [r6, #0]
    d1b2:	6869      	ldr	r1, [r5, #4]
    d1b4:	f8df 90e0 	ldr.w	r9, [pc, #224]	; d298 <cdcdf_acm_ctrl+0x134>
    d1b8:	2205      	movs	r2, #5
    d1ba:	47c0      	blx	r8
    d1bc:	4604      	mov	r4, r0
    d1be:	b96c      	cbnz	r4, d1dc <cdcdf_acm_ctrl+0x78>
    d1c0:	682b      	ldr	r3, [r5, #0]
    d1c2:	6869      	ldr	r1, [r5, #4]
    d1c4:	7818      	ldrb	r0, [r3, #0]
    d1c6:	2204      	movs	r2, #4
    d1c8:	4418      	add	r0, r3
    d1ca:	47c0      	blx	r8
    d1cc:	45b2      	cmp	sl, r6
    d1ce:	d1de      	bne.n	d18e <cdcdf_acm_ctrl+0x2a>
    d1d0:	4b2c      	ldr	r3, [pc, #176]	; (d284 <cdcdf_acm_ctrl+0x120>)
    d1d2:	2201      	movs	r2, #1
    d1d4:	715a      	strb	r2, [r3, #5]
    d1d6:	4620      	mov	r0, r4
    d1d8:	e8bd 8ff8 	ldmia.w	sp!, {r3, r4, r5, r6, r7, r8, r9, sl, fp, pc}
    d1dc:	7961      	ldrb	r1, [r4, #5]
    d1de:	7922      	ldrb	r2, [r4, #4]
    d1e0:	f894 b002 	ldrb.w	fp, [r4, #2]
    d1e4:	4b28      	ldr	r3, [pc, #160]	; (d288 <cdcdf_acm_ctrl+0x124>)
    d1e6:	eb02 2201 	add.w	r2, r2, r1, lsl #8
    d1ea:	b292      	uxth	r2, r2
    d1ec:	78e1      	ldrb	r1, [r4, #3]
    d1ee:	4658      	mov	r0, fp
    d1f0:	4798      	blx	r3
    d1f2:	2800      	cmp	r0, #0
    d1f4:	d142      	bne.n	d27c <cdcdf_acm_ctrl+0x118>
    d1f6:	f01b 0f80 	tst.w	fp, #128	; 0x80
    d1fa:	bf14      	ite	ne
    d1fc:	f886 b002 	strbne.w	fp, [r6, #2]
    d200:	f887 b004 	strbeq.w	fp, [r7, #4]
    d204:	4658      	mov	r0, fp
    d206:	47c8      	blx	r9
    d208:	602c      	str	r4, [r5, #0]
    d20a:	7820      	ldrb	r0, [r4, #0]
    d20c:	6869      	ldr	r1, [r5, #4]
    d20e:	4b1f      	ldr	r3, [pc, #124]	; (d28c <cdcdf_acm_ctrl+0x128>)
    d210:	4420      	add	r0, r4
    d212:	4798      	blx	r3
    d214:	4604      	mov	r4, r0
    d216:	e7d2      	b.n	d1be <cdcdf_acm_ctrl+0x5a>
    d218:	6884      	ldr	r4, [r0, #8]
    d21a:	b12a      	cbz	r2, d228 <cdcdf_acm_ctrl+0xc4>
    d21c:	6813      	ldr	r3, [r2, #0]
    d21e:	795b      	ldrb	r3, [r3, #5]
    d220:	f003 03f7 	and.w	r3, r3, #247	; 0xf7
    d224:	2b02      	cmp	r3, #2
    d226:	d1b3      	bne.n	d190 <cdcdf_acm_ctrl+0x2c>
    d228:	7823      	ldrb	r3, [r4, #0]
    d22a:	2bff      	cmp	r3, #255	; 0xff
    d22c:	d007      	beq.n	d23e <cdcdf_acm_ctrl+0xda>
    d22e:	78a0      	ldrb	r0, [r4, #2]
    d230:	25ff      	movs	r5, #255	; 0xff
    d232:	42a8      	cmp	r0, r5
    d234:	7025      	strb	r5, [r4, #0]
    d236:	d002      	beq.n	d23e <cdcdf_acm_ctrl+0xda>
    d238:	4b15      	ldr	r3, [pc, #84]	; (d290 <cdcdf_acm_ctrl+0x12c>)
    d23a:	4798      	blx	r3
    d23c:	70a5      	strb	r5, [r4, #2]
    d23e:	7863      	ldrb	r3, [r4, #1]
    d240:	2bff      	cmp	r3, #255	; 0xff
    d242:	d007      	beq.n	d254 <cdcdf_acm_ctrl+0xf0>
    d244:	78e0      	ldrb	r0, [r4, #3]
    d246:	25ff      	movs	r5, #255	; 0xff
    d248:	42a8      	cmp	r0, r5
    d24a:	7065      	strb	r5, [r4, #1]
    d24c:	d002      	beq.n	d254 <cdcdf_acm_ctrl+0xf0>
    d24e:	4b10      	ldr	r3, [pc, #64]	; (d290 <cdcdf_acm_ctrl+0x12c>)
    d250:	4798      	blx	r3
    d252:	70e5      	strb	r5, [r4, #3]
    d254:	7920      	ldrb	r0, [r4, #4]
    d256:	28ff      	cmp	r0, #255	; 0xff
    d258:	d003      	beq.n	d262 <cdcdf_acm_ctrl+0xfe>
    d25a:	4b0d      	ldr	r3, [pc, #52]	; (d290 <cdcdf_acm_ctrl+0x12c>)
    d25c:	4798      	blx	r3
    d25e:	23ff      	movs	r3, #255	; 0xff
    d260:	7123      	strb	r3, [r4, #4]
    d262:	4b08      	ldr	r3, [pc, #32]	; (d284 <cdcdf_acm_ctrl+0x120>)
    d264:	2000      	movs	r0, #0
    d266:	7158      	strb	r0, [r3, #5]
    d268:	e8bd 8ff8 	ldmia.w	sp!, {r3, r4, r5, r6, r7, r8, r9, sl, fp, pc}
    d26c:	f06f 0011 	mvn.w	r0, #17
    d270:	e8bd 8ff8 	ldmia.w	sp!, {r3, r4, r5, r6, r7, r8, r9, sl, fp, pc}
    d274:	f06f 001b 	mvn.w	r0, #27
    d278:	e8bd 8ff8 	ldmia.w	sp!, {r3, r4, r5, r6, r7, r8, r9, sl, fp, pc}
    d27c:	f06f 0013 	mvn.w	r0, #19
    d280:	e8bd 8ff8 	ldmia.w	sp!, {r3, r4, r5, r6, r7, r8, r9, sl, fp, pc}
    d284:	20000e40 	.word	0x20000e40
    d288:	0000981d 	.word	0x0000981d
    d28c:	0000e033 	.word	0x0000e033
    d290:	0000987d 	.word	0x0000987d
    d294:	0000e019 	.word	0x0000e019
    d298:	000098a9 	.word	0x000098a9

0000d29c <cdcdf_acm_init>:
    d29c:	b508      	push	{r3, lr}
    d29e:	4b0a      	ldr	r3, [pc, #40]	; (d2c8 <cdcdf_acm_init+0x2c>)
    d2a0:	4798      	blx	r3
    d2a2:	2801      	cmp	r0, #1
    d2a4:	d80c      	bhi.n	d2c0 <cdcdf_acm_init+0x24>
    d2a6:	4809      	ldr	r0, [pc, #36]	; (d2cc <cdcdf_acm_init+0x30>)
    d2a8:	4b09      	ldr	r3, [pc, #36]	; (d2d0 <cdcdf_acm_init+0x34>)
    d2aa:	61c3      	str	r3, [r0, #28]
    d2ac:	6200      	str	r0, [r0, #32]
    d2ae:	4b09      	ldr	r3, [pc, #36]	; (d2d4 <cdcdf_acm_init+0x38>)
    d2b0:	3018      	adds	r0, #24
    d2b2:	4798      	blx	r3
    d2b4:	4908      	ldr	r1, [pc, #32]	; (d2d8 <cdcdf_acm_init+0x3c>)
    d2b6:	4b09      	ldr	r3, [pc, #36]	; (d2dc <cdcdf_acm_init+0x40>)
    d2b8:	2001      	movs	r0, #1
    d2ba:	4798      	blx	r3
    d2bc:	2000      	movs	r0, #0
    d2be:	bd08      	pop	{r3, pc}
    d2c0:	f06f 0010 	mvn.w	r0, #16
    d2c4:	bd08      	pop	{r3, pc}
    d2c6:	bf00      	nop
    d2c8:	0000e005 	.word	0x0000e005
    d2cc:	20000e40 	.word	0x20000e40
    d2d0:	0000d165 	.word	0x0000d165
    d2d4:	0000dfad 	.word	0x0000dfad
    d2d8:	20000388 	.word	0x20000388
    d2dc:	0000df3d 	.word	0x0000df3d

0000d2e0 <cdcdf_acm_read>:
    d2e0:	b410      	push	{r4}
    d2e2:	4c08      	ldr	r4, [pc, #32]	; (d304 <cdcdf_acm_read+0x24>)
    d2e4:	7963      	ldrb	r3, [r4, #5]
    d2e6:	460a      	mov	r2, r1
    d2e8:	b13b      	cbz	r3, d2fa <cdcdf_acm_read+0x1a>
    d2ea:	4601      	mov	r1, r0
    d2ec:	7920      	ldrb	r0, [r4, #4]
    d2ee:	4c06      	ldr	r4, [pc, #24]	; (d308 <cdcdf_acm_read+0x28>)
    d2f0:	2300      	movs	r3, #0
    d2f2:	46a4      	mov	ip, r4
    d2f4:	f85d 4b04 	ldr.w	r4, [sp], #4
    d2f8:	4760      	bx	ip
    d2fa:	f06f 0010 	mvn.w	r0, #16
    d2fe:	f85d 4b04 	ldr.w	r4, [sp], #4
    d302:	4770      	bx	lr
    d304:	20000e40 	.word	0x20000e40
    d308:	0000dbf5 	.word	0x0000dbf5

0000d30c <cdcdf_acm_write>:
    d30c:	b410      	push	{r4}
    d30e:	4c08      	ldr	r4, [pc, #32]	; (d330 <cdcdf_acm_write+0x24>)
    d310:	7963      	ldrb	r3, [r4, #5]
    d312:	460a      	mov	r2, r1
    d314:	b13b      	cbz	r3, d326 <cdcdf_acm_write+0x1a>
    d316:	4601      	mov	r1, r0
    d318:	78e0      	ldrb	r0, [r4, #3]
    d31a:	4c06      	ldr	r4, [pc, #24]	; (d334 <cdcdf_acm_write+0x28>)
    d31c:	2301      	movs	r3, #1
    d31e:	46a4      	mov	ip, r4
    d320:	f85d 4b04 	ldr.w	r4, [sp], #4
    d324:	4760      	bx	ip
    d326:	f06f 0010 	mvn.w	r0, #16
    d32a:	f85d 4b04 	ldr.w	r4, [sp], #4
    d32e:	4770      	bx	lr
    d330:	20000e40 	.word	0x20000e40
    d334:	0000dbf5 	.word	0x0000dbf5

0000d338 <cdcdf_acm_register_callback>:
    d338:	b508      	push	{r3, lr}
    d33a:	460a      	mov	r2, r1
    d33c:	2803      	cmp	r0, #3
    d33e:	d814      	bhi.n	d36a <cdcdf_acm_register_callback+0x32>
    d340:	e8df f000 	tbb	[pc, r0]
    d344:	100d0902 	.word	0x100d0902
    d348:	4b09      	ldr	r3, [pc, #36]	; (d370 <cdcdf_acm_register_callback+0x38>)
    d34a:	7918      	ldrb	r0, [r3, #4]
    d34c:	2102      	movs	r1, #2
    d34e:	4b09      	ldr	r3, [pc, #36]	; (d374 <cdcdf_acm_register_callback+0x3c>)
    d350:	4798      	blx	r3
    d352:	2000      	movs	r0, #0
    d354:	bd08      	pop	{r3, pc}
    d356:	4b06      	ldr	r3, [pc, #24]	; (d370 <cdcdf_acm_register_callback+0x38>)
    d358:	2102      	movs	r1, #2
    d35a:	78d8      	ldrb	r0, [r3, #3]
    d35c:	e7f7      	b.n	d34e <cdcdf_acm_register_callback+0x16>
    d35e:	4b04      	ldr	r3, [pc, #16]	; (d370 <cdcdf_acm_register_callback+0x38>)
    d360:	6119      	str	r1, [r3, #16]
    d362:	e7f6      	b.n	d352 <cdcdf_acm_register_callback+0x1a>
    d364:	4b02      	ldr	r3, [pc, #8]	; (d370 <cdcdf_acm_register_callback+0x38>)
    d366:	6159      	str	r1, [r3, #20]
    d368:	e7f3      	b.n	d352 <cdcdf_acm_register_callback+0x1a>
    d36a:	f06f 000c 	mvn.w	r0, #12
    d36e:	bd08      	pop	{r3, pc}
    d370:	20000e40 	.word	0x20000e40
    d374:	00009a45 	.word	0x00009a45

0000d378 <hid_keyboard_req>:
    d378:	b470      	push	{r4, r5, r6}
    d37a:	780a      	ldrb	r2, [r1, #0]
    d37c:	2a81      	cmp	r2, #129	; 0x81
    d37e:	4604      	mov	r4, r0
    d380:	d11b      	bne.n	d3ba <hid_keyboard_req+0x42>
    d382:	784b      	ldrb	r3, [r1, #1]
    d384:	2b06      	cmp	r3, #6
    d386:	d118      	bne.n	d3ba <hid_keyboard_req+0x42>
    d388:	4d1a      	ldr	r5, [pc, #104]	; (d3f4 <hid_keyboard_req+0x7c>)
    d38a:	888e      	ldrh	r6, [r1, #4]
    d38c:	7b2b      	ldrb	r3, [r5, #12]
    d38e:	429e      	cmp	r6, r3
    d390:	d113      	bne.n	d3ba <hid_keyboard_req+0x42>
    d392:	884b      	ldrh	r3, [r1, #2]
    d394:	0a1b      	lsrs	r3, r3, #8
    d396:	2b21      	cmp	r3, #33	; 0x21
    d398:	d004      	beq.n	d3a4 <hid_keyboard_req+0x2c>
    d39a:	2b22      	cmp	r3, #34	; 0x22
    d39c:	d009      	beq.n	d3b2 <hid_keyboard_req+0x3a>
    d39e:	f06f 000c 	mvn.w	r0, #12
    d3a2:	e025      	b.n	d3f0 <hid_keyboard_req+0x78>
    d3a4:	6829      	ldr	r1, [r5, #0]
    d3a6:	780a      	ldrb	r2, [r1, #0]
    d3a8:	2300      	movs	r3, #0
    d3aa:	4c13      	ldr	r4, [pc, #76]	; (d3f8 <hid_keyboard_req+0x80>)
    d3ac:	46a4      	mov	ip, r4
    d3ae:	bc70      	pop	{r4, r5, r6}
    d3b0:	4760      	bx	ip
    d3b2:	2300      	movs	r3, #0
    d3b4:	223b      	movs	r2, #59	; 0x3b
    d3b6:	4911      	ldr	r1, [pc, #68]	; (d3fc <hid_keyboard_req+0x84>)
    d3b8:	e7f7      	b.n	d3aa <hid_keyboard_req+0x32>
    d3ba:	f3c2 1241 	ubfx	r2, r2, #5, #2
    d3be:	2a01      	cmp	r2, #1
    d3c0:	d114      	bne.n	d3ec <hid_keyboard_req+0x74>
    d3c2:	480c      	ldr	r0, [pc, #48]	; (d3f4 <hid_keyboard_req+0x7c>)
    d3c4:	888d      	ldrh	r5, [r1, #4]
    d3c6:	7b03      	ldrb	r3, [r0, #12]
    d3c8:	429d      	cmp	r5, r3
    d3ca:	d10f      	bne.n	d3ec <hid_keyboard_req+0x74>
    d3cc:	784b      	ldrb	r3, [r1, #1]
    d3ce:	2b03      	cmp	r3, #3
    d3d0:	d007      	beq.n	d3e2 <hid_keyboard_req+0x6a>
    d3d2:	2b0b      	cmp	r3, #11
    d3d4:	d1e3      	bne.n	d39e <hid_keyboard_req+0x26>
    d3d6:	884b      	ldrh	r3, [r1, #2]
    d3d8:	73c3      	strb	r3, [r0, #15]
    d3da:	2300      	movs	r3, #0
    d3dc:	461a      	mov	r2, r3
    d3de:	4619      	mov	r1, r3
    d3e0:	e002      	b.n	d3e8 <hid_keyboard_req+0x70>
    d3e2:	2300      	movs	r3, #0
    d3e4:	f100 010f 	add.w	r1, r0, #15
    d3e8:	4620      	mov	r0, r4
    d3ea:	e7de      	b.n	d3aa <hid_keyboard_req+0x32>
    d3ec:	f06f 0009 	mvn.w	r0, #9
    d3f0:	bc70      	pop	{r4, r5, r6}
    d3f2:	4770      	bx	lr
    d3f4:	20000e64 	.word	0x20000e64
    d3f8:	0000dbf5 	.word	0x0000dbf5
    d3fc:	000108ef 	.word	0x000108ef

0000d400 <hid_keyboard_ctrl>:
    d400:	2901      	cmp	r1, #1
    d402:	e92d 4ff8 	stmdb	sp!, {r3, r4, r5, r6, r7, r8, r9, sl, fp, lr}
    d406:	4615      	mov	r5, r2
    d408:	d050      	beq.n	d4ac <hid_keyboard_ctrl+0xac>
    d40a:	d308      	bcc.n	d41e <hid_keyboard_ctrl+0x1e>
    d40c:	2902      	cmp	r1, #2
    d40e:	bf0c      	ite	eq
    d410:	f06f 041a 	mvneq.w	r4, #26
    d414:	f06f 040c 	mvnne.w	r4, #12
    d418:	4620      	mov	r0, r4
    d41a:	e8bd 8ff8 	ldmia.w	sp!, {r3, r4, r5, r6, r7, r8, r9, sl, fp, pc}
    d41e:	6813      	ldr	r3, [r2, #0]
    d420:	f8d0 8008 	ldr.w	r8, [r0, #8]
    d424:	b913      	cbnz	r3, d42c <hid_keyboard_ctrl+0x2c>
    d426:	f06f 0409 	mvn.w	r4, #9
    d42a:	e7f5      	b.n	d418 <hid_keyboard_ctrl+0x18>
    d42c:	7959      	ldrb	r1, [r3, #5]
    d42e:	789a      	ldrb	r2, [r3, #2]
    d430:	2903      	cmp	r1, #3
    d432:	d1f8      	bne.n	d426 <hid_keyboard_ctrl+0x26>
    d434:	f898 100c 	ldrb.w	r1, [r8, #12]
    d438:	428a      	cmp	r2, r1
    d43a:	d054      	beq.n	d4e6 <hid_keyboard_ctrl+0xe6>
    d43c:	29ff      	cmp	r1, #255	; 0xff
    d43e:	d155      	bne.n	d4ec <hid_keyboard_ctrl+0xec>
    d440:	f888 200c 	strb.w	r2, [r8, #12]
    d444:	7818      	ldrb	r0, [r3, #0]
    d446:	6869      	ldr	r1, [r5, #4]
    d448:	4e2b      	ldr	r6, [pc, #172]	; (d4f8 <hid_keyboard_ctrl+0xf8>)
    d44a:	f8df b0bc 	ldr.w	fp, [pc, #188]	; d508 <hid_keyboard_ctrl+0x108>
    d44e:	f8df 90bc 	ldr.w	r9, [pc, #188]	; d50c <hid_keyboard_ctrl+0x10c>
    d452:	4418      	add	r0, r3
    d454:	2221      	movs	r2, #33	; 0x21
    d456:	4b29      	ldr	r3, [pc, #164]	; (d4fc <hid_keyboard_ctrl+0xfc>)
    d458:	4798      	blx	r3
    d45a:	2702      	movs	r7, #2
    d45c:	6030      	str	r0, [r6, #0]
    d45e:	682b      	ldr	r3, [r5, #0]
    d460:	6869      	ldr	r1, [r5, #4]
    d462:	7818      	ldrb	r0, [r3, #0]
    d464:	4418      	add	r0, r3
    d466:	4b26      	ldr	r3, [pc, #152]	; (d500 <hid_keyboard_ctrl+0x100>)
    d468:	4798      	blx	r3
    d46a:	6028      	str	r0, [r5, #0]
    d46c:	2800      	cmp	r0, #0
    d46e:	d0da      	beq.n	d426 <hid_keyboard_ctrl+0x26>
    d470:	7941      	ldrb	r1, [r0, #5]
    d472:	7902      	ldrb	r2, [r0, #4]
    d474:	f890 a002 	ldrb.w	sl, [r0, #2]
    d478:	eb02 2201 	add.w	r2, r2, r1, lsl #8
    d47c:	b292      	uxth	r2, r2
    d47e:	78c1      	ldrb	r1, [r0, #3]
    d480:	4650      	mov	r0, sl
    d482:	47d8      	blx	fp
    d484:	4604      	mov	r4, r0
    d486:	2800      	cmp	r0, #0
    d488:	d133      	bne.n	d4f2 <hid_keyboard_ctrl+0xf2>
    d48a:	f01a 0f80 	tst.w	sl, #128	; 0x80
    d48e:	bf14      	ite	ne
    d490:	f888 a00d 	strbne.w	sl, [r8, #13]
    d494:	f888 a00e 	strbeq.w	sl, [r8, #14]
    d498:	4650      	mov	r0, sl
    d49a:	3f01      	subs	r7, #1
    d49c:	47c8      	blx	r9
    d49e:	f017 07ff 	ands.w	r7, r7, #255	; 0xff
    d4a2:	d1dc      	bne.n	d45e <hid_keyboard_ctrl+0x5e>
    d4a4:	2301      	movs	r3, #1
    d4a6:	73f3      	strb	r3, [r6, #15]
    d4a8:	7433      	strb	r3, [r6, #16]
    d4aa:	e7b5      	b.n	d418 <hid_keyboard_ctrl+0x18>
    d4ac:	6884      	ldr	r4, [r0, #8]
    d4ae:	b11a      	cbz	r2, d4b8 <hid_keyboard_ctrl+0xb8>
    d4b0:	6813      	ldr	r3, [r2, #0]
    d4b2:	795b      	ldrb	r3, [r3, #5]
    d4b4:	2b03      	cmp	r3, #3
    d4b6:	d1b6      	bne.n	d426 <hid_keyboard_ctrl+0x26>
    d4b8:	7b23      	ldrb	r3, [r4, #12]
    d4ba:	7b60      	ldrb	r0, [r4, #13]
    d4bc:	2bff      	cmp	r3, #255	; 0xff
    d4be:	bf1c      	itt	ne
    d4c0:	23ff      	movne	r3, #255	; 0xff
    d4c2:	7323      	strbne	r3, [r4, #12]
    d4c4:	28ff      	cmp	r0, #255	; 0xff
    d4c6:	d003      	beq.n	d4d0 <hid_keyboard_ctrl+0xd0>
    d4c8:	4b0e      	ldr	r3, [pc, #56]	; (d504 <hid_keyboard_ctrl+0x104>)
    d4ca:	4798      	blx	r3
    d4cc:	23ff      	movs	r3, #255	; 0xff
    d4ce:	7363      	strb	r3, [r4, #13]
    d4d0:	7ba0      	ldrb	r0, [r4, #14]
    d4d2:	28ff      	cmp	r0, #255	; 0xff
    d4d4:	d003      	beq.n	d4de <hid_keyboard_ctrl+0xde>
    d4d6:	4b0b      	ldr	r3, [pc, #44]	; (d504 <hid_keyboard_ctrl+0x104>)
    d4d8:	4798      	blx	r3
    d4da:	23ff      	movs	r3, #255	; 0xff
    d4dc:	73a3      	strb	r3, [r4, #14]
    d4de:	4b06      	ldr	r3, [pc, #24]	; (d4f8 <hid_keyboard_ctrl+0xf8>)
    d4e0:	2400      	movs	r4, #0
    d4e2:	741c      	strb	r4, [r3, #16]
    d4e4:	e798      	b.n	d418 <hid_keyboard_ctrl+0x18>
    d4e6:	f06f 0411 	mvn.w	r4, #17
    d4ea:	e795      	b.n	d418 <hid_keyboard_ctrl+0x18>
    d4ec:	f06f 041b 	mvn.w	r4, #27
    d4f0:	e792      	b.n	d418 <hid_keyboard_ctrl+0x18>
    d4f2:	f06f 0413 	mvn.w	r4, #19
    d4f6:	e78f      	b.n	d418 <hid_keyboard_ctrl+0x18>
    d4f8:	20000e64 	.word	0x20000e64
    d4fc:	0000e019 	.word	0x0000e019
    d500:	0000e033 	.word	0x0000e033
    d504:	0000987d 	.word	0x0000987d
    d508:	0000981d 	.word	0x0000981d
    d50c:	000098a9 	.word	0x000098a9

0000d510 <hiddf_keyboard_init>:
    d510:	b508      	push	{r3, lr}
    d512:	4b0a      	ldr	r3, [pc, #40]	; (d53c <hiddf_keyboard_init+0x2c>)
    d514:	4798      	blx	r3
    d516:	2801      	cmp	r0, #1
    d518:	d80c      	bhi.n	d534 <hiddf_keyboard_init+0x24>
    d51a:	4809      	ldr	r0, [pc, #36]	; (d540 <hiddf_keyboard_init+0x30>)
    d51c:	4b09      	ldr	r3, [pc, #36]	; (d544 <hiddf_keyboard_init+0x34>)
    d51e:	6183      	str	r3, [r0, #24]
    d520:	61c0      	str	r0, [r0, #28]
    d522:	4b09      	ldr	r3, [pc, #36]	; (d548 <hiddf_keyboard_init+0x38>)
    d524:	3014      	adds	r0, #20
    d526:	4798      	blx	r3
    d528:	4908      	ldr	r1, [pc, #32]	; (d54c <hiddf_keyboard_init+0x3c>)
    d52a:	4b09      	ldr	r3, [pc, #36]	; (d550 <hiddf_keyboard_init+0x40>)
    d52c:	2001      	movs	r0, #1
    d52e:	4798      	blx	r3
    d530:	2000      	movs	r0, #0
    d532:	bd08      	pop	{r3, pc}
    d534:	f06f 0010 	mvn.w	r0, #16
    d538:	bd08      	pop	{r3, pc}
    d53a:	bf00      	nop
    d53c:	0000e005 	.word	0x0000e005
    d540:	20000e64 	.word	0x20000e64
    d544:	0000d401 	.word	0x0000d401
    d548:	0000dfad 	.word	0x0000dfad
    d54c:	20000390 	.word	0x20000390
    d550:	0000df3d 	.word	0x0000df3d

0000d554 <hiddf_keyboard_keys_state_change>:
    d554:	b470      	push	{r4, r5, r6}
    d556:	4c1e      	ldr	r4, [pc, #120]	; (d5d0 <hiddf_keyboard_keys_state_change+0x7c>)
    d558:	7c23      	ldrb	r3, [r4, #16]
    d55a:	2b00      	cmp	r3, #0
    d55c:	d034      	beq.n	d5c8 <hiddf_keyboard_keys_state_change+0x74>
    d55e:	2300      	movs	r3, #0
    d560:	eb01 0541 	add.w	r5, r1, r1, lsl #1
    d564:	6063      	str	r3, [r4, #4]
    d566:	60a3      	str	r3, [r4, #8]
    d568:	4405      	add	r5, r0
    d56a:	4602      	mov	r2, r0
    d56c:	42aa      	cmp	r2, r5
    d56e:	d111      	bne.n	d594 <hiddf_keyboard_keys_state_change+0x40>
    d570:	1ac9      	subs	r1, r1, r3
    d572:	b2c9      	uxtb	r1, r1
    d574:	2906      	cmp	r1, #6
    d576:	d925      	bls.n	d5c4 <hiddf_keyboard_keys_state_change+0x70>
    d578:	4a16      	ldr	r2, [pc, #88]	; (d5d4 <hiddf_keyboard_keys_state_change+0x80>)
    d57a:	f04f 33ff 	mov.w	r3, #4294967295
    d57e:	f8c4 3006 	str.w	r3, [r4, #6]
    d582:	8093      	strh	r3, [r2, #4]
    d584:	7b60      	ldrb	r0, [r4, #13]
    d586:	4c14      	ldr	r4, [pc, #80]	; (d5d8 <hiddf_keyboard_keys_state_change+0x84>)
    d588:	4914      	ldr	r1, [pc, #80]	; (d5dc <hiddf_keyboard_keys_state_change+0x88>)
    d58a:	46a4      	mov	ip, r4
    d58c:	2300      	movs	r3, #0
    d58e:	2208      	movs	r2, #8
    d590:	bc70      	pop	{r4, r5, r6}
    d592:	4760      	bx	ip
    d594:	7856      	ldrb	r6, [r2, #1]
    d596:	b10e      	cbz	r6, d59c <hiddf_keyboard_keys_state_change+0x48>
    d598:	3301      	adds	r3, #1
    d59a:	b2db      	uxtb	r3, r3
    d59c:	3203      	adds	r2, #3
    d59e:	e7e5      	b.n	d56c <hiddf_keyboard_keys_state_change+0x18>
    d5a0:	7881      	ldrb	r1, [r0, #2]
    d5a2:	2901      	cmp	r1, #1
    d5a4:	d105      	bne.n	d5b2 <hiddf_keyboard_keys_state_change+0x5e>
    d5a6:	7841      	ldrb	r1, [r0, #1]
    d5a8:	7805      	ldrb	r5, [r0, #0]
    d5aa:	b131      	cbz	r1, d5ba <hiddf_keyboard_keys_state_change+0x66>
    d5ac:	7921      	ldrb	r1, [r4, #4]
    d5ae:	4329      	orrs	r1, r5
    d5b0:	7121      	strb	r1, [r4, #4]
    d5b2:	3003      	adds	r0, #3
    d5b4:	4290      	cmp	r0, r2
    d5b6:	d1f3      	bne.n	d5a0 <hiddf_keyboard_keys_state_change+0x4c>
    d5b8:	e7e4      	b.n	d584 <hiddf_keyboard_keys_state_change+0x30>
    d5ba:	1c59      	adds	r1, r3, #1
    d5bc:	4423      	add	r3, r4
    d5be:	711d      	strb	r5, [r3, #4]
    d5c0:	b2cb      	uxtb	r3, r1
    d5c2:	e7f6      	b.n	d5b2 <hiddf_keyboard_keys_state_change+0x5e>
    d5c4:	2302      	movs	r3, #2
    d5c6:	e7f5      	b.n	d5b4 <hiddf_keyboard_keys_state_change+0x60>
    d5c8:	f06f 0010 	mvn.w	r0, #16
    d5cc:	bc70      	pop	{r4, r5, r6}
    d5ce:	4770      	bx	lr
    d5d0:	20000e64 	.word	0x20000e64
    d5d4:	20000e6a 	.word	0x20000e6a
    d5d8:	0000dbf5 	.word	0x0000dbf5
    d5dc:	20000e68 	.word	0x20000e68

0000d5e0 <hid_mouse_req>:
    d5e0:	b470      	push	{r4, r5, r6}
    d5e2:	780a      	ldrb	r2, [r1, #0]
    d5e4:	2a81      	cmp	r2, #129	; 0x81
    d5e6:	4604      	mov	r4, r0
    d5e8:	d11b      	bne.n	d622 <hid_mouse_req+0x42>
    d5ea:	784b      	ldrb	r3, [r1, #1]
    d5ec:	2b06      	cmp	r3, #6
    d5ee:	d118      	bne.n	d622 <hid_mouse_req+0x42>
    d5f0:	4d1a      	ldr	r5, [pc, #104]	; (d65c <hid_mouse_req+0x7c>)
    d5f2:	888e      	ldrh	r6, [r1, #4]
    d5f4:	7a2b      	ldrb	r3, [r5, #8]
    d5f6:	429e      	cmp	r6, r3
    d5f8:	d113      	bne.n	d622 <hid_mouse_req+0x42>
    d5fa:	884b      	ldrh	r3, [r1, #2]
    d5fc:	0a1b      	lsrs	r3, r3, #8
    d5fe:	2b21      	cmp	r3, #33	; 0x21
    d600:	d004      	beq.n	d60c <hid_mouse_req+0x2c>
    d602:	2b22      	cmp	r3, #34	; 0x22
    d604:	d009      	beq.n	d61a <hid_mouse_req+0x3a>
    d606:	f06f 000c 	mvn.w	r0, #12
    d60a:	e025      	b.n	d658 <hid_mouse_req+0x78>
    d60c:	6829      	ldr	r1, [r5, #0]
    d60e:	780a      	ldrb	r2, [r1, #0]
    d610:	2300      	movs	r3, #0
    d612:	4c13      	ldr	r4, [pc, #76]	; (d660 <hid_mouse_req+0x80>)
    d614:	46a4      	mov	ip, r4
    d616:	bc70      	pop	{r4, r5, r6}
    d618:	4760      	bx	ip
    d61a:	2300      	movs	r3, #0
    d61c:	2234      	movs	r2, #52	; 0x34
    d61e:	4911      	ldr	r1, [pc, #68]	; (d664 <hid_mouse_req+0x84>)
    d620:	e7f7      	b.n	d612 <hid_mouse_req+0x32>
    d622:	f3c2 1241 	ubfx	r2, r2, #5, #2
    d626:	2a01      	cmp	r2, #1
    d628:	d114      	bne.n	d654 <hid_mouse_req+0x74>
    d62a:	480c      	ldr	r0, [pc, #48]	; (d65c <hid_mouse_req+0x7c>)
    d62c:	888d      	ldrh	r5, [r1, #4]
    d62e:	7a03      	ldrb	r3, [r0, #8]
    d630:	429d      	cmp	r5, r3
    d632:	d10f      	bne.n	d654 <hid_mouse_req+0x74>
    d634:	784b      	ldrb	r3, [r1, #1]
    d636:	2b03      	cmp	r3, #3
    d638:	d007      	beq.n	d64a <hid_mouse_req+0x6a>
    d63a:	2b0b      	cmp	r3, #11
    d63c:	d1e3      	bne.n	d606 <hid_mouse_req+0x26>
    d63e:	884b      	ldrh	r3, [r1, #2]
    d640:	7283      	strb	r3, [r0, #10]
    d642:	2300      	movs	r3, #0
    d644:	461a      	mov	r2, r3
    d646:	4619      	mov	r1, r3
    d648:	e002      	b.n	d650 <hid_mouse_req+0x70>
    d64a:	2300      	movs	r3, #0
    d64c:	f100 010a 	add.w	r1, r0, #10
    d650:	4620      	mov	r0, r4
    d652:	e7de      	b.n	d612 <hid_mouse_req+0x32>
    d654:	f06f 0009 	mvn.w	r0, #9
    d658:	bc70      	pop	{r4, r5, r6}
    d65a:	4770      	bx	lr
    d65c:	20000e84 	.word	0x20000e84
    d660:	0000dbf5 	.word	0x0000dbf5
    d664:	0001092a 	.word	0x0001092a

0000d668 <hid_mouse_ctrl>:
    d668:	2901      	cmp	r1, #1
    d66a:	b5f8      	push	{r3, r4, r5, r6, r7, lr}
    d66c:	4614      	mov	r4, r2
    d66e:	d03f      	beq.n	d6f0 <hid_mouse_ctrl+0x88>
    d670:	d307      	bcc.n	d682 <hid_mouse_ctrl+0x1a>
    d672:	2902      	cmp	r1, #2
    d674:	bf0c      	ite	eq
    d676:	f06f 041a 	mvneq.w	r4, #26
    d67a:	f06f 040c 	mvnne.w	r4, #12
    d67e:	4620      	mov	r0, r4
    d680:	bdf8      	pop	{r3, r4, r5, r6, r7, pc}
    d682:	6813      	ldr	r3, [r2, #0]
    d684:	6887      	ldr	r7, [r0, #8]
    d686:	b913      	cbnz	r3, d68e <hid_mouse_ctrl+0x26>
    d688:	f06f 0409 	mvn.w	r4, #9
    d68c:	e7f7      	b.n	d67e <hid_mouse_ctrl+0x16>
    d68e:	7959      	ldrb	r1, [r3, #5]
    d690:	789a      	ldrb	r2, [r3, #2]
    d692:	2903      	cmp	r1, #3
    d694:	d1f8      	bne.n	d688 <hid_mouse_ctrl+0x20>
    d696:	7a39      	ldrb	r1, [r7, #8]
    d698:	428a      	cmp	r2, r1
    d69a:	d03f      	beq.n	d71c <hid_mouse_ctrl+0xb4>
    d69c:	29ff      	cmp	r1, #255	; 0xff
    d69e:	d140      	bne.n	d722 <hid_mouse_ctrl+0xba>
    d6a0:	723a      	strb	r2, [r7, #8]
    d6a2:	7818      	ldrb	r0, [r3, #0]
    d6a4:	6861      	ldr	r1, [r4, #4]
    d6a6:	4e23      	ldr	r6, [pc, #140]	; (d734 <hid_mouse_ctrl+0xcc>)
    d6a8:	2221      	movs	r2, #33	; 0x21
    d6aa:	4418      	add	r0, r3
    d6ac:	4b22      	ldr	r3, [pc, #136]	; (d738 <hid_mouse_ctrl+0xd0>)
    d6ae:	4798      	blx	r3
    d6b0:	6823      	ldr	r3, [r4, #0]
    d6b2:	6030      	str	r0, [r6, #0]
    d6b4:	7818      	ldrb	r0, [r3, #0]
    d6b6:	6861      	ldr	r1, [r4, #4]
    d6b8:	4418      	add	r0, r3
    d6ba:	4b20      	ldr	r3, [pc, #128]	; (d73c <hid_mouse_ctrl+0xd4>)
    d6bc:	4798      	blx	r3
    d6be:	6020      	str	r0, [r4, #0]
    d6c0:	2800      	cmp	r0, #0
    d6c2:	d0e1      	beq.n	d688 <hid_mouse_ctrl+0x20>
    d6c4:	7943      	ldrb	r3, [r0, #5]
    d6c6:	7902      	ldrb	r2, [r0, #4]
    d6c8:	7885      	ldrb	r5, [r0, #2]
    d6ca:	78c1      	ldrb	r1, [r0, #3]
    d6cc:	eb02 2203 	add.w	r2, r2, r3, lsl #8
    d6d0:	b292      	uxth	r2, r2
    d6d2:	4628      	mov	r0, r5
    d6d4:	4b1a      	ldr	r3, [pc, #104]	; (d740 <hid_mouse_ctrl+0xd8>)
    d6d6:	4798      	blx	r3
    d6d8:	4604      	mov	r4, r0
    d6da:	bb28      	cbnz	r0, d728 <hid_mouse_ctrl+0xc0>
    d6dc:	062b      	lsls	r3, r5, #24
    d6de:	d526      	bpl.n	d72e <hid_mouse_ctrl+0xc6>
    d6e0:	4b18      	ldr	r3, [pc, #96]	; (d744 <hid_mouse_ctrl+0xdc>)
    d6e2:	727d      	strb	r5, [r7, #9]
    d6e4:	4628      	mov	r0, r5
    d6e6:	4798      	blx	r3
    d6e8:	2301      	movs	r3, #1
    d6ea:	72b3      	strb	r3, [r6, #10]
    d6ec:	72f3      	strb	r3, [r6, #11]
    d6ee:	e7c6      	b.n	d67e <hid_mouse_ctrl+0x16>
    d6f0:	6885      	ldr	r5, [r0, #8]
    d6f2:	b11a      	cbz	r2, d6fc <hid_mouse_ctrl+0x94>
    d6f4:	6813      	ldr	r3, [r2, #0]
    d6f6:	795b      	ldrb	r3, [r3, #5]
    d6f8:	2b03      	cmp	r3, #3
    d6fa:	d1c5      	bne.n	d688 <hid_mouse_ctrl+0x20>
    d6fc:	7a2b      	ldrb	r3, [r5, #8]
    d6fe:	7a68      	ldrb	r0, [r5, #9]
    d700:	2bff      	cmp	r3, #255	; 0xff
    d702:	bf1c      	itt	ne
    d704:	23ff      	movne	r3, #255	; 0xff
    d706:	722b      	strbne	r3, [r5, #8]
    d708:	28ff      	cmp	r0, #255	; 0xff
    d70a:	d003      	beq.n	d714 <hid_mouse_ctrl+0xac>
    d70c:	4b0e      	ldr	r3, [pc, #56]	; (d748 <hid_mouse_ctrl+0xe0>)
    d70e:	4798      	blx	r3
    d710:	23ff      	movs	r3, #255	; 0xff
    d712:	726b      	strb	r3, [r5, #9]
    d714:	4b07      	ldr	r3, [pc, #28]	; (d734 <hid_mouse_ctrl+0xcc>)
    d716:	2400      	movs	r4, #0
    d718:	72dc      	strb	r4, [r3, #11]
    d71a:	e7b0      	b.n	d67e <hid_mouse_ctrl+0x16>
    d71c:	f06f 0411 	mvn.w	r4, #17
    d720:	e7ad      	b.n	d67e <hid_mouse_ctrl+0x16>
    d722:	f06f 041b 	mvn.w	r4, #27
    d726:	e7aa      	b.n	d67e <hid_mouse_ctrl+0x16>
    d728:	f06f 0413 	mvn.w	r4, #19
    d72c:	e7a7      	b.n	d67e <hid_mouse_ctrl+0x16>
    d72e:	f04f 34ff 	mov.w	r4, #4294967295
    d732:	e7a4      	b.n	d67e <hid_mouse_ctrl+0x16>
    d734:	20000e84 	.word	0x20000e84
    d738:	0000e019 	.word	0x0000e019
    d73c:	0000e033 	.word	0x0000e033
    d740:	0000981d 	.word	0x0000981d
    d744:	000098a9 	.word	0x000098a9
    d748:	0000987d 	.word	0x0000987d

0000d74c <hiddf_mouse_init>:
    d74c:	b508      	push	{r3, lr}
    d74e:	4b0a      	ldr	r3, [pc, #40]	; (d778 <hiddf_mouse_init+0x2c>)
    d750:	4798      	blx	r3
    d752:	2801      	cmp	r0, #1
    d754:	d80c      	bhi.n	d770 <hiddf_mouse_init+0x24>
    d756:	4809      	ldr	r0, [pc, #36]	; (d77c <hiddf_mouse_init+0x30>)
    d758:	4b09      	ldr	r3, [pc, #36]	; (d780 <hiddf_mouse_init+0x34>)
    d75a:	6103      	str	r3, [r0, #16]
    d75c:	6140      	str	r0, [r0, #20]
    d75e:	4b09      	ldr	r3, [pc, #36]	; (d784 <hiddf_mouse_init+0x38>)
    d760:	300c      	adds	r0, #12
    d762:	4798      	blx	r3
    d764:	4908      	ldr	r1, [pc, #32]	; (d788 <hiddf_mouse_init+0x3c>)
    d766:	4b09      	ldr	r3, [pc, #36]	; (d78c <hiddf_mouse_init+0x40>)
    d768:	2001      	movs	r0, #1
    d76a:	4798      	blx	r3
    d76c:	2000      	movs	r0, #0
    d76e:	bd08      	pop	{r3, pc}
    d770:	f06f 0010 	mvn.w	r0, #16
    d774:	bd08      	pop	{r3, pc}
    d776:	bf00      	nop
    d778:	0000e005 	.word	0x0000e005
    d77c:	20000e84 	.word	0x20000e84
    d780:	0000d669 	.word	0x0000d669
    d784:	0000dfad 	.word	0x0000dfad
    d788:	20000398 	.word	0x20000398
    d78c:	0000df3d 	.word	0x0000df3d

0000d790 <hiddf_mouse_move>:
    d790:	b410      	push	{r4}
    d792:	4c0e      	ldr	r4, [pc, #56]	; (d7cc <hiddf_mouse_move+0x3c>)
    d794:	2300      	movs	r3, #0
    d796:	2901      	cmp	r1, #1
    d798:	6063      	str	r3, [r4, #4]
    d79a:	d109      	bne.n	d7b0 <hiddf_mouse_move+0x20>
    d79c:	7160      	strb	r0, [r4, #5]
    d79e:	7a60      	ldrb	r0, [r4, #9]
    d7a0:	4c0b      	ldr	r4, [pc, #44]	; (d7d0 <hiddf_mouse_move+0x40>)
    d7a2:	490c      	ldr	r1, [pc, #48]	; (d7d4 <hiddf_mouse_move+0x44>)
    d7a4:	46a4      	mov	ip, r4
    d7a6:	2300      	movs	r3, #0
    d7a8:	2204      	movs	r2, #4
    d7aa:	f85d 4b04 	ldr.w	r4, [sp], #4
    d7ae:	4760      	bx	ip
    d7b0:	2902      	cmp	r1, #2
    d7b2:	d101      	bne.n	d7b8 <hiddf_mouse_move+0x28>
    d7b4:	71a0      	strb	r0, [r4, #6]
    d7b6:	e7f2      	b.n	d79e <hiddf_mouse_move+0xe>
    d7b8:	2903      	cmp	r1, #3
    d7ba:	d101      	bne.n	d7c0 <hiddf_mouse_move+0x30>
    d7bc:	71e0      	strb	r0, [r4, #7]
    d7be:	e7ee      	b.n	d79e <hiddf_mouse_move+0xe>
    d7c0:	f06f 000c 	mvn.w	r0, #12
    d7c4:	f85d 4b04 	ldr.w	r4, [sp], #4
    d7c8:	4770      	bx	lr
    d7ca:	bf00      	nop
    d7cc:	20000e84 	.word	0x20000e84
    d7d0:	0000dbf5 	.word	0x0000dbf5
    d7d4:	20000e88 	.word	0x20000e88

0000d7d8 <audio_midi_req>:
    d7d8:	b430      	push	{r4, r5}
    d7da:	780a      	ldrb	r2, [r1, #0]
    d7dc:	2a81      	cmp	r2, #129	; 0x81
    d7de:	d10e      	bne.n	d7fe <audio_midi_req+0x26>
    d7e0:	4b18      	ldr	r3, [pc, #96]	; (d844 <audio_midi_req+0x6c>)
    d7e2:	888c      	ldrh	r4, [r1, #4]
    d7e4:	791d      	ldrb	r5, [r3, #4]
    d7e6:	42a5      	cmp	r5, r4
    d7e8:	d002      	beq.n	d7f0 <audio_midi_req+0x18>
    d7ea:	795d      	ldrb	r5, [r3, #5]
    d7ec:	42a5      	cmp	r5, r4
    d7ee:	d106      	bne.n	d7fe <audio_midi_req+0x26>
    d7f0:	6819      	ldr	r1, [r3, #0]
    d7f2:	780a      	ldrb	r2, [r1, #0]
    d7f4:	2300      	movs	r3, #0
    d7f6:	4c14      	ldr	r4, [pc, #80]	; (d848 <audio_midi_req+0x70>)
    d7f8:	46a4      	mov	ip, r4
    d7fa:	bc30      	pop	{r4, r5}
    d7fc:	4760      	bx	ip
    d7fe:	f3c2 1241 	ubfx	r2, r2, #5, #2
    d802:	2a01      	cmp	r2, #1
    d804:	d11a      	bne.n	d83c <audio_midi_req+0x64>
    d806:	4b0f      	ldr	r3, [pc, #60]	; (d844 <audio_midi_req+0x6c>)
    d808:	888a      	ldrh	r2, [r1, #4]
    d80a:	791c      	ldrb	r4, [r3, #4]
    d80c:	4294      	cmp	r4, r2
    d80e:	461c      	mov	r4, r3
    d810:	d002      	beq.n	d818 <audio_midi_req+0x40>
    d812:	795b      	ldrb	r3, [r3, #5]
    d814:	4293      	cmp	r3, r2
    d816:	d111      	bne.n	d83c <audio_midi_req+0x64>
    d818:	784b      	ldrb	r3, [r1, #1]
    d81a:	2b03      	cmp	r3, #3
    d81c:	d004      	beq.n	d828 <audio_midi_req+0x50>
    d81e:	2b0b      	cmp	r3, #11
    d820:	d006      	beq.n	d830 <audio_midi_req+0x58>
    d822:	f06f 000c 	mvn.w	r0, #12
    d826:	e00b      	b.n	d840 <audio_midi_req+0x68>
    d828:	2300      	movs	r3, #0
    d82a:	2201      	movs	r2, #1
    d82c:	4907      	ldr	r1, [pc, #28]	; (d84c <audio_midi_req+0x74>)
    d82e:	e7e2      	b.n	d7f6 <audio_midi_req+0x1e>
    d830:	884b      	ldrh	r3, [r1, #2]
    d832:	7223      	strb	r3, [r4, #8]
    d834:	2300      	movs	r3, #0
    d836:	461a      	mov	r2, r3
    d838:	4619      	mov	r1, r3
    d83a:	e7dc      	b.n	d7f6 <audio_midi_req+0x1e>
    d83c:	f06f 0009 	mvn.w	r0, #9
    d840:	bc30      	pop	{r4, r5}
    d842:	4770      	bx	lr
    d844:	20000e9c 	.word	0x20000e9c
    d848:	0000dbf5 	.word	0x0000dbf5
    d84c:	20000ea4 	.word	0x20000ea4

0000d850 <audio_midi_ctrl>:
    d850:	e92d 4ff0 	stmdb	sp!, {r4, r5, r6, r7, r8, r9, sl, fp, lr}
    d854:	2901      	cmp	r1, #1
    d856:	b085      	sub	sp, #20
    d858:	4614      	mov	r4, r2
    d85a:	f000 8081 	beq.w	d960 <audio_midi_ctrl+0x110>
    d85e:	d308      	bcc.n	d872 <audio_midi_ctrl+0x22>
    d860:	2902      	cmp	r1, #2
    d862:	bf0c      	ite	eq
    d864:	f06f 001a 	mvneq.w	r0, #26
    d868:	f06f 000c 	mvnne.w	r0, #12
    d86c:	b005      	add	sp, #20
    d86e:	e8bd 8ff0 	ldmia.w	sp!, {r4, r5, r6, r7, r8, r9, sl, fp, pc}
    d872:	6887      	ldr	r7, [r0, #8]
    d874:	f8df 9150 	ldr.w	r9, [pc, #336]	; d9c8 <audio_midi_ctrl+0x178>
    d878:	6810      	ldr	r0, [r2, #0]
    d87a:	4e4e      	ldr	r6, [pc, #312]	; (d9b4 <audio_midi_ctrl+0x164>)
    d87c:	f107 0804 	add.w	r8, r7, #4
    d880:	1dbb      	adds	r3, r7, #6
    d882:	9301      	str	r3, [sp, #4]
    d884:	4645      	mov	r5, r8
    d886:	b910      	cbnz	r0, d88e <audio_midi_ctrl+0x3e>
    d888:	f06f 0009 	mvn.w	r0, #9
    d88c:	e7ee      	b.n	d86c <audio_midi_ctrl+0x1c>
    d88e:	7943      	ldrb	r3, [r0, #5]
    d890:	7882      	ldrb	r2, [r0, #2]
    d892:	f003 03fd 	and.w	r3, r3, #253	; 0xfd
    d896:	2b01      	cmp	r3, #1
    d898:	d1f6      	bne.n	d888 <audio_midi_ctrl+0x38>
    d89a:	782b      	ldrb	r3, [r5, #0]
    d89c:	429a      	cmp	r2, r3
    d89e:	f000 8083 	beq.w	d9a8 <audio_midi_ctrl+0x158>
    d8a2:	2bff      	cmp	r3, #255	; 0xff
    d8a4:	f040 8083 	bne.w	d9ae <audio_midi_ctrl+0x15e>
    d8a8:	eba5 0308 	sub.w	r3, r5, r8
    d8ac:	b2db      	uxtb	r3, r3
    d8ae:	2b01      	cmp	r3, #1
    d8b0:	702a      	strb	r2, [r5, #0]
    d8b2:	d00e      	beq.n	d8d2 <audio_midi_ctrl+0x82>
    d8b4:	6823      	ldr	r3, [r4, #0]
    d8b6:	6861      	ldr	r1, [r4, #4]
    d8b8:	7818      	ldrb	r0, [r3, #0]
    d8ba:	2204      	movs	r2, #4
    d8bc:	4418      	add	r0, r3
    d8be:	47c8      	blx	r9
    d8c0:	9b01      	ldr	r3, [sp, #4]
    d8c2:	3501      	adds	r5, #1
    d8c4:	42ab      	cmp	r3, r5
    d8c6:	d1de      	bne.n	d886 <audio_midi_ctrl+0x36>
    d8c8:	4b3b      	ldr	r3, [pc, #236]	; (d9b8 <audio_midi_ctrl+0x168>)
    d8ca:	2201      	movs	r2, #1
    d8cc:	735a      	strb	r2, [r3, #13]
    d8ce:	2000      	movs	r0, #0
    d8d0:	e7cc      	b.n	d86c <audio_midi_ctrl+0x1c>
    d8d2:	2205      	movs	r2, #5
    d8d4:	6861      	ldr	r1, [r4, #4]
    d8d6:	f8df a0f4 	ldr.w	sl, [pc, #244]	; d9cc <audio_midi_ctrl+0x17c>
    d8da:	47c8      	blx	r9
    d8dc:	4683      	mov	fp, r0
    d8de:	f1bb 0f00 	cmp.w	fp, #0
    d8e2:	d0e7      	beq.n	d8b4 <audio_midi_ctrl+0x64>
    d8e4:	f89b 2002 	ldrb.w	r2, [fp, #2]
    d8e8:	f88d 200a 	strb.w	r2, [sp, #10]
    d8ec:	f89b 2003 	ldrb.w	r2, [fp, #3]
    d8f0:	f88d 200b 	strb.w	r2, [sp, #11]
    d8f4:	f89b 1005 	ldrb.w	r1, [fp, #5]
    d8f8:	f89b 2004 	ldrb.w	r2, [fp, #4]
    d8fc:	4b2f      	ldr	r3, [pc, #188]	; (d9bc <audio_midi_ctrl+0x16c>)
    d8fe:	eb02 2201 	add.w	r2, r2, r1, lsl #8
    d902:	b292      	uxth	r2, r2
    d904:	f8ad 200c 	strh.w	r2, [sp, #12]
    d908:	f8bd 200c 	ldrh.w	r2, [sp, #12]
    d90c:	b2d2      	uxtb	r2, r2
    d90e:	7132      	strb	r2, [r6, #4]
    d910:	2201      	movs	r2, #1
    d912:	7032      	strb	r2, [r6, #0]
    d914:	f89d 000a 	ldrb.w	r0, [sp, #10]
    d918:	f89d 100b 	ldrb.w	r1, [sp, #11]
    d91c:	f8bd 200c 	ldrh.w	r2, [sp, #12]
    d920:	b292      	uxth	r2, r2
    d922:	4798      	blx	r3
    d924:	b2c0      	uxtb	r0, r0
    d926:	7170      	strb	r0, [r6, #5]
    d928:	b130      	cbz	r0, d938 <audio_midi_ctrl+0xe8>
    d92a:	7973      	ldrb	r3, [r6, #5]
    d92c:	425b      	negs	r3, r3
    d92e:	b2db      	uxtb	r3, r3
    d930:	71b3      	strb	r3, [r6, #6]
    d932:	f06f 0013 	mvn.w	r0, #19
    d936:	e799      	b.n	d86c <audio_midi_ctrl+0x1c>
    d938:	f89d 200a 	ldrb.w	r2, [sp, #10]
    d93c:	f89d 000a 	ldrb.w	r0, [sp, #10]
    d940:	0613      	lsls	r3, r2, #24
    d942:	b2c0      	uxtb	r0, r0
    d944:	bf4c      	ite	mi
    d946:	71b8      	strbmi	r0, [r7, #6]
    d948:	71f8      	strbpl	r0, [r7, #7]
    d94a:	47d0      	blx	sl
    d94c:	f8c4 b000 	str.w	fp, [r4]
    d950:	f89b 0000 	ldrb.w	r0, [fp]
    d954:	6861      	ldr	r1, [r4, #4]
    d956:	4b1a      	ldr	r3, [pc, #104]	; (d9c0 <audio_midi_ctrl+0x170>)
    d958:	4458      	add	r0, fp
    d95a:	4798      	blx	r3
    d95c:	4683      	mov	fp, r0
    d95e:	e7be      	b.n	d8de <audio_midi_ctrl+0x8e>
    d960:	6885      	ldr	r5, [r0, #8]
    d962:	b12a      	cbz	r2, d970 <audio_midi_ctrl+0x120>
    d964:	6813      	ldr	r3, [r2, #0]
    d966:	795b      	ldrb	r3, [r3, #5]
    d968:	f003 03fd 	and.w	r3, r3, #253	; 0xfd
    d96c:	2b01      	cmp	r3, #1
    d96e:	d18b      	bne.n	d888 <audio_midi_ctrl+0x38>
    d970:	792b      	ldrb	r3, [r5, #4]
    d972:	79a8      	ldrb	r0, [r5, #6]
    d974:	2bff      	cmp	r3, #255	; 0xff
    d976:	bf1c      	itt	ne
    d978:	23ff      	movne	r3, #255	; 0xff
    d97a:	712b      	strbne	r3, [r5, #4]
    d97c:	796b      	ldrb	r3, [r5, #5]
    d97e:	2bff      	cmp	r3, #255	; 0xff
    d980:	bf1c      	itt	ne
    d982:	23ff      	movne	r3, #255	; 0xff
    d984:	716b      	strbne	r3, [r5, #5]
    d986:	28ff      	cmp	r0, #255	; 0xff
    d988:	d003      	beq.n	d992 <audio_midi_ctrl+0x142>
    d98a:	4b0e      	ldr	r3, [pc, #56]	; (d9c4 <audio_midi_ctrl+0x174>)
    d98c:	4798      	blx	r3
    d98e:	23ff      	movs	r3, #255	; 0xff
    d990:	71ab      	strb	r3, [r5, #6]
    d992:	79e8      	ldrb	r0, [r5, #7]
    d994:	28ff      	cmp	r0, #255	; 0xff
    d996:	d003      	beq.n	d9a0 <audio_midi_ctrl+0x150>
    d998:	4b0a      	ldr	r3, [pc, #40]	; (d9c4 <audio_midi_ctrl+0x174>)
    d99a:	4798      	blx	r3
    d99c:	23ff      	movs	r3, #255	; 0xff
    d99e:	71eb      	strb	r3, [r5, #7]
    d9a0:	4b05      	ldr	r3, [pc, #20]	; (d9b8 <audio_midi_ctrl+0x168>)
    d9a2:	2000      	movs	r0, #0
    d9a4:	7358      	strb	r0, [r3, #13]
    d9a6:	e761      	b.n	d86c <audio_midi_ctrl+0x1c>
    d9a8:	f06f 0011 	mvn.w	r0, #17
    d9ac:	e75e      	b.n	d86c <audio_midi_ctrl+0x1c>
    d9ae:	f06f 001b 	mvn.w	r0, #27
    d9b2:	e75b      	b.n	d86c <audio_midi_ctrl+0x1c>
    d9b4:	20008200 	.word	0x20008200
    d9b8:	20000e9c 	.word	0x20000e9c
    d9bc:	0000981d 	.word	0x0000981d
    d9c0:	0000e033 	.word	0x0000e033
    d9c4:	0000987d 	.word	0x0000987d
    d9c8:	0000e019 	.word	0x0000e019
    d9cc:	000098a9 	.word	0x000098a9

0000d9d0 <audiodf_midi_init>:
    d9d0:	b508      	push	{r3, lr}
    d9d2:	4b0a      	ldr	r3, [pc, #40]	; (d9fc <audiodf_midi_init+0x2c>)
    d9d4:	4798      	blx	r3
    d9d6:	2801      	cmp	r0, #1
    d9d8:	d80c      	bhi.n	d9f4 <audiodf_midi_init+0x24>
    d9da:	4809      	ldr	r0, [pc, #36]	; (da00 <audiodf_midi_init+0x30>)
    d9dc:	4b09      	ldr	r3, [pc, #36]	; (da04 <audiodf_midi_init+0x34>)
    d9de:	6143      	str	r3, [r0, #20]
    d9e0:	6180      	str	r0, [r0, #24]
    d9e2:	4b09      	ldr	r3, [pc, #36]	; (da08 <audiodf_midi_init+0x38>)
    d9e4:	3010      	adds	r0, #16
    d9e6:	4798      	blx	r3
    d9e8:	4908      	ldr	r1, [pc, #32]	; (da0c <audiodf_midi_init+0x3c>)
    d9ea:	4b09      	ldr	r3, [pc, #36]	; (da10 <audiodf_midi_init+0x40>)
    d9ec:	2001      	movs	r0, #1
    d9ee:	4798      	blx	r3
    d9f0:	2000      	movs	r0, #0
    d9f2:	bd08      	pop	{r3, pc}
    d9f4:	f06f 0010 	mvn.w	r0, #16
    d9f8:	bd08      	pop	{r3, pc}
    d9fa:	bf00      	nop
    d9fc:	0000e005 	.word	0x0000e005
    da00:	20000e9c 	.word	0x20000e9c
    da04:	0000d851 	.word	0x0000d851
    da08:	0000dfad 	.word	0x0000dfad
    da0c:	200003a0 	.word	0x200003a0
    da10:	0000df3d 	.word	0x0000df3d

0000da14 <audiodf_midi_write>:
    da14:	b410      	push	{r4}
    da16:	4c07      	ldr	r4, [pc, #28]	; (da34 <audiodf_midi_write+0x20>)
    da18:	7260      	strb	r0, [r4, #9]
    da1a:	72a1      	strb	r1, [r4, #10]
    da1c:	72e2      	strb	r2, [r4, #11]
    da1e:	7323      	strb	r3, [r4, #12]
    da20:	f104 0109 	add.w	r1, r4, #9
    da24:	79a0      	ldrb	r0, [r4, #6]
    da26:	4c04      	ldr	r4, [pc, #16]	; (da38 <audiodf_midi_write+0x24>)
    da28:	2300      	movs	r3, #0
    da2a:	46a4      	mov	ip, r4
    da2c:	2204      	movs	r2, #4
    da2e:	f85d 4b04 	ldr.w	r4, [sp], #4
    da32:	4760      	bx	ip
    da34:	20000e9c 	.word	0x20000e9c
    da38:	0000dbf5 	.word	0x0000dbf5

0000da3c <audiodf_midi_read>:
    da3c:	b410      	push	{r4}
    da3e:	460a      	mov	r2, r1
    da40:	4c04      	ldr	r4, [pc, #16]	; (da54 <audiodf_midi_read+0x18>)
    da42:	4601      	mov	r1, r0
    da44:	4804      	ldr	r0, [pc, #16]	; (da58 <audiodf_midi_read+0x1c>)
    da46:	46a4      	mov	ip, r4
    da48:	2300      	movs	r3, #0
    da4a:	79c0      	ldrb	r0, [r0, #7]
    da4c:	f85d 4b04 	ldr.w	r4, [sp], #4
    da50:	4760      	bx	ip
    da52:	bf00      	nop
    da54:	0000dbf5 	.word	0x0000dbf5
    da58:	20000e9c 	.word	0x20000e9c

0000da5c <audiodf_midi_register_callback>:
    da5c:	b510      	push	{r4, lr}
    da5e:	460a      	mov	r2, r1
    da60:	b120      	cbz	r0, da6c <audiodf_midi_register_callback+0x10>
    da62:	2801      	cmp	r0, #1
    da64:	d009      	beq.n	da7a <audiodf_midi_register_callback+0x1e>
    da66:	f06f 000c 	mvn.w	r0, #12
    da6a:	bd10      	pop	{r4, pc}
    da6c:	4b05      	ldr	r3, [pc, #20]	; (da84 <audiodf_midi_register_callback+0x28>)
    da6e:	79d8      	ldrb	r0, [r3, #7]
    da70:	2102      	movs	r1, #2
    da72:	4b05      	ldr	r3, [pc, #20]	; (da88 <audiodf_midi_register_callback+0x2c>)
    da74:	4798      	blx	r3
    da76:	2000      	movs	r0, #0
    da78:	bd10      	pop	{r4, pc}
    da7a:	4b02      	ldr	r3, [pc, #8]	; (da84 <audiodf_midi_register_callback+0x28>)
    da7c:	2102      	movs	r1, #2
    da7e:	7998      	ldrb	r0, [r3, #6]
    da80:	e7f7      	b.n	da72 <audiodf_midi_register_callback+0x16>
    da82:	bf00      	nop
    da84:	20000e9c 	.word	0x20000e9c
    da88:	00009a45 	.word	0x00009a45

0000da8c <usbdc_unconfig>:
    da8c:	4b05      	ldr	r3, [pc, #20]	; (daa4 <usbdc_unconfig+0x18>)
    da8e:	b510      	push	{r4, lr}
    da90:	691c      	ldr	r4, [r3, #16]
    da92:	b904      	cbnz	r4, da96 <usbdc_unconfig+0xa>
    da94:	bd10      	pop	{r4, pc}
    da96:	6863      	ldr	r3, [r4, #4]
    da98:	4620      	mov	r0, r4
    da9a:	2200      	movs	r2, #0
    da9c:	2101      	movs	r1, #1
    da9e:	4798      	blx	r3
    daa0:	6824      	ldr	r4, [r4, #0]
    daa2:	e7f6      	b.n	da92 <usbdc_unconfig+0x6>
    daa4:	20000eb8 	.word	0x20000eb8

0000daa8 <usbdc_change_notify>:
    daa8:	4b06      	ldr	r3, [pc, #24]	; (dac4 <usbdc_change_notify+0x1c>)
    daaa:	b570      	push	{r4, r5, r6, lr}
    daac:	68dc      	ldr	r4, [r3, #12]
    daae:	4605      	mov	r5, r0
    dab0:	460e      	mov	r6, r1
    dab2:	b904      	cbnz	r4, dab6 <usbdc_change_notify+0xe>
    dab4:	bd70      	pop	{r4, r5, r6, pc}
    dab6:	6863      	ldr	r3, [r4, #4]
    dab8:	b113      	cbz	r3, dac0 <usbdc_change_notify+0x18>
    daba:	4631      	mov	r1, r6
    dabc:	4628      	mov	r0, r5
    dabe:	4798      	blx	r3
    dac0:	6824      	ldr	r4, [r4, #0]
    dac2:	e7f6      	b.n	dab2 <usbdc_change_notify+0xa>
    dac4:	20000eb8 	.word	0x20000eb8

0000dac8 <usbdc_request_handler>:
    dac8:	b5f8      	push	{r3, r4, r5, r6, r7, lr}
    daca:	4b0c      	ldr	r3, [pc, #48]	; (dafc <usbdc_request_handler+0x34>)
    dacc:	689c      	ldr	r4, [r3, #8]
    dace:	4605      	mov	r5, r0
    dad0:	460e      	mov	r6, r1
    dad2:	4617      	mov	r7, r2
    dad4:	b90c      	cbnz	r4, dada <usbdc_request_handler+0x12>
    dad6:	4620      	mov	r0, r4
    dad8:	bdf8      	pop	{r3, r4, r5, r6, r7, pc}
    dada:	6863      	ldr	r3, [r4, #4]
    dadc:	b90b      	cbnz	r3, dae2 <usbdc_request_handler+0x1a>
    dade:	6824      	ldr	r4, [r4, #0]
    dae0:	e7f8      	b.n	dad4 <usbdc_request_handler+0xc>
    dae2:	463a      	mov	r2, r7
    dae4:	4631      	mov	r1, r6
    dae6:	4628      	mov	r0, r5
    dae8:	4798      	blx	r3
    daea:	b120      	cbz	r0, daf6 <usbdc_request_handler+0x2e>
    daec:	300a      	adds	r0, #10
    daee:	d0f6      	beq.n	dade <usbdc_request_handler+0x16>
    daf0:	f04f 30ff 	mov.w	r0, #4294967295
    daf4:	bdf8      	pop	{r3, r4, r5, r6, r7, pc}
    daf6:	2001      	movs	r0, #1
    daf8:	bdf8      	pop	{r3, r4, r5, r6, r7, pc}
    dafa:	bf00      	nop
    dafc:	20000eb8 	.word	0x20000eb8

0000db00 <usbd_sof_cb>:
    db00:	4b04      	ldr	r3, [pc, #16]	; (db14 <usbd_sof_cb+0x14>)
    db02:	b510      	push	{r4, lr}
    db04:	685c      	ldr	r4, [r3, #4]
    db06:	b904      	cbnz	r4, db0a <usbd_sof_cb+0xa>
    db08:	bd10      	pop	{r4, pc}
    db0a:	6863      	ldr	r3, [r4, #4]
    db0c:	b103      	cbz	r3, db10 <usbd_sof_cb+0x10>
    db0e:	4798      	blx	r3
    db10:	6824      	ldr	r4, [r4, #0]
    db12:	e7f8      	b.n	db06 <usbd_sof_cb+0x6>
    db14:	20000eb8 	.word	0x20000eb8

0000db18 <usbdc_cb_ctl_done>:
    db18:	b510      	push	{r4, lr}
    db1a:	4614      	mov	r4, r2
    db1c:	460a      	mov	r2, r1
    db1e:	b119      	cbz	r1, db28 <usbdc_cb_ctl_done+0x10>
    db20:	2901      	cmp	r1, #1
    db22:	d020      	beq.n	db66 <usbdc_cb_ctl_done+0x4e>
    db24:	2000      	movs	r0, #0
    db26:	bd10      	pop	{r4, pc}
    db28:	7823      	ldrb	r3, [r4, #0]
    db2a:	2b00      	cmp	r3, #0
    db2c:	d1fa      	bne.n	db24 <usbdc_cb_ctl_done+0xc>
    db2e:	7863      	ldrb	r3, [r4, #1]
    db30:	2b05      	cmp	r3, #5
    db32:	d00d      	beq.n	db50 <usbdc_cb_ctl_done+0x38>
    db34:	2b09      	cmp	r3, #9
    db36:	d1f5      	bne.n	db24 <usbdc_cb_ctl_done+0xc>
    db38:	8862      	ldrh	r2, [r4, #2]
    db3a:	4b0d      	ldr	r3, [pc, #52]	; (db70 <usbdc_cb_ctl_done+0x58>)
    db3c:	2a00      	cmp	r2, #0
    db3e:	76da      	strb	r2, [r3, #27]
    db40:	bf14      	ite	ne
    db42:	2104      	movne	r1, #4
    db44:	2103      	moveq	r1, #3
    db46:	7699      	strb	r1, [r3, #26]
    db48:	2001      	movs	r0, #1
    db4a:	4b0a      	ldr	r3, [pc, #40]	; (db74 <usbdc_cb_ctl_done+0x5c>)
    db4c:	4798      	blx	r3
    db4e:	e7e9      	b.n	db24 <usbdc_cb_ctl_done+0xc>
    db50:	8860      	ldrh	r0, [r4, #2]
    db52:	4b09      	ldr	r3, [pc, #36]	; (db78 <usbdc_cb_ctl_done+0x60>)
    db54:	b2c0      	uxtb	r0, r0
    db56:	4798      	blx	r3
    db58:	8863      	ldrh	r3, [r4, #2]
    db5a:	2b00      	cmp	r3, #0
    db5c:	bf14      	ite	ne
    db5e:	2103      	movne	r1, #3
    db60:	2102      	moveq	r1, #2
    db62:	4b03      	ldr	r3, [pc, #12]	; (db70 <usbdc_cb_ctl_done+0x58>)
    db64:	e7ef      	b.n	db46 <usbdc_cb_ctl_done+0x2e>
    db66:	4621      	mov	r1, r4
    db68:	4b04      	ldr	r3, [pc, #16]	; (db7c <usbdc_cb_ctl_done+0x64>)
    db6a:	2000      	movs	r0, #0
    db6c:	4798      	blx	r3
    db6e:	e7d9      	b.n	db24 <usbdc_cb_ctl_done+0xc>
    db70:	20000eb8 	.word	0x20000eb8
    db74:	0000daa9 	.word	0x0000daa9
    db78:	00009815 	.word	0x00009815
    db7c:	0000dac9 	.word	0x0000dac9

0000db80 <usbdc_reset>:
    db80:	b570      	push	{r4, r5, r6, lr}
    db82:	4b0e      	ldr	r3, [pc, #56]	; (dbbc <usbdc_reset+0x3c>)
    db84:	4d0e      	ldr	r5, [pc, #56]	; (dbc0 <usbdc_reset+0x40>)
    db86:	2400      	movs	r4, #0
    db88:	4798      	blx	r3
    db8a:	2602      	movs	r6, #2
    db8c:	4620      	mov	r0, r4
    db8e:	4b0d      	ldr	r3, [pc, #52]	; (dbc4 <usbdc_reset+0x44>)
    db90:	76ae      	strb	r6, [r5, #26]
    db92:	76ec      	strb	r4, [r5, #27]
    db94:	776c      	strb	r4, [r5, #29]
    db96:	4798      	blx	r3
    db98:	4b0b      	ldr	r3, [pc, #44]	; (dbc8 <usbdc_reset+0x48>)
    db9a:	7f28      	ldrb	r0, [r5, #28]
    db9c:	4d0b      	ldr	r5, [pc, #44]	; (dbcc <usbdc_reset+0x4c>)
    db9e:	4798      	blx	r3
    dba0:	4621      	mov	r1, r4
    dba2:	4620      	mov	r0, r4
    dba4:	4a0a      	ldr	r2, [pc, #40]	; (dbd0 <usbdc_reset+0x50>)
    dba6:	47a8      	blx	r5
    dba8:	4620      	mov	r0, r4
    dbaa:	4631      	mov	r1, r6
    dbac:	4a09      	ldr	r2, [pc, #36]	; (dbd4 <usbdc_reset+0x54>)
    dbae:	47a8      	blx	r5
    dbb0:	4620      	mov	r0, r4
    dbb2:	4b09      	ldr	r3, [pc, #36]	; (dbd8 <usbdc_reset+0x58>)
    dbb4:	e8bd 4070 	ldmia.w	sp!, {r4, r5, r6, lr}
    dbb8:	4718      	bx	r3
    dbba:	bf00      	nop
    dbbc:	0000da8d 	.word	0x0000da8d
    dbc0:	20000eb8 	.word	0x20000eb8
    dbc4:	0000987d 	.word	0x0000987d
    dbc8:	0000986d 	.word	0x0000986d
    dbcc:	00009a45 	.word	0x00009a45
    dbd0:	0000dc15 	.word	0x0000dc15
    dbd4:	0000db19 	.word	0x0000db19
    dbd8:	000098a9 	.word	0x000098a9

0000dbdc <usbd_event_cb>:
    dbdc:	b110      	cbz	r0, dbe4 <usbd_event_cb+0x8>
    dbde:	2801      	cmp	r0, #1
    dbe0:	d002      	beq.n	dbe8 <usbd_event_cb+0xc>
    dbe2:	4770      	bx	lr
    dbe4:	4b01      	ldr	r3, [pc, #4]	; (dbec <usbd_event_cb+0x10>)
    dbe6:	4718      	bx	r3
    dbe8:	4b01      	ldr	r3, [pc, #4]	; (dbf0 <usbd_event_cb+0x14>)
    dbea:	4718      	bx	r3
    dbec:	0000daa9 	.word	0x0000daa9
    dbf0:	0000db81 	.word	0x0000db81

0000dbf4 <usbdc_xfer>:
    dbf4:	b51f      	push	{r0, r1, r2, r3, r4, lr}
    dbf6:	f88d 000c 	strb.w	r0, [sp, #12]
    dbfa:	f88d 300d 	strb.w	r3, [sp, #13]
    dbfe:	a801      	add	r0, sp, #4
    dc00:	4b03      	ldr	r3, [pc, #12]	; (dc10 <usbdc_xfer+0x1c>)
    dc02:	9101      	str	r1, [sp, #4]
    dc04:	9202      	str	r2, [sp, #8]
    dc06:	4798      	blx	r3
    dc08:	b005      	add	sp, #20
    dc0a:	f85d fb04 	ldr.w	pc, [sp], #4
    dc0e:	bf00      	nop
    dc10:	000098e9 	.word	0x000098e9

0000dc14 <usbdc_cb_ctl_req>:
    dc14:	e92d 43f7 	stmdb	sp!, {r0, r1, r2, r4, r5, r6, r7, r8, r9, lr}
    dc18:	4baa      	ldr	r3, [pc, #680]	; (dec4 <usbdc_cb_ctl_req+0x2b0>)
    dc1a:	2200      	movs	r2, #0
    dc1c:	4605      	mov	r5, r0
    dc1e:	460c      	mov	r4, r1
    dc20:	4798      	blx	r3
    dc22:	1c43      	adds	r3, r0, #1
    dc24:	d008      	beq.n	dc38 <usbdc_cb_ctl_req+0x24>
    dc26:	2801      	cmp	r0, #1
    dc28:	d075      	beq.n	dd16 <usbdc_cb_ctl_req+0x102>
    dc2a:	7821      	ldrb	r1, [r4, #0]
    dc2c:	f011 03e0 	ands.w	r3, r1, #224	; 0xe0
    dc30:	d004      	beq.n	dc3c <usbdc_cb_ctl_req+0x28>
    dc32:	2b80      	cmp	r3, #128	; 0x80
    dc34:	f000 80c4 	beq.w	ddc0 <usbdc_cb_ctl_req+0x1ac>
    dc38:	2000      	movs	r0, #0
    dc3a:	e06c      	b.n	dd16 <usbdc_cb_ctl_req+0x102>
    dc3c:	7863      	ldrb	r3, [r4, #1]
    dc3e:	3b01      	subs	r3, #1
    dc40:	2b0a      	cmp	r3, #10
    dc42:	d8f9      	bhi.n	dc38 <usbdc_cb_ctl_req+0x24>
    dc44:	a201      	add	r2, pc, #4	; (adr r2, dc4c <usbdc_cb_ctl_req+0x38>)
    dc46:	f852 f023 	ldr.w	pc, [r2, r3, lsl #2]
    dc4a:	bf00      	nop
    dc4c:	0000dcf5 	.word	0x0000dcf5
    dc50:	0000dc39 	.word	0x0000dc39
    dc54:	0000dd1d 	.word	0x0000dd1d
    dc58:	0000dc39 	.word	0x0000dc39
    dc5c:	0000dc83 	.word	0x0000dc83
    dc60:	0000dc39 	.word	0x0000dc39
    dc64:	0000dc39 	.word	0x0000dc39
    dc68:	0000dc39 	.word	0x0000dc39
    dc6c:	0000dc79 	.word	0x0000dc79
    dc70:	0000dc39 	.word	0x0000dc39
    dc74:	0000dd2d 	.word	0x0000dd2d
    dc78:	8862      	ldrh	r2, [r4, #2]
    dc7a:	b2d2      	uxtb	r2, r2
    dc7c:	b92a      	cbnz	r2, dc8a <usbdc_cb_ctl_req+0x76>
    dc7e:	4b92      	ldr	r3, [pc, #584]	; (dec8 <usbdc_cb_ctl_req+0x2b4>)
    dc80:	4798      	blx	r3
    dc82:	2200      	movs	r2, #0
    dc84:	2301      	movs	r3, #1
    dc86:	4611      	mov	r1, r2
    dc88:	e0ec      	b.n	de64 <usbdc_cb_ctl_req+0x250>
    dc8a:	4c90      	ldr	r4, [pc, #576]	; (decc <usbdc_cb_ctl_req+0x2b8>)
    dc8c:	6823      	ldr	r3, [r4, #0]
    dc8e:	e893 0003 	ldmia.w	r3, {r0, r1}
    dc92:	4b8f      	ldr	r3, [pc, #572]	; (ded0 <usbdc_cb_ctl_req+0x2bc>)
    dc94:	4798      	blx	r3
    dc96:	2800      	cmp	r0, #0
    dc98:	d0ce      	beq.n	dc38 <usbdc_cb_ctl_req+0x24>
    dc9a:	78c2      	ldrb	r2, [r0, #3]
    dc9c:	7883      	ldrb	r3, [r0, #2]
    dc9e:	4f8d      	ldr	r7, [pc, #564]	; (ded4 <usbdc_cb_ctl_req+0x2c0>)
    dca0:	eb03 2302 	add.w	r3, r3, r2, lsl #8
    dca4:	fa10 f183 	uxtah	r1, r0, r3
    dca8:	2204      	movs	r2, #4
    dcaa:	9101      	str	r1, [sp, #4]
    dcac:	47b8      	blx	r7
    dcae:	f10d 0808 	add.w	r8, sp, #8
    dcb2:	23ff      	movs	r3, #255	; 0xff
    dcb4:	f848 0d08 	str.w	r0, [r8, #-8]!
    dcb8:	9a00      	ldr	r2, [sp, #0]
    dcba:	2a00      	cmp	r2, #0
    dcbc:	d0e1      	beq.n	dc82 <usbdc_cb_ctl_req+0x6e>
    dcbe:	f892 9002 	ldrb.w	r9, [r2, #2]
    dcc2:	4599      	cmp	r9, r3
    dcc4:	d014      	beq.n	dcf0 <usbdc_cb_ctl_req+0xdc>
    dcc6:	6926      	ldr	r6, [r4, #16]
    dcc8:	b94e      	cbnz	r6, dcde <usbdc_cb_ctl_req+0xca>
    dcca:	9800      	ldr	r0, [sp, #0]
    dccc:	9901      	ldr	r1, [sp, #4]
    dcce:	7803      	ldrb	r3, [r0, #0]
    dcd0:	2204      	movs	r2, #4
    dcd2:	4418      	add	r0, r3
    dcd4:	9000      	str	r0, [sp, #0]
    dcd6:	47b8      	blx	r7
    dcd8:	464b      	mov	r3, r9
    dcda:	9000      	str	r0, [sp, #0]
    dcdc:	e7ec      	b.n	dcb8 <usbdc_cb_ctl_req+0xa4>
    dcde:	6873      	ldr	r3, [r6, #4]
    dce0:	4642      	mov	r2, r8
    dce2:	2100      	movs	r1, #0
    dce4:	4630      	mov	r0, r6
    dce6:	4798      	blx	r3
    dce8:	2800      	cmp	r0, #0
    dcea:	d0ee      	beq.n	dcca <usbdc_cb_ctl_req+0xb6>
    dcec:	6836      	ldr	r6, [r6, #0]
    dcee:	e7eb      	b.n	dcc8 <usbdc_cb_ctl_req+0xb4>
    dcf0:	4699      	mov	r9, r3
    dcf2:	e7ea      	b.n	dcca <usbdc_cb_ctl_req+0xb6>
    dcf4:	2902      	cmp	r1, #2
    dcf6:	d19f      	bne.n	dc38 <usbdc_cb_ctl_req+0x24>
    dcf8:	88e6      	ldrh	r6, [r4, #6]
    dcfa:	2e00      	cmp	r6, #0
    dcfc:	d19c      	bne.n	dc38 <usbdc_cb_ctl_req+0x24>
    dcfe:	88a0      	ldrh	r0, [r4, #4]
    dd00:	4631      	mov	r1, r6
    dd02:	4b75      	ldr	r3, [pc, #468]	; (ded8 <usbdc_cb_ctl_req+0x2c4>)
    dd04:	b2c0      	uxtb	r0, r0
    dd06:	4798      	blx	r3
    dd08:	2301      	movs	r3, #1
    dd0a:	4632      	mov	r2, r6
    dd0c:	4631      	mov	r1, r6
    dd0e:	4628      	mov	r0, r5
    dd10:	4c72      	ldr	r4, [pc, #456]	; (dedc <usbdc_cb_ctl_req+0x2c8>)
    dd12:	47a0      	blx	r4
    dd14:	2001      	movs	r0, #1
    dd16:	b003      	add	sp, #12
    dd18:	e8bd 83f0 	ldmia.w	sp!, {r4, r5, r6, r7, r8, r9, pc}
    dd1c:	2902      	cmp	r1, #2
    dd1e:	d18b      	bne.n	dc38 <usbdc_cb_ctl_req+0x24>
    dd20:	88e6      	ldrh	r6, [r4, #6]
    dd22:	2e00      	cmp	r6, #0
    dd24:	d188      	bne.n	dc38 <usbdc_cb_ctl_req+0x24>
    dd26:	88a0      	ldrh	r0, [r4, #4]
    dd28:	2101      	movs	r1, #1
    dd2a:	e7ea      	b.n	dd02 <usbdc_cb_ctl_req+0xee>
    dd2c:	4d67      	ldr	r5, [pc, #412]	; (decc <usbdc_cb_ctl_req+0x2b8>)
    dd2e:	8866      	ldrh	r6, [r4, #2]
    dd30:	682b      	ldr	r3, [r5, #0]
    dd32:	7eea      	ldrb	r2, [r5, #27]
    dd34:	88a7      	ldrh	r7, [r4, #4]
    dd36:	e893 0003 	ldmia.w	r3, {r0, r1}
    dd3a:	4b65      	ldr	r3, [pc, #404]	; (ded0 <usbdc_cb_ctl_req+0x2bc>)
    dd3c:	4798      	blx	r3
    dd3e:	2800      	cmp	r0, #0
    dd40:	f43f af7a 	beq.w	dc38 <usbdc_cb_ctl_req+0x24>
    dd44:	9000      	str	r0, [sp, #0]
    dd46:	78c2      	ldrb	r2, [r0, #3]
    dd48:	7881      	ldrb	r1, [r0, #2]
    dd4a:	4c62      	ldr	r4, [pc, #392]	; (ded4 <usbdc_cb_ctl_req+0x2c0>)
    dd4c:	eb01 2102 	add.w	r1, r1, r2, lsl #8
    dd50:	fa10 f181 	uxtah	r1, r0, r1
    dd54:	9101      	str	r1, [sp, #4]
    dd56:	2204      	movs	r2, #4
    dd58:	47a0      	blx	r4
    dd5a:	2800      	cmp	r0, #0
    dd5c:	f43f af6c 	beq.w	dc38 <usbdc_cb_ctl_req+0x24>
    dd60:	7883      	ldrb	r3, [r0, #2]
    dd62:	42bb      	cmp	r3, r7
    dd64:	d113      	bne.n	dd8e <usbdc_cb_ctl_req+0x17a>
    dd66:	78c3      	ldrb	r3, [r0, #3]
    dd68:	42b3      	cmp	r3, r6
    dd6a:	d110      	bne.n	dd8e <usbdc_cb_ctl_req+0x17a>
    dd6c:	f10d 0808 	add.w	r8, sp, #8
    dd70:	692c      	ldr	r4, [r5, #16]
    dd72:	f848 0d08 	str.w	r0, [r8, #-8]!
    dd76:	2c00      	cmp	r4, #0
    dd78:	f43f af5e 	beq.w	dc38 <usbdc_cb_ctl_req+0x24>
    dd7c:	2101      	movs	r1, #1
    dd7e:	6863      	ldr	r3, [r4, #4]
    dd80:	4642      	mov	r2, r8
    dd82:	4620      	mov	r0, r4
    dd84:	4798      	blx	r3
    dd86:	4601      	mov	r1, r0
    dd88:	b140      	cbz	r0, dd9c <usbdc_cb_ctl_req+0x188>
    dd8a:	6824      	ldr	r4, [r4, #0]
    dd8c:	e7f3      	b.n	dd76 <usbdc_cb_ctl_req+0x162>
    dd8e:	9800      	ldr	r0, [sp, #0]
    dd90:	9901      	ldr	r1, [sp, #4]
    dd92:	7803      	ldrb	r3, [r0, #0]
    dd94:	4418      	add	r0, r3
    dd96:	9000      	str	r0, [sp, #0]
    dd98:	2204      	movs	r2, #4
    dd9a:	e7dd      	b.n	dd58 <usbdc_cb_ctl_req+0x144>
    dd9c:	6863      	ldr	r3, [r4, #4]
    dd9e:	4642      	mov	r2, r8
    dda0:	4620      	mov	r0, r4
    dda2:	4798      	blx	r3
    dda4:	2800      	cmp	r0, #0
    dda6:	f47f af47 	bne.w	dc38 <usbdc_cb_ctl_req+0x24>
    ddaa:	b126      	cbz	r6, ddb6 <usbdc_cb_ctl_req+0x1a2>
    ddac:	2301      	movs	r3, #1
    ddae:	40bb      	lsls	r3, r7
    ddb0:	7f6f      	ldrb	r7, [r5, #29]
    ddb2:	431f      	orrs	r7, r3
    ddb4:	776f      	strb	r7, [r5, #29]
    ddb6:	2300      	movs	r3, #0
    ddb8:	461a      	mov	r2, r3
    ddba:	4619      	mov	r1, r3
    ddbc:	4618      	mov	r0, r3
    ddbe:	e7a7      	b.n	dd10 <usbdc_cb_ctl_req+0xfc>
    ddc0:	7863      	ldrb	r3, [r4, #1]
    ddc2:	2b0a      	cmp	r3, #10
    ddc4:	f63f af38 	bhi.w	dc38 <usbdc_cb_ctl_req+0x24>
    ddc8:	a201      	add	r2, pc, #4	; (adr r2, ddd0 <usbdc_cb_ctl_req+0x1bc>)
    ddca:	f852 f023 	ldr.w	pc, [r2, r3, lsl #2]
    ddce:	bf00      	nop
    ddd0:	0000de9f 	.word	0x0000de9f
    ddd4:	0000dc39 	.word	0x0000dc39
    ddd8:	0000dc39 	.word	0x0000dc39
    dddc:	0000dc39 	.word	0x0000dc39
    dde0:	0000dc39 	.word	0x0000dc39
    dde4:	0000dc39 	.word	0x0000dc39
    dde8:	0000ddfd 	.word	0x0000ddfd
    ddec:	0000dc39 	.word	0x0000dc39
    ddf0:	0000de8f 	.word	0x0000de8f
    ddf4:	0000dc39 	.word	0x0000dc39
    ddf8:	0000def9 	.word	0x0000def9
    ddfc:	8863      	ldrh	r3, [r4, #2]
    ddfe:	0a1a      	lsrs	r2, r3, #8
    de00:	2a02      	cmp	r2, #2
    de02:	d014      	beq.n	de2e <usbdc_cb_ctl_req+0x21a>
    de04:	2a03      	cmp	r2, #3
    de06:	d034      	beq.n	de72 <usbdc_cb_ctl_req+0x25e>
    de08:	2a01      	cmp	r2, #1
    de0a:	f47f af15 	bne.w	dc38 <usbdc_cb_ctl_req+0x24>
    de0e:	4b2f      	ldr	r3, [pc, #188]	; (decc <usbdc_cb_ctl_req+0x2b8>)
    de10:	88e4      	ldrh	r4, [r4, #6]
    de12:	681b      	ldr	r3, [r3, #0]
    de14:	2c12      	cmp	r4, #18
    de16:	e893 0003 	ldmia.w	r3, {r0, r1}
    de1a:	4b2e      	ldr	r3, [pc, #184]	; (ded4 <usbdc_cb_ctl_req+0x2c0>)
    de1c:	bf28      	it	cs
    de1e:	2412      	movcs	r4, #18
    de20:	4798      	blx	r3
    de22:	4601      	mov	r1, r0
    de24:	2800      	cmp	r0, #0
    de26:	f43f af07 	beq.w	dc38 <usbdc_cb_ctl_req+0x24>
    de2a:	2300      	movs	r3, #0
    de2c:	e019      	b.n	de62 <usbdc_cb_ctl_req+0x24e>
    de2e:	4a27      	ldr	r2, [pc, #156]	; (decc <usbdc_cb_ctl_req+0x2b8>)
    de30:	88e4      	ldrh	r4, [r4, #6]
    de32:	6810      	ldr	r0, [r2, #0]
    de34:	7f16      	ldrb	r6, [r2, #28]
    de36:	1c5a      	adds	r2, r3, #1
    de38:	c803      	ldmia	r0, {r0, r1}
    de3a:	b2d2      	uxtb	r2, r2
    de3c:	4b24      	ldr	r3, [pc, #144]	; (ded0 <usbdc_cb_ctl_req+0x2bc>)
    de3e:	4798      	blx	r3
    de40:	4601      	mov	r1, r0
    de42:	2800      	cmp	r0, #0
    de44:	f43f aef8 	beq.w	dc38 <usbdc_cb_ctl_req+0x24>
    de48:	78c3      	ldrb	r3, [r0, #3]
    de4a:	7882      	ldrb	r2, [r0, #2]
    de4c:	eb02 2203 	add.w	r2, r2, r3, lsl #8
    de50:	b292      	uxth	r2, r2
    de52:	4294      	cmp	r4, r2
    de54:	d9e9      	bls.n	de2a <usbdc_cb_ctl_req+0x216>
    de56:	3e01      	subs	r6, #1
    de58:	4226      	tst	r6, r4
    de5a:	bf0c      	ite	eq
    de5c:	2301      	moveq	r3, #1
    de5e:	2300      	movne	r3, #0
    de60:	4614      	mov	r4, r2
    de62:	4622      	mov	r2, r4
    de64:	4628      	mov	r0, r5
    de66:	4c1d      	ldr	r4, [pc, #116]	; (dedc <usbdc_cb_ctl_req+0x2c8>)
    de68:	47a0      	blx	r4
    de6a:	fab0 f080 	clz	r0, r0
    de6e:	0940      	lsrs	r0, r0, #5
    de70:	e751      	b.n	dd16 <usbdc_cb_ctl_req+0x102>
    de72:	4a16      	ldr	r2, [pc, #88]	; (decc <usbdc_cb_ctl_req+0x2b8>)
    de74:	88e4      	ldrh	r4, [r4, #6]
    de76:	6810      	ldr	r0, [r2, #0]
    de78:	7f16      	ldrb	r6, [r2, #28]
    de7a:	c803      	ldmia	r0, {r0, r1}
    de7c:	b2da      	uxtb	r2, r3
    de7e:	4b18      	ldr	r3, [pc, #96]	; (dee0 <usbdc_cb_ctl_req+0x2cc>)
    de80:	4798      	blx	r3
    de82:	4601      	mov	r1, r0
    de84:	2800      	cmp	r0, #0
    de86:	f43f aed7 	beq.w	dc38 <usbdc_cb_ctl_req+0x24>
    de8a:	7802      	ldrb	r2, [r0, #0]
    de8c:	e7e1      	b.n	de52 <usbdc_cb_ctl_req+0x23e>
    de8e:	490f      	ldr	r1, [pc, #60]	; (decc <usbdc_cb_ctl_req+0x2b8>)
    de90:	694b      	ldr	r3, [r1, #20]
    de92:	7eca      	ldrb	r2, [r1, #27]
    de94:	701a      	strb	r2, [r3, #0]
    de96:	2300      	movs	r3, #0
    de98:	2201      	movs	r2, #1
    de9a:	6949      	ldr	r1, [r1, #20]
    de9c:	e737      	b.n	dd0e <usbdc_cb_ctl_req+0xfa>
    de9e:	f001 011f 	and.w	r1, r1, #31
    dea2:	2901      	cmp	r1, #1
    dea4:	d91e      	bls.n	dee4 <usbdc_cb_ctl_req+0x2d0>
    dea6:	2902      	cmp	r1, #2
    dea8:	f47f aec6 	bne.w	dc38 <usbdc_cb_ctl_req+0x24>
    deac:	88a0      	ldrh	r0, [r4, #4]
    deae:	4b0a      	ldr	r3, [pc, #40]	; (ded8 <usbdc_cb_ctl_req+0x2c4>)
    deb0:	b2c0      	uxtb	r0, r0
    deb2:	4798      	blx	r3
    deb4:	2800      	cmp	r0, #0
    deb6:	f6ff aebf 	blt.w	dc38 <usbdc_cb_ctl_req+0x24>
    deba:	f000 0001 	and.w	r0, r0, #1
    debe:	9000      	str	r0, [sp, #0]
    dec0:	e012      	b.n	dee8 <usbdc_cb_ctl_req+0x2d4>
    dec2:	bf00      	nop
    dec4:	0000dac9 	.word	0x0000dac9
    dec8:	0000da8d 	.word	0x0000da8d
    decc:	20000eb8 	.word	0x20000eb8
    ded0:	0000e051 	.word	0x0000e051
    ded4:	0000e019 	.word	0x0000e019
    ded8:	000099e1 	.word	0x000099e1
    dedc:	0000dbf5 	.word	0x0000dbf5
    dee0:	0000e08d 	.word	0x0000e08d
    dee4:	2300      	movs	r3, #0
    dee6:	9300      	str	r3, [sp, #0]
    dee8:	4913      	ldr	r1, [pc, #76]	; (df38 <usbdc_cb_ctl_req+0x324>)
    deea:	f8bd 2000 	ldrh.w	r2, [sp]
    deee:	694b      	ldr	r3, [r1, #20]
    def0:	801a      	strh	r2, [r3, #0]
    def2:	2300      	movs	r3, #0
    def4:	2202      	movs	r2, #2
    def6:	e7d0      	b.n	de9a <usbdc_cb_ctl_req+0x286>
    def8:	490f      	ldr	r1, [pc, #60]	; (df38 <usbdc_cb_ctl_req+0x324>)
    defa:	88a2      	ldrh	r2, [r4, #4]
    defc:	7f4b      	ldrb	r3, [r1, #29]
    defe:	4113      	asrs	r3, r2
    df00:	f013 0301 	ands.w	r3, r3, #1
    df04:	460e      	mov	r6, r1
    df06:	d115      	bne.n	df34 <usbdc_cb_ctl_req+0x320>
    df08:	694a      	ldr	r2, [r1, #20]
    df0a:	7013      	strb	r3, [r2, #0]
    df0c:	6949      	ldr	r1, [r1, #20]
    df0e:	2201      	movs	r2, #1
    df10:	e754      	b.n	ddbc <usbdc_cb_ctl_req+0x1a8>
    df12:	686b      	ldr	r3, [r5, #4]
    df14:	4622      	mov	r2, r4
    df16:	2102      	movs	r1, #2
    df18:	4628      	mov	r0, r5
    df1a:	4798      	blx	r3
    df1c:	2800      	cmp	r0, #0
    df1e:	da03      	bge.n	df28 <usbdc_cb_ctl_req+0x314>
    df20:	682d      	ldr	r5, [r5, #0]
    df22:	2d00      	cmp	r5, #0
    df24:	d1f5      	bne.n	df12 <usbdc_cb_ctl_req+0x2fe>
    df26:	e687      	b.n	dc38 <usbdc_cb_ctl_req+0x24>
    df28:	6973      	ldr	r3, [r6, #20]
    df2a:	7018      	strb	r0, [r3, #0]
    df2c:	2201      	movs	r2, #1
    df2e:	2300      	movs	r3, #0
    df30:	6971      	ldr	r1, [r6, #20]
    df32:	e743      	b.n	ddbc <usbdc_cb_ctl_req+0x1a8>
    df34:	690d      	ldr	r5, [r1, #16]
    df36:	e7f4      	b.n	df22 <usbdc_cb_ctl_req+0x30e>
    df38:	20000eb8 	.word	0x20000eb8

0000df3c <usbdc_register_handler>:
    df3c:	2801      	cmp	r0, #1
    df3e:	d006      	beq.n	df4e <usbdc_register_handler+0x12>
    df40:	d302      	bcc.n	df48 <usbdc_register_handler+0xc>
    df42:	2802      	cmp	r0, #2
    df44:	d005      	beq.n	df52 <usbdc_register_handler+0x16>
    df46:	4770      	bx	lr
    df48:	4803      	ldr	r0, [pc, #12]	; (df58 <usbdc_register_handler+0x1c>)
    df4a:	4b04      	ldr	r3, [pc, #16]	; (df5c <usbdc_register_handler+0x20>)
    df4c:	4718      	bx	r3
    df4e:	4804      	ldr	r0, [pc, #16]	; (df60 <usbdc_register_handler+0x24>)
    df50:	e7fb      	b.n	df4a <usbdc_register_handler+0xe>
    df52:	4804      	ldr	r0, [pc, #16]	; (df64 <usbdc_register_handler+0x28>)
    df54:	e7f9      	b.n	df4a <usbdc_register_handler+0xe>
    df56:	bf00      	nop
    df58:	20000ebc 	.word	0x20000ebc
    df5c:	00009aaf 	.word	0x00009aaf
    df60:	20000ec0 	.word	0x20000ec0
    df64:	20000ec4 	.word	0x20000ec4

0000df68 <usbdc_init>:
    df68:	b538      	push	{r3, r4, r5, lr}
    df6a:	4b0a      	ldr	r3, [pc, #40]	; (df94 <usbdc_init+0x2c>)
    df6c:	4605      	mov	r5, r0
    df6e:	4798      	blx	r3
    df70:	2800      	cmp	r0, #0
    df72:	db0e      	blt.n	df92 <usbdc_init+0x2a>
    df74:	4c08      	ldr	r4, [pc, #32]	; (df98 <usbdc_init+0x30>)
    df76:	4b09      	ldr	r3, [pc, #36]	; (df9c <usbdc_init+0x34>)
    df78:	2220      	movs	r2, #32
    df7a:	2100      	movs	r1, #0
    df7c:	4620      	mov	r0, r4
    df7e:	4798      	blx	r3
    df80:	6165      	str	r5, [r4, #20]
    df82:	4907      	ldr	r1, [pc, #28]	; (dfa0 <usbdc_init+0x38>)
    df84:	4c07      	ldr	r4, [pc, #28]	; (dfa4 <usbdc_init+0x3c>)
    df86:	2000      	movs	r0, #0
    df88:	47a0      	blx	r4
    df8a:	2001      	movs	r0, #1
    df8c:	4906      	ldr	r1, [pc, #24]	; (dfa8 <usbdc_init+0x40>)
    df8e:	47a0      	blx	r4
    df90:	2000      	movs	r0, #0
    df92:	bd38      	pop	{r3, r4, r5, pc}
    df94:	0000978d 	.word	0x0000978d
    df98:	20000eb8 	.word	0x20000eb8
    df9c:	0000ea0f 	.word	0x0000ea0f
    dfa0:	0000db01 	.word	0x0000db01
    dfa4:	000097f5 	.word	0x000097f5
    dfa8:	0000dbdd 	.word	0x0000dbdd

0000dfac <usbdc_register_function>:
    dfac:	4601      	mov	r1, r0
    dfae:	4b01      	ldr	r3, [pc, #4]	; (dfb4 <usbdc_register_function+0x8>)
    dfb0:	4801      	ldr	r0, [pc, #4]	; (dfb8 <usbdc_register_function+0xc>)
    dfb2:	4718      	bx	r3
    dfb4:	00009aaf 	.word	0x00009aaf
    dfb8:	20000ec8 	.word	0x20000ec8

0000dfbc <usbdc_start>:
    dfbc:	b510      	push	{r4, lr}
    dfbe:	4b0a      	ldr	r3, [pc, #40]	; (dfe8 <usbdc_start+0x2c>)
    dfc0:	7e9c      	ldrb	r4, [r3, #26]
    dfc2:	b954      	cbnz	r4, dfda <usbdc_start+0x1e>
    dfc4:	b160      	cbz	r0, dfe0 <usbdc_start+0x24>
    dfc6:	6802      	ldr	r2, [r0, #0]
    dfc8:	6018      	str	r0, [r3, #0]
    dfca:	79d2      	ldrb	r2, [r2, #7]
    dfcc:	771a      	strb	r2, [r3, #28]
    dfce:	2201      	movs	r2, #1
    dfd0:	769a      	strb	r2, [r3, #26]
    dfd2:	4b06      	ldr	r3, [pc, #24]	; (dfec <usbdc_start+0x30>)
    dfd4:	4798      	blx	r3
    dfd6:	4620      	mov	r0, r4
    dfd8:	bd10      	pop	{r4, pc}
    dfda:	f06f 0003 	mvn.w	r0, #3
    dfde:	bd10      	pop	{r4, pc}
    dfe0:	f06f 0008 	mvn.w	r0, #8
    dfe4:	bd10      	pop	{r4, pc}
    dfe6:	bf00      	nop
    dfe8:	20000eb8 	.word	0x20000eb8
    dfec:	000097fd 	.word	0x000097fd

0000dff0 <usbdc_attach>:
    dff0:	4b00      	ldr	r3, [pc, #0]	; (dff4 <usbdc_attach+0x4>)
    dff2:	4718      	bx	r3
    dff4:	00009805 	.word	0x00009805

0000dff8 <usbdc_get_ctrl_buffer>:
    dff8:	4b01      	ldr	r3, [pc, #4]	; (e000 <usbdc_get_ctrl_buffer+0x8>)
    dffa:	6958      	ldr	r0, [r3, #20]
    dffc:	4770      	bx	lr
    dffe:	bf00      	nop
    e000:	20000eb8 	.word	0x20000eb8

0000e004 <usbdc_get_state>:
    e004:	4b03      	ldr	r3, [pc, #12]	; (e014 <usbdc_get_state+0x10>)
    e006:	7e98      	ldrb	r0, [r3, #26]
    e008:	f010 0f10 	tst.w	r0, #16
    e00c:	bf18      	it	ne
    e00e:	2010      	movne	r0, #16
    e010:	4770      	bx	lr
    e012:	bf00      	nop
    e014:	20000eb8 	.word	0x20000eb8

0000e018 <usb_find_desc>:
    e018:	b510      	push	{r4, lr}
    e01a:	4288      	cmp	r0, r1
    e01c:	d301      	bcc.n	e022 <usb_find_desc+0xa>
    e01e:	2000      	movs	r0, #0
    e020:	bd10      	pop	{r4, pc}
    e022:	7803      	ldrb	r3, [r0, #0]
    e024:	2b01      	cmp	r3, #1
    e026:	d9fa      	bls.n	e01e <usb_find_desc+0x6>
    e028:	7844      	ldrb	r4, [r0, #1]
    e02a:	4294      	cmp	r4, r2
    e02c:	d0f8      	beq.n	e020 <usb_find_desc+0x8>
    e02e:	4418      	add	r0, r3
    e030:	e7f3      	b.n	e01a <usb_find_desc+0x2>

0000e032 <usb_find_ep_desc>:
    e032:	4288      	cmp	r0, r1
    e034:	d301      	bcc.n	e03a <usb_find_ep_desc+0x8>
    e036:	2000      	movs	r0, #0
    e038:	4770      	bx	lr
    e03a:	7803      	ldrb	r3, [r0, #0]
    e03c:	2b01      	cmp	r3, #1
    e03e:	d9fa      	bls.n	e036 <usb_find_ep_desc+0x4>
    e040:	7842      	ldrb	r2, [r0, #1]
    e042:	2a04      	cmp	r2, #4
    e044:	d0f7      	beq.n	e036 <usb_find_ep_desc+0x4>
    e046:	2a05      	cmp	r2, #5
    e048:	d0f6      	beq.n	e038 <usb_find_ep_desc+0x6>
    e04a:	4418      	add	r0, r3
    e04c:	e7f1      	b.n	e032 <usb_find_ep_desc>
	...

0000e050 <usb_find_cfg_desc>:
    e050:	b538      	push	{r3, r4, r5, lr}
    e052:	4615      	mov	r5, r2
    e054:	4b0c      	ldr	r3, [pc, #48]	; (e088 <usb_find_cfg_desc+0x38>)
    e056:	2202      	movs	r2, #2
    e058:	460c      	mov	r4, r1
    e05a:	4798      	blx	r3
    e05c:	b978      	cbnz	r0, e07e <usb_find_cfg_desc+0x2e>
    e05e:	bd38      	pop	{r3, r4, r5, pc}
    e060:	7803      	ldrb	r3, [r0, #0]
    e062:	2b01      	cmp	r3, #1
    e064:	d90d      	bls.n	e082 <usb_find_cfg_desc+0x32>
    e066:	7843      	ldrb	r3, [r0, #1]
    e068:	2b02      	cmp	r3, #2
    e06a:	d10a      	bne.n	e082 <usb_find_cfg_desc+0x32>
    e06c:	7943      	ldrb	r3, [r0, #5]
    e06e:	42ab      	cmp	r3, r5
    e070:	d008      	beq.n	e084 <usb_find_cfg_desc+0x34>
    e072:	78c2      	ldrb	r2, [r0, #3]
    e074:	7883      	ldrb	r3, [r0, #2]
    e076:	eb03 2302 	add.w	r3, r3, r2, lsl #8
    e07a:	fa10 f083 	uxtah	r0, r0, r3
    e07e:	42a0      	cmp	r0, r4
    e080:	d3ee      	bcc.n	e060 <usb_find_cfg_desc+0x10>
    e082:	2000      	movs	r0, #0
    e084:	bd38      	pop	{r3, r4, r5, pc}
    e086:	bf00      	nop
    e088:	0000e019 	.word	0x0000e019

0000e08c <usb_find_str_desc>:
    e08c:	b5f8      	push	{r3, r4, r5, r6, r7, lr}
    e08e:	4f0a      	ldr	r7, [pc, #40]	; (e0b8 <usb_find_str_desc+0x2c>)
    e090:	460d      	mov	r5, r1
    e092:	4616      	mov	r6, r2
    e094:	2400      	movs	r4, #0
    e096:	42a8      	cmp	r0, r5
    e098:	d301      	bcc.n	e09e <usb_find_str_desc+0x12>
    e09a:	2000      	movs	r0, #0
    e09c:	bdf8      	pop	{r3, r4, r5, r6, r7, pc}
    e09e:	2203      	movs	r2, #3
    e0a0:	4629      	mov	r1, r5
    e0a2:	47b8      	blx	r7
    e0a4:	2800      	cmp	r0, #0
    e0a6:	d0f9      	beq.n	e09c <usb_find_str_desc+0x10>
    e0a8:	7803      	ldrb	r3, [r0, #0]
    e0aa:	2b01      	cmp	r3, #1
    e0ac:	d9f5      	bls.n	e09a <usb_find_str_desc+0xe>
    e0ae:	42b4      	cmp	r4, r6
    e0b0:	d0f4      	beq.n	e09c <usb_find_str_desc+0x10>
    e0b2:	4418      	add	r0, r3
    e0b4:	3401      	adds	r4, #1
    e0b6:	e7ee      	b.n	e096 <usb_find_str_desc+0xa>
    e0b8:	0000e019 	.word	0x0000e019

0000e0bc <gpio_get_pin_level>:
    e0bc:	b537      	push	{r0, r1, r2, r4, r5, lr}
    e0be:	4b0e      	ldr	r3, [pc, #56]	; (e0f8 <gpio_get_pin_level+0x3c>)
    e0c0:	4605      	mov	r5, r0
    e0c2:	a801      	add	r0, sp, #4
    e0c4:	4798      	blx	r3
    e0c6:	096b      	lsrs	r3, r5, #5
    e0c8:	490c      	ldr	r1, [pc, #48]	; (e0fc <gpio_get_pin_level+0x40>)
    e0ca:	01db      	lsls	r3, r3, #7
    e0cc:	18ca      	adds	r2, r1, r3
    e0ce:	58c9      	ldr	r1, [r1, r3]
    e0d0:	6a13      	ldr	r3, [r2, #32]
    e0d2:	6914      	ldr	r4, [r2, #16]
    e0d4:	405c      	eors	r4, r3
    e0d6:	400c      	ands	r4, r1
    e0d8:	a801      	add	r0, sp, #4
    e0da:	405c      	eors	r4, r3
    e0dc:	4b08      	ldr	r3, [pc, #32]	; (e100 <gpio_get_pin_level+0x44>)
    e0de:	4798      	blx	r3
    e0e0:	f005 051f 	and.w	r5, r5, #31
    e0e4:	2301      	movs	r3, #1
    e0e6:	fa03 f505 	lsl.w	r5, r3, r5
    e0ea:	4225      	tst	r5, r4
    e0ec:	bf14      	ite	ne
    e0ee:	4618      	movne	r0, r3
    e0f0:	2000      	moveq	r0, #0
    e0f2:	b003      	add	sp, #12
    e0f4:	bd30      	pop	{r4, r5, pc}
    e0f6:	bf00      	nop
    e0f8:	00008cf5 	.word	0x00008cf5
    e0fc:	41008000 	.word	0x41008000
    e100:	00008d03 	.word	0x00008d03

0000e104 <hiddf_demo_sof_event>:
    e104:	b570      	push	{r4, r5, r6, lr}
    e106:	4a18      	ldr	r2, [pc, #96]	; (e168 <hiddf_demo_sof_event+0x64>)
    e108:	7913      	ldrb	r3, [r2, #4]
    e10a:	2b0a      	cmp	r3, #10
    e10c:	4614      	mov	r4, r2
    e10e:	d802      	bhi.n	e116 <hiddf_demo_sof_event+0x12>
    e110:	3301      	adds	r3, #1
    e112:	7113      	strb	r3, [r2, #4]
    e114:	bd70      	pop	{r4, r5, r6, pc}
    e116:	2300      	movs	r3, #0
    e118:	7a10      	ldrb	r0, [r2, #8]
    e11a:	4d14      	ldr	r5, [pc, #80]	; (e16c <hiddf_demo_sof_event+0x68>)
    e11c:	7113      	strb	r3, [r2, #4]
    e11e:	47a8      	blx	r5
    e120:	b920      	cbnz	r0, e12c <hiddf_demo_sof_event+0x28>
    e122:	2101      	movs	r1, #1
    e124:	f06f 0004 	mvn.w	r0, #4
    e128:	4b11      	ldr	r3, [pc, #68]	; (e170 <hiddf_demo_sof_event+0x6c>)
    e12a:	4798      	blx	r3
    e12c:	7b20      	ldrb	r0, [r4, #12]
    e12e:	47a8      	blx	r5
    e130:	b918      	cbnz	r0, e13a <hiddf_demo_sof_event+0x36>
    e132:	2101      	movs	r1, #1
    e134:	2005      	movs	r0, #5
    e136:	4b0e      	ldr	r3, [pc, #56]	; (e170 <hiddf_demo_sof_event+0x6c>)
    e138:	4798      	blx	r3
    e13a:	7c20      	ldrb	r0, [r4, #16]
    e13c:	47a8      	blx	r5
    e13e:	7d23      	ldrb	r3, [r4, #20]
    e140:	f080 0001 	eor.w	r0, r0, #1
    e144:	b2c0      	uxtb	r0, r0
    e146:	4283      	cmp	r3, r0
    e148:	d00c      	beq.n	e164 <hiddf_demo_sof_event+0x60>
    e14a:	7520      	strb	r0, [r4, #20]
    e14c:	4b09      	ldr	r3, [pc, #36]	; (e174 <hiddf_demo_sof_event+0x70>)
    e14e:	b138      	cbz	r0, e160 <hiddf_demo_sof_event+0x5c>
    e150:	2201      	movs	r2, #1
    e152:	709a      	strb	r2, [r3, #2]
    e154:	2101      	movs	r1, #1
    e156:	4807      	ldr	r0, [pc, #28]	; (e174 <hiddf_demo_sof_event+0x70>)
    e158:	4b07      	ldr	r3, [pc, #28]	; (e178 <hiddf_demo_sof_event+0x74>)
    e15a:	e8bd 4070 	ldmia.w	sp!, {r4, r5, r6, lr}
    e15e:	4718      	bx	r3
    e160:	7098      	strb	r0, [r3, #2]
    e162:	e7f7      	b.n	e154 <hiddf_demo_sof_event+0x50>
    e164:	bd70      	pop	{r4, r5, r6, pc}
    e166:	bf00      	nop
    e168:	20000ed8 	.word	0x20000ed8
    e16c:	0000e0bd 	.word	0x0000e0bd
    e170:	0000d791 	.word	0x0000d791
    e174:	200003a8 	.word	0x200003a8
    e178:	0000d555 	.word	0x0000d555

0000e17c <composite_device_init>:
    e17c:	b510      	push	{r4, lr}
    e17e:	4b05      	ldr	r3, [pc, #20]	; (e194 <composite_device_init+0x18>)
    e180:	4805      	ldr	r0, [pc, #20]	; (e198 <composite_device_init+0x1c>)
    e182:	4798      	blx	r3
    e184:	4b05      	ldr	r3, [pc, #20]	; (e19c <composite_device_init+0x20>)
    e186:	4798      	blx	r3
    e188:	4b05      	ldr	r3, [pc, #20]	; (e1a0 <composite_device_init+0x24>)
    e18a:	4798      	blx	r3
    e18c:	4b05      	ldr	r3, [pc, #20]	; (e1a4 <composite_device_init+0x28>)
    e18e:	e8bd 4010 	ldmia.w	sp!, {r4, lr}
    e192:	4718      	bx	r3
    e194:	0000df69 	.word	0x0000df69
    e198:	20000eed 	.word	0x20000eed
    e19c:	0000d29d 	.word	0x0000d29d
    e1a0:	0000d74d 	.word	0x0000d74d
    e1a4:	0000d511 	.word	0x0000d511

0000e1a8 <composite_device_start>:
    e1a8:	b510      	push	{r4, lr}
    e1aa:	4b03      	ldr	r3, [pc, #12]	; (e1b8 <composite_device_start+0x10>)
    e1ac:	4803      	ldr	r0, [pc, #12]	; (e1bc <composite_device_start+0x14>)
    e1ae:	4798      	blx	r3
    e1b0:	4b03      	ldr	r3, [pc, #12]	; (e1c0 <composite_device_start+0x18>)
    e1b2:	e8bd 4010 	ldmia.w	sp!, {r4, lr}
    e1b6:	4718      	bx	r3
    e1b8:	0000dfbd 	.word	0x0000dfbd
    e1bc:	200003b4 	.word	0x200003b4
    e1c0:	0000dff1 	.word	0x0000dff1

0000e1c4 <usb_init>:
    e1c4:	4b00      	ldr	r3, [pc, #0]	; (e1c8 <usb_init+0x4>)
    e1c6:	4718      	bx	r3
    e1c8:	0000e17d 	.word	0x0000e17d

0000e1cc <__aeabi_drsub>:
    e1cc:	f081 4100 	eor.w	r1, r1, #2147483648	; 0x80000000
    e1d0:	e002      	b.n	e1d8 <__adddf3>
    e1d2:	bf00      	nop

0000e1d4 <__aeabi_dsub>:
    e1d4:	f083 4300 	eor.w	r3, r3, #2147483648	; 0x80000000

0000e1d8 <__adddf3>:
    e1d8:	b530      	push	{r4, r5, lr}
    e1da:	ea4f 0441 	mov.w	r4, r1, lsl #1
    e1de:	ea4f 0543 	mov.w	r5, r3, lsl #1
    e1e2:	ea94 0f05 	teq	r4, r5
    e1e6:	bf08      	it	eq
    e1e8:	ea90 0f02 	teqeq	r0, r2
    e1ec:	bf1f      	itttt	ne
    e1ee:	ea54 0c00 	orrsne.w	ip, r4, r0
    e1f2:	ea55 0c02 	orrsne.w	ip, r5, r2
    e1f6:	ea7f 5c64 	mvnsne.w	ip, r4, asr #21
    e1fa:	ea7f 5c65 	mvnsne.w	ip, r5, asr #21
    e1fe:	f000 80e2 	beq.w	e3c6 <__adddf3+0x1ee>
    e202:	ea4f 5454 	mov.w	r4, r4, lsr #21
    e206:	ebd4 5555 	rsbs	r5, r4, r5, lsr #21
    e20a:	bfb8      	it	lt
    e20c:	426d      	neglt	r5, r5
    e20e:	dd0c      	ble.n	e22a <__adddf3+0x52>
    e210:	442c      	add	r4, r5
    e212:	ea80 0202 	eor.w	r2, r0, r2
    e216:	ea81 0303 	eor.w	r3, r1, r3
    e21a:	ea82 0000 	eor.w	r0, r2, r0
    e21e:	ea83 0101 	eor.w	r1, r3, r1
    e222:	ea80 0202 	eor.w	r2, r0, r2
    e226:	ea81 0303 	eor.w	r3, r1, r3
    e22a:	2d36      	cmp	r5, #54	; 0x36
    e22c:	bf88      	it	hi
    e22e:	bd30      	pophi	{r4, r5, pc}
    e230:	f011 4f00 	tst.w	r1, #2147483648	; 0x80000000
    e234:	ea4f 3101 	mov.w	r1, r1, lsl #12
    e238:	f44f 1c80 	mov.w	ip, #1048576	; 0x100000
    e23c:	ea4c 3111 	orr.w	r1, ip, r1, lsr #12
    e240:	d002      	beq.n	e248 <__adddf3+0x70>
    e242:	4240      	negs	r0, r0
    e244:	eb61 0141 	sbc.w	r1, r1, r1, lsl #1
    e248:	f013 4f00 	tst.w	r3, #2147483648	; 0x80000000
    e24c:	ea4f 3303 	mov.w	r3, r3, lsl #12
    e250:	ea4c 3313 	orr.w	r3, ip, r3, lsr #12
    e254:	d002      	beq.n	e25c <__adddf3+0x84>
    e256:	4252      	negs	r2, r2
    e258:	eb63 0343 	sbc.w	r3, r3, r3, lsl #1
    e25c:	ea94 0f05 	teq	r4, r5
    e260:	f000 80a7 	beq.w	e3b2 <__adddf3+0x1da>
    e264:	f1a4 0401 	sub.w	r4, r4, #1
    e268:	f1d5 0e20 	rsbs	lr, r5, #32
    e26c:	db0d      	blt.n	e28a <__adddf3+0xb2>
    e26e:	fa02 fc0e 	lsl.w	ip, r2, lr
    e272:	fa22 f205 	lsr.w	r2, r2, r5
    e276:	1880      	adds	r0, r0, r2
    e278:	f141 0100 	adc.w	r1, r1, #0
    e27c:	fa03 f20e 	lsl.w	r2, r3, lr
    e280:	1880      	adds	r0, r0, r2
    e282:	fa43 f305 	asr.w	r3, r3, r5
    e286:	4159      	adcs	r1, r3
    e288:	e00e      	b.n	e2a8 <__adddf3+0xd0>
    e28a:	f1a5 0520 	sub.w	r5, r5, #32
    e28e:	f10e 0e20 	add.w	lr, lr, #32
    e292:	2a01      	cmp	r2, #1
    e294:	fa03 fc0e 	lsl.w	ip, r3, lr
    e298:	bf28      	it	cs
    e29a:	f04c 0c02 	orrcs.w	ip, ip, #2
    e29e:	fa43 f305 	asr.w	r3, r3, r5
    e2a2:	18c0      	adds	r0, r0, r3
    e2a4:	eb51 71e3 	adcs.w	r1, r1, r3, asr #31
    e2a8:	f001 4500 	and.w	r5, r1, #2147483648	; 0x80000000
    e2ac:	d507      	bpl.n	e2be <__adddf3+0xe6>
    e2ae:	f04f 0e00 	mov.w	lr, #0
    e2b2:	f1dc 0c00 	rsbs	ip, ip, #0
    e2b6:	eb7e 0000 	sbcs.w	r0, lr, r0
    e2ba:	eb6e 0101 	sbc.w	r1, lr, r1
    e2be:	f5b1 1f80 	cmp.w	r1, #1048576	; 0x100000
    e2c2:	d31b      	bcc.n	e2fc <__adddf3+0x124>
    e2c4:	f5b1 1f00 	cmp.w	r1, #2097152	; 0x200000
    e2c8:	d30c      	bcc.n	e2e4 <__adddf3+0x10c>
    e2ca:	0849      	lsrs	r1, r1, #1
    e2cc:	ea5f 0030 	movs.w	r0, r0, rrx
    e2d0:	ea4f 0c3c 	mov.w	ip, ip, rrx
    e2d4:	f104 0401 	add.w	r4, r4, #1
    e2d8:	ea4f 5244 	mov.w	r2, r4, lsl #21
    e2dc:	f512 0f80 	cmn.w	r2, #4194304	; 0x400000
    e2e0:	f080 809a 	bcs.w	e418 <__adddf3+0x240>
    e2e4:	f1bc 4f00 	cmp.w	ip, #2147483648	; 0x80000000
    e2e8:	bf08      	it	eq
    e2ea:	ea5f 0c50 	movseq.w	ip, r0, lsr #1
    e2ee:	f150 0000 	adcs.w	r0, r0, #0
    e2f2:	eb41 5104 	adc.w	r1, r1, r4, lsl #20
    e2f6:	ea41 0105 	orr.w	r1, r1, r5
    e2fa:	bd30      	pop	{r4, r5, pc}
    e2fc:	ea5f 0c4c 	movs.w	ip, ip, lsl #1
    e300:	4140      	adcs	r0, r0
    e302:	eb41 0101 	adc.w	r1, r1, r1
    e306:	f411 1f80 	tst.w	r1, #1048576	; 0x100000
    e30a:	f1a4 0401 	sub.w	r4, r4, #1
    e30e:	d1e9      	bne.n	e2e4 <__adddf3+0x10c>
    e310:	f091 0f00 	teq	r1, #0
    e314:	bf04      	itt	eq
    e316:	4601      	moveq	r1, r0
    e318:	2000      	moveq	r0, #0
    e31a:	fab1 f381 	clz	r3, r1
    e31e:	bf08      	it	eq
    e320:	3320      	addeq	r3, #32
    e322:	f1a3 030b 	sub.w	r3, r3, #11
    e326:	f1b3 0220 	subs.w	r2, r3, #32
    e32a:	da0c      	bge.n	e346 <__adddf3+0x16e>
    e32c:	320c      	adds	r2, #12
    e32e:	dd08      	ble.n	e342 <__adddf3+0x16a>
    e330:	f102 0c14 	add.w	ip, r2, #20
    e334:	f1c2 020c 	rsb	r2, r2, #12
    e338:	fa01 f00c 	lsl.w	r0, r1, ip
    e33c:	fa21 f102 	lsr.w	r1, r1, r2
    e340:	e00c      	b.n	e35c <__adddf3+0x184>
    e342:	f102 0214 	add.w	r2, r2, #20
    e346:	bfd8      	it	le
    e348:	f1c2 0c20 	rsble	ip, r2, #32
    e34c:	fa01 f102 	lsl.w	r1, r1, r2
    e350:	fa20 fc0c 	lsr.w	ip, r0, ip
    e354:	bfdc      	itt	le
    e356:	ea41 010c 	orrle.w	r1, r1, ip
    e35a:	4090      	lslle	r0, r2
    e35c:	1ae4      	subs	r4, r4, r3
    e35e:	bfa2      	ittt	ge
    e360:	eb01 5104 	addge.w	r1, r1, r4, lsl #20
    e364:	4329      	orrge	r1, r5
    e366:	bd30      	popge	{r4, r5, pc}
    e368:	ea6f 0404 	mvn.w	r4, r4
    e36c:	3c1f      	subs	r4, #31
    e36e:	da1c      	bge.n	e3aa <__adddf3+0x1d2>
    e370:	340c      	adds	r4, #12
    e372:	dc0e      	bgt.n	e392 <__adddf3+0x1ba>
    e374:	f104 0414 	add.w	r4, r4, #20
    e378:	f1c4 0220 	rsb	r2, r4, #32
    e37c:	fa20 f004 	lsr.w	r0, r0, r4
    e380:	fa01 f302 	lsl.w	r3, r1, r2
    e384:	ea40 0003 	orr.w	r0, r0, r3
    e388:	fa21 f304 	lsr.w	r3, r1, r4
    e38c:	ea45 0103 	orr.w	r1, r5, r3
    e390:	bd30      	pop	{r4, r5, pc}
    e392:	f1c4 040c 	rsb	r4, r4, #12
    e396:	f1c4 0220 	rsb	r2, r4, #32
    e39a:	fa20 f002 	lsr.w	r0, r0, r2
    e39e:	fa01 f304 	lsl.w	r3, r1, r4
    e3a2:	ea40 0003 	orr.w	r0, r0, r3
    e3a6:	4629      	mov	r1, r5
    e3a8:	bd30      	pop	{r4, r5, pc}
    e3aa:	fa21 f004 	lsr.w	r0, r1, r4
    e3ae:	4629      	mov	r1, r5
    e3b0:	bd30      	pop	{r4, r5, pc}
    e3b2:	f094 0f00 	teq	r4, #0
    e3b6:	f483 1380 	eor.w	r3, r3, #1048576	; 0x100000
    e3ba:	bf06      	itte	eq
    e3bc:	f481 1180 	eoreq.w	r1, r1, #1048576	; 0x100000
    e3c0:	3401      	addeq	r4, #1
    e3c2:	3d01      	subne	r5, #1
    e3c4:	e74e      	b.n	e264 <__adddf3+0x8c>
    e3c6:	ea7f 5c64 	mvns.w	ip, r4, asr #21
    e3ca:	bf18      	it	ne
    e3cc:	ea7f 5c65 	mvnsne.w	ip, r5, asr #21
    e3d0:	d029      	beq.n	e426 <__adddf3+0x24e>
    e3d2:	ea94 0f05 	teq	r4, r5
    e3d6:	bf08      	it	eq
    e3d8:	ea90 0f02 	teqeq	r0, r2
    e3dc:	d005      	beq.n	e3ea <__adddf3+0x212>
    e3de:	ea54 0c00 	orrs.w	ip, r4, r0
    e3e2:	bf04      	itt	eq
    e3e4:	4619      	moveq	r1, r3
    e3e6:	4610      	moveq	r0, r2
    e3e8:	bd30      	pop	{r4, r5, pc}
    e3ea:	ea91 0f03 	teq	r1, r3
    e3ee:	bf1e      	ittt	ne
    e3f0:	2100      	movne	r1, #0
    e3f2:	2000      	movne	r0, #0
    e3f4:	bd30      	popne	{r4, r5, pc}
    e3f6:	ea5f 5c54 	movs.w	ip, r4, lsr #21
    e3fa:	d105      	bne.n	e408 <__adddf3+0x230>
    e3fc:	0040      	lsls	r0, r0, #1
    e3fe:	4149      	adcs	r1, r1
    e400:	bf28      	it	cs
    e402:	f041 4100 	orrcs.w	r1, r1, #2147483648	; 0x80000000
    e406:	bd30      	pop	{r4, r5, pc}
    e408:	f514 0480 	adds.w	r4, r4, #4194304	; 0x400000
    e40c:	bf3c      	itt	cc
    e40e:	f501 1180 	addcc.w	r1, r1, #1048576	; 0x100000
    e412:	bd30      	popcc	{r4, r5, pc}
    e414:	f001 4500 	and.w	r5, r1, #2147483648	; 0x80000000
    e418:	f045 41fe 	orr.w	r1, r5, #2130706432	; 0x7f000000
    e41c:	f441 0170 	orr.w	r1, r1, #15728640	; 0xf00000
    e420:	f04f 0000 	mov.w	r0, #0
    e424:	bd30      	pop	{r4, r5, pc}
    e426:	ea7f 5c64 	mvns.w	ip, r4, asr #21
    e42a:	bf1a      	itte	ne
    e42c:	4619      	movne	r1, r3
    e42e:	4610      	movne	r0, r2
    e430:	ea7f 5c65 	mvnseq.w	ip, r5, asr #21
    e434:	bf1c      	itt	ne
    e436:	460b      	movne	r3, r1
    e438:	4602      	movne	r2, r0
    e43a:	ea50 3401 	orrs.w	r4, r0, r1, lsl #12
    e43e:	bf06      	itte	eq
    e440:	ea52 3503 	orrseq.w	r5, r2, r3, lsl #12
    e444:	ea91 0f03 	teqeq	r1, r3
    e448:	f441 2100 	orrne.w	r1, r1, #524288	; 0x80000
    e44c:	bd30      	pop	{r4, r5, pc}
    e44e:	bf00      	nop

0000e450 <__aeabi_ui2d>:
    e450:	f090 0f00 	teq	r0, #0
    e454:	bf04      	itt	eq
    e456:	2100      	moveq	r1, #0
    e458:	4770      	bxeq	lr
    e45a:	b530      	push	{r4, r5, lr}
    e45c:	f44f 6480 	mov.w	r4, #1024	; 0x400
    e460:	f104 0432 	add.w	r4, r4, #50	; 0x32
    e464:	f04f 0500 	mov.w	r5, #0
    e468:	f04f 0100 	mov.w	r1, #0
    e46c:	e750      	b.n	e310 <__adddf3+0x138>
    e46e:	bf00      	nop

0000e470 <__aeabi_i2d>:
    e470:	f090 0f00 	teq	r0, #0
    e474:	bf04      	itt	eq
    e476:	2100      	moveq	r1, #0
    e478:	4770      	bxeq	lr
    e47a:	b530      	push	{r4, r5, lr}
    e47c:	f44f 6480 	mov.w	r4, #1024	; 0x400
    e480:	f104 0432 	add.w	r4, r4, #50	; 0x32
    e484:	f010 4500 	ands.w	r5, r0, #2147483648	; 0x80000000
    e488:	bf48      	it	mi
    e48a:	4240      	negmi	r0, r0
    e48c:	f04f 0100 	mov.w	r1, #0
    e490:	e73e      	b.n	e310 <__adddf3+0x138>
    e492:	bf00      	nop

0000e494 <__aeabi_f2d>:
    e494:	0042      	lsls	r2, r0, #1
    e496:	ea4f 01e2 	mov.w	r1, r2, asr #3
    e49a:	ea4f 0131 	mov.w	r1, r1, rrx
    e49e:	ea4f 7002 	mov.w	r0, r2, lsl #28
    e4a2:	bf1f      	itttt	ne
    e4a4:	f012 437f 	andsne.w	r3, r2, #4278190080	; 0xff000000
    e4a8:	f093 4f7f 	teqne	r3, #4278190080	; 0xff000000
    e4ac:	f081 5160 	eorne.w	r1, r1, #939524096	; 0x38000000
    e4b0:	4770      	bxne	lr
    e4b2:	f092 0f00 	teq	r2, #0
    e4b6:	bf14      	ite	ne
    e4b8:	f093 4f7f 	teqne	r3, #4278190080	; 0xff000000
    e4bc:	4770      	bxeq	lr
    e4be:	b530      	push	{r4, r5, lr}
    e4c0:	f44f 7460 	mov.w	r4, #896	; 0x380
    e4c4:	f001 4500 	and.w	r5, r1, #2147483648	; 0x80000000
    e4c8:	f021 4100 	bic.w	r1, r1, #2147483648	; 0x80000000
    e4cc:	e720      	b.n	e310 <__adddf3+0x138>
    e4ce:	bf00      	nop

0000e4d0 <__aeabi_ul2d>:
    e4d0:	ea50 0201 	orrs.w	r2, r0, r1
    e4d4:	bf08      	it	eq
    e4d6:	4770      	bxeq	lr
    e4d8:	b530      	push	{r4, r5, lr}
    e4da:	f04f 0500 	mov.w	r5, #0
    e4de:	e00a      	b.n	e4f6 <__aeabi_l2d+0x16>

0000e4e0 <__aeabi_l2d>:
    e4e0:	ea50 0201 	orrs.w	r2, r0, r1
    e4e4:	bf08      	it	eq
    e4e6:	4770      	bxeq	lr
    e4e8:	b530      	push	{r4, r5, lr}
    e4ea:	f011 4500 	ands.w	r5, r1, #2147483648	; 0x80000000
    e4ee:	d502      	bpl.n	e4f6 <__aeabi_l2d+0x16>
    e4f0:	4240      	negs	r0, r0
    e4f2:	eb61 0141 	sbc.w	r1, r1, r1, lsl #1
    e4f6:	f44f 6480 	mov.w	r4, #1024	; 0x400
    e4fa:	f104 0432 	add.w	r4, r4, #50	; 0x32
    e4fe:	ea5f 5c91 	movs.w	ip, r1, lsr #22
    e502:	f43f aedc 	beq.w	e2be <__adddf3+0xe6>
    e506:	f04f 0203 	mov.w	r2, #3
    e50a:	ea5f 0cdc 	movs.w	ip, ip, lsr #3
    e50e:	bf18      	it	ne
    e510:	3203      	addne	r2, #3
    e512:	ea5f 0cdc 	movs.w	ip, ip, lsr #3
    e516:	bf18      	it	ne
    e518:	3203      	addne	r2, #3
    e51a:	eb02 02dc 	add.w	r2, r2, ip, lsr #3
    e51e:	f1c2 0320 	rsb	r3, r2, #32
    e522:	fa00 fc03 	lsl.w	ip, r0, r3
    e526:	fa20 f002 	lsr.w	r0, r0, r2
    e52a:	fa01 fe03 	lsl.w	lr, r1, r3
    e52e:	ea40 000e 	orr.w	r0, r0, lr
    e532:	fa21 f102 	lsr.w	r1, r1, r2
    e536:	4414      	add	r4, r2
    e538:	e6c1      	b.n	e2be <__adddf3+0xe6>
    e53a:	bf00      	nop

0000e53c <__aeabi_dmul>:
    e53c:	b570      	push	{r4, r5, r6, lr}
    e53e:	f04f 0cff 	mov.w	ip, #255	; 0xff
    e542:	f44c 6ce0 	orr.w	ip, ip, #1792	; 0x700
    e546:	ea1c 5411 	ands.w	r4, ip, r1, lsr #20
    e54a:	bf1d      	ittte	ne
    e54c:	ea1c 5513 	andsne.w	r5, ip, r3, lsr #20
    e550:	ea94 0f0c 	teqne	r4, ip
    e554:	ea95 0f0c 	teqne	r5, ip
    e558:	f000 f8de 	bleq	e718 <__aeabi_dmul+0x1dc>
    e55c:	442c      	add	r4, r5
    e55e:	ea81 0603 	eor.w	r6, r1, r3
    e562:	ea21 514c 	bic.w	r1, r1, ip, lsl #21
    e566:	ea23 534c 	bic.w	r3, r3, ip, lsl #21
    e56a:	ea50 3501 	orrs.w	r5, r0, r1, lsl #12
    e56e:	bf18      	it	ne
    e570:	ea52 3503 	orrsne.w	r5, r2, r3, lsl #12
    e574:	f441 1180 	orr.w	r1, r1, #1048576	; 0x100000
    e578:	f443 1380 	orr.w	r3, r3, #1048576	; 0x100000
    e57c:	d038      	beq.n	e5f0 <__aeabi_dmul+0xb4>
    e57e:	fba0 ce02 	umull	ip, lr, r0, r2
    e582:	f04f 0500 	mov.w	r5, #0
    e586:	fbe1 e502 	umlal	lr, r5, r1, r2
    e58a:	f006 4200 	and.w	r2, r6, #2147483648	; 0x80000000
    e58e:	fbe0 e503 	umlal	lr, r5, r0, r3
    e592:	f04f 0600 	mov.w	r6, #0
    e596:	fbe1 5603 	umlal	r5, r6, r1, r3
    e59a:	f09c 0f00 	teq	ip, #0
    e59e:	bf18      	it	ne
    e5a0:	f04e 0e01 	orrne.w	lr, lr, #1
    e5a4:	f1a4 04ff 	sub.w	r4, r4, #255	; 0xff
    e5a8:	f5b6 7f00 	cmp.w	r6, #512	; 0x200
    e5ac:	f564 7440 	sbc.w	r4, r4, #768	; 0x300
    e5b0:	d204      	bcs.n	e5bc <__aeabi_dmul+0x80>
    e5b2:	ea5f 0e4e 	movs.w	lr, lr, lsl #1
    e5b6:	416d      	adcs	r5, r5
    e5b8:	eb46 0606 	adc.w	r6, r6, r6
    e5bc:	ea42 21c6 	orr.w	r1, r2, r6, lsl #11
    e5c0:	ea41 5155 	orr.w	r1, r1, r5, lsr #21
    e5c4:	ea4f 20c5 	mov.w	r0, r5, lsl #11
    e5c8:	ea40 505e 	orr.w	r0, r0, lr, lsr #21
    e5cc:	ea4f 2ece 	mov.w	lr, lr, lsl #11
    e5d0:	f1b4 0cfd 	subs.w	ip, r4, #253	; 0xfd
    e5d4:	bf88      	it	hi
    e5d6:	f5bc 6fe0 	cmphi.w	ip, #1792	; 0x700
    e5da:	d81e      	bhi.n	e61a <__aeabi_dmul+0xde>
    e5dc:	f1be 4f00 	cmp.w	lr, #2147483648	; 0x80000000
    e5e0:	bf08      	it	eq
    e5e2:	ea5f 0e50 	movseq.w	lr, r0, lsr #1
    e5e6:	f150 0000 	adcs.w	r0, r0, #0
    e5ea:	eb41 5104 	adc.w	r1, r1, r4, lsl #20
    e5ee:	bd70      	pop	{r4, r5, r6, pc}
    e5f0:	f006 4600 	and.w	r6, r6, #2147483648	; 0x80000000
    e5f4:	ea46 0101 	orr.w	r1, r6, r1
    e5f8:	ea40 0002 	orr.w	r0, r0, r2
    e5fc:	ea81 0103 	eor.w	r1, r1, r3
    e600:	ebb4 045c 	subs.w	r4, r4, ip, lsr #1
    e604:	bfc2      	ittt	gt
    e606:	ebd4 050c 	rsbsgt	r5, r4, ip
    e60a:	ea41 5104 	orrgt.w	r1, r1, r4, lsl #20
    e60e:	bd70      	popgt	{r4, r5, r6, pc}
    e610:	f441 1180 	orr.w	r1, r1, #1048576	; 0x100000
    e614:	f04f 0e00 	mov.w	lr, #0
    e618:	3c01      	subs	r4, #1
    e61a:	f300 80ab 	bgt.w	e774 <__aeabi_dmul+0x238>
    e61e:	f114 0f36 	cmn.w	r4, #54	; 0x36
    e622:	bfde      	ittt	le
    e624:	2000      	movle	r0, #0
    e626:	f001 4100 	andle.w	r1, r1, #2147483648	; 0x80000000
    e62a:	bd70      	pople	{r4, r5, r6, pc}
    e62c:	f1c4 0400 	rsb	r4, r4, #0
    e630:	3c20      	subs	r4, #32
    e632:	da35      	bge.n	e6a0 <__aeabi_dmul+0x164>
    e634:	340c      	adds	r4, #12
    e636:	dc1b      	bgt.n	e670 <__aeabi_dmul+0x134>
    e638:	f104 0414 	add.w	r4, r4, #20
    e63c:	f1c4 0520 	rsb	r5, r4, #32
    e640:	fa00 f305 	lsl.w	r3, r0, r5
    e644:	fa20 f004 	lsr.w	r0, r0, r4
    e648:	fa01 f205 	lsl.w	r2, r1, r5
    e64c:	ea40 0002 	orr.w	r0, r0, r2
    e650:	f001 4200 	and.w	r2, r1, #2147483648	; 0x80000000
    e654:	f021 4100 	bic.w	r1, r1, #2147483648	; 0x80000000
    e658:	eb10 70d3 	adds.w	r0, r0, r3, lsr #31
    e65c:	fa21 f604 	lsr.w	r6, r1, r4
    e660:	eb42 0106 	adc.w	r1, r2, r6
    e664:	ea5e 0e43 	orrs.w	lr, lr, r3, lsl #1
    e668:	bf08      	it	eq
    e66a:	ea20 70d3 	biceq.w	r0, r0, r3, lsr #31
    e66e:	bd70      	pop	{r4, r5, r6, pc}
    e670:	f1c4 040c 	rsb	r4, r4, #12
    e674:	f1c4 0520 	rsb	r5, r4, #32
    e678:	fa00 f304 	lsl.w	r3, r0, r4
    e67c:	fa20 f005 	lsr.w	r0, r0, r5
    e680:	fa01 f204 	lsl.w	r2, r1, r4
    e684:	ea40 0002 	orr.w	r0, r0, r2
    e688:	f001 4100 	and.w	r1, r1, #2147483648	; 0x80000000
    e68c:	eb10 70d3 	adds.w	r0, r0, r3, lsr #31
    e690:	f141 0100 	adc.w	r1, r1, #0
    e694:	ea5e 0e43 	orrs.w	lr, lr, r3, lsl #1
    e698:	bf08      	it	eq
    e69a:	ea20 70d3 	biceq.w	r0, r0, r3, lsr #31
    e69e:	bd70      	pop	{r4, r5, r6, pc}
    e6a0:	f1c4 0520 	rsb	r5, r4, #32
    e6a4:	fa00 f205 	lsl.w	r2, r0, r5
    e6a8:	ea4e 0e02 	orr.w	lr, lr, r2
    e6ac:	fa20 f304 	lsr.w	r3, r0, r4
    e6b0:	fa01 f205 	lsl.w	r2, r1, r5
    e6b4:	ea43 0302 	orr.w	r3, r3, r2
    e6b8:	fa21 f004 	lsr.w	r0, r1, r4
    e6bc:	f001 4100 	and.w	r1, r1, #2147483648	; 0x80000000
    e6c0:	fa21 f204 	lsr.w	r2, r1, r4
    e6c4:	ea20 0002 	bic.w	r0, r0, r2
    e6c8:	eb00 70d3 	add.w	r0, r0, r3, lsr #31
    e6cc:	ea5e 0e43 	orrs.w	lr, lr, r3, lsl #1
    e6d0:	bf08      	it	eq
    e6d2:	ea20 70d3 	biceq.w	r0, r0, r3, lsr #31
    e6d6:	bd70      	pop	{r4, r5, r6, pc}
    e6d8:	f094 0f00 	teq	r4, #0
    e6dc:	d10f      	bne.n	e6fe <__aeabi_dmul+0x1c2>
    e6de:	f001 4600 	and.w	r6, r1, #2147483648	; 0x80000000
    e6e2:	0040      	lsls	r0, r0, #1
    e6e4:	eb41 0101 	adc.w	r1, r1, r1
    e6e8:	f411 1f80 	tst.w	r1, #1048576	; 0x100000
    e6ec:	bf08      	it	eq
    e6ee:	3c01      	subeq	r4, #1
    e6f0:	d0f7      	beq.n	e6e2 <__aeabi_dmul+0x1a6>
    e6f2:	ea41 0106 	orr.w	r1, r1, r6
    e6f6:	f095 0f00 	teq	r5, #0
    e6fa:	bf18      	it	ne
    e6fc:	4770      	bxne	lr
    e6fe:	f003 4600 	and.w	r6, r3, #2147483648	; 0x80000000
    e702:	0052      	lsls	r2, r2, #1
    e704:	eb43 0303 	adc.w	r3, r3, r3
    e708:	f413 1f80 	tst.w	r3, #1048576	; 0x100000
    e70c:	bf08      	it	eq
    e70e:	3d01      	subeq	r5, #1
    e710:	d0f7      	beq.n	e702 <__aeabi_dmul+0x1c6>
    e712:	ea43 0306 	orr.w	r3, r3, r6
    e716:	4770      	bx	lr
    e718:	ea94 0f0c 	teq	r4, ip
    e71c:	ea0c 5513 	and.w	r5, ip, r3, lsr #20
    e720:	bf18      	it	ne
    e722:	ea95 0f0c 	teqne	r5, ip
    e726:	d00c      	beq.n	e742 <__aeabi_dmul+0x206>
    e728:	ea50 0641 	orrs.w	r6, r0, r1, lsl #1
    e72c:	bf18      	it	ne
    e72e:	ea52 0643 	orrsne.w	r6, r2, r3, lsl #1
    e732:	d1d1      	bne.n	e6d8 <__aeabi_dmul+0x19c>
    e734:	ea81 0103 	eor.w	r1, r1, r3
    e738:	f001 4100 	and.w	r1, r1, #2147483648	; 0x80000000
    e73c:	f04f 0000 	mov.w	r0, #0
    e740:	bd70      	pop	{r4, r5, r6, pc}
    e742:	ea50 0641 	orrs.w	r6, r0, r1, lsl #1
    e746:	bf06      	itte	eq
    e748:	4610      	moveq	r0, r2
    e74a:	4619      	moveq	r1, r3
    e74c:	ea52 0643 	orrsne.w	r6, r2, r3, lsl #1
    e750:	d019      	beq.n	e786 <__aeabi_dmul+0x24a>
    e752:	ea94 0f0c 	teq	r4, ip
    e756:	d102      	bne.n	e75e <__aeabi_dmul+0x222>
    e758:	ea50 3601 	orrs.w	r6, r0, r1, lsl #12
    e75c:	d113      	bne.n	e786 <__aeabi_dmul+0x24a>
    e75e:	ea95 0f0c 	teq	r5, ip
    e762:	d105      	bne.n	e770 <__aeabi_dmul+0x234>
    e764:	ea52 3603 	orrs.w	r6, r2, r3, lsl #12
    e768:	bf1c      	itt	ne
    e76a:	4610      	movne	r0, r2
    e76c:	4619      	movne	r1, r3
    e76e:	d10a      	bne.n	e786 <__aeabi_dmul+0x24a>
    e770:	ea81 0103 	eor.w	r1, r1, r3
    e774:	f001 4100 	and.w	r1, r1, #2147483648	; 0x80000000
    e778:	f041 41fe 	orr.w	r1, r1, #2130706432	; 0x7f000000
    e77c:	f441 0170 	orr.w	r1, r1, #15728640	; 0xf00000
    e780:	f04f 0000 	mov.w	r0, #0
    e784:	bd70      	pop	{r4, r5, r6, pc}
    e786:	f041 41fe 	orr.w	r1, r1, #2130706432	; 0x7f000000
    e78a:	f441 0178 	orr.w	r1, r1, #16252928	; 0xf80000
    e78e:	bd70      	pop	{r4, r5, r6, pc}

0000e790 <__aeabi_ddiv>:
    e790:	b570      	push	{r4, r5, r6, lr}
    e792:	f04f 0cff 	mov.w	ip, #255	; 0xff
    e796:	f44c 6ce0 	orr.w	ip, ip, #1792	; 0x700
    e79a:	ea1c 5411 	ands.w	r4, ip, r1, lsr #20
    e79e:	bf1d      	ittte	ne
    e7a0:	ea1c 5513 	andsne.w	r5, ip, r3, lsr #20
    e7a4:	ea94 0f0c 	teqne	r4, ip
    e7a8:	ea95 0f0c 	teqne	r5, ip
    e7ac:	f000 f8a7 	bleq	e8fe <__aeabi_ddiv+0x16e>
    e7b0:	eba4 0405 	sub.w	r4, r4, r5
    e7b4:	ea81 0e03 	eor.w	lr, r1, r3
    e7b8:	ea52 3503 	orrs.w	r5, r2, r3, lsl #12
    e7bc:	ea4f 3101 	mov.w	r1, r1, lsl #12
    e7c0:	f000 8088 	beq.w	e8d4 <__aeabi_ddiv+0x144>
    e7c4:	ea4f 3303 	mov.w	r3, r3, lsl #12
    e7c8:	f04f 5580 	mov.w	r5, #268435456	; 0x10000000
    e7cc:	ea45 1313 	orr.w	r3, r5, r3, lsr #4
    e7d0:	ea43 6312 	orr.w	r3, r3, r2, lsr #24
    e7d4:	ea4f 2202 	mov.w	r2, r2, lsl #8
    e7d8:	ea45 1511 	orr.w	r5, r5, r1, lsr #4
    e7dc:	ea45 6510 	orr.w	r5, r5, r0, lsr #24
    e7e0:	ea4f 2600 	mov.w	r6, r0, lsl #8
    e7e4:	f00e 4100 	and.w	r1, lr, #2147483648	; 0x80000000
    e7e8:	429d      	cmp	r5, r3
    e7ea:	bf08      	it	eq
    e7ec:	4296      	cmpeq	r6, r2
    e7ee:	f144 04fd 	adc.w	r4, r4, #253	; 0xfd
    e7f2:	f504 7440 	add.w	r4, r4, #768	; 0x300
    e7f6:	d202      	bcs.n	e7fe <__aeabi_ddiv+0x6e>
    e7f8:	085b      	lsrs	r3, r3, #1
    e7fa:	ea4f 0232 	mov.w	r2, r2, rrx
    e7fe:	1ab6      	subs	r6, r6, r2
    e800:	eb65 0503 	sbc.w	r5, r5, r3
    e804:	085b      	lsrs	r3, r3, #1
    e806:	ea4f 0232 	mov.w	r2, r2, rrx
    e80a:	f44f 1080 	mov.w	r0, #1048576	; 0x100000
    e80e:	f44f 2c00 	mov.w	ip, #524288	; 0x80000
    e812:	ebb6 0e02 	subs.w	lr, r6, r2
    e816:	eb75 0e03 	sbcs.w	lr, r5, r3
    e81a:	bf22      	ittt	cs
    e81c:	1ab6      	subcs	r6, r6, r2
    e81e:	4675      	movcs	r5, lr
    e820:	ea40 000c 	orrcs.w	r0, r0, ip
    e824:	085b      	lsrs	r3, r3, #1
    e826:	ea4f 0232 	mov.w	r2, r2, rrx
    e82a:	ebb6 0e02 	subs.w	lr, r6, r2
    e82e:	eb75 0e03 	sbcs.w	lr, r5, r3
    e832:	bf22      	ittt	cs
    e834:	1ab6      	subcs	r6, r6, r2
    e836:	4675      	movcs	r5, lr
    e838:	ea40 005c 	orrcs.w	r0, r0, ip, lsr #1
    e83c:	085b      	lsrs	r3, r3, #1
    e83e:	ea4f 0232 	mov.w	r2, r2, rrx
    e842:	ebb6 0e02 	subs.w	lr, r6, r2
    e846:	eb75 0e03 	sbcs.w	lr, r5, r3
    e84a:	bf22      	ittt	cs
    e84c:	1ab6      	subcs	r6, r6, r2
    e84e:	4675      	movcs	r5, lr
    e850:	ea40 009c 	orrcs.w	r0, r0, ip, lsr #2
    e854:	085b      	lsrs	r3, r3, #1
    e856:	ea4f 0232 	mov.w	r2, r2, rrx
    e85a:	ebb6 0e02 	subs.w	lr, r6, r2
    e85e:	eb75 0e03 	sbcs.w	lr, r5, r3
    e862:	bf22      	ittt	cs
    e864:	1ab6      	subcs	r6, r6, r2
    e866:	4675      	movcs	r5, lr
    e868:	ea40 00dc 	orrcs.w	r0, r0, ip, lsr #3
    e86c:	ea55 0e06 	orrs.w	lr, r5, r6
    e870:	d018      	beq.n	e8a4 <__aeabi_ddiv+0x114>
    e872:	ea4f 1505 	mov.w	r5, r5, lsl #4
    e876:	ea45 7516 	orr.w	r5, r5, r6, lsr #28
    e87a:	ea4f 1606 	mov.w	r6, r6, lsl #4
    e87e:	ea4f 03c3 	mov.w	r3, r3, lsl #3
    e882:	ea43 7352 	orr.w	r3, r3, r2, lsr #29
    e886:	ea4f 02c2 	mov.w	r2, r2, lsl #3
    e88a:	ea5f 1c1c 	movs.w	ip, ip, lsr #4
    e88e:	d1c0      	bne.n	e812 <__aeabi_ddiv+0x82>
    e890:	f411 1f80 	tst.w	r1, #1048576	; 0x100000
    e894:	d10b      	bne.n	e8ae <__aeabi_ddiv+0x11e>
    e896:	ea41 0100 	orr.w	r1, r1, r0
    e89a:	f04f 0000 	mov.w	r0, #0
    e89e:	f04f 4c00 	mov.w	ip, #2147483648	; 0x80000000
    e8a2:	e7b6      	b.n	e812 <__aeabi_ddiv+0x82>
    e8a4:	f411 1f80 	tst.w	r1, #1048576	; 0x100000
    e8a8:	bf04      	itt	eq
    e8aa:	4301      	orreq	r1, r0
    e8ac:	2000      	moveq	r0, #0
    e8ae:	f1b4 0cfd 	subs.w	ip, r4, #253	; 0xfd
    e8b2:	bf88      	it	hi
    e8b4:	f5bc 6fe0 	cmphi.w	ip, #1792	; 0x700
    e8b8:	f63f aeaf 	bhi.w	e61a <__aeabi_dmul+0xde>
    e8bc:	ebb5 0c03 	subs.w	ip, r5, r3
    e8c0:	bf04      	itt	eq
    e8c2:	ebb6 0c02 	subseq.w	ip, r6, r2
    e8c6:	ea5f 0c50 	movseq.w	ip, r0, lsr #1
    e8ca:	f150 0000 	adcs.w	r0, r0, #0
    e8ce:	eb41 5104 	adc.w	r1, r1, r4, lsl #20
    e8d2:	bd70      	pop	{r4, r5, r6, pc}
    e8d4:	f00e 4e00 	and.w	lr, lr, #2147483648	; 0x80000000
    e8d8:	ea4e 3111 	orr.w	r1, lr, r1, lsr #12
    e8dc:	eb14 045c 	adds.w	r4, r4, ip, lsr #1
    e8e0:	bfc2      	ittt	gt
    e8e2:	ebd4 050c 	rsbsgt	r5, r4, ip
    e8e6:	ea41 5104 	orrgt.w	r1, r1, r4, lsl #20
    e8ea:	bd70      	popgt	{r4, r5, r6, pc}
    e8ec:	f441 1180 	orr.w	r1, r1, #1048576	; 0x100000
    e8f0:	f04f 0e00 	mov.w	lr, #0
    e8f4:	3c01      	subs	r4, #1
    e8f6:	e690      	b.n	e61a <__aeabi_dmul+0xde>
    e8f8:	ea45 0e06 	orr.w	lr, r5, r6
    e8fc:	e68d      	b.n	e61a <__aeabi_dmul+0xde>
    e8fe:	ea0c 5513 	and.w	r5, ip, r3, lsr #20
    e902:	ea94 0f0c 	teq	r4, ip
    e906:	bf08      	it	eq
    e908:	ea95 0f0c 	teqeq	r5, ip
    e90c:	f43f af3b 	beq.w	e786 <__aeabi_dmul+0x24a>
    e910:	ea94 0f0c 	teq	r4, ip
    e914:	d10a      	bne.n	e92c <__aeabi_ddiv+0x19c>
    e916:	ea50 3401 	orrs.w	r4, r0, r1, lsl #12
    e91a:	f47f af34 	bne.w	e786 <__aeabi_dmul+0x24a>
    e91e:	ea95 0f0c 	teq	r5, ip
    e922:	f47f af25 	bne.w	e770 <__aeabi_dmul+0x234>
    e926:	4610      	mov	r0, r2
    e928:	4619      	mov	r1, r3
    e92a:	e72c      	b.n	e786 <__aeabi_dmul+0x24a>
    e92c:	ea95 0f0c 	teq	r5, ip
    e930:	d106      	bne.n	e940 <__aeabi_ddiv+0x1b0>
    e932:	ea52 3503 	orrs.w	r5, r2, r3, lsl #12
    e936:	f43f aefd 	beq.w	e734 <__aeabi_dmul+0x1f8>
    e93a:	4610      	mov	r0, r2
    e93c:	4619      	mov	r1, r3
    e93e:	e722      	b.n	e786 <__aeabi_dmul+0x24a>
    e940:	ea50 0641 	orrs.w	r6, r0, r1, lsl #1
    e944:	bf18      	it	ne
    e946:	ea52 0643 	orrsne.w	r6, r2, r3, lsl #1
    e94a:	f47f aec5 	bne.w	e6d8 <__aeabi_dmul+0x19c>
    e94e:	ea50 0441 	orrs.w	r4, r0, r1, lsl #1
    e952:	f47f af0d 	bne.w	e770 <__aeabi_dmul+0x234>
    e956:	ea52 0543 	orrs.w	r5, r2, r3, lsl #1
    e95a:	f47f aeeb 	bne.w	e734 <__aeabi_dmul+0x1f8>
    e95e:	e712      	b.n	e786 <__aeabi_dmul+0x24a>

0000e960 <__aeabi_d2uiz>:
    e960:	004a      	lsls	r2, r1, #1
    e962:	d211      	bcs.n	e988 <__aeabi_d2uiz+0x28>
    e964:	f512 1200 	adds.w	r2, r2, #2097152	; 0x200000
    e968:	d211      	bcs.n	e98e <__aeabi_d2uiz+0x2e>
    e96a:	d50d      	bpl.n	e988 <__aeabi_d2uiz+0x28>
    e96c:	f46f 7378 	mvn.w	r3, #992	; 0x3e0
    e970:	ebb3 5262 	subs.w	r2, r3, r2, asr #21
    e974:	d40e      	bmi.n	e994 <__aeabi_d2uiz+0x34>
    e976:	ea4f 23c1 	mov.w	r3, r1, lsl #11
    e97a:	f043 4300 	orr.w	r3, r3, #2147483648	; 0x80000000
    e97e:	ea43 5350 	orr.w	r3, r3, r0, lsr #21
    e982:	fa23 f002 	lsr.w	r0, r3, r2
    e986:	4770      	bx	lr
    e988:	f04f 0000 	mov.w	r0, #0
    e98c:	4770      	bx	lr
    e98e:	ea50 3001 	orrs.w	r0, r0, r1, lsl #12
    e992:	d102      	bne.n	e99a <__aeabi_d2uiz+0x3a>
    e994:	f04f 30ff 	mov.w	r0, #4294967295
    e998:	4770      	bx	lr
    e99a:	f04f 0000 	mov.w	r0, #0
    e99e:	4770      	bx	lr

0000e9a0 <__libc_init_array>:
    e9a0:	b570      	push	{r4, r5, r6, lr}
    e9a2:	4e0d      	ldr	r6, [pc, #52]	; (e9d8 <__libc_init_array+0x38>)
    e9a4:	4c0d      	ldr	r4, [pc, #52]	; (e9dc <__libc_init_array+0x3c>)
    e9a6:	1ba4      	subs	r4, r4, r6
    e9a8:	10a4      	asrs	r4, r4, #2
    e9aa:	2500      	movs	r5, #0
    e9ac:	42a5      	cmp	r5, r4
    e9ae:	d109      	bne.n	e9c4 <__libc_init_array+0x24>
    e9b0:	4e0b      	ldr	r6, [pc, #44]	; (e9e0 <__libc_init_array+0x40>)
    e9b2:	4c0c      	ldr	r4, [pc, #48]	; (e9e4 <__libc_init_array+0x44>)
    e9b4:	f002 f820 	bl	109f8 <_init>
    e9b8:	1ba4      	subs	r4, r4, r6
    e9ba:	10a4      	asrs	r4, r4, #2
    e9bc:	2500      	movs	r5, #0
    e9be:	42a5      	cmp	r5, r4
    e9c0:	d105      	bne.n	e9ce <__libc_init_array+0x2e>
    e9c2:	bd70      	pop	{r4, r5, r6, pc}
    e9c4:	f856 3025 	ldr.w	r3, [r6, r5, lsl #2]
    e9c8:	4798      	blx	r3
    e9ca:	3501      	adds	r5, #1
    e9cc:	e7ee      	b.n	e9ac <__libc_init_array+0xc>
    e9ce:	f856 3025 	ldr.w	r3, [r6, r5, lsl #2]
    e9d2:	4798      	blx	r3
    e9d4:	3501      	adds	r5, #1
    e9d6:	e7f2      	b.n	e9be <__libc_init_array+0x1e>
    e9d8:	00010a04 	.word	0x00010a04
    e9dc:	00010a04 	.word	0x00010a04
    e9e0:	00010a04 	.word	0x00010a04
    e9e4:	00010a08 	.word	0x00010a08

0000e9e8 <malloc>:
    e9e8:	4b02      	ldr	r3, [pc, #8]	; (e9f4 <malloc+0xc>)
    e9ea:	4601      	mov	r1, r0
    e9ec:	6818      	ldr	r0, [r3, #0]
    e9ee:	f000 b865 	b.w	eabc <_malloc_r>
    e9f2:	bf00      	nop
    e9f4:	20000548 	.word	0x20000548

0000e9f8 <memcpy>:
    e9f8:	b510      	push	{r4, lr}
    e9fa:	1e43      	subs	r3, r0, #1
    e9fc:	440a      	add	r2, r1
    e9fe:	4291      	cmp	r1, r2
    ea00:	d100      	bne.n	ea04 <memcpy+0xc>
    ea02:	bd10      	pop	{r4, pc}
    ea04:	f811 4b01 	ldrb.w	r4, [r1], #1
    ea08:	f803 4f01 	strb.w	r4, [r3, #1]!
    ea0c:	e7f7      	b.n	e9fe <memcpy+0x6>

0000ea0e <memset>:
    ea0e:	4402      	add	r2, r0
    ea10:	4603      	mov	r3, r0
    ea12:	4293      	cmp	r3, r2
    ea14:	d100      	bne.n	ea18 <memset+0xa>
    ea16:	4770      	bx	lr
    ea18:	f803 1b01 	strb.w	r1, [r3], #1
    ea1c:	e7f9      	b.n	ea12 <memset+0x4>
	...

0000ea20 <_free_r>:
    ea20:	b538      	push	{r3, r4, r5, lr}
    ea22:	4605      	mov	r5, r0
    ea24:	2900      	cmp	r1, #0
    ea26:	d045      	beq.n	eab4 <_free_r+0x94>
    ea28:	f851 3c04 	ldr.w	r3, [r1, #-4]
    ea2c:	1f0c      	subs	r4, r1, #4
    ea2e:	2b00      	cmp	r3, #0
    ea30:	bfb8      	it	lt
    ea32:	18e4      	addlt	r4, r4, r3
    ea34:	f000 fcb6 	bl	f3a4 <__malloc_lock>
    ea38:	4a1f      	ldr	r2, [pc, #124]	; (eab8 <_free_r+0x98>)
    ea3a:	6813      	ldr	r3, [r2, #0]
    ea3c:	4610      	mov	r0, r2
    ea3e:	b933      	cbnz	r3, ea4e <_free_r+0x2e>
    ea40:	6063      	str	r3, [r4, #4]
    ea42:	6014      	str	r4, [r2, #0]
    ea44:	4628      	mov	r0, r5
    ea46:	e8bd 4038 	ldmia.w	sp!, {r3, r4, r5, lr}
    ea4a:	f000 bcac 	b.w	f3a6 <__malloc_unlock>
    ea4e:	42a3      	cmp	r3, r4
    ea50:	d90c      	bls.n	ea6c <_free_r+0x4c>
    ea52:	6821      	ldr	r1, [r4, #0]
    ea54:	1862      	adds	r2, r4, r1
    ea56:	4293      	cmp	r3, r2
    ea58:	bf04      	itt	eq
    ea5a:	681a      	ldreq	r2, [r3, #0]
    ea5c:	685b      	ldreq	r3, [r3, #4]
    ea5e:	6063      	str	r3, [r4, #4]
    ea60:	bf04      	itt	eq
    ea62:	1852      	addeq	r2, r2, r1
    ea64:	6022      	streq	r2, [r4, #0]
    ea66:	6004      	str	r4, [r0, #0]
    ea68:	e7ec      	b.n	ea44 <_free_r+0x24>
    ea6a:	4613      	mov	r3, r2
    ea6c:	685a      	ldr	r2, [r3, #4]
    ea6e:	b10a      	cbz	r2, ea74 <_free_r+0x54>
    ea70:	42a2      	cmp	r2, r4
    ea72:	d9fa      	bls.n	ea6a <_free_r+0x4a>
    ea74:	6819      	ldr	r1, [r3, #0]
    ea76:	1858      	adds	r0, r3, r1
    ea78:	42a0      	cmp	r0, r4
    ea7a:	d10b      	bne.n	ea94 <_free_r+0x74>
    ea7c:	6820      	ldr	r0, [r4, #0]
    ea7e:	4401      	add	r1, r0
    ea80:	1858      	adds	r0, r3, r1
    ea82:	4282      	cmp	r2, r0
    ea84:	6019      	str	r1, [r3, #0]
    ea86:	d1dd      	bne.n	ea44 <_free_r+0x24>
    ea88:	6810      	ldr	r0, [r2, #0]
    ea8a:	6852      	ldr	r2, [r2, #4]
    ea8c:	605a      	str	r2, [r3, #4]
    ea8e:	4401      	add	r1, r0
    ea90:	6019      	str	r1, [r3, #0]
    ea92:	e7d7      	b.n	ea44 <_free_r+0x24>
    ea94:	d902      	bls.n	ea9c <_free_r+0x7c>
    ea96:	230c      	movs	r3, #12
    ea98:	602b      	str	r3, [r5, #0]
    ea9a:	e7d3      	b.n	ea44 <_free_r+0x24>
    ea9c:	6820      	ldr	r0, [r4, #0]
    ea9e:	1821      	adds	r1, r4, r0
    eaa0:	428a      	cmp	r2, r1
    eaa2:	bf04      	itt	eq
    eaa4:	6811      	ldreq	r1, [r2, #0]
    eaa6:	6852      	ldreq	r2, [r2, #4]
    eaa8:	6062      	str	r2, [r4, #4]
    eaaa:	bf04      	itt	eq
    eaac:	1809      	addeq	r1, r1, r0
    eaae:	6021      	streq	r1, [r4, #0]
    eab0:	605c      	str	r4, [r3, #4]
    eab2:	e7c7      	b.n	ea44 <_free_r+0x24>
    eab4:	bd38      	pop	{r3, r4, r5, pc}
    eab6:	bf00      	nop
    eab8:	20000f30 	.word	0x20000f30

0000eabc <_malloc_r>:
    eabc:	b570      	push	{r4, r5, r6, lr}
    eabe:	1ccd      	adds	r5, r1, #3
    eac0:	f025 0503 	bic.w	r5, r5, #3
    eac4:	3508      	adds	r5, #8
    eac6:	2d0c      	cmp	r5, #12
    eac8:	bf38      	it	cc
    eaca:	250c      	movcc	r5, #12
    eacc:	2d00      	cmp	r5, #0
    eace:	4606      	mov	r6, r0
    ead0:	db01      	blt.n	ead6 <_malloc_r+0x1a>
    ead2:	42a9      	cmp	r1, r5
    ead4:	d903      	bls.n	eade <_malloc_r+0x22>
    ead6:	230c      	movs	r3, #12
    ead8:	6033      	str	r3, [r6, #0]
    eada:	2000      	movs	r0, #0
    eadc:	bd70      	pop	{r4, r5, r6, pc}
    eade:	f000 fc61 	bl	f3a4 <__malloc_lock>
    eae2:	4a23      	ldr	r2, [pc, #140]	; (eb70 <_malloc_r+0xb4>)
    eae4:	6814      	ldr	r4, [r2, #0]
    eae6:	4621      	mov	r1, r4
    eae8:	b991      	cbnz	r1, eb10 <_malloc_r+0x54>
    eaea:	4c22      	ldr	r4, [pc, #136]	; (eb74 <_malloc_r+0xb8>)
    eaec:	6823      	ldr	r3, [r4, #0]
    eaee:	b91b      	cbnz	r3, eaf8 <_malloc_r+0x3c>
    eaf0:	4630      	mov	r0, r6
    eaf2:	f000 f8bd 	bl	ec70 <_sbrk_r>
    eaf6:	6020      	str	r0, [r4, #0]
    eaf8:	4629      	mov	r1, r5
    eafa:	4630      	mov	r0, r6
    eafc:	f000 f8b8 	bl	ec70 <_sbrk_r>
    eb00:	1c43      	adds	r3, r0, #1
    eb02:	d126      	bne.n	eb52 <_malloc_r+0x96>
    eb04:	230c      	movs	r3, #12
    eb06:	6033      	str	r3, [r6, #0]
    eb08:	4630      	mov	r0, r6
    eb0a:	f000 fc4c 	bl	f3a6 <__malloc_unlock>
    eb0e:	e7e4      	b.n	eada <_malloc_r+0x1e>
    eb10:	680b      	ldr	r3, [r1, #0]
    eb12:	1b5b      	subs	r3, r3, r5
    eb14:	d41a      	bmi.n	eb4c <_malloc_r+0x90>
    eb16:	2b0b      	cmp	r3, #11
    eb18:	d90f      	bls.n	eb3a <_malloc_r+0x7e>
    eb1a:	600b      	str	r3, [r1, #0]
    eb1c:	50cd      	str	r5, [r1, r3]
    eb1e:	18cc      	adds	r4, r1, r3
    eb20:	4630      	mov	r0, r6
    eb22:	f000 fc40 	bl	f3a6 <__malloc_unlock>
    eb26:	f104 000b 	add.w	r0, r4, #11
    eb2a:	1d23      	adds	r3, r4, #4
    eb2c:	f020 0007 	bic.w	r0, r0, #7
    eb30:	1ac3      	subs	r3, r0, r3
    eb32:	d01b      	beq.n	eb6c <_malloc_r+0xb0>
    eb34:	425a      	negs	r2, r3
    eb36:	50e2      	str	r2, [r4, r3]
    eb38:	bd70      	pop	{r4, r5, r6, pc}
    eb3a:	428c      	cmp	r4, r1
    eb3c:	bf0d      	iteet	eq
    eb3e:	6863      	ldreq	r3, [r4, #4]
    eb40:	684b      	ldrne	r3, [r1, #4]
    eb42:	6063      	strne	r3, [r4, #4]
    eb44:	6013      	streq	r3, [r2, #0]
    eb46:	bf18      	it	ne
    eb48:	460c      	movne	r4, r1
    eb4a:	e7e9      	b.n	eb20 <_malloc_r+0x64>
    eb4c:	460c      	mov	r4, r1
    eb4e:	6849      	ldr	r1, [r1, #4]
    eb50:	e7ca      	b.n	eae8 <_malloc_r+0x2c>
    eb52:	1cc4      	adds	r4, r0, #3
    eb54:	f024 0403 	bic.w	r4, r4, #3
    eb58:	42a0      	cmp	r0, r4
    eb5a:	d005      	beq.n	eb68 <_malloc_r+0xac>
    eb5c:	1a21      	subs	r1, r4, r0
    eb5e:	4630      	mov	r0, r6
    eb60:	f000 f886 	bl	ec70 <_sbrk_r>
    eb64:	3001      	adds	r0, #1
    eb66:	d0cd      	beq.n	eb04 <_malloc_r+0x48>
    eb68:	6025      	str	r5, [r4, #0]
    eb6a:	e7d9      	b.n	eb20 <_malloc_r+0x64>
    eb6c:	bd70      	pop	{r4, r5, r6, pc}
    eb6e:	bf00      	nop
    eb70:	20000f30 	.word	0x20000f30
    eb74:	20000f34 	.word	0x20000f34

0000eb78 <iprintf>:
    eb78:	b40f      	push	{r0, r1, r2, r3}
    eb7a:	4b0a      	ldr	r3, [pc, #40]	; (eba4 <iprintf+0x2c>)
    eb7c:	b513      	push	{r0, r1, r4, lr}
    eb7e:	681c      	ldr	r4, [r3, #0]
    eb80:	b124      	cbz	r4, eb8c <iprintf+0x14>
    eb82:	69a3      	ldr	r3, [r4, #24]
    eb84:	b913      	cbnz	r3, eb8c <iprintf+0x14>
    eb86:	4620      	mov	r0, r4
    eb88:	f000 fb1e 	bl	f1c8 <__sinit>
    eb8c:	ab05      	add	r3, sp, #20
    eb8e:	9a04      	ldr	r2, [sp, #16]
    eb90:	68a1      	ldr	r1, [r4, #8]
    eb92:	9301      	str	r3, [sp, #4]
    eb94:	4620      	mov	r0, r4
    eb96:	f000 fd7f 	bl	f698 <_vfiprintf_r>
    eb9a:	b002      	add	sp, #8
    eb9c:	e8bd 4010 	ldmia.w	sp!, {r4, lr}
    eba0:	b004      	add	sp, #16
    eba2:	4770      	bx	lr
    eba4:	20000548 	.word	0x20000548

0000eba8 <_puts_r>:
    eba8:	b570      	push	{r4, r5, r6, lr}
    ebaa:	460e      	mov	r6, r1
    ebac:	4605      	mov	r5, r0
    ebae:	b118      	cbz	r0, ebb8 <_puts_r+0x10>
    ebb0:	6983      	ldr	r3, [r0, #24]
    ebb2:	b90b      	cbnz	r3, ebb8 <_puts_r+0x10>
    ebb4:	f000 fb08 	bl	f1c8 <__sinit>
    ebb8:	69ab      	ldr	r3, [r5, #24]
    ebba:	68ac      	ldr	r4, [r5, #8]
    ebbc:	b913      	cbnz	r3, ebc4 <_puts_r+0x1c>
    ebbe:	4628      	mov	r0, r5
    ebc0:	f000 fb02 	bl	f1c8 <__sinit>
    ebc4:	4b23      	ldr	r3, [pc, #140]	; (ec54 <_puts_r+0xac>)
    ebc6:	429c      	cmp	r4, r3
    ebc8:	d117      	bne.n	ebfa <_puts_r+0x52>
    ebca:	686c      	ldr	r4, [r5, #4]
    ebcc:	89a3      	ldrh	r3, [r4, #12]
    ebce:	071b      	lsls	r3, r3, #28
    ebd0:	d51d      	bpl.n	ec0e <_puts_r+0x66>
    ebd2:	6923      	ldr	r3, [r4, #16]
    ebd4:	b1db      	cbz	r3, ec0e <_puts_r+0x66>
    ebd6:	3e01      	subs	r6, #1
    ebd8:	68a3      	ldr	r3, [r4, #8]
    ebda:	f816 1f01 	ldrb.w	r1, [r6, #1]!
    ebde:	3b01      	subs	r3, #1
    ebe0:	60a3      	str	r3, [r4, #8]
    ebe2:	b9e9      	cbnz	r1, ec20 <_puts_r+0x78>
    ebe4:	2b00      	cmp	r3, #0
    ebe6:	da2e      	bge.n	ec46 <_puts_r+0x9e>
    ebe8:	4622      	mov	r2, r4
    ebea:	210a      	movs	r1, #10
    ebec:	4628      	mov	r0, r5
    ebee:	f000 f939 	bl	ee64 <__swbuf_r>
    ebf2:	3001      	adds	r0, #1
    ebf4:	d011      	beq.n	ec1a <_puts_r+0x72>
    ebf6:	200a      	movs	r0, #10
    ebf8:	bd70      	pop	{r4, r5, r6, pc}
    ebfa:	4b17      	ldr	r3, [pc, #92]	; (ec58 <_puts_r+0xb0>)
    ebfc:	429c      	cmp	r4, r3
    ebfe:	d101      	bne.n	ec04 <_puts_r+0x5c>
    ec00:	68ac      	ldr	r4, [r5, #8]
    ec02:	e7e3      	b.n	ebcc <_puts_r+0x24>
    ec04:	4b15      	ldr	r3, [pc, #84]	; (ec5c <_puts_r+0xb4>)
    ec06:	429c      	cmp	r4, r3
    ec08:	bf08      	it	eq
    ec0a:	68ec      	ldreq	r4, [r5, #12]
    ec0c:	e7de      	b.n	ebcc <_puts_r+0x24>
    ec0e:	4621      	mov	r1, r4
    ec10:	4628      	mov	r0, r5
    ec12:	f000 f979 	bl	ef08 <__swsetup_r>
    ec16:	2800      	cmp	r0, #0
    ec18:	d0dd      	beq.n	ebd6 <_puts_r+0x2e>
    ec1a:	f04f 30ff 	mov.w	r0, #4294967295
    ec1e:	bd70      	pop	{r4, r5, r6, pc}
    ec20:	2b00      	cmp	r3, #0
    ec22:	da04      	bge.n	ec2e <_puts_r+0x86>
    ec24:	69a2      	ldr	r2, [r4, #24]
    ec26:	4293      	cmp	r3, r2
    ec28:	db06      	blt.n	ec38 <_puts_r+0x90>
    ec2a:	290a      	cmp	r1, #10
    ec2c:	d004      	beq.n	ec38 <_puts_r+0x90>
    ec2e:	6823      	ldr	r3, [r4, #0]
    ec30:	1c5a      	adds	r2, r3, #1
    ec32:	6022      	str	r2, [r4, #0]
    ec34:	7019      	strb	r1, [r3, #0]
    ec36:	e7cf      	b.n	ebd8 <_puts_r+0x30>
    ec38:	4622      	mov	r2, r4
    ec3a:	4628      	mov	r0, r5
    ec3c:	f000 f912 	bl	ee64 <__swbuf_r>
    ec40:	3001      	adds	r0, #1
    ec42:	d1c9      	bne.n	ebd8 <_puts_r+0x30>
    ec44:	e7e9      	b.n	ec1a <_puts_r+0x72>
    ec46:	6823      	ldr	r3, [r4, #0]
    ec48:	200a      	movs	r0, #10
    ec4a:	1c5a      	adds	r2, r3, #1
    ec4c:	6022      	str	r2, [r4, #0]
    ec4e:	7018      	strb	r0, [r3, #0]
    ec50:	bd70      	pop	{r4, r5, r6, pc}
    ec52:	bf00      	nop
    ec54:	00010984 	.word	0x00010984
    ec58:	000109a4 	.word	0x000109a4
    ec5c:	00010964 	.word	0x00010964

0000ec60 <puts>:
    ec60:	4b02      	ldr	r3, [pc, #8]	; (ec6c <puts+0xc>)
    ec62:	4601      	mov	r1, r0
    ec64:	6818      	ldr	r0, [r3, #0]
    ec66:	f7ff bf9f 	b.w	eba8 <_puts_r>
    ec6a:	bf00      	nop
    ec6c:	20000548 	.word	0x20000548

0000ec70 <_sbrk_r>:
    ec70:	b538      	push	{r3, r4, r5, lr}
    ec72:	4c06      	ldr	r4, [pc, #24]	; (ec8c <_sbrk_r+0x1c>)
    ec74:	2300      	movs	r3, #0
    ec76:	4605      	mov	r5, r0
    ec78:	4608      	mov	r0, r1
    ec7a:	6023      	str	r3, [r4, #0]
    ec7c:	f7fa ff5e 	bl	9b3c <_sbrk>
    ec80:	1c43      	adds	r3, r0, #1
    ec82:	d102      	bne.n	ec8a <_sbrk_r+0x1a>
    ec84:	6823      	ldr	r3, [r4, #0]
    ec86:	b103      	cbz	r3, ec8a <_sbrk_r+0x1a>
    ec88:	602b      	str	r3, [r5, #0]
    ec8a:	bd38      	pop	{r3, r4, r5, pc}
    ec8c:	2000820c 	.word	0x2000820c

0000ec90 <setbuf>:
    ec90:	2900      	cmp	r1, #0
    ec92:	f44f 6380 	mov.w	r3, #1024	; 0x400
    ec96:	bf0c      	ite	eq
    ec98:	2202      	moveq	r2, #2
    ec9a:	2200      	movne	r2, #0
    ec9c:	f000 b800 	b.w	eca0 <setvbuf>

0000eca0 <setvbuf>:
    eca0:	e92d 43f7 	stmdb	sp!, {r0, r1, r2, r4, r5, r6, r7, r8, r9, lr}
    eca4:	461d      	mov	r5, r3
    eca6:	4b51      	ldr	r3, [pc, #324]	; (edec <setvbuf+0x14c>)
    eca8:	681e      	ldr	r6, [r3, #0]
    ecaa:	4604      	mov	r4, r0
    ecac:	460f      	mov	r7, r1
    ecae:	4690      	mov	r8, r2
    ecb0:	b126      	cbz	r6, ecbc <setvbuf+0x1c>
    ecb2:	69b3      	ldr	r3, [r6, #24]
    ecb4:	b913      	cbnz	r3, ecbc <setvbuf+0x1c>
    ecb6:	4630      	mov	r0, r6
    ecb8:	f000 fa86 	bl	f1c8 <__sinit>
    ecbc:	4b4c      	ldr	r3, [pc, #304]	; (edf0 <setvbuf+0x150>)
    ecbe:	429c      	cmp	r4, r3
    ecc0:	d152      	bne.n	ed68 <setvbuf+0xc8>
    ecc2:	6874      	ldr	r4, [r6, #4]
    ecc4:	f1b8 0f02 	cmp.w	r8, #2
    ecc8:	d006      	beq.n	ecd8 <setvbuf+0x38>
    ecca:	f1b8 0f01 	cmp.w	r8, #1
    ecce:	f200 8089 	bhi.w	ede4 <setvbuf+0x144>
    ecd2:	2d00      	cmp	r5, #0
    ecd4:	f2c0 8086 	blt.w	ede4 <setvbuf+0x144>
    ecd8:	4621      	mov	r1, r4
    ecda:	4630      	mov	r0, r6
    ecdc:	f000 fa0a 	bl	f0f4 <_fflush_r>
    ece0:	6b61      	ldr	r1, [r4, #52]	; 0x34
    ece2:	b141      	cbz	r1, ecf6 <setvbuf+0x56>
    ece4:	f104 0344 	add.w	r3, r4, #68	; 0x44
    ece8:	4299      	cmp	r1, r3
    ecea:	d002      	beq.n	ecf2 <setvbuf+0x52>
    ecec:	4630      	mov	r0, r6
    ecee:	f7ff fe97 	bl	ea20 <_free_r>
    ecf2:	2300      	movs	r3, #0
    ecf4:	6363      	str	r3, [r4, #52]	; 0x34
    ecf6:	2300      	movs	r3, #0
    ecf8:	61a3      	str	r3, [r4, #24]
    ecfa:	6063      	str	r3, [r4, #4]
    ecfc:	89a3      	ldrh	r3, [r4, #12]
    ecfe:	061b      	lsls	r3, r3, #24
    ed00:	d503      	bpl.n	ed0a <setvbuf+0x6a>
    ed02:	6921      	ldr	r1, [r4, #16]
    ed04:	4630      	mov	r0, r6
    ed06:	f7ff fe8b 	bl	ea20 <_free_r>
    ed0a:	89a3      	ldrh	r3, [r4, #12]
    ed0c:	f423 634a 	bic.w	r3, r3, #3232	; 0xca0
    ed10:	f023 0303 	bic.w	r3, r3, #3
    ed14:	f1b8 0f02 	cmp.w	r8, #2
    ed18:	81a3      	strh	r3, [r4, #12]
    ed1a:	d05d      	beq.n	edd8 <setvbuf+0x138>
    ed1c:	ab01      	add	r3, sp, #4
    ed1e:	466a      	mov	r2, sp
    ed20:	4621      	mov	r1, r4
    ed22:	4630      	mov	r0, r6
    ed24:	f000 fada 	bl	f2dc <__swhatbuf_r>
    ed28:	89a3      	ldrh	r3, [r4, #12]
    ed2a:	4318      	orrs	r0, r3
    ed2c:	81a0      	strh	r0, [r4, #12]
    ed2e:	bb2d      	cbnz	r5, ed7c <setvbuf+0xdc>
    ed30:	9d00      	ldr	r5, [sp, #0]
    ed32:	4628      	mov	r0, r5
    ed34:	f7ff fe58 	bl	e9e8 <malloc>
    ed38:	4607      	mov	r7, r0
    ed3a:	2800      	cmp	r0, #0
    ed3c:	d14e      	bne.n	eddc <setvbuf+0x13c>
    ed3e:	f8dd 9000 	ldr.w	r9, [sp]
    ed42:	45a9      	cmp	r9, r5
    ed44:	d13c      	bne.n	edc0 <setvbuf+0x120>
    ed46:	f04f 30ff 	mov.w	r0, #4294967295
    ed4a:	89a3      	ldrh	r3, [r4, #12]
    ed4c:	f043 0302 	orr.w	r3, r3, #2
    ed50:	81a3      	strh	r3, [r4, #12]
    ed52:	2300      	movs	r3, #0
    ed54:	60a3      	str	r3, [r4, #8]
    ed56:	f104 0347 	add.w	r3, r4, #71	; 0x47
    ed5a:	6023      	str	r3, [r4, #0]
    ed5c:	6123      	str	r3, [r4, #16]
    ed5e:	2301      	movs	r3, #1
    ed60:	6163      	str	r3, [r4, #20]
    ed62:	b003      	add	sp, #12
    ed64:	e8bd 83f0 	ldmia.w	sp!, {r4, r5, r6, r7, r8, r9, pc}
    ed68:	4b22      	ldr	r3, [pc, #136]	; (edf4 <setvbuf+0x154>)
    ed6a:	429c      	cmp	r4, r3
    ed6c:	d101      	bne.n	ed72 <setvbuf+0xd2>
    ed6e:	68b4      	ldr	r4, [r6, #8]
    ed70:	e7a8      	b.n	ecc4 <setvbuf+0x24>
    ed72:	4b21      	ldr	r3, [pc, #132]	; (edf8 <setvbuf+0x158>)
    ed74:	429c      	cmp	r4, r3
    ed76:	bf08      	it	eq
    ed78:	68f4      	ldreq	r4, [r6, #12]
    ed7a:	e7a3      	b.n	ecc4 <setvbuf+0x24>
    ed7c:	2f00      	cmp	r7, #0
    ed7e:	d0d8      	beq.n	ed32 <setvbuf+0x92>
    ed80:	69b3      	ldr	r3, [r6, #24]
    ed82:	b913      	cbnz	r3, ed8a <setvbuf+0xea>
    ed84:	4630      	mov	r0, r6
    ed86:	f000 fa1f 	bl	f1c8 <__sinit>
    ed8a:	f1b8 0f01 	cmp.w	r8, #1
    ed8e:	bf08      	it	eq
    ed90:	89a3      	ldrheq	r3, [r4, #12]
    ed92:	6027      	str	r7, [r4, #0]
    ed94:	bf04      	itt	eq
    ed96:	f043 0301 	orreq.w	r3, r3, #1
    ed9a:	81a3      	strheq	r3, [r4, #12]
    ed9c:	89a3      	ldrh	r3, [r4, #12]
    ed9e:	6127      	str	r7, [r4, #16]
    eda0:	f013 0008 	ands.w	r0, r3, #8
    eda4:	6165      	str	r5, [r4, #20]
    eda6:	d01b      	beq.n	ede0 <setvbuf+0x140>
    eda8:	f013 0001 	ands.w	r0, r3, #1
    edac:	bf18      	it	ne
    edae:	426d      	negne	r5, r5
    edb0:	f04f 0300 	mov.w	r3, #0
    edb4:	bf1d      	ittte	ne
    edb6:	60a3      	strne	r3, [r4, #8]
    edb8:	61a5      	strne	r5, [r4, #24]
    edba:	4618      	movne	r0, r3
    edbc:	60a5      	streq	r5, [r4, #8]
    edbe:	e7d0      	b.n	ed62 <setvbuf+0xc2>
    edc0:	4648      	mov	r0, r9
    edc2:	f7ff fe11 	bl	e9e8 <malloc>
    edc6:	4607      	mov	r7, r0
    edc8:	2800      	cmp	r0, #0
    edca:	d0bc      	beq.n	ed46 <setvbuf+0xa6>
    edcc:	89a3      	ldrh	r3, [r4, #12]
    edce:	f043 0380 	orr.w	r3, r3, #128	; 0x80
    edd2:	81a3      	strh	r3, [r4, #12]
    edd4:	464d      	mov	r5, r9
    edd6:	e7d3      	b.n	ed80 <setvbuf+0xe0>
    edd8:	2000      	movs	r0, #0
    edda:	e7b6      	b.n	ed4a <setvbuf+0xaa>
    eddc:	46a9      	mov	r9, r5
    edde:	e7f5      	b.n	edcc <setvbuf+0x12c>
    ede0:	60a0      	str	r0, [r4, #8]
    ede2:	e7be      	b.n	ed62 <setvbuf+0xc2>
    ede4:	f04f 30ff 	mov.w	r0, #4294967295
    ede8:	e7bb      	b.n	ed62 <setvbuf+0xc2>
    edea:	bf00      	nop
    edec:	20000548 	.word	0x20000548
    edf0:	00010984 	.word	0x00010984
    edf4:	000109a4 	.word	0x000109a4
    edf8:	00010964 	.word	0x00010964

0000edfc <siprintf>:
    edfc:	b40e      	push	{r1, r2, r3}
    edfe:	b500      	push	{lr}
    ee00:	b09c      	sub	sp, #112	; 0x70
    ee02:	f44f 7102 	mov.w	r1, #520	; 0x208
    ee06:	ab1d      	add	r3, sp, #116	; 0x74
    ee08:	f8ad 1014 	strh.w	r1, [sp, #20]
    ee0c:	9002      	str	r0, [sp, #8]
    ee0e:	9006      	str	r0, [sp, #24]
    ee10:	f06f 4100 	mvn.w	r1, #2147483648	; 0x80000000
    ee14:	480a      	ldr	r0, [pc, #40]	; (ee40 <siprintf+0x44>)
    ee16:	9104      	str	r1, [sp, #16]
    ee18:	9107      	str	r1, [sp, #28]
    ee1a:	f64f 71ff 	movw	r1, #65535	; 0xffff
    ee1e:	f853 2b04 	ldr.w	r2, [r3], #4
    ee22:	f8ad 1016 	strh.w	r1, [sp, #22]
    ee26:	6800      	ldr	r0, [r0, #0]
    ee28:	9301      	str	r3, [sp, #4]
    ee2a:	a902      	add	r1, sp, #8
    ee2c:	f000 fb18 	bl	f460 <_svfiprintf_r>
    ee30:	9b02      	ldr	r3, [sp, #8]
    ee32:	2200      	movs	r2, #0
    ee34:	701a      	strb	r2, [r3, #0]
    ee36:	b01c      	add	sp, #112	; 0x70
    ee38:	f85d eb04 	ldr.w	lr, [sp], #4
    ee3c:	b003      	add	sp, #12
    ee3e:	4770      	bx	lr
    ee40:	20000548 	.word	0x20000548

0000ee44 <strcpy>:
    ee44:	4603      	mov	r3, r0
    ee46:	f811 2b01 	ldrb.w	r2, [r1], #1
    ee4a:	f803 2b01 	strb.w	r2, [r3], #1
    ee4e:	2a00      	cmp	r2, #0
    ee50:	d1f9      	bne.n	ee46 <strcpy+0x2>
    ee52:	4770      	bx	lr

0000ee54 <strlen>:
    ee54:	4603      	mov	r3, r0
    ee56:	f813 2b01 	ldrb.w	r2, [r3], #1
    ee5a:	2a00      	cmp	r2, #0
    ee5c:	d1fb      	bne.n	ee56 <strlen+0x2>
    ee5e:	1a18      	subs	r0, r3, r0
    ee60:	3801      	subs	r0, #1
    ee62:	4770      	bx	lr

0000ee64 <__swbuf_r>:
    ee64:	b5f8      	push	{r3, r4, r5, r6, r7, lr}
    ee66:	460e      	mov	r6, r1
    ee68:	4614      	mov	r4, r2
    ee6a:	4605      	mov	r5, r0
    ee6c:	b118      	cbz	r0, ee76 <__swbuf_r+0x12>
    ee6e:	6983      	ldr	r3, [r0, #24]
    ee70:	b90b      	cbnz	r3, ee76 <__swbuf_r+0x12>
    ee72:	f000 f9a9 	bl	f1c8 <__sinit>
    ee76:	4b21      	ldr	r3, [pc, #132]	; (eefc <__swbuf_r+0x98>)
    ee78:	429c      	cmp	r4, r3
    ee7a:	d12a      	bne.n	eed2 <__swbuf_r+0x6e>
    ee7c:	686c      	ldr	r4, [r5, #4]
    ee7e:	69a3      	ldr	r3, [r4, #24]
    ee80:	60a3      	str	r3, [r4, #8]
    ee82:	89a3      	ldrh	r3, [r4, #12]
    ee84:	071a      	lsls	r2, r3, #28
    ee86:	d52e      	bpl.n	eee6 <__swbuf_r+0x82>
    ee88:	6923      	ldr	r3, [r4, #16]
    ee8a:	b363      	cbz	r3, eee6 <__swbuf_r+0x82>
    ee8c:	6923      	ldr	r3, [r4, #16]
    ee8e:	6820      	ldr	r0, [r4, #0]
    ee90:	1ac0      	subs	r0, r0, r3
    ee92:	6963      	ldr	r3, [r4, #20]
    ee94:	b2f6      	uxtb	r6, r6
    ee96:	4298      	cmp	r0, r3
    ee98:	4637      	mov	r7, r6
    ee9a:	db04      	blt.n	eea6 <__swbuf_r+0x42>
    ee9c:	4621      	mov	r1, r4
    ee9e:	4628      	mov	r0, r5
    eea0:	f000 f928 	bl	f0f4 <_fflush_r>
    eea4:	bb28      	cbnz	r0, eef2 <__swbuf_r+0x8e>
    eea6:	68a3      	ldr	r3, [r4, #8]
    eea8:	3b01      	subs	r3, #1
    eeaa:	60a3      	str	r3, [r4, #8]
    eeac:	6823      	ldr	r3, [r4, #0]
    eeae:	1c5a      	adds	r2, r3, #1
    eeb0:	6022      	str	r2, [r4, #0]
    eeb2:	701e      	strb	r6, [r3, #0]
    eeb4:	6963      	ldr	r3, [r4, #20]
    eeb6:	3001      	adds	r0, #1
    eeb8:	4298      	cmp	r0, r3
    eeba:	d004      	beq.n	eec6 <__swbuf_r+0x62>
    eebc:	89a3      	ldrh	r3, [r4, #12]
    eebe:	07db      	lsls	r3, r3, #31
    eec0:	d519      	bpl.n	eef6 <__swbuf_r+0x92>
    eec2:	2e0a      	cmp	r6, #10
    eec4:	d117      	bne.n	eef6 <__swbuf_r+0x92>
    eec6:	4621      	mov	r1, r4
    eec8:	4628      	mov	r0, r5
    eeca:	f000 f913 	bl	f0f4 <_fflush_r>
    eece:	b190      	cbz	r0, eef6 <__swbuf_r+0x92>
    eed0:	e00f      	b.n	eef2 <__swbuf_r+0x8e>
    eed2:	4b0b      	ldr	r3, [pc, #44]	; (ef00 <__swbuf_r+0x9c>)
    eed4:	429c      	cmp	r4, r3
    eed6:	d101      	bne.n	eedc <__swbuf_r+0x78>
    eed8:	68ac      	ldr	r4, [r5, #8]
    eeda:	e7d0      	b.n	ee7e <__swbuf_r+0x1a>
    eedc:	4b09      	ldr	r3, [pc, #36]	; (ef04 <__swbuf_r+0xa0>)
    eede:	429c      	cmp	r4, r3
    eee0:	bf08      	it	eq
    eee2:	68ec      	ldreq	r4, [r5, #12]
    eee4:	e7cb      	b.n	ee7e <__swbuf_r+0x1a>
    eee6:	4621      	mov	r1, r4
    eee8:	4628      	mov	r0, r5
    eeea:	f000 f80d 	bl	ef08 <__swsetup_r>
    eeee:	2800      	cmp	r0, #0
    eef0:	d0cc      	beq.n	ee8c <__swbuf_r+0x28>
    eef2:	f04f 37ff 	mov.w	r7, #4294967295
    eef6:	4638      	mov	r0, r7
    eef8:	bdf8      	pop	{r3, r4, r5, r6, r7, pc}
    eefa:	bf00      	nop
    eefc:	00010984 	.word	0x00010984
    ef00:	000109a4 	.word	0x000109a4
    ef04:	00010964 	.word	0x00010964

0000ef08 <__swsetup_r>:
    ef08:	4b32      	ldr	r3, [pc, #200]	; (efd4 <__swsetup_r+0xcc>)
    ef0a:	b570      	push	{r4, r5, r6, lr}
    ef0c:	681d      	ldr	r5, [r3, #0]
    ef0e:	4606      	mov	r6, r0
    ef10:	460c      	mov	r4, r1
    ef12:	b125      	cbz	r5, ef1e <__swsetup_r+0x16>
    ef14:	69ab      	ldr	r3, [r5, #24]
    ef16:	b913      	cbnz	r3, ef1e <__swsetup_r+0x16>
    ef18:	4628      	mov	r0, r5
    ef1a:	f000 f955 	bl	f1c8 <__sinit>
    ef1e:	4b2e      	ldr	r3, [pc, #184]	; (efd8 <__swsetup_r+0xd0>)
    ef20:	429c      	cmp	r4, r3
    ef22:	d10f      	bne.n	ef44 <__swsetup_r+0x3c>
    ef24:	686c      	ldr	r4, [r5, #4]
    ef26:	f9b4 300c 	ldrsh.w	r3, [r4, #12]
    ef2a:	b29a      	uxth	r2, r3
    ef2c:	0715      	lsls	r5, r2, #28
    ef2e:	d42c      	bmi.n	ef8a <__swsetup_r+0x82>
    ef30:	06d0      	lsls	r0, r2, #27
    ef32:	d411      	bmi.n	ef58 <__swsetup_r+0x50>
    ef34:	2209      	movs	r2, #9
    ef36:	6032      	str	r2, [r6, #0]
    ef38:	f043 0340 	orr.w	r3, r3, #64	; 0x40
    ef3c:	81a3      	strh	r3, [r4, #12]
    ef3e:	f04f 30ff 	mov.w	r0, #4294967295
    ef42:	bd70      	pop	{r4, r5, r6, pc}
    ef44:	4b25      	ldr	r3, [pc, #148]	; (efdc <__swsetup_r+0xd4>)
    ef46:	429c      	cmp	r4, r3
    ef48:	d101      	bne.n	ef4e <__swsetup_r+0x46>
    ef4a:	68ac      	ldr	r4, [r5, #8]
    ef4c:	e7eb      	b.n	ef26 <__swsetup_r+0x1e>
    ef4e:	4b24      	ldr	r3, [pc, #144]	; (efe0 <__swsetup_r+0xd8>)
    ef50:	429c      	cmp	r4, r3
    ef52:	bf08      	it	eq
    ef54:	68ec      	ldreq	r4, [r5, #12]
    ef56:	e7e6      	b.n	ef26 <__swsetup_r+0x1e>
    ef58:	0751      	lsls	r1, r2, #29
    ef5a:	d512      	bpl.n	ef82 <__swsetup_r+0x7a>
    ef5c:	6b61      	ldr	r1, [r4, #52]	; 0x34
    ef5e:	b141      	cbz	r1, ef72 <__swsetup_r+0x6a>
    ef60:	f104 0344 	add.w	r3, r4, #68	; 0x44
    ef64:	4299      	cmp	r1, r3
    ef66:	d002      	beq.n	ef6e <__swsetup_r+0x66>
    ef68:	4630      	mov	r0, r6
    ef6a:	f7ff fd59 	bl	ea20 <_free_r>
    ef6e:	2300      	movs	r3, #0
    ef70:	6363      	str	r3, [r4, #52]	; 0x34
    ef72:	89a3      	ldrh	r3, [r4, #12]
    ef74:	f023 0324 	bic.w	r3, r3, #36	; 0x24
    ef78:	81a3      	strh	r3, [r4, #12]
    ef7a:	2300      	movs	r3, #0
    ef7c:	6063      	str	r3, [r4, #4]
    ef7e:	6923      	ldr	r3, [r4, #16]
    ef80:	6023      	str	r3, [r4, #0]
    ef82:	89a3      	ldrh	r3, [r4, #12]
    ef84:	f043 0308 	orr.w	r3, r3, #8
    ef88:	81a3      	strh	r3, [r4, #12]
    ef8a:	6923      	ldr	r3, [r4, #16]
    ef8c:	b94b      	cbnz	r3, efa2 <__swsetup_r+0x9a>
    ef8e:	89a3      	ldrh	r3, [r4, #12]
    ef90:	f403 7320 	and.w	r3, r3, #640	; 0x280
    ef94:	f5b3 7f00 	cmp.w	r3, #512	; 0x200
    ef98:	d003      	beq.n	efa2 <__swsetup_r+0x9a>
    ef9a:	4621      	mov	r1, r4
    ef9c:	4630      	mov	r0, r6
    ef9e:	f000 f9c1 	bl	f324 <__smakebuf_r>
    efa2:	89a2      	ldrh	r2, [r4, #12]
    efa4:	f012 0301 	ands.w	r3, r2, #1
    efa8:	d00c      	beq.n	efc4 <__swsetup_r+0xbc>
    efaa:	2300      	movs	r3, #0
    efac:	60a3      	str	r3, [r4, #8]
    efae:	6963      	ldr	r3, [r4, #20]
    efb0:	425b      	negs	r3, r3
    efb2:	61a3      	str	r3, [r4, #24]
    efb4:	6923      	ldr	r3, [r4, #16]
    efb6:	b953      	cbnz	r3, efce <__swsetup_r+0xc6>
    efb8:	f9b4 300c 	ldrsh.w	r3, [r4, #12]
    efbc:	f013 0080 	ands.w	r0, r3, #128	; 0x80
    efc0:	d1ba      	bne.n	ef38 <__swsetup_r+0x30>
    efc2:	bd70      	pop	{r4, r5, r6, pc}
    efc4:	0792      	lsls	r2, r2, #30
    efc6:	bf58      	it	pl
    efc8:	6963      	ldrpl	r3, [r4, #20]
    efca:	60a3      	str	r3, [r4, #8]
    efcc:	e7f2      	b.n	efb4 <__swsetup_r+0xac>
    efce:	2000      	movs	r0, #0
    efd0:	e7f7      	b.n	efc2 <__swsetup_r+0xba>
    efd2:	bf00      	nop
    efd4:	20000548 	.word	0x20000548
    efd8:	00010984 	.word	0x00010984
    efdc:	000109a4 	.word	0x000109a4
    efe0:	00010964 	.word	0x00010964

0000efe4 <__sflush_r>:
    efe4:	898a      	ldrh	r2, [r1, #12]
    efe6:	e92d 41f0 	stmdb	sp!, {r4, r5, r6, r7, r8, lr}
    efea:	4605      	mov	r5, r0
    efec:	0710      	lsls	r0, r2, #28
    efee:	460c      	mov	r4, r1
    eff0:	d45a      	bmi.n	f0a8 <__sflush_r+0xc4>
    eff2:	684b      	ldr	r3, [r1, #4]
    eff4:	2b00      	cmp	r3, #0
    eff6:	dc05      	bgt.n	f004 <__sflush_r+0x20>
    eff8:	6c0b      	ldr	r3, [r1, #64]	; 0x40
    effa:	2b00      	cmp	r3, #0
    effc:	dc02      	bgt.n	f004 <__sflush_r+0x20>
    effe:	2000      	movs	r0, #0
    f000:	e8bd 81f0 	ldmia.w	sp!, {r4, r5, r6, r7, r8, pc}
    f004:	6ae6      	ldr	r6, [r4, #44]	; 0x2c
    f006:	2e00      	cmp	r6, #0
    f008:	d0f9      	beq.n	effe <__sflush_r+0x1a>
    f00a:	2300      	movs	r3, #0
    f00c:	f412 5280 	ands.w	r2, r2, #4096	; 0x1000
    f010:	682f      	ldr	r7, [r5, #0]
    f012:	602b      	str	r3, [r5, #0]
    f014:	d033      	beq.n	f07e <__sflush_r+0x9a>
    f016:	6d60      	ldr	r0, [r4, #84]	; 0x54
    f018:	89a3      	ldrh	r3, [r4, #12]
    f01a:	075a      	lsls	r2, r3, #29
    f01c:	d505      	bpl.n	f02a <__sflush_r+0x46>
    f01e:	6863      	ldr	r3, [r4, #4]
    f020:	1ac0      	subs	r0, r0, r3
    f022:	6b63      	ldr	r3, [r4, #52]	; 0x34
    f024:	b10b      	cbz	r3, f02a <__sflush_r+0x46>
    f026:	6c23      	ldr	r3, [r4, #64]	; 0x40
    f028:	1ac0      	subs	r0, r0, r3
    f02a:	2300      	movs	r3, #0
    f02c:	4602      	mov	r2, r0
    f02e:	6ae6      	ldr	r6, [r4, #44]	; 0x2c
    f030:	6a21      	ldr	r1, [r4, #32]
    f032:	4628      	mov	r0, r5
    f034:	47b0      	blx	r6
    f036:	1c43      	adds	r3, r0, #1
    f038:	89a3      	ldrh	r3, [r4, #12]
    f03a:	d106      	bne.n	f04a <__sflush_r+0x66>
    f03c:	6829      	ldr	r1, [r5, #0]
    f03e:	291d      	cmp	r1, #29
    f040:	d84b      	bhi.n	f0da <__sflush_r+0xf6>
    f042:	4a2b      	ldr	r2, [pc, #172]	; (f0f0 <__sflush_r+0x10c>)
    f044:	40ca      	lsrs	r2, r1
    f046:	07d6      	lsls	r6, r2, #31
    f048:	d547      	bpl.n	f0da <__sflush_r+0xf6>
    f04a:	2200      	movs	r2, #0
    f04c:	6062      	str	r2, [r4, #4]
    f04e:	04d9      	lsls	r1, r3, #19
    f050:	6922      	ldr	r2, [r4, #16]
    f052:	6022      	str	r2, [r4, #0]
    f054:	d504      	bpl.n	f060 <__sflush_r+0x7c>
    f056:	1c42      	adds	r2, r0, #1
    f058:	d101      	bne.n	f05e <__sflush_r+0x7a>
    f05a:	682b      	ldr	r3, [r5, #0]
    f05c:	b903      	cbnz	r3, f060 <__sflush_r+0x7c>
    f05e:	6560      	str	r0, [r4, #84]	; 0x54
    f060:	6b61      	ldr	r1, [r4, #52]	; 0x34
    f062:	602f      	str	r7, [r5, #0]
    f064:	2900      	cmp	r1, #0
    f066:	d0ca      	beq.n	effe <__sflush_r+0x1a>
    f068:	f104 0344 	add.w	r3, r4, #68	; 0x44
    f06c:	4299      	cmp	r1, r3
    f06e:	d002      	beq.n	f076 <__sflush_r+0x92>
    f070:	4628      	mov	r0, r5
    f072:	f7ff fcd5 	bl	ea20 <_free_r>
    f076:	2000      	movs	r0, #0
    f078:	6360      	str	r0, [r4, #52]	; 0x34
    f07a:	e8bd 81f0 	ldmia.w	sp!, {r4, r5, r6, r7, r8, pc}
    f07e:	6a21      	ldr	r1, [r4, #32]
    f080:	2301      	movs	r3, #1
    f082:	4628      	mov	r0, r5
    f084:	47b0      	blx	r6
    f086:	1c41      	adds	r1, r0, #1
    f088:	d1c6      	bne.n	f018 <__sflush_r+0x34>
    f08a:	682b      	ldr	r3, [r5, #0]
    f08c:	2b00      	cmp	r3, #0
    f08e:	d0c3      	beq.n	f018 <__sflush_r+0x34>
    f090:	2b1d      	cmp	r3, #29
    f092:	d001      	beq.n	f098 <__sflush_r+0xb4>
    f094:	2b16      	cmp	r3, #22
    f096:	d101      	bne.n	f09c <__sflush_r+0xb8>
    f098:	602f      	str	r7, [r5, #0]
    f09a:	e7b0      	b.n	effe <__sflush_r+0x1a>
    f09c:	89a3      	ldrh	r3, [r4, #12]
    f09e:	f043 0340 	orr.w	r3, r3, #64	; 0x40
    f0a2:	81a3      	strh	r3, [r4, #12]
    f0a4:	e8bd 81f0 	ldmia.w	sp!, {r4, r5, r6, r7, r8, pc}
    f0a8:	690f      	ldr	r7, [r1, #16]
    f0aa:	2f00      	cmp	r7, #0
    f0ac:	d0a7      	beq.n	effe <__sflush_r+0x1a>
    f0ae:	0793      	lsls	r3, r2, #30
    f0b0:	680e      	ldr	r6, [r1, #0]
    f0b2:	bf08      	it	eq
    f0b4:	694b      	ldreq	r3, [r1, #20]
    f0b6:	600f      	str	r7, [r1, #0]
    f0b8:	bf18      	it	ne
    f0ba:	2300      	movne	r3, #0
    f0bc:	eba6 0807 	sub.w	r8, r6, r7
    f0c0:	608b      	str	r3, [r1, #8]
    f0c2:	f1b8 0f00 	cmp.w	r8, #0
    f0c6:	dd9a      	ble.n	effe <__sflush_r+0x1a>
    f0c8:	4643      	mov	r3, r8
    f0ca:	463a      	mov	r2, r7
    f0cc:	6a21      	ldr	r1, [r4, #32]
    f0ce:	6aa6      	ldr	r6, [r4, #40]	; 0x28
    f0d0:	4628      	mov	r0, r5
    f0d2:	47b0      	blx	r6
    f0d4:	2800      	cmp	r0, #0
    f0d6:	dc07      	bgt.n	f0e8 <__sflush_r+0x104>
    f0d8:	89a3      	ldrh	r3, [r4, #12]
    f0da:	f043 0340 	orr.w	r3, r3, #64	; 0x40
    f0de:	81a3      	strh	r3, [r4, #12]
    f0e0:	f04f 30ff 	mov.w	r0, #4294967295
    f0e4:	e8bd 81f0 	ldmia.w	sp!, {r4, r5, r6, r7, r8, pc}
    f0e8:	4407      	add	r7, r0
    f0ea:	eba8 0800 	sub.w	r8, r8, r0
    f0ee:	e7e8      	b.n	f0c2 <__sflush_r+0xde>
    f0f0:	20400001 	.word	0x20400001

0000f0f4 <_fflush_r>:
    f0f4:	b538      	push	{r3, r4, r5, lr}
    f0f6:	690b      	ldr	r3, [r1, #16]
    f0f8:	4605      	mov	r5, r0
    f0fa:	460c      	mov	r4, r1
    f0fc:	b1db      	cbz	r3, f136 <_fflush_r+0x42>
    f0fe:	b118      	cbz	r0, f108 <_fflush_r+0x14>
    f100:	6983      	ldr	r3, [r0, #24]
    f102:	b90b      	cbnz	r3, f108 <_fflush_r+0x14>
    f104:	f000 f860 	bl	f1c8 <__sinit>
    f108:	4b0c      	ldr	r3, [pc, #48]	; (f13c <_fflush_r+0x48>)
    f10a:	429c      	cmp	r4, r3
    f10c:	d109      	bne.n	f122 <_fflush_r+0x2e>
    f10e:	686c      	ldr	r4, [r5, #4]
    f110:	f9b4 300c 	ldrsh.w	r3, [r4, #12]
    f114:	b17b      	cbz	r3, f136 <_fflush_r+0x42>
    f116:	4621      	mov	r1, r4
    f118:	4628      	mov	r0, r5
    f11a:	e8bd 4038 	ldmia.w	sp!, {r3, r4, r5, lr}
    f11e:	f7ff bf61 	b.w	efe4 <__sflush_r>
    f122:	4b07      	ldr	r3, [pc, #28]	; (f140 <_fflush_r+0x4c>)
    f124:	429c      	cmp	r4, r3
    f126:	d101      	bne.n	f12c <_fflush_r+0x38>
    f128:	68ac      	ldr	r4, [r5, #8]
    f12a:	e7f1      	b.n	f110 <_fflush_r+0x1c>
    f12c:	4b05      	ldr	r3, [pc, #20]	; (f144 <_fflush_r+0x50>)
    f12e:	429c      	cmp	r4, r3
    f130:	bf08      	it	eq
    f132:	68ec      	ldreq	r4, [r5, #12]
    f134:	e7ec      	b.n	f110 <_fflush_r+0x1c>
    f136:	2000      	movs	r0, #0
    f138:	bd38      	pop	{r3, r4, r5, pc}
    f13a:	bf00      	nop
    f13c:	00010984 	.word	0x00010984
    f140:	000109a4 	.word	0x000109a4
    f144:	00010964 	.word	0x00010964

0000f148 <_cleanup_r>:
    f148:	4901      	ldr	r1, [pc, #4]	; (f150 <_cleanup_r+0x8>)
    f14a:	f000 b8a9 	b.w	f2a0 <_fwalk_reent>
    f14e:	bf00      	nop
    f150:	0000f0f5 	.word	0x0000f0f5

0000f154 <std.isra.0>:
    f154:	2300      	movs	r3, #0
    f156:	b510      	push	{r4, lr}
    f158:	4604      	mov	r4, r0
    f15a:	6003      	str	r3, [r0, #0]
    f15c:	6043      	str	r3, [r0, #4]
    f15e:	6083      	str	r3, [r0, #8]
    f160:	8181      	strh	r1, [r0, #12]
    f162:	6643      	str	r3, [r0, #100]	; 0x64
    f164:	81c2      	strh	r2, [r0, #14]
    f166:	6103      	str	r3, [r0, #16]
    f168:	6143      	str	r3, [r0, #20]
    f16a:	6183      	str	r3, [r0, #24]
    f16c:	4619      	mov	r1, r3
    f16e:	2208      	movs	r2, #8
    f170:	305c      	adds	r0, #92	; 0x5c
    f172:	f7ff fc4c 	bl	ea0e <memset>
    f176:	4b05      	ldr	r3, [pc, #20]	; (f18c <std.isra.0+0x38>)
    f178:	6263      	str	r3, [r4, #36]	; 0x24
    f17a:	4b05      	ldr	r3, [pc, #20]	; (f190 <std.isra.0+0x3c>)
    f17c:	62a3      	str	r3, [r4, #40]	; 0x28
    f17e:	4b05      	ldr	r3, [pc, #20]	; (f194 <std.isra.0+0x40>)
    f180:	62e3      	str	r3, [r4, #44]	; 0x2c
    f182:	4b05      	ldr	r3, [pc, #20]	; (f198 <std.isra.0+0x44>)
    f184:	6224      	str	r4, [r4, #32]
    f186:	6323      	str	r3, [r4, #48]	; 0x30
    f188:	bd10      	pop	{r4, pc}
    f18a:	bf00      	nop
    f18c:	0000fbf1 	.word	0x0000fbf1
    f190:	0000fc13 	.word	0x0000fc13
    f194:	0000fc4b 	.word	0x0000fc4b
    f198:	0000fc6f 	.word	0x0000fc6f

0000f19c <__sfmoreglue>:
    f19c:	b570      	push	{r4, r5, r6, lr}
    f19e:	1e4a      	subs	r2, r1, #1
    f1a0:	2568      	movs	r5, #104	; 0x68
    f1a2:	4355      	muls	r5, r2
    f1a4:	460e      	mov	r6, r1
    f1a6:	f105 0174 	add.w	r1, r5, #116	; 0x74
    f1aa:	f7ff fc87 	bl	eabc <_malloc_r>
    f1ae:	4604      	mov	r4, r0
    f1b0:	b140      	cbz	r0, f1c4 <__sfmoreglue+0x28>
    f1b2:	2100      	movs	r1, #0
    f1b4:	e880 0042 	stmia.w	r0, {r1, r6}
    f1b8:	300c      	adds	r0, #12
    f1ba:	60a0      	str	r0, [r4, #8]
    f1bc:	f105 0268 	add.w	r2, r5, #104	; 0x68
    f1c0:	f7ff fc25 	bl	ea0e <memset>
    f1c4:	4620      	mov	r0, r4
    f1c6:	bd70      	pop	{r4, r5, r6, pc}

0000f1c8 <__sinit>:
    f1c8:	6983      	ldr	r3, [r0, #24]
    f1ca:	b510      	push	{r4, lr}
    f1cc:	4604      	mov	r4, r0
    f1ce:	bb33      	cbnz	r3, f21e <__sinit+0x56>
    f1d0:	6483      	str	r3, [r0, #72]	; 0x48
    f1d2:	64c3      	str	r3, [r0, #76]	; 0x4c
    f1d4:	6503      	str	r3, [r0, #80]	; 0x50
    f1d6:	4b12      	ldr	r3, [pc, #72]	; (f220 <__sinit+0x58>)
    f1d8:	4a12      	ldr	r2, [pc, #72]	; (f224 <__sinit+0x5c>)
    f1da:	681b      	ldr	r3, [r3, #0]
    f1dc:	6282      	str	r2, [r0, #40]	; 0x28
    f1de:	4298      	cmp	r0, r3
    f1e0:	bf04      	itt	eq
    f1e2:	2301      	moveq	r3, #1
    f1e4:	6183      	streq	r3, [r0, #24]
    f1e6:	f000 f81f 	bl	f228 <__sfp>
    f1ea:	6060      	str	r0, [r4, #4]
    f1ec:	4620      	mov	r0, r4
    f1ee:	f000 f81b 	bl	f228 <__sfp>
    f1f2:	60a0      	str	r0, [r4, #8]
    f1f4:	4620      	mov	r0, r4
    f1f6:	f000 f817 	bl	f228 <__sfp>
    f1fa:	2200      	movs	r2, #0
    f1fc:	60e0      	str	r0, [r4, #12]
    f1fe:	2104      	movs	r1, #4
    f200:	6860      	ldr	r0, [r4, #4]
    f202:	f7ff ffa7 	bl	f154 <std.isra.0>
    f206:	2201      	movs	r2, #1
    f208:	2109      	movs	r1, #9
    f20a:	68a0      	ldr	r0, [r4, #8]
    f20c:	f7ff ffa2 	bl	f154 <std.isra.0>
    f210:	2202      	movs	r2, #2
    f212:	2112      	movs	r1, #18
    f214:	68e0      	ldr	r0, [r4, #12]
    f216:	f7ff ff9d 	bl	f154 <std.isra.0>
    f21a:	2301      	movs	r3, #1
    f21c:	61a3      	str	r3, [r4, #24]
    f21e:	bd10      	pop	{r4, pc}
    f220:	00010960 	.word	0x00010960
    f224:	0000f149 	.word	0x0000f149

0000f228 <__sfp>:
    f228:	b5f8      	push	{r3, r4, r5, r6, r7, lr}
    f22a:	4b1c      	ldr	r3, [pc, #112]	; (f29c <__sfp+0x74>)
    f22c:	681e      	ldr	r6, [r3, #0]
    f22e:	69b3      	ldr	r3, [r6, #24]
    f230:	4607      	mov	r7, r0
    f232:	b913      	cbnz	r3, f23a <__sfp+0x12>
    f234:	4630      	mov	r0, r6
    f236:	f7ff ffc7 	bl	f1c8 <__sinit>
    f23a:	3648      	adds	r6, #72	; 0x48
    f23c:	68b4      	ldr	r4, [r6, #8]
    f23e:	6873      	ldr	r3, [r6, #4]
    f240:	3b01      	subs	r3, #1
    f242:	d503      	bpl.n	f24c <__sfp+0x24>
    f244:	6833      	ldr	r3, [r6, #0]
    f246:	b133      	cbz	r3, f256 <__sfp+0x2e>
    f248:	6836      	ldr	r6, [r6, #0]
    f24a:	e7f7      	b.n	f23c <__sfp+0x14>
    f24c:	f9b4 500c 	ldrsh.w	r5, [r4, #12]
    f250:	b16d      	cbz	r5, f26e <__sfp+0x46>
    f252:	3468      	adds	r4, #104	; 0x68
    f254:	e7f4      	b.n	f240 <__sfp+0x18>
    f256:	2104      	movs	r1, #4
    f258:	4638      	mov	r0, r7
    f25a:	f7ff ff9f 	bl	f19c <__sfmoreglue>
    f25e:	6030      	str	r0, [r6, #0]
    f260:	2800      	cmp	r0, #0
    f262:	d1f1      	bne.n	f248 <__sfp+0x20>
    f264:	230c      	movs	r3, #12
    f266:	603b      	str	r3, [r7, #0]
    f268:	4604      	mov	r4, r0
    f26a:	4620      	mov	r0, r4
    f26c:	bdf8      	pop	{r3, r4, r5, r6, r7, pc}
    f26e:	f64f 73ff 	movw	r3, #65535	; 0xffff
    f272:	81e3      	strh	r3, [r4, #14]
    f274:	2301      	movs	r3, #1
    f276:	81a3      	strh	r3, [r4, #12]
    f278:	6665      	str	r5, [r4, #100]	; 0x64
    f27a:	6025      	str	r5, [r4, #0]
    f27c:	60a5      	str	r5, [r4, #8]
    f27e:	6065      	str	r5, [r4, #4]
    f280:	6125      	str	r5, [r4, #16]
    f282:	6165      	str	r5, [r4, #20]
    f284:	61a5      	str	r5, [r4, #24]
    f286:	2208      	movs	r2, #8
    f288:	4629      	mov	r1, r5
    f28a:	f104 005c 	add.w	r0, r4, #92	; 0x5c
    f28e:	f7ff fbbe 	bl	ea0e <memset>
    f292:	6365      	str	r5, [r4, #52]	; 0x34
    f294:	63a5      	str	r5, [r4, #56]	; 0x38
    f296:	64a5      	str	r5, [r4, #72]	; 0x48
    f298:	64e5      	str	r5, [r4, #76]	; 0x4c
    f29a:	e7e6      	b.n	f26a <__sfp+0x42>
    f29c:	00010960 	.word	0x00010960

0000f2a0 <_fwalk_reent>:
    f2a0:	e92d 43f8 	stmdb	sp!, {r3, r4, r5, r6, r7, r8, r9, lr}
    f2a4:	4680      	mov	r8, r0
    f2a6:	4689      	mov	r9, r1
    f2a8:	f100 0448 	add.w	r4, r0, #72	; 0x48
    f2ac:	2600      	movs	r6, #0
    f2ae:	b914      	cbnz	r4, f2b6 <_fwalk_reent+0x16>
    f2b0:	4630      	mov	r0, r6
    f2b2:	e8bd 83f8 	ldmia.w	sp!, {r3, r4, r5, r6, r7, r8, r9, pc}
    f2b6:	68a5      	ldr	r5, [r4, #8]
    f2b8:	6867      	ldr	r7, [r4, #4]
    f2ba:	3f01      	subs	r7, #1
    f2bc:	d501      	bpl.n	f2c2 <_fwalk_reent+0x22>
    f2be:	6824      	ldr	r4, [r4, #0]
    f2c0:	e7f5      	b.n	f2ae <_fwalk_reent+0xe>
    f2c2:	89ab      	ldrh	r3, [r5, #12]
    f2c4:	2b01      	cmp	r3, #1
    f2c6:	d907      	bls.n	f2d8 <_fwalk_reent+0x38>
    f2c8:	f9b5 300e 	ldrsh.w	r3, [r5, #14]
    f2cc:	3301      	adds	r3, #1
    f2ce:	d003      	beq.n	f2d8 <_fwalk_reent+0x38>
    f2d0:	4629      	mov	r1, r5
    f2d2:	4640      	mov	r0, r8
    f2d4:	47c8      	blx	r9
    f2d6:	4306      	orrs	r6, r0
    f2d8:	3568      	adds	r5, #104	; 0x68
    f2da:	e7ee      	b.n	f2ba <_fwalk_reent+0x1a>

0000f2dc <__swhatbuf_r>:
    f2dc:	b570      	push	{r4, r5, r6, lr}
    f2de:	460e      	mov	r6, r1
    f2e0:	f9b1 100e 	ldrsh.w	r1, [r1, #14]
    f2e4:	2900      	cmp	r1, #0
    f2e6:	b090      	sub	sp, #64	; 0x40
    f2e8:	4614      	mov	r4, r2
    f2ea:	461d      	mov	r5, r3
    f2ec:	da07      	bge.n	f2fe <__swhatbuf_r+0x22>
    f2ee:	2300      	movs	r3, #0
    f2f0:	602b      	str	r3, [r5, #0]
    f2f2:	89b3      	ldrh	r3, [r6, #12]
    f2f4:	061a      	lsls	r2, r3, #24
    f2f6:	d410      	bmi.n	f31a <__swhatbuf_r+0x3e>
    f2f8:	f44f 6380 	mov.w	r3, #1024	; 0x400
    f2fc:	e00e      	b.n	f31c <__swhatbuf_r+0x40>
    f2fe:	aa01      	add	r2, sp, #4
    f300:	f000 fcdc 	bl	fcbc <_fstat_r>
    f304:	2800      	cmp	r0, #0
    f306:	dbf2      	blt.n	f2ee <__swhatbuf_r+0x12>
    f308:	9a02      	ldr	r2, [sp, #8]
    f30a:	f402 4270 	and.w	r2, r2, #61440	; 0xf000
    f30e:	f5a2 5300 	sub.w	r3, r2, #8192	; 0x2000
    f312:	425a      	negs	r2, r3
    f314:	415a      	adcs	r2, r3
    f316:	602a      	str	r2, [r5, #0]
    f318:	e7ee      	b.n	f2f8 <__swhatbuf_r+0x1c>
    f31a:	2340      	movs	r3, #64	; 0x40
    f31c:	2000      	movs	r0, #0
    f31e:	6023      	str	r3, [r4, #0]
    f320:	b010      	add	sp, #64	; 0x40
    f322:	bd70      	pop	{r4, r5, r6, pc}

0000f324 <__smakebuf_r>:
    f324:	898b      	ldrh	r3, [r1, #12]
    f326:	b573      	push	{r0, r1, r4, r5, r6, lr}
    f328:	079d      	lsls	r5, r3, #30
    f32a:	4606      	mov	r6, r0
    f32c:	460c      	mov	r4, r1
    f32e:	d507      	bpl.n	f340 <__smakebuf_r+0x1c>
    f330:	f104 0347 	add.w	r3, r4, #71	; 0x47
    f334:	6023      	str	r3, [r4, #0]
    f336:	6123      	str	r3, [r4, #16]
    f338:	2301      	movs	r3, #1
    f33a:	6163      	str	r3, [r4, #20]
    f33c:	b002      	add	sp, #8
    f33e:	bd70      	pop	{r4, r5, r6, pc}
    f340:	ab01      	add	r3, sp, #4
    f342:	466a      	mov	r2, sp
    f344:	f7ff ffca 	bl	f2dc <__swhatbuf_r>
    f348:	9900      	ldr	r1, [sp, #0]
    f34a:	4605      	mov	r5, r0
    f34c:	4630      	mov	r0, r6
    f34e:	f7ff fbb5 	bl	eabc <_malloc_r>
    f352:	b948      	cbnz	r0, f368 <__smakebuf_r+0x44>
    f354:	f9b4 300c 	ldrsh.w	r3, [r4, #12]
    f358:	059a      	lsls	r2, r3, #22
    f35a:	d4ef      	bmi.n	f33c <__smakebuf_r+0x18>
    f35c:	f023 0303 	bic.w	r3, r3, #3
    f360:	f043 0302 	orr.w	r3, r3, #2
    f364:	81a3      	strh	r3, [r4, #12]
    f366:	e7e3      	b.n	f330 <__smakebuf_r+0xc>
    f368:	4b0d      	ldr	r3, [pc, #52]	; (f3a0 <__smakebuf_r+0x7c>)
    f36a:	62b3      	str	r3, [r6, #40]	; 0x28
    f36c:	89a3      	ldrh	r3, [r4, #12]
    f36e:	6020      	str	r0, [r4, #0]
    f370:	f043 0380 	orr.w	r3, r3, #128	; 0x80
    f374:	81a3      	strh	r3, [r4, #12]
    f376:	9b00      	ldr	r3, [sp, #0]
    f378:	6163      	str	r3, [r4, #20]
    f37a:	9b01      	ldr	r3, [sp, #4]
    f37c:	6120      	str	r0, [r4, #16]
    f37e:	b15b      	cbz	r3, f398 <__smakebuf_r+0x74>
    f380:	f9b4 100e 	ldrsh.w	r1, [r4, #14]
    f384:	4630      	mov	r0, r6
    f386:	f000 fcab 	bl	fce0 <_isatty_r>
    f38a:	b128      	cbz	r0, f398 <__smakebuf_r+0x74>
    f38c:	89a3      	ldrh	r3, [r4, #12]
    f38e:	f023 0303 	bic.w	r3, r3, #3
    f392:	f043 0301 	orr.w	r3, r3, #1
    f396:	81a3      	strh	r3, [r4, #12]
    f398:	89a3      	ldrh	r3, [r4, #12]
    f39a:	431d      	orrs	r5, r3
    f39c:	81a5      	strh	r5, [r4, #12]
    f39e:	e7cd      	b.n	f33c <__smakebuf_r+0x18>
    f3a0:	0000f149 	.word	0x0000f149

0000f3a4 <__malloc_lock>:
    f3a4:	4770      	bx	lr

0000f3a6 <__malloc_unlock>:
    f3a6:	4770      	bx	lr

0000f3a8 <__ssputs_r>:
    f3a8:	e92d 47f0 	stmdb	sp!, {r4, r5, r6, r7, r8, r9, sl, lr}
    f3ac:	688e      	ldr	r6, [r1, #8]
    f3ae:	429e      	cmp	r6, r3
    f3b0:	4682      	mov	sl, r0
    f3b2:	460c      	mov	r4, r1
    f3b4:	4691      	mov	r9, r2
    f3b6:	4698      	mov	r8, r3
    f3b8:	d835      	bhi.n	f426 <__ssputs_r+0x7e>
    f3ba:	898a      	ldrh	r2, [r1, #12]
    f3bc:	f412 6f90 	tst.w	r2, #1152	; 0x480
    f3c0:	d031      	beq.n	f426 <__ssputs_r+0x7e>
    f3c2:	6825      	ldr	r5, [r4, #0]
    f3c4:	6909      	ldr	r1, [r1, #16]
    f3c6:	1a6f      	subs	r7, r5, r1
    f3c8:	6965      	ldr	r5, [r4, #20]
    f3ca:	2302      	movs	r3, #2
    f3cc:	eb05 0545 	add.w	r5, r5, r5, lsl #1
    f3d0:	fb95 f5f3 	sdiv	r5, r5, r3
    f3d4:	f108 0301 	add.w	r3, r8, #1
    f3d8:	443b      	add	r3, r7
    f3da:	429d      	cmp	r5, r3
    f3dc:	bf38      	it	cc
    f3de:	461d      	movcc	r5, r3
    f3e0:	0553      	lsls	r3, r2, #21
    f3e2:	d531      	bpl.n	f448 <__ssputs_r+0xa0>
    f3e4:	4629      	mov	r1, r5
    f3e6:	f7ff fb69 	bl	eabc <_malloc_r>
    f3ea:	4606      	mov	r6, r0
    f3ec:	b950      	cbnz	r0, f404 <__ssputs_r+0x5c>
    f3ee:	230c      	movs	r3, #12
    f3f0:	f8ca 3000 	str.w	r3, [sl]
    f3f4:	89a3      	ldrh	r3, [r4, #12]
    f3f6:	f043 0340 	orr.w	r3, r3, #64	; 0x40
    f3fa:	81a3      	strh	r3, [r4, #12]
    f3fc:	f04f 30ff 	mov.w	r0, #4294967295
    f400:	e8bd 87f0 	ldmia.w	sp!, {r4, r5, r6, r7, r8, r9, sl, pc}
    f404:	463a      	mov	r2, r7
    f406:	6921      	ldr	r1, [r4, #16]
    f408:	f7ff faf6 	bl	e9f8 <memcpy>
    f40c:	89a3      	ldrh	r3, [r4, #12]
    f40e:	f423 6390 	bic.w	r3, r3, #1152	; 0x480
    f412:	f043 0380 	orr.w	r3, r3, #128	; 0x80
    f416:	81a3      	strh	r3, [r4, #12]
    f418:	6126      	str	r6, [r4, #16]
    f41a:	6165      	str	r5, [r4, #20]
    f41c:	443e      	add	r6, r7
    f41e:	1bed      	subs	r5, r5, r7
    f420:	6026      	str	r6, [r4, #0]
    f422:	60a5      	str	r5, [r4, #8]
    f424:	4646      	mov	r6, r8
    f426:	4546      	cmp	r6, r8
    f428:	bf28      	it	cs
    f42a:	4646      	movcs	r6, r8
    f42c:	4632      	mov	r2, r6
    f42e:	4649      	mov	r1, r9
    f430:	6820      	ldr	r0, [r4, #0]
    f432:	f000 fccd 	bl	fdd0 <memmove>
    f436:	68a3      	ldr	r3, [r4, #8]
    f438:	1b9b      	subs	r3, r3, r6
    f43a:	60a3      	str	r3, [r4, #8]
    f43c:	6823      	ldr	r3, [r4, #0]
    f43e:	441e      	add	r6, r3
    f440:	6026      	str	r6, [r4, #0]
    f442:	2000      	movs	r0, #0
    f444:	e8bd 87f0 	ldmia.w	sp!, {r4, r5, r6, r7, r8, r9, sl, pc}
    f448:	462a      	mov	r2, r5
    f44a:	f000 fcdb 	bl	fe04 <_realloc_r>
    f44e:	4606      	mov	r6, r0
    f450:	2800      	cmp	r0, #0
    f452:	d1e1      	bne.n	f418 <__ssputs_r+0x70>
    f454:	6921      	ldr	r1, [r4, #16]
    f456:	4650      	mov	r0, sl
    f458:	f7ff fae2 	bl	ea20 <_free_r>
    f45c:	e7c7      	b.n	f3ee <__ssputs_r+0x46>
	...

0000f460 <_svfiprintf_r>:
    f460:	e92d 4ff0 	stmdb	sp!, {r4, r5, r6, r7, r8, r9, sl, fp, lr}
    f464:	b09d      	sub	sp, #116	; 0x74
    f466:	4680      	mov	r8, r0
    f468:	9303      	str	r3, [sp, #12]
    f46a:	898b      	ldrh	r3, [r1, #12]
    f46c:	061c      	lsls	r4, r3, #24
    f46e:	460d      	mov	r5, r1
    f470:	4616      	mov	r6, r2
    f472:	d50f      	bpl.n	f494 <_svfiprintf_r+0x34>
    f474:	690b      	ldr	r3, [r1, #16]
    f476:	b96b      	cbnz	r3, f494 <_svfiprintf_r+0x34>
    f478:	2140      	movs	r1, #64	; 0x40
    f47a:	f7ff fb1f 	bl	eabc <_malloc_r>
    f47e:	6028      	str	r0, [r5, #0]
    f480:	6128      	str	r0, [r5, #16]
    f482:	b928      	cbnz	r0, f490 <_svfiprintf_r+0x30>
    f484:	230c      	movs	r3, #12
    f486:	f8c8 3000 	str.w	r3, [r8]
    f48a:	f04f 30ff 	mov.w	r0, #4294967295
    f48e:	e0c5      	b.n	f61c <_svfiprintf_r+0x1bc>
    f490:	2340      	movs	r3, #64	; 0x40
    f492:	616b      	str	r3, [r5, #20]
    f494:	2300      	movs	r3, #0
    f496:	9309      	str	r3, [sp, #36]	; 0x24
    f498:	2320      	movs	r3, #32
    f49a:	f88d 3029 	strb.w	r3, [sp, #41]	; 0x29
    f49e:	2330      	movs	r3, #48	; 0x30
    f4a0:	f88d 302a 	strb.w	r3, [sp, #42]	; 0x2a
    f4a4:	f04f 0b01 	mov.w	fp, #1
    f4a8:	4637      	mov	r7, r6
    f4aa:	463c      	mov	r4, r7
    f4ac:	f814 3b01 	ldrb.w	r3, [r4], #1
    f4b0:	2b00      	cmp	r3, #0
    f4b2:	d13c      	bne.n	f52e <_svfiprintf_r+0xce>
    f4b4:	ebb7 0a06 	subs.w	sl, r7, r6
    f4b8:	d00b      	beq.n	f4d2 <_svfiprintf_r+0x72>
    f4ba:	4653      	mov	r3, sl
    f4bc:	4632      	mov	r2, r6
    f4be:	4629      	mov	r1, r5
    f4c0:	4640      	mov	r0, r8
    f4c2:	f7ff ff71 	bl	f3a8 <__ssputs_r>
    f4c6:	3001      	adds	r0, #1
    f4c8:	f000 80a3 	beq.w	f612 <_svfiprintf_r+0x1b2>
    f4cc:	9b09      	ldr	r3, [sp, #36]	; 0x24
    f4ce:	4453      	add	r3, sl
    f4d0:	9309      	str	r3, [sp, #36]	; 0x24
    f4d2:	783b      	ldrb	r3, [r7, #0]
    f4d4:	2b00      	cmp	r3, #0
    f4d6:	f000 809c 	beq.w	f612 <_svfiprintf_r+0x1b2>
    f4da:	2300      	movs	r3, #0
    f4dc:	f04f 32ff 	mov.w	r2, #4294967295
    f4e0:	9304      	str	r3, [sp, #16]
    f4e2:	9307      	str	r3, [sp, #28]
    f4e4:	9205      	str	r2, [sp, #20]
    f4e6:	9306      	str	r3, [sp, #24]
    f4e8:	f88d 3053 	strb.w	r3, [sp, #83]	; 0x53
    f4ec:	931a      	str	r3, [sp, #104]	; 0x68
    f4ee:	2205      	movs	r2, #5
    f4f0:	7821      	ldrb	r1, [r4, #0]
    f4f2:	4850      	ldr	r0, [pc, #320]	; (f634 <_svfiprintf_r+0x1d4>)
    f4f4:	f000 fc1c 	bl	fd30 <memchr>
    f4f8:	1c67      	adds	r7, r4, #1
    f4fa:	9b04      	ldr	r3, [sp, #16]
    f4fc:	b9d8      	cbnz	r0, f536 <_svfiprintf_r+0xd6>
    f4fe:	06d9      	lsls	r1, r3, #27
    f500:	bf44      	itt	mi
    f502:	2220      	movmi	r2, #32
    f504:	f88d 2053 	strbmi.w	r2, [sp, #83]	; 0x53
    f508:	071a      	lsls	r2, r3, #28
    f50a:	bf44      	itt	mi
    f50c:	222b      	movmi	r2, #43	; 0x2b
    f50e:	f88d 2053 	strbmi.w	r2, [sp, #83]	; 0x53
    f512:	7822      	ldrb	r2, [r4, #0]
    f514:	2a2a      	cmp	r2, #42	; 0x2a
    f516:	d016      	beq.n	f546 <_svfiprintf_r+0xe6>
    f518:	9a07      	ldr	r2, [sp, #28]
    f51a:	2100      	movs	r1, #0
    f51c:	200a      	movs	r0, #10
    f51e:	4627      	mov	r7, r4
    f520:	3401      	adds	r4, #1
    f522:	783b      	ldrb	r3, [r7, #0]
    f524:	3b30      	subs	r3, #48	; 0x30
    f526:	2b09      	cmp	r3, #9
    f528:	d951      	bls.n	f5ce <_svfiprintf_r+0x16e>
    f52a:	b1c9      	cbz	r1, f560 <_svfiprintf_r+0x100>
    f52c:	e011      	b.n	f552 <_svfiprintf_r+0xf2>
    f52e:	2b25      	cmp	r3, #37	; 0x25
    f530:	d0c0      	beq.n	f4b4 <_svfiprintf_r+0x54>
    f532:	4627      	mov	r7, r4
    f534:	e7b9      	b.n	f4aa <_svfiprintf_r+0x4a>
    f536:	4a3f      	ldr	r2, [pc, #252]	; (f634 <_svfiprintf_r+0x1d4>)
    f538:	1a80      	subs	r0, r0, r2
    f53a:	fa0b f000 	lsl.w	r0, fp, r0
    f53e:	4318      	orrs	r0, r3
    f540:	9004      	str	r0, [sp, #16]
    f542:	463c      	mov	r4, r7
    f544:	e7d3      	b.n	f4ee <_svfiprintf_r+0x8e>
    f546:	9a03      	ldr	r2, [sp, #12]
    f548:	1d11      	adds	r1, r2, #4
    f54a:	6812      	ldr	r2, [r2, #0]
    f54c:	9103      	str	r1, [sp, #12]
    f54e:	2a00      	cmp	r2, #0
    f550:	db01      	blt.n	f556 <_svfiprintf_r+0xf6>
    f552:	9207      	str	r2, [sp, #28]
    f554:	e004      	b.n	f560 <_svfiprintf_r+0x100>
    f556:	4252      	negs	r2, r2
    f558:	f043 0302 	orr.w	r3, r3, #2
    f55c:	9207      	str	r2, [sp, #28]
    f55e:	9304      	str	r3, [sp, #16]
    f560:	783b      	ldrb	r3, [r7, #0]
    f562:	2b2e      	cmp	r3, #46	; 0x2e
    f564:	d10e      	bne.n	f584 <_svfiprintf_r+0x124>
    f566:	787b      	ldrb	r3, [r7, #1]
    f568:	2b2a      	cmp	r3, #42	; 0x2a
    f56a:	f107 0101 	add.w	r1, r7, #1
    f56e:	d132      	bne.n	f5d6 <_svfiprintf_r+0x176>
    f570:	9b03      	ldr	r3, [sp, #12]
    f572:	1d1a      	adds	r2, r3, #4
    f574:	681b      	ldr	r3, [r3, #0]
    f576:	9203      	str	r2, [sp, #12]
    f578:	2b00      	cmp	r3, #0
    f57a:	bfb8      	it	lt
    f57c:	f04f 33ff 	movlt.w	r3, #4294967295
    f580:	3702      	adds	r7, #2
    f582:	9305      	str	r3, [sp, #20]
    f584:	4c2c      	ldr	r4, [pc, #176]	; (f638 <_svfiprintf_r+0x1d8>)
    f586:	7839      	ldrb	r1, [r7, #0]
    f588:	2203      	movs	r2, #3
    f58a:	4620      	mov	r0, r4
    f58c:	f000 fbd0 	bl	fd30 <memchr>
    f590:	b138      	cbz	r0, f5a2 <_svfiprintf_r+0x142>
    f592:	2340      	movs	r3, #64	; 0x40
    f594:	1b00      	subs	r0, r0, r4
    f596:	fa03 f000 	lsl.w	r0, r3, r0
    f59a:	9b04      	ldr	r3, [sp, #16]
    f59c:	4303      	orrs	r3, r0
    f59e:	9304      	str	r3, [sp, #16]
    f5a0:	3701      	adds	r7, #1
    f5a2:	7839      	ldrb	r1, [r7, #0]
    f5a4:	4825      	ldr	r0, [pc, #148]	; (f63c <_svfiprintf_r+0x1dc>)
    f5a6:	f88d 1028 	strb.w	r1, [sp, #40]	; 0x28
    f5aa:	2206      	movs	r2, #6
    f5ac:	1c7e      	adds	r6, r7, #1
    f5ae:	f000 fbbf 	bl	fd30 <memchr>
    f5b2:	2800      	cmp	r0, #0
    f5b4:	d035      	beq.n	f622 <_svfiprintf_r+0x1c2>
    f5b6:	4b22      	ldr	r3, [pc, #136]	; (f640 <_svfiprintf_r+0x1e0>)
    f5b8:	b9fb      	cbnz	r3, f5fa <_svfiprintf_r+0x19a>
    f5ba:	9b03      	ldr	r3, [sp, #12]
    f5bc:	3307      	adds	r3, #7
    f5be:	f023 0307 	bic.w	r3, r3, #7
    f5c2:	3308      	adds	r3, #8
    f5c4:	9303      	str	r3, [sp, #12]
    f5c6:	9b09      	ldr	r3, [sp, #36]	; 0x24
    f5c8:	444b      	add	r3, r9
    f5ca:	9309      	str	r3, [sp, #36]	; 0x24
    f5cc:	e76c      	b.n	f4a8 <_svfiprintf_r+0x48>
    f5ce:	fb00 3202 	mla	r2, r0, r2, r3
    f5d2:	2101      	movs	r1, #1
    f5d4:	e7a3      	b.n	f51e <_svfiprintf_r+0xbe>
    f5d6:	2300      	movs	r3, #0
    f5d8:	9305      	str	r3, [sp, #20]
    f5da:	4618      	mov	r0, r3
    f5dc:	240a      	movs	r4, #10
    f5de:	460f      	mov	r7, r1
    f5e0:	3101      	adds	r1, #1
    f5e2:	783a      	ldrb	r2, [r7, #0]
    f5e4:	3a30      	subs	r2, #48	; 0x30
    f5e6:	2a09      	cmp	r2, #9
    f5e8:	d903      	bls.n	f5f2 <_svfiprintf_r+0x192>
    f5ea:	2b00      	cmp	r3, #0
    f5ec:	d0ca      	beq.n	f584 <_svfiprintf_r+0x124>
    f5ee:	9005      	str	r0, [sp, #20]
    f5f0:	e7c8      	b.n	f584 <_svfiprintf_r+0x124>
    f5f2:	fb04 2000 	mla	r0, r4, r0, r2
    f5f6:	2301      	movs	r3, #1
    f5f8:	e7f1      	b.n	f5de <_svfiprintf_r+0x17e>
    f5fa:	ab03      	add	r3, sp, #12
    f5fc:	9300      	str	r3, [sp, #0]
    f5fe:	462a      	mov	r2, r5
    f600:	4b10      	ldr	r3, [pc, #64]	; (f644 <_svfiprintf_r+0x1e4>)
    f602:	a904      	add	r1, sp, #16
    f604:	4640      	mov	r0, r8
    f606:	f3af 8000 	nop.w
    f60a:	f1b0 3fff 	cmp.w	r0, #4294967295
    f60e:	4681      	mov	r9, r0
    f610:	d1d9      	bne.n	f5c6 <_svfiprintf_r+0x166>
    f612:	89ab      	ldrh	r3, [r5, #12]
    f614:	065b      	lsls	r3, r3, #25
    f616:	f53f af38 	bmi.w	f48a <_svfiprintf_r+0x2a>
    f61a:	9809      	ldr	r0, [sp, #36]	; 0x24
    f61c:	b01d      	add	sp, #116	; 0x74
    f61e:	e8bd 8ff0 	ldmia.w	sp!, {r4, r5, r6, r7, r8, r9, sl, fp, pc}
    f622:	ab03      	add	r3, sp, #12
    f624:	9300      	str	r3, [sp, #0]
    f626:	462a      	mov	r2, r5
    f628:	4b06      	ldr	r3, [pc, #24]	; (f644 <_svfiprintf_r+0x1e4>)
    f62a:	a904      	add	r1, sp, #16
    f62c:	4640      	mov	r0, r8
    f62e:	f000 f9bf 	bl	f9b0 <_printf_i>
    f632:	e7ea      	b.n	f60a <_svfiprintf_r+0x1aa>
    f634:	000109c4 	.word	0x000109c4
    f638:	000109ca 	.word	0x000109ca
    f63c:	000109ce 	.word	0x000109ce
    f640:	00000000 	.word	0x00000000
    f644:	0000f3a9 	.word	0x0000f3a9

0000f648 <__sfputc_r>:
    f648:	6893      	ldr	r3, [r2, #8]
    f64a:	3b01      	subs	r3, #1
    f64c:	2b00      	cmp	r3, #0
    f64e:	b410      	push	{r4}
    f650:	6093      	str	r3, [r2, #8]
    f652:	da08      	bge.n	f666 <__sfputc_r+0x1e>
    f654:	6994      	ldr	r4, [r2, #24]
    f656:	42a3      	cmp	r3, r4
    f658:	db02      	blt.n	f660 <__sfputc_r+0x18>
    f65a:	b2cb      	uxtb	r3, r1
    f65c:	2b0a      	cmp	r3, #10
    f65e:	d102      	bne.n	f666 <__sfputc_r+0x1e>
    f660:	bc10      	pop	{r4}
    f662:	f7ff bbff 	b.w	ee64 <__swbuf_r>
    f666:	6813      	ldr	r3, [r2, #0]
    f668:	1c58      	adds	r0, r3, #1
    f66a:	6010      	str	r0, [r2, #0]
    f66c:	7019      	strb	r1, [r3, #0]
    f66e:	b2c8      	uxtb	r0, r1
    f670:	bc10      	pop	{r4}
    f672:	4770      	bx	lr

0000f674 <__sfputs_r>:
    f674:	b5f8      	push	{r3, r4, r5, r6, r7, lr}
    f676:	4606      	mov	r6, r0
    f678:	460f      	mov	r7, r1
    f67a:	4614      	mov	r4, r2
    f67c:	18d5      	adds	r5, r2, r3
    f67e:	42ac      	cmp	r4, r5
    f680:	d101      	bne.n	f686 <__sfputs_r+0x12>
    f682:	2000      	movs	r0, #0
    f684:	e007      	b.n	f696 <__sfputs_r+0x22>
    f686:	463a      	mov	r2, r7
    f688:	f814 1b01 	ldrb.w	r1, [r4], #1
    f68c:	4630      	mov	r0, r6
    f68e:	f7ff ffdb 	bl	f648 <__sfputc_r>
    f692:	1c43      	adds	r3, r0, #1
    f694:	d1f3      	bne.n	f67e <__sfputs_r+0xa>
    f696:	bdf8      	pop	{r3, r4, r5, r6, r7, pc}

0000f698 <_vfiprintf_r>:
    f698:	e92d 4ff0 	stmdb	sp!, {r4, r5, r6, r7, r8, r9, sl, fp, lr}
    f69c:	b09d      	sub	sp, #116	; 0x74
    f69e:	460c      	mov	r4, r1
    f6a0:	4617      	mov	r7, r2
    f6a2:	9303      	str	r3, [sp, #12]
    f6a4:	4606      	mov	r6, r0
    f6a6:	b118      	cbz	r0, f6b0 <_vfiprintf_r+0x18>
    f6a8:	6983      	ldr	r3, [r0, #24]
    f6aa:	b90b      	cbnz	r3, f6b0 <_vfiprintf_r+0x18>
    f6ac:	f7ff fd8c 	bl	f1c8 <__sinit>
    f6b0:	4b7c      	ldr	r3, [pc, #496]	; (f8a4 <_vfiprintf_r+0x20c>)
    f6b2:	429c      	cmp	r4, r3
    f6b4:	d157      	bne.n	f766 <_vfiprintf_r+0xce>
    f6b6:	6874      	ldr	r4, [r6, #4]
    f6b8:	89a3      	ldrh	r3, [r4, #12]
    f6ba:	0718      	lsls	r0, r3, #28
    f6bc:	d55d      	bpl.n	f77a <_vfiprintf_r+0xe2>
    f6be:	6923      	ldr	r3, [r4, #16]
    f6c0:	2b00      	cmp	r3, #0
    f6c2:	d05a      	beq.n	f77a <_vfiprintf_r+0xe2>
    f6c4:	2300      	movs	r3, #0
    f6c6:	9309      	str	r3, [sp, #36]	; 0x24
    f6c8:	2320      	movs	r3, #32
    f6ca:	f88d 3029 	strb.w	r3, [sp, #41]	; 0x29
    f6ce:	2330      	movs	r3, #48	; 0x30
    f6d0:	f88d 302a 	strb.w	r3, [sp, #42]	; 0x2a
    f6d4:	f04f 0b01 	mov.w	fp, #1
    f6d8:	46b8      	mov	r8, r7
    f6da:	4645      	mov	r5, r8
    f6dc:	f815 3b01 	ldrb.w	r3, [r5], #1
    f6e0:	2b00      	cmp	r3, #0
    f6e2:	d155      	bne.n	f790 <_vfiprintf_r+0xf8>
    f6e4:	ebb8 0a07 	subs.w	sl, r8, r7
    f6e8:	d00b      	beq.n	f702 <_vfiprintf_r+0x6a>
    f6ea:	4653      	mov	r3, sl
    f6ec:	463a      	mov	r2, r7
    f6ee:	4621      	mov	r1, r4
    f6f0:	4630      	mov	r0, r6
    f6f2:	f7ff ffbf 	bl	f674 <__sfputs_r>
    f6f6:	3001      	adds	r0, #1
    f6f8:	f000 80c4 	beq.w	f884 <_vfiprintf_r+0x1ec>
    f6fc:	9b09      	ldr	r3, [sp, #36]	; 0x24
    f6fe:	4453      	add	r3, sl
    f700:	9309      	str	r3, [sp, #36]	; 0x24
    f702:	f898 3000 	ldrb.w	r3, [r8]
    f706:	2b00      	cmp	r3, #0
    f708:	f000 80bc 	beq.w	f884 <_vfiprintf_r+0x1ec>
    f70c:	2300      	movs	r3, #0
    f70e:	f04f 32ff 	mov.w	r2, #4294967295
    f712:	9304      	str	r3, [sp, #16]
    f714:	9307      	str	r3, [sp, #28]
    f716:	9205      	str	r2, [sp, #20]
    f718:	9306      	str	r3, [sp, #24]
    f71a:	f88d 3053 	strb.w	r3, [sp, #83]	; 0x53
    f71e:	931a      	str	r3, [sp, #104]	; 0x68
    f720:	2205      	movs	r2, #5
    f722:	7829      	ldrb	r1, [r5, #0]
    f724:	4860      	ldr	r0, [pc, #384]	; (f8a8 <_vfiprintf_r+0x210>)
    f726:	f000 fb03 	bl	fd30 <memchr>
    f72a:	f105 0801 	add.w	r8, r5, #1
    f72e:	9b04      	ldr	r3, [sp, #16]
    f730:	2800      	cmp	r0, #0
    f732:	d131      	bne.n	f798 <_vfiprintf_r+0x100>
    f734:	06d9      	lsls	r1, r3, #27
    f736:	bf44      	itt	mi
    f738:	2220      	movmi	r2, #32
    f73a:	f88d 2053 	strbmi.w	r2, [sp, #83]	; 0x53
    f73e:	071a      	lsls	r2, r3, #28
    f740:	bf44      	itt	mi
    f742:	222b      	movmi	r2, #43	; 0x2b
    f744:	f88d 2053 	strbmi.w	r2, [sp, #83]	; 0x53
    f748:	782a      	ldrb	r2, [r5, #0]
    f74a:	2a2a      	cmp	r2, #42	; 0x2a
    f74c:	d02c      	beq.n	f7a8 <_vfiprintf_r+0x110>
    f74e:	9a07      	ldr	r2, [sp, #28]
    f750:	2100      	movs	r1, #0
    f752:	200a      	movs	r0, #10
    f754:	46a8      	mov	r8, r5
    f756:	3501      	adds	r5, #1
    f758:	f898 3000 	ldrb.w	r3, [r8]
    f75c:	3b30      	subs	r3, #48	; 0x30
    f75e:	2b09      	cmp	r3, #9
    f760:	d96d      	bls.n	f83e <_vfiprintf_r+0x1a6>
    f762:	b371      	cbz	r1, f7c2 <_vfiprintf_r+0x12a>
    f764:	e026      	b.n	f7b4 <_vfiprintf_r+0x11c>
    f766:	4b51      	ldr	r3, [pc, #324]	; (f8ac <_vfiprintf_r+0x214>)
    f768:	429c      	cmp	r4, r3
    f76a:	d101      	bne.n	f770 <_vfiprintf_r+0xd8>
    f76c:	68b4      	ldr	r4, [r6, #8]
    f76e:	e7a3      	b.n	f6b8 <_vfiprintf_r+0x20>
    f770:	4b4f      	ldr	r3, [pc, #316]	; (f8b0 <_vfiprintf_r+0x218>)
    f772:	429c      	cmp	r4, r3
    f774:	bf08      	it	eq
    f776:	68f4      	ldreq	r4, [r6, #12]
    f778:	e79e      	b.n	f6b8 <_vfiprintf_r+0x20>
    f77a:	4621      	mov	r1, r4
    f77c:	4630      	mov	r0, r6
    f77e:	f7ff fbc3 	bl	ef08 <__swsetup_r>
    f782:	2800      	cmp	r0, #0
    f784:	d09e      	beq.n	f6c4 <_vfiprintf_r+0x2c>
    f786:	f04f 30ff 	mov.w	r0, #4294967295
    f78a:	b01d      	add	sp, #116	; 0x74
    f78c:	e8bd 8ff0 	ldmia.w	sp!, {r4, r5, r6, r7, r8, r9, sl, fp, pc}
    f790:	2b25      	cmp	r3, #37	; 0x25
    f792:	d0a7      	beq.n	f6e4 <_vfiprintf_r+0x4c>
    f794:	46a8      	mov	r8, r5
    f796:	e7a0      	b.n	f6da <_vfiprintf_r+0x42>
    f798:	4a43      	ldr	r2, [pc, #268]	; (f8a8 <_vfiprintf_r+0x210>)
    f79a:	1a80      	subs	r0, r0, r2
    f79c:	fa0b f000 	lsl.w	r0, fp, r0
    f7a0:	4318      	orrs	r0, r3
    f7a2:	9004      	str	r0, [sp, #16]
    f7a4:	4645      	mov	r5, r8
    f7a6:	e7bb      	b.n	f720 <_vfiprintf_r+0x88>
    f7a8:	9a03      	ldr	r2, [sp, #12]
    f7aa:	1d11      	adds	r1, r2, #4
    f7ac:	6812      	ldr	r2, [r2, #0]
    f7ae:	9103      	str	r1, [sp, #12]
    f7b0:	2a00      	cmp	r2, #0
    f7b2:	db01      	blt.n	f7b8 <_vfiprintf_r+0x120>
    f7b4:	9207      	str	r2, [sp, #28]
    f7b6:	e004      	b.n	f7c2 <_vfiprintf_r+0x12a>
    f7b8:	4252      	negs	r2, r2
    f7ba:	f043 0302 	orr.w	r3, r3, #2
    f7be:	9207      	str	r2, [sp, #28]
    f7c0:	9304      	str	r3, [sp, #16]
    f7c2:	f898 3000 	ldrb.w	r3, [r8]
    f7c6:	2b2e      	cmp	r3, #46	; 0x2e
    f7c8:	d110      	bne.n	f7ec <_vfiprintf_r+0x154>
    f7ca:	f898 3001 	ldrb.w	r3, [r8, #1]
    f7ce:	2b2a      	cmp	r3, #42	; 0x2a
    f7d0:	f108 0101 	add.w	r1, r8, #1
    f7d4:	d137      	bne.n	f846 <_vfiprintf_r+0x1ae>
    f7d6:	9b03      	ldr	r3, [sp, #12]
    f7d8:	1d1a      	adds	r2, r3, #4
    f7da:	681b      	ldr	r3, [r3, #0]
    f7dc:	9203      	str	r2, [sp, #12]
    f7de:	2b00      	cmp	r3, #0
    f7e0:	bfb8      	it	lt
    f7e2:	f04f 33ff 	movlt.w	r3, #4294967295
    f7e6:	f108 0802 	add.w	r8, r8, #2
    f7ea:	9305      	str	r3, [sp, #20]
    f7ec:	4d31      	ldr	r5, [pc, #196]	; (f8b4 <_vfiprintf_r+0x21c>)
    f7ee:	f898 1000 	ldrb.w	r1, [r8]
    f7f2:	2203      	movs	r2, #3
    f7f4:	4628      	mov	r0, r5
    f7f6:	f000 fa9b 	bl	fd30 <memchr>
    f7fa:	b140      	cbz	r0, f80e <_vfiprintf_r+0x176>
    f7fc:	2340      	movs	r3, #64	; 0x40
    f7fe:	1b40      	subs	r0, r0, r5
    f800:	fa03 f000 	lsl.w	r0, r3, r0
    f804:	9b04      	ldr	r3, [sp, #16]
    f806:	4303      	orrs	r3, r0
    f808:	9304      	str	r3, [sp, #16]
    f80a:	f108 0801 	add.w	r8, r8, #1
    f80e:	f898 1000 	ldrb.w	r1, [r8]
    f812:	4829      	ldr	r0, [pc, #164]	; (f8b8 <_vfiprintf_r+0x220>)
    f814:	f88d 1028 	strb.w	r1, [sp, #40]	; 0x28
    f818:	2206      	movs	r2, #6
    f81a:	f108 0701 	add.w	r7, r8, #1
    f81e:	f000 fa87 	bl	fd30 <memchr>
    f822:	2800      	cmp	r0, #0
    f824:	d034      	beq.n	f890 <_vfiprintf_r+0x1f8>
    f826:	4b25      	ldr	r3, [pc, #148]	; (f8bc <_vfiprintf_r+0x224>)
    f828:	bb03      	cbnz	r3, f86c <_vfiprintf_r+0x1d4>
    f82a:	9b03      	ldr	r3, [sp, #12]
    f82c:	3307      	adds	r3, #7
    f82e:	f023 0307 	bic.w	r3, r3, #7
    f832:	3308      	adds	r3, #8
    f834:	9303      	str	r3, [sp, #12]
    f836:	9b09      	ldr	r3, [sp, #36]	; 0x24
    f838:	444b      	add	r3, r9
    f83a:	9309      	str	r3, [sp, #36]	; 0x24
    f83c:	e74c      	b.n	f6d8 <_vfiprintf_r+0x40>
    f83e:	fb00 3202 	mla	r2, r0, r2, r3
    f842:	2101      	movs	r1, #1
    f844:	e786      	b.n	f754 <_vfiprintf_r+0xbc>
    f846:	2300      	movs	r3, #0
    f848:	9305      	str	r3, [sp, #20]
    f84a:	4618      	mov	r0, r3
    f84c:	250a      	movs	r5, #10
    f84e:	4688      	mov	r8, r1
    f850:	3101      	adds	r1, #1
    f852:	f898 2000 	ldrb.w	r2, [r8]
    f856:	3a30      	subs	r2, #48	; 0x30
    f858:	2a09      	cmp	r2, #9
    f85a:	d903      	bls.n	f864 <_vfiprintf_r+0x1cc>
    f85c:	2b00      	cmp	r3, #0
    f85e:	d0c5      	beq.n	f7ec <_vfiprintf_r+0x154>
    f860:	9005      	str	r0, [sp, #20]
    f862:	e7c3      	b.n	f7ec <_vfiprintf_r+0x154>
    f864:	fb05 2000 	mla	r0, r5, r0, r2
    f868:	2301      	movs	r3, #1
    f86a:	e7f0      	b.n	f84e <_vfiprintf_r+0x1b6>
    f86c:	ab03      	add	r3, sp, #12
    f86e:	9300      	str	r3, [sp, #0]
    f870:	4622      	mov	r2, r4
    f872:	4b13      	ldr	r3, [pc, #76]	; (f8c0 <_vfiprintf_r+0x228>)
    f874:	a904      	add	r1, sp, #16
    f876:	4630      	mov	r0, r6
    f878:	f3af 8000 	nop.w
    f87c:	f1b0 3fff 	cmp.w	r0, #4294967295
    f880:	4681      	mov	r9, r0
    f882:	d1d8      	bne.n	f836 <_vfiprintf_r+0x19e>
    f884:	89a3      	ldrh	r3, [r4, #12]
    f886:	065b      	lsls	r3, r3, #25
    f888:	f53f af7d 	bmi.w	f786 <_vfiprintf_r+0xee>
    f88c:	9809      	ldr	r0, [sp, #36]	; 0x24
    f88e:	e77c      	b.n	f78a <_vfiprintf_r+0xf2>
    f890:	ab03      	add	r3, sp, #12
    f892:	9300      	str	r3, [sp, #0]
    f894:	4622      	mov	r2, r4
    f896:	4b0a      	ldr	r3, [pc, #40]	; (f8c0 <_vfiprintf_r+0x228>)
    f898:	a904      	add	r1, sp, #16
    f89a:	4630      	mov	r0, r6
    f89c:	f000 f888 	bl	f9b0 <_printf_i>
    f8a0:	e7ec      	b.n	f87c <_vfiprintf_r+0x1e4>
    f8a2:	bf00      	nop
    f8a4:	00010984 	.word	0x00010984
    f8a8:	000109c4 	.word	0x000109c4
    f8ac:	000109a4 	.word	0x000109a4
    f8b0:	00010964 	.word	0x00010964
    f8b4:	000109ca 	.word	0x000109ca
    f8b8:	000109ce 	.word	0x000109ce
    f8bc:	00000000 	.word	0x00000000
    f8c0:	0000f675 	.word	0x0000f675

0000f8c4 <_printf_common>:
    f8c4:	e92d 47f0 	stmdb	sp!, {r4, r5, r6, r7, r8, r9, sl, lr}
    f8c8:	4691      	mov	r9, r2
    f8ca:	461f      	mov	r7, r3
    f8cc:	688a      	ldr	r2, [r1, #8]
    f8ce:	690b      	ldr	r3, [r1, #16]
    f8d0:	f8dd 8020 	ldr.w	r8, [sp, #32]
    f8d4:	4293      	cmp	r3, r2
    f8d6:	bfb8      	it	lt
    f8d8:	4613      	movlt	r3, r2
    f8da:	f8c9 3000 	str.w	r3, [r9]
    f8de:	f891 2043 	ldrb.w	r2, [r1, #67]	; 0x43
    f8e2:	4606      	mov	r6, r0
    f8e4:	460c      	mov	r4, r1
    f8e6:	b112      	cbz	r2, f8ee <_printf_common+0x2a>
    f8e8:	3301      	adds	r3, #1
    f8ea:	f8c9 3000 	str.w	r3, [r9]
    f8ee:	6823      	ldr	r3, [r4, #0]
    f8f0:	0699      	lsls	r1, r3, #26
    f8f2:	bf42      	ittt	mi
    f8f4:	f8d9 3000 	ldrmi.w	r3, [r9]
    f8f8:	3302      	addmi	r3, #2
    f8fa:	f8c9 3000 	strmi.w	r3, [r9]
    f8fe:	6825      	ldr	r5, [r4, #0]
    f900:	f015 0506 	ands.w	r5, r5, #6
    f904:	d107      	bne.n	f916 <_printf_common+0x52>
    f906:	f104 0a19 	add.w	sl, r4, #25
    f90a:	68e3      	ldr	r3, [r4, #12]
    f90c:	f8d9 2000 	ldr.w	r2, [r9]
    f910:	1a9b      	subs	r3, r3, r2
    f912:	429d      	cmp	r5, r3
    f914:	db29      	blt.n	f96a <_printf_common+0xa6>
    f916:	f894 3043 	ldrb.w	r3, [r4, #67]	; 0x43
    f91a:	6822      	ldr	r2, [r4, #0]
    f91c:	3300      	adds	r3, #0
    f91e:	bf18      	it	ne
    f920:	2301      	movne	r3, #1
    f922:	0692      	lsls	r2, r2, #26
    f924:	d42e      	bmi.n	f984 <_printf_common+0xc0>
    f926:	f104 0243 	add.w	r2, r4, #67	; 0x43
    f92a:	4639      	mov	r1, r7
    f92c:	4630      	mov	r0, r6
    f92e:	47c0      	blx	r8
    f930:	3001      	adds	r0, #1
    f932:	d021      	beq.n	f978 <_printf_common+0xb4>
    f934:	6823      	ldr	r3, [r4, #0]
    f936:	68e5      	ldr	r5, [r4, #12]
    f938:	f8d9 2000 	ldr.w	r2, [r9]
    f93c:	f003 0306 	and.w	r3, r3, #6
    f940:	2b04      	cmp	r3, #4
    f942:	bf08      	it	eq
    f944:	1aad      	subeq	r5, r5, r2
    f946:	68a3      	ldr	r3, [r4, #8]
    f948:	6922      	ldr	r2, [r4, #16]
    f94a:	bf0c      	ite	eq
    f94c:	ea25 75e5 	biceq.w	r5, r5, r5, asr #31
    f950:	2500      	movne	r5, #0
    f952:	4293      	cmp	r3, r2
    f954:	bfc4      	itt	gt
    f956:	1a9b      	subgt	r3, r3, r2
    f958:	18ed      	addgt	r5, r5, r3
    f95a:	f04f 0900 	mov.w	r9, #0
    f95e:	341a      	adds	r4, #26
    f960:	454d      	cmp	r5, r9
    f962:	d11b      	bne.n	f99c <_printf_common+0xd8>
    f964:	2000      	movs	r0, #0
    f966:	e8bd 87f0 	ldmia.w	sp!, {r4, r5, r6, r7, r8, r9, sl, pc}
    f96a:	2301      	movs	r3, #1
    f96c:	4652      	mov	r2, sl
    f96e:	4639      	mov	r1, r7
    f970:	4630      	mov	r0, r6
    f972:	47c0      	blx	r8
    f974:	3001      	adds	r0, #1
    f976:	d103      	bne.n	f980 <_printf_common+0xbc>
    f978:	f04f 30ff 	mov.w	r0, #4294967295
    f97c:	e8bd 87f0 	ldmia.w	sp!, {r4, r5, r6, r7, r8, r9, sl, pc}
    f980:	3501      	adds	r5, #1
    f982:	e7c2      	b.n	f90a <_printf_common+0x46>
    f984:	18e1      	adds	r1, r4, r3
    f986:	1c5a      	adds	r2, r3, #1
    f988:	2030      	movs	r0, #48	; 0x30
    f98a:	f881 0043 	strb.w	r0, [r1, #67]	; 0x43
    f98e:	4422      	add	r2, r4
    f990:	f894 1045 	ldrb.w	r1, [r4, #69]	; 0x45
    f994:	f882 1043 	strb.w	r1, [r2, #67]	; 0x43
    f998:	3302      	adds	r3, #2
    f99a:	e7c4      	b.n	f926 <_printf_common+0x62>
    f99c:	2301      	movs	r3, #1
    f99e:	4622      	mov	r2, r4
    f9a0:	4639      	mov	r1, r7
    f9a2:	4630      	mov	r0, r6
    f9a4:	47c0      	blx	r8
    f9a6:	3001      	adds	r0, #1
    f9a8:	d0e6      	beq.n	f978 <_printf_common+0xb4>
    f9aa:	f109 0901 	add.w	r9, r9, #1
    f9ae:	e7d7      	b.n	f960 <_printf_common+0x9c>

0000f9b0 <_printf_i>:
    f9b0:	e92d 43f0 	stmdb	sp!, {r4, r5, r6, r7, r8, r9, lr}
    f9b4:	4617      	mov	r7, r2
    f9b6:	7e0a      	ldrb	r2, [r1, #24]
    f9b8:	b085      	sub	sp, #20
    f9ba:	2a6e      	cmp	r2, #110	; 0x6e
    f9bc:	4698      	mov	r8, r3
    f9be:	4606      	mov	r6, r0
    f9c0:	460c      	mov	r4, r1
    f9c2:	9b0c      	ldr	r3, [sp, #48]	; 0x30
    f9c4:	f101 0e43 	add.w	lr, r1, #67	; 0x43
    f9c8:	f000 80bc 	beq.w	fb44 <_printf_i+0x194>
    f9cc:	d81a      	bhi.n	fa04 <_printf_i+0x54>
    f9ce:	2a63      	cmp	r2, #99	; 0x63
    f9d0:	d02e      	beq.n	fa30 <_printf_i+0x80>
    f9d2:	d80a      	bhi.n	f9ea <_printf_i+0x3a>
    f9d4:	2a00      	cmp	r2, #0
    f9d6:	f000 80c8 	beq.w	fb6a <_printf_i+0x1ba>
    f9da:	2a58      	cmp	r2, #88	; 0x58
    f9dc:	f000 808a 	beq.w	faf4 <_printf_i+0x144>
    f9e0:	f104 0542 	add.w	r5, r4, #66	; 0x42
    f9e4:	f884 2042 	strb.w	r2, [r4, #66]	; 0x42
    f9e8:	e02a      	b.n	fa40 <_printf_i+0x90>
    f9ea:	2a64      	cmp	r2, #100	; 0x64
    f9ec:	d001      	beq.n	f9f2 <_printf_i+0x42>
    f9ee:	2a69      	cmp	r2, #105	; 0x69
    f9f0:	d1f6      	bne.n	f9e0 <_printf_i+0x30>
    f9f2:	6821      	ldr	r1, [r4, #0]
    f9f4:	681a      	ldr	r2, [r3, #0]
    f9f6:	f011 0f80 	tst.w	r1, #128	; 0x80
    f9fa:	d023      	beq.n	fa44 <_printf_i+0x94>
    f9fc:	1d11      	adds	r1, r2, #4
    f9fe:	6019      	str	r1, [r3, #0]
    fa00:	6813      	ldr	r3, [r2, #0]
    fa02:	e027      	b.n	fa54 <_printf_i+0xa4>
    fa04:	2a73      	cmp	r2, #115	; 0x73
    fa06:	f000 80b4 	beq.w	fb72 <_printf_i+0x1c2>
    fa0a:	d808      	bhi.n	fa1e <_printf_i+0x6e>
    fa0c:	2a6f      	cmp	r2, #111	; 0x6f
    fa0e:	d02a      	beq.n	fa66 <_printf_i+0xb6>
    fa10:	2a70      	cmp	r2, #112	; 0x70
    fa12:	d1e5      	bne.n	f9e0 <_printf_i+0x30>
    fa14:	680a      	ldr	r2, [r1, #0]
    fa16:	f042 0220 	orr.w	r2, r2, #32
    fa1a:	600a      	str	r2, [r1, #0]
    fa1c:	e003      	b.n	fa26 <_printf_i+0x76>
    fa1e:	2a75      	cmp	r2, #117	; 0x75
    fa20:	d021      	beq.n	fa66 <_printf_i+0xb6>
    fa22:	2a78      	cmp	r2, #120	; 0x78
    fa24:	d1dc      	bne.n	f9e0 <_printf_i+0x30>
    fa26:	2278      	movs	r2, #120	; 0x78
    fa28:	f884 2045 	strb.w	r2, [r4, #69]	; 0x45
    fa2c:	496e      	ldr	r1, [pc, #440]	; (fbe8 <_printf_i+0x238>)
    fa2e:	e064      	b.n	fafa <_printf_i+0x14a>
    fa30:	681a      	ldr	r2, [r3, #0]
    fa32:	f101 0542 	add.w	r5, r1, #66	; 0x42
    fa36:	1d11      	adds	r1, r2, #4
    fa38:	6019      	str	r1, [r3, #0]
    fa3a:	6813      	ldr	r3, [r2, #0]
    fa3c:	f884 3042 	strb.w	r3, [r4, #66]	; 0x42
    fa40:	2301      	movs	r3, #1
    fa42:	e0a3      	b.n	fb8c <_printf_i+0x1dc>
    fa44:	f011 0f40 	tst.w	r1, #64	; 0x40
    fa48:	f102 0104 	add.w	r1, r2, #4
    fa4c:	6019      	str	r1, [r3, #0]
    fa4e:	d0d7      	beq.n	fa00 <_printf_i+0x50>
    fa50:	f9b2 3000 	ldrsh.w	r3, [r2]
    fa54:	2b00      	cmp	r3, #0
    fa56:	da03      	bge.n	fa60 <_printf_i+0xb0>
    fa58:	222d      	movs	r2, #45	; 0x2d
    fa5a:	425b      	negs	r3, r3
    fa5c:	f884 2043 	strb.w	r2, [r4, #67]	; 0x43
    fa60:	4962      	ldr	r1, [pc, #392]	; (fbec <_printf_i+0x23c>)
    fa62:	220a      	movs	r2, #10
    fa64:	e017      	b.n	fa96 <_printf_i+0xe6>
    fa66:	6820      	ldr	r0, [r4, #0]
    fa68:	6819      	ldr	r1, [r3, #0]
    fa6a:	f010 0f80 	tst.w	r0, #128	; 0x80
    fa6e:	d003      	beq.n	fa78 <_printf_i+0xc8>
    fa70:	1d08      	adds	r0, r1, #4
    fa72:	6018      	str	r0, [r3, #0]
    fa74:	680b      	ldr	r3, [r1, #0]
    fa76:	e006      	b.n	fa86 <_printf_i+0xd6>
    fa78:	f010 0f40 	tst.w	r0, #64	; 0x40
    fa7c:	f101 0004 	add.w	r0, r1, #4
    fa80:	6018      	str	r0, [r3, #0]
    fa82:	d0f7      	beq.n	fa74 <_printf_i+0xc4>
    fa84:	880b      	ldrh	r3, [r1, #0]
    fa86:	4959      	ldr	r1, [pc, #356]	; (fbec <_printf_i+0x23c>)
    fa88:	2a6f      	cmp	r2, #111	; 0x6f
    fa8a:	bf14      	ite	ne
    fa8c:	220a      	movne	r2, #10
    fa8e:	2208      	moveq	r2, #8
    fa90:	2000      	movs	r0, #0
    fa92:	f884 0043 	strb.w	r0, [r4, #67]	; 0x43
    fa96:	6865      	ldr	r5, [r4, #4]
    fa98:	60a5      	str	r5, [r4, #8]
    fa9a:	2d00      	cmp	r5, #0
    fa9c:	f2c0 809c 	blt.w	fbd8 <_printf_i+0x228>
    faa0:	6820      	ldr	r0, [r4, #0]
    faa2:	f020 0004 	bic.w	r0, r0, #4
    faa6:	6020      	str	r0, [r4, #0]
    faa8:	2b00      	cmp	r3, #0
    faaa:	d13f      	bne.n	fb2c <_printf_i+0x17c>
    faac:	2d00      	cmp	r5, #0
    faae:	f040 8095 	bne.w	fbdc <_printf_i+0x22c>
    fab2:	4675      	mov	r5, lr
    fab4:	2a08      	cmp	r2, #8
    fab6:	d10b      	bne.n	fad0 <_printf_i+0x120>
    fab8:	6823      	ldr	r3, [r4, #0]
    faba:	07da      	lsls	r2, r3, #31
    fabc:	d508      	bpl.n	fad0 <_printf_i+0x120>
    fabe:	6923      	ldr	r3, [r4, #16]
    fac0:	6862      	ldr	r2, [r4, #4]
    fac2:	429a      	cmp	r2, r3
    fac4:	bfde      	ittt	le
    fac6:	2330      	movle	r3, #48	; 0x30
    fac8:	f805 3c01 	strble.w	r3, [r5, #-1]
    facc:	f105 35ff 	addle.w	r5, r5, #4294967295
    fad0:	ebae 0305 	sub.w	r3, lr, r5
    fad4:	6123      	str	r3, [r4, #16]
    fad6:	f8cd 8000 	str.w	r8, [sp]
    fada:	463b      	mov	r3, r7
    fadc:	aa03      	add	r2, sp, #12
    fade:	4621      	mov	r1, r4
    fae0:	4630      	mov	r0, r6
    fae2:	f7ff feef 	bl	f8c4 <_printf_common>
    fae6:	3001      	adds	r0, #1
    fae8:	d155      	bne.n	fb96 <_printf_i+0x1e6>
    faea:	f04f 30ff 	mov.w	r0, #4294967295
    faee:	b005      	add	sp, #20
    faf0:	e8bd 83f0 	ldmia.w	sp!, {r4, r5, r6, r7, r8, r9, pc}
    faf4:	f881 2045 	strb.w	r2, [r1, #69]	; 0x45
    faf8:	493c      	ldr	r1, [pc, #240]	; (fbec <_printf_i+0x23c>)
    fafa:	6822      	ldr	r2, [r4, #0]
    fafc:	6818      	ldr	r0, [r3, #0]
    fafe:	f012 0f80 	tst.w	r2, #128	; 0x80
    fb02:	f100 0504 	add.w	r5, r0, #4
    fb06:	601d      	str	r5, [r3, #0]
    fb08:	d001      	beq.n	fb0e <_printf_i+0x15e>
    fb0a:	6803      	ldr	r3, [r0, #0]
    fb0c:	e002      	b.n	fb14 <_printf_i+0x164>
    fb0e:	0655      	lsls	r5, r2, #25
    fb10:	d5fb      	bpl.n	fb0a <_printf_i+0x15a>
    fb12:	8803      	ldrh	r3, [r0, #0]
    fb14:	07d0      	lsls	r0, r2, #31
    fb16:	bf44      	itt	mi
    fb18:	f042 0220 	orrmi.w	r2, r2, #32
    fb1c:	6022      	strmi	r2, [r4, #0]
    fb1e:	b91b      	cbnz	r3, fb28 <_printf_i+0x178>
    fb20:	6822      	ldr	r2, [r4, #0]
    fb22:	f022 0220 	bic.w	r2, r2, #32
    fb26:	6022      	str	r2, [r4, #0]
    fb28:	2210      	movs	r2, #16
    fb2a:	e7b1      	b.n	fa90 <_printf_i+0xe0>
    fb2c:	4675      	mov	r5, lr
    fb2e:	fbb3 f0f2 	udiv	r0, r3, r2
    fb32:	fb02 3310 	mls	r3, r2, r0, r3
    fb36:	5ccb      	ldrb	r3, [r1, r3]
    fb38:	f805 3d01 	strb.w	r3, [r5, #-1]!
    fb3c:	4603      	mov	r3, r0
    fb3e:	2800      	cmp	r0, #0
    fb40:	d1f5      	bne.n	fb2e <_printf_i+0x17e>
    fb42:	e7b7      	b.n	fab4 <_printf_i+0x104>
    fb44:	6808      	ldr	r0, [r1, #0]
    fb46:	681a      	ldr	r2, [r3, #0]
    fb48:	6949      	ldr	r1, [r1, #20]
    fb4a:	f010 0f80 	tst.w	r0, #128	; 0x80
    fb4e:	d004      	beq.n	fb5a <_printf_i+0x1aa>
    fb50:	1d10      	adds	r0, r2, #4
    fb52:	6018      	str	r0, [r3, #0]
    fb54:	6813      	ldr	r3, [r2, #0]
    fb56:	6019      	str	r1, [r3, #0]
    fb58:	e007      	b.n	fb6a <_printf_i+0x1ba>
    fb5a:	f010 0f40 	tst.w	r0, #64	; 0x40
    fb5e:	f102 0004 	add.w	r0, r2, #4
    fb62:	6018      	str	r0, [r3, #0]
    fb64:	6813      	ldr	r3, [r2, #0]
    fb66:	d0f6      	beq.n	fb56 <_printf_i+0x1a6>
    fb68:	8019      	strh	r1, [r3, #0]
    fb6a:	2300      	movs	r3, #0
    fb6c:	6123      	str	r3, [r4, #16]
    fb6e:	4675      	mov	r5, lr
    fb70:	e7b1      	b.n	fad6 <_printf_i+0x126>
    fb72:	681a      	ldr	r2, [r3, #0]
    fb74:	1d11      	adds	r1, r2, #4
    fb76:	6019      	str	r1, [r3, #0]
    fb78:	6815      	ldr	r5, [r2, #0]
    fb7a:	6862      	ldr	r2, [r4, #4]
    fb7c:	2100      	movs	r1, #0
    fb7e:	4628      	mov	r0, r5
    fb80:	f000 f8d6 	bl	fd30 <memchr>
    fb84:	b108      	cbz	r0, fb8a <_printf_i+0x1da>
    fb86:	1b40      	subs	r0, r0, r5
    fb88:	6060      	str	r0, [r4, #4]
    fb8a:	6863      	ldr	r3, [r4, #4]
    fb8c:	6123      	str	r3, [r4, #16]
    fb8e:	2300      	movs	r3, #0
    fb90:	f884 3043 	strb.w	r3, [r4, #67]	; 0x43
    fb94:	e79f      	b.n	fad6 <_printf_i+0x126>
    fb96:	6923      	ldr	r3, [r4, #16]
    fb98:	462a      	mov	r2, r5
    fb9a:	4639      	mov	r1, r7
    fb9c:	4630      	mov	r0, r6
    fb9e:	47c0      	blx	r8
    fba0:	3001      	adds	r0, #1
    fba2:	d0a2      	beq.n	faea <_printf_i+0x13a>
    fba4:	6823      	ldr	r3, [r4, #0]
    fba6:	079b      	lsls	r3, r3, #30
    fba8:	d507      	bpl.n	fbba <_printf_i+0x20a>
    fbaa:	2500      	movs	r5, #0
    fbac:	f104 0919 	add.w	r9, r4, #25
    fbb0:	68e3      	ldr	r3, [r4, #12]
    fbb2:	9a03      	ldr	r2, [sp, #12]
    fbb4:	1a9b      	subs	r3, r3, r2
    fbb6:	429d      	cmp	r5, r3
    fbb8:	db05      	blt.n	fbc6 <_printf_i+0x216>
    fbba:	68e0      	ldr	r0, [r4, #12]
    fbbc:	9b03      	ldr	r3, [sp, #12]
    fbbe:	4298      	cmp	r0, r3
    fbc0:	bfb8      	it	lt
    fbc2:	4618      	movlt	r0, r3
    fbc4:	e793      	b.n	faee <_printf_i+0x13e>
    fbc6:	2301      	movs	r3, #1
    fbc8:	464a      	mov	r2, r9
    fbca:	4639      	mov	r1, r7
    fbcc:	4630      	mov	r0, r6
    fbce:	47c0      	blx	r8
    fbd0:	3001      	adds	r0, #1
    fbd2:	d08a      	beq.n	faea <_printf_i+0x13a>
    fbd4:	3501      	adds	r5, #1
    fbd6:	e7eb      	b.n	fbb0 <_printf_i+0x200>
    fbd8:	2b00      	cmp	r3, #0
    fbda:	d1a7      	bne.n	fb2c <_printf_i+0x17c>
    fbdc:	780b      	ldrb	r3, [r1, #0]
    fbde:	f884 3042 	strb.w	r3, [r4, #66]	; 0x42
    fbe2:	f104 0542 	add.w	r5, r4, #66	; 0x42
    fbe6:	e765      	b.n	fab4 <_printf_i+0x104>
    fbe8:	000109e6 	.word	0x000109e6
    fbec:	000109d5 	.word	0x000109d5

0000fbf0 <__sread>:
    fbf0:	b510      	push	{r4, lr}
    fbf2:	460c      	mov	r4, r1
    fbf4:	f9b1 100e 	ldrsh.w	r1, [r1, #14]
    fbf8:	f000 f92a 	bl	fe50 <_read_r>
    fbfc:	2800      	cmp	r0, #0
    fbfe:	bfab      	itete	ge
    fc00:	6d63      	ldrge	r3, [r4, #84]	; 0x54
    fc02:	89a3      	ldrhlt	r3, [r4, #12]
    fc04:	181b      	addge	r3, r3, r0
    fc06:	f423 5380 	biclt.w	r3, r3, #4096	; 0x1000
    fc0a:	bfac      	ite	ge
    fc0c:	6563      	strge	r3, [r4, #84]	; 0x54
    fc0e:	81a3      	strhlt	r3, [r4, #12]
    fc10:	bd10      	pop	{r4, pc}

0000fc12 <__swrite>:
    fc12:	e92d 41f0 	stmdb	sp!, {r4, r5, r6, r7, r8, lr}
    fc16:	461f      	mov	r7, r3
    fc18:	898b      	ldrh	r3, [r1, #12]
    fc1a:	05db      	lsls	r3, r3, #23
    fc1c:	4605      	mov	r5, r0
    fc1e:	460c      	mov	r4, r1
    fc20:	4616      	mov	r6, r2
    fc22:	d505      	bpl.n	fc30 <__swrite+0x1e>
    fc24:	2302      	movs	r3, #2
    fc26:	2200      	movs	r2, #0
    fc28:	f9b1 100e 	ldrsh.w	r1, [r1, #14]
    fc2c:	f000 f868 	bl	fd00 <_lseek_r>
    fc30:	89a3      	ldrh	r3, [r4, #12]
    fc32:	f9b4 100e 	ldrsh.w	r1, [r4, #14]
    fc36:	f423 5380 	bic.w	r3, r3, #4096	; 0x1000
    fc3a:	81a3      	strh	r3, [r4, #12]
    fc3c:	4632      	mov	r2, r6
    fc3e:	463b      	mov	r3, r7
    fc40:	4628      	mov	r0, r5
    fc42:	e8bd 41f0 	ldmia.w	sp!, {r4, r5, r6, r7, r8, lr}
    fc46:	f000 b817 	b.w	fc78 <_write_r>

0000fc4a <__sseek>:
    fc4a:	b510      	push	{r4, lr}
    fc4c:	460c      	mov	r4, r1
    fc4e:	f9b1 100e 	ldrsh.w	r1, [r1, #14]
    fc52:	f000 f855 	bl	fd00 <_lseek_r>
    fc56:	1c43      	adds	r3, r0, #1
    fc58:	89a3      	ldrh	r3, [r4, #12]
    fc5a:	bf15      	itete	ne
    fc5c:	6560      	strne	r0, [r4, #84]	; 0x54
    fc5e:	f423 5380 	biceq.w	r3, r3, #4096	; 0x1000
    fc62:	f443 5380 	orrne.w	r3, r3, #4096	; 0x1000
    fc66:	81a3      	strheq	r3, [r4, #12]
    fc68:	bf18      	it	ne
    fc6a:	81a3      	strhne	r3, [r4, #12]
    fc6c:	bd10      	pop	{r4, pc}

0000fc6e <__sclose>:
    fc6e:	f9b1 100e 	ldrsh.w	r1, [r1, #14]
    fc72:	f000 b813 	b.w	fc9c <_close_r>
	...

0000fc78 <_write_r>:
    fc78:	b538      	push	{r3, r4, r5, lr}
    fc7a:	4c07      	ldr	r4, [pc, #28]	; (fc98 <_write_r+0x20>)
    fc7c:	4605      	mov	r5, r0
    fc7e:	4608      	mov	r0, r1
    fc80:	4611      	mov	r1, r2
    fc82:	2200      	movs	r2, #0
    fc84:	6022      	str	r2, [r4, #0]
    fc86:	461a      	mov	r2, r3
    fc88:	f7fd f9aa 	bl	cfe0 <_write>
    fc8c:	1c43      	adds	r3, r0, #1
    fc8e:	d102      	bne.n	fc96 <_write_r+0x1e>
    fc90:	6823      	ldr	r3, [r4, #0]
    fc92:	b103      	cbz	r3, fc96 <_write_r+0x1e>
    fc94:	602b      	str	r3, [r5, #0]
    fc96:	bd38      	pop	{r3, r4, r5, pc}
    fc98:	2000820c 	.word	0x2000820c

0000fc9c <_close_r>:
    fc9c:	b538      	push	{r3, r4, r5, lr}
    fc9e:	4c06      	ldr	r4, [pc, #24]	; (fcb8 <_close_r+0x1c>)
    fca0:	2300      	movs	r3, #0
    fca2:	4605      	mov	r5, r0
    fca4:	4608      	mov	r0, r1
    fca6:	6023      	str	r3, [r4, #0]
    fca8:	f7f9 ff56 	bl	9b58 <_close>
    fcac:	1c43      	adds	r3, r0, #1
    fcae:	d102      	bne.n	fcb6 <_close_r+0x1a>
    fcb0:	6823      	ldr	r3, [r4, #0]
    fcb2:	b103      	cbz	r3, fcb6 <_close_r+0x1a>
    fcb4:	602b      	str	r3, [r5, #0]
    fcb6:	bd38      	pop	{r3, r4, r5, pc}
    fcb8:	2000820c 	.word	0x2000820c

0000fcbc <_fstat_r>:
    fcbc:	b538      	push	{r3, r4, r5, lr}
    fcbe:	4c07      	ldr	r4, [pc, #28]	; (fcdc <_fstat_r+0x20>)
    fcc0:	2300      	movs	r3, #0
    fcc2:	4605      	mov	r5, r0
    fcc4:	4608      	mov	r0, r1
    fcc6:	4611      	mov	r1, r2
    fcc8:	6023      	str	r3, [r4, #0]
    fcca:	f7f9 ff48 	bl	9b5e <_fstat>
    fcce:	1c43      	adds	r3, r0, #1
    fcd0:	d102      	bne.n	fcd8 <_fstat_r+0x1c>
    fcd2:	6823      	ldr	r3, [r4, #0]
    fcd4:	b103      	cbz	r3, fcd8 <_fstat_r+0x1c>
    fcd6:	602b      	str	r3, [r5, #0]
    fcd8:	bd38      	pop	{r3, r4, r5, pc}
    fcda:	bf00      	nop
    fcdc:	2000820c 	.word	0x2000820c

0000fce0 <_isatty_r>:
    fce0:	b538      	push	{r3, r4, r5, lr}
    fce2:	4c06      	ldr	r4, [pc, #24]	; (fcfc <_isatty_r+0x1c>)
    fce4:	2300      	movs	r3, #0
    fce6:	4605      	mov	r5, r0
    fce8:	4608      	mov	r0, r1
    fcea:	6023      	str	r3, [r4, #0]
    fcec:	f7f9 ff3c 	bl	9b68 <_isatty>
    fcf0:	1c43      	adds	r3, r0, #1
    fcf2:	d102      	bne.n	fcfa <_isatty_r+0x1a>
    fcf4:	6823      	ldr	r3, [r4, #0]
    fcf6:	b103      	cbz	r3, fcfa <_isatty_r+0x1a>
    fcf8:	602b      	str	r3, [r5, #0]
    fcfa:	bd38      	pop	{r3, r4, r5, pc}
    fcfc:	2000820c 	.word	0x2000820c

0000fd00 <_lseek_r>:
    fd00:	b538      	push	{r3, r4, r5, lr}
    fd02:	4c07      	ldr	r4, [pc, #28]	; (fd20 <_lseek_r+0x20>)
    fd04:	4605      	mov	r5, r0
    fd06:	4608      	mov	r0, r1
    fd08:	4611      	mov	r1, r2
    fd0a:	2200      	movs	r2, #0
    fd0c:	6022      	str	r2, [r4, #0]
    fd0e:	461a      	mov	r2, r3
    fd10:	f7f9 ff2c 	bl	9b6c <_lseek>
    fd14:	1c43      	adds	r3, r0, #1
    fd16:	d102      	bne.n	fd1e <_lseek_r+0x1e>
    fd18:	6823      	ldr	r3, [r4, #0]
    fd1a:	b103      	cbz	r3, fd1e <_lseek_r+0x1e>
    fd1c:	602b      	str	r3, [r5, #0]
    fd1e:	bd38      	pop	{r3, r4, r5, pc}
    fd20:	2000820c 	.word	0x2000820c
	...

0000fd30 <memchr>:
    fd30:	f001 01ff 	and.w	r1, r1, #255	; 0xff
    fd34:	2a10      	cmp	r2, #16
    fd36:	db2b      	blt.n	fd90 <memchr+0x60>
    fd38:	f010 0f07 	tst.w	r0, #7
    fd3c:	d008      	beq.n	fd50 <memchr+0x20>
    fd3e:	f810 3b01 	ldrb.w	r3, [r0], #1
    fd42:	3a01      	subs	r2, #1
    fd44:	428b      	cmp	r3, r1
    fd46:	d02d      	beq.n	fda4 <memchr+0x74>
    fd48:	f010 0f07 	tst.w	r0, #7
    fd4c:	b342      	cbz	r2, fda0 <memchr+0x70>
    fd4e:	d1f6      	bne.n	fd3e <memchr+0xe>
    fd50:	b4f0      	push	{r4, r5, r6, r7}
    fd52:	ea41 2101 	orr.w	r1, r1, r1, lsl #8
    fd56:	ea41 4101 	orr.w	r1, r1, r1, lsl #16
    fd5a:	f022 0407 	bic.w	r4, r2, #7
    fd5e:	f07f 0700 	mvns.w	r7, #0
    fd62:	2300      	movs	r3, #0
    fd64:	e8f0 5602 	ldrd	r5, r6, [r0], #8
    fd68:	3c08      	subs	r4, #8
    fd6a:	ea85 0501 	eor.w	r5, r5, r1
    fd6e:	ea86 0601 	eor.w	r6, r6, r1
    fd72:	fa85 f547 	uadd8	r5, r5, r7
    fd76:	faa3 f587 	sel	r5, r3, r7
    fd7a:	fa86 f647 	uadd8	r6, r6, r7
    fd7e:	faa5 f687 	sel	r6, r5, r7
    fd82:	b98e      	cbnz	r6, fda8 <memchr+0x78>
    fd84:	d1ee      	bne.n	fd64 <memchr+0x34>
    fd86:	bcf0      	pop	{r4, r5, r6, r7}
    fd88:	f001 01ff 	and.w	r1, r1, #255	; 0xff
    fd8c:	f002 0207 	and.w	r2, r2, #7
    fd90:	b132      	cbz	r2, fda0 <memchr+0x70>
    fd92:	f810 3b01 	ldrb.w	r3, [r0], #1
    fd96:	3a01      	subs	r2, #1
    fd98:	ea83 0301 	eor.w	r3, r3, r1
    fd9c:	b113      	cbz	r3, fda4 <memchr+0x74>
    fd9e:	d1f8      	bne.n	fd92 <memchr+0x62>
    fda0:	2000      	movs	r0, #0
    fda2:	4770      	bx	lr
    fda4:	3801      	subs	r0, #1
    fda6:	4770      	bx	lr
    fda8:	2d00      	cmp	r5, #0
    fdaa:	bf06      	itte	eq
    fdac:	4635      	moveq	r5, r6
    fdae:	3803      	subeq	r0, #3
    fdb0:	3807      	subne	r0, #7
    fdb2:	f015 0f01 	tst.w	r5, #1
    fdb6:	d107      	bne.n	fdc8 <memchr+0x98>
    fdb8:	3001      	adds	r0, #1
    fdba:	f415 7f80 	tst.w	r5, #256	; 0x100
    fdbe:	bf02      	ittt	eq
    fdc0:	3001      	addeq	r0, #1
    fdc2:	f415 3fc0 	tsteq.w	r5, #98304	; 0x18000
    fdc6:	3001      	addeq	r0, #1
    fdc8:	bcf0      	pop	{r4, r5, r6, r7}
    fdca:	3801      	subs	r0, #1
    fdcc:	4770      	bx	lr
    fdce:	bf00      	nop

0000fdd0 <memmove>:
    fdd0:	4288      	cmp	r0, r1
    fdd2:	b510      	push	{r4, lr}
    fdd4:	eb01 0302 	add.w	r3, r1, r2
    fdd8:	d803      	bhi.n	fde2 <memmove+0x12>
    fdda:	1e42      	subs	r2, r0, #1
    fddc:	4299      	cmp	r1, r3
    fdde:	d10c      	bne.n	fdfa <memmove+0x2a>
    fde0:	bd10      	pop	{r4, pc}
    fde2:	4298      	cmp	r0, r3
    fde4:	d2f9      	bcs.n	fdda <memmove+0xa>
    fde6:	1881      	adds	r1, r0, r2
    fde8:	1ad2      	subs	r2, r2, r3
    fdea:	42d3      	cmn	r3, r2
    fdec:	d100      	bne.n	fdf0 <memmove+0x20>
    fdee:	bd10      	pop	{r4, pc}
    fdf0:	f813 4d01 	ldrb.w	r4, [r3, #-1]!
    fdf4:	f801 4d01 	strb.w	r4, [r1, #-1]!
    fdf8:	e7f7      	b.n	fdea <memmove+0x1a>
    fdfa:	f811 4b01 	ldrb.w	r4, [r1], #1
    fdfe:	f802 4f01 	strb.w	r4, [r2, #1]!
    fe02:	e7eb      	b.n	fddc <memmove+0xc>

0000fe04 <_realloc_r>:
    fe04:	b5f8      	push	{r3, r4, r5, r6, r7, lr}
    fe06:	4607      	mov	r7, r0
    fe08:	4614      	mov	r4, r2
    fe0a:	460e      	mov	r6, r1
    fe0c:	b921      	cbnz	r1, fe18 <_realloc_r+0x14>
    fe0e:	4611      	mov	r1, r2
    fe10:	e8bd 40f8 	ldmia.w	sp!, {r3, r4, r5, r6, r7, lr}
    fe14:	f7fe be52 	b.w	eabc <_malloc_r>
    fe18:	b922      	cbnz	r2, fe24 <_realloc_r+0x20>
    fe1a:	f7fe fe01 	bl	ea20 <_free_r>
    fe1e:	4625      	mov	r5, r4
    fe20:	4628      	mov	r0, r5
    fe22:	bdf8      	pop	{r3, r4, r5, r6, r7, pc}
    fe24:	f000 f826 	bl	fe74 <_malloc_usable_size_r>
    fe28:	4284      	cmp	r4, r0
    fe2a:	d90f      	bls.n	fe4c <_realloc_r+0x48>
    fe2c:	4621      	mov	r1, r4
    fe2e:	4638      	mov	r0, r7
    fe30:	f7fe fe44 	bl	eabc <_malloc_r>
    fe34:	4605      	mov	r5, r0
    fe36:	2800      	cmp	r0, #0
    fe38:	d0f2      	beq.n	fe20 <_realloc_r+0x1c>
    fe3a:	4631      	mov	r1, r6
    fe3c:	4622      	mov	r2, r4
    fe3e:	f7fe fddb 	bl	e9f8 <memcpy>
    fe42:	4631      	mov	r1, r6
    fe44:	4638      	mov	r0, r7
    fe46:	f7fe fdeb 	bl	ea20 <_free_r>
    fe4a:	e7e9      	b.n	fe20 <_realloc_r+0x1c>
    fe4c:	4635      	mov	r5, r6
    fe4e:	e7e7      	b.n	fe20 <_realloc_r+0x1c>

0000fe50 <_read_r>:
    fe50:	b538      	push	{r3, r4, r5, lr}
    fe52:	4c07      	ldr	r4, [pc, #28]	; (fe70 <_read_r+0x20>)
    fe54:	4605      	mov	r5, r0
    fe56:	4608      	mov	r0, r1
    fe58:	4611      	mov	r1, r2
    fe5a:	2200      	movs	r2, #0
    fe5c:	6022      	str	r2, [r4, #0]
    fe5e:	461a      	mov	r2, r3
    fe60:	f7fd f8ae 	bl	cfc0 <_read>
    fe64:	1c43      	adds	r3, r0, #1
    fe66:	d102      	bne.n	fe6e <_read_r+0x1e>
    fe68:	6823      	ldr	r3, [r4, #0]
    fe6a:	b103      	cbz	r3, fe6e <_read_r+0x1e>
    fe6c:	602b      	str	r3, [r5, #0]
    fe6e:	bd38      	pop	{r3, r4, r5, pc}
    fe70:	2000820c 	.word	0x2000820c

0000fe74 <_malloc_usable_size_r>:
    fe74:	f851 0c04 	ldr.w	r0, [r1, #-4]
    fe78:	2800      	cmp	r0, #0
    fe7a:	f1a0 0004 	sub.w	r0, r0, #4
    fe7e:	bfbc      	itt	lt
    fe80:	580b      	ldrlt	r3, [r1, r0]
    fe82:	18c0      	addlt	r0, r0, r3
    fe84:	4770      	bx	lr
    fe86:	6552      	.short	0x6552
    fe88:	6e696461 	.word	0x6e696461
    fe8c:	73552067 	.word	0x73552067
    fe90:	52207265 	.word	0x52207265
    fe94:	7b00776f 	.word	0x7b00776f
    fe98:	70797422 	.word	0x70797422
    fe9c:	223a2265 	.word	0x223a2265
    fea0:	22474f4c 	.word	0x22474f4c
    fea4:	6422202c 	.word	0x6422202c
    fea8:	22617461 	.word	0x22617461
    feac:	225b203a 	.word	0x225b203a
    feb0:	5d227325 	.word	0x5d227325
    feb4:	000a0d7d 	.word	0x000a0d7d
    feb8:	69726556 	.word	0x69726556
    febc:	6e697966 	.word	0x6e697966
    fec0:	73552067 	.word	0x73552067
    fec4:	52207265 	.word	0x52207265
    fec8:	5500776f 	.word	0x5500776f
    fecc:	74616470 	.word	0x74616470
    fed0:	20676e69 	.word	0x20676e69
    fed4:	72657355 	.word	0x72657355
    fed8:	776f5220 	.word	0x776f5220
    fedc:	73795300 	.word	0x73795300
    fee0:	206d6574 	.word	0x206d6574
    fee4:	65736552 	.word	0x65736552
    fee8:	6e550074 	.word	0x6e550074
    feec:	6e616863 	.word	0x6e616863
    fef0:	20646567 	.word	0x20646567
    fef4:	72657355 	.word	0x72657355
    fef8:	776f5220 	.word	0x776f5220
    fefc:	74227b00 	.word	0x74227b00
    ff00:	22657079 	.word	0x22657079
    ff04:	5748223a 	.word	0x5748223a
    ff08:	22474643 	.word	0x22474643
    ff0c:	6422202c 	.word	0x6422202c
    ff10:	22617461 	.word	0x22617461
    ff14:	2522203a 	.word	0x2522203a
    ff18:	0d7d2264 	.word	0x0d7d2264
    ff1c:	5355000a 	.word	0x5355000a
    ff20:	52205245 	.word	0x52205245
    ff24:	4320574f 	.word	0x4320574f
    ff28:	4b434548 	.word	0x4b434548
    ff2c:	227b0021 	.word	0x227b0021
    ff30:	65707974 	.word	0x65707974
    ff34:	57223a22 	.word	0x57223a22
    ff38:	494e5241 	.word	0x494e5241
    ff3c:	2c22474e 	.word	0x2c22474e
    ff40:	61642220 	.word	0x61642220
    ff44:	3a226174 	.word	0x3a226174
    ff48:	25225b20 	.word	0x25225b20
    ff4c:	7d5d2273 	.word	0x7d5d2273
    ff50:	4e000a0d 	.word	0x4e000a0d
    ff54:	6e55206f 	.word	0x6e55206f
    ff58:	54207469 	.word	0x54207469
    ff5c:	00747365 	.word	0x00747365
    ff60:	48206f4e 	.word	0x48206f4e
    ff64:	77647261 	.word	0x77647261
    ff68:	20657261 	.word	0x20657261
    ff6c:	74736554 	.word	0x74736554
    ff70:	00          	.byte	0x00
    ff71:	54          	.byte	0x54
    ff72:	6d69      	.short	0x6d69
    ff74:	74756f65 	.word	0x74756f65
    ff78:	73694420 	.word	0x73694420
    ff7c:	6e6e6f63 	.word	0x6e6e6f63
    ff80:	20746365 	.word	0x20746365
    ff84:	65522026 	.word	0x65522026
    ff88:	20746573 	.word	0x20746573
    ff8c:	65636552 	.word	0x65636552
    ff90:	72657669 	.word	0x72657669
    ff94:	6d695400 	.word	0x6d695400
    ff98:	74756f65 	.word	0x74756f65
    ff9c:	52202620 	.word	0x52202620
    ffa0:	74657365 	.word	0x74657365
    ffa4:	63655220 	.word	0x63655220
    ffa8:	65766965 	.word	0x65766965
    ffac:	78720072 	.word	0x78720072
    ffb0:	756f645f 	.word	0x756f645f
    ffb4:	5f656c62 	.word	0x5f656c62
    ffb8:	66667562 	.word	0x66667562
    ffbc:	6f207265 	.word	0x6f207265
    ffc0:	72726576 	.word	0x72726576
    ffc4:	31206e75 	.word	0x31206e75
    ffc8:	5f787200 	.word	0x5f787200
    ffcc:	62756f64 	.word	0x62756f64
    ffd0:	625f656c 	.word	0x625f656c
    ffd4:	65666675 	.word	0x65666675
    ffd8:	766f2072 	.word	0x766f2072
    ffdc:	75727265 	.word	0x75727265
    ffe0:	0032206e 	.word	0x0032206e
    ffe4:	645f7872 	.word	0x645f7872
    ffe8:	6c62756f 	.word	0x6c62756f
    ffec:	75625f65 	.word	0x75625f65
    fff0:	72656666 	.word	0x72656666
    fff4:	65766f20 	.word	0x65766f20
    fff8:	6e757272 	.word	0x6e757272
    fffc:	46003320 	.word	0x46003320
   10000:	656d6172 	.word	0x656d6172
   10004:	61745320 	.word	0x61745320
   10008:	4f207472 	.word	0x4f207472
   1000c:	65736666 	.word	0x65736666
   10010:	6f430074 	.word	0x6f430074
   10014:	63656e6e 	.word	0x63656e6e
   10018:	227b0074 	.word	0x227b0074
   1001c:	65707974 	.word	0x65707974
   10020:	22203a22 	.word	0x22203a22
   10024:	4e524157 	.word	0x4e524157
   10028:	22474e49 	.word	0x22474e49
   1002c:	6422202c 	.word	0x6422202c
   10030:	22617461 	.word	0x22617461
   10034:	225b203a 	.word	0x225b203a
   10038:	6e6b6e55 	.word	0x6e6b6e55
   1003c:	4d20776f 	.word	0x4d20776f
   10040:	61737365 	.word	0x61737365
   10044:	54206567 	.word	0x54206567
   10048:	22657079 	.word	0x22657079
   1004c:	000d7d5d 	.word	0x000d7d5d
   10050:	7974227b 	.word	0x7974227b
   10054:	3a226570 	.word	0x3a226570
   10058:	41572220 	.word	0x41572220
   1005c:	4e494e52 	.word	0x4e494e52
   10060:	202c2247 	.word	0x202c2247
   10064:	74616422 	.word	0x74616422
   10068:	203a2261 	.word	0x203a2261
   1006c:	6e49225b 	.word	0x6e49225b
   10070:	696c6176 	.word	0x696c6176
   10074:	68432064 	.word	0x68432064
   10078:	736b6365 	.word	0x736b6365
   1007c:	5d226d75 	.word	0x5d226d75
   10080:	7b000d7d 	.word	0x7b000d7d
   10084:	70797422 	.word	0x70797422
   10088:	203a2265 	.word	0x203a2265
   1008c:	52524522 	.word	0x52524522
   10090:	2c22524f 	.word	0x2c22524f
   10094:	61642220 	.word	0x61642220
   10098:	3a226174 	.word	0x3a226174
   1009c:	46225b20 	.word	0x46225b20
   100a0:	656d6172 	.word	0x656d6172
   100a4:	72724520 	.word	0x72724520
   100a8:	5d22726f 	.word	0x5d22726f
   100ac:	7b000d7d 	.word	0x7b000d7d
   100b0:	70797422 	.word	0x70797422
   100b4:	203a2265 	.word	0x203a2265
   100b8:	52524522 	.word	0x52524522
   100bc:	2c22524f 	.word	0x2c22524f
   100c0:	61642220 	.word	0x61642220
   100c4:	3a226174 	.word	0x3a226174
   100c8:	50225b20 	.word	0x50225b20
   100cc:	74697261 	.word	0x74697261
   100d0:	72452079 	.word	0x72452079
   100d4:	22726f72 	.word	0x22726f72
   100d8:	000d7d5d 	.word	0x000d7d5d
   100dc:	63256325 	.word	0x63256325
   100e0:	63256325 	.word	0x63256325
   100e4:	78323025 	.word	0x78323025
   100e8:	78323025 	.word	0x78323025
   100ec:	78323025 	.word	0x78323025
   100f0:	30306325 	.word	0x30306325
   100f4:	000a      	.short	0x000a
   100f6:	3002      	.short	0x3002
   100f8:	42663035 	.word	0x42663035
   100fc:	30303030 	.word	0x30303030
   10100:	30313030 	.word	0x30313030
   10104:	25000330 	.word	0x25000330
   10108:	33302563 	.word	0x33302563
   1010c:	2e2e5f78 	.word	0x2e2e5f78
   10110:	2e2e2e2e 	.word	0x2e2e2e2e
   10114:	63252e2e 	.word	0x63252e2e
   10118:	35300200 	.word	0x35300200
   1011c:	30426630 	.word	0x30426630
   10120:	30303030 	.word	0x30303030
   10124:	34423830 	.word	0x34423830
   10128:	33300203 	.word	0x33300203
   1012c:	35426630 	.word	0x35426630
   10130:	30020003 	.word	0x30020003
   10134:	42663035 	.word	0x42663035
   10138:	30303030 	.word	0x30303030
   1013c:	42393030 	.word	0x42393030
   10140:	02000334 	.word	0x02000334
   10144:	66303530 	.word	0x66303530
   10148:	30303042 	.word	0x30303042
   1014c:	61303030 	.word	0x61303030
   10150:	02033442 	.word	0x02033442
   10154:	66303330 	.word	0x66303330
   10158:	00033042 	.word	0x00033042
   1015c:	30353002 	.word	0x30353002
   10160:	30304266 	.word	0x30304266
   10164:	30303030 	.word	0x30303030
   10168:	03344262 	.word	0x03344262
   1016c:	30333002 	.word	0x30333002
   10170:	03304265 	.word	0x03304265
   10174:	20495500 	.word	0x20495500
   10178:	65776f50 	.word	0x65776f50
   1017c:	6e452072 	.word	0x6e452072
   10180:	656c6261 	.word	0x656c6261
   10184:	696e4900 	.word	0x696e4900
   10188:	6f4d2074 	.word	0x6f4d2074
   1018c:	656c7564 	.word	0x656c7564
   10190:	4f50203a 	.word	0x4f50203a
   10194:	49003631 	.word	0x49003631
   10198:	2074696e 	.word	0x2074696e
   1019c:	75646f4d 	.word	0x75646f4d
   101a0:	203a656c 	.word	0x203a656c
   101a4:	36315542 	.word	0x36315542
   101a8:	696e4900 	.word	0x696e4900
   101ac:	6f4d2074 	.word	0x6f4d2074
   101b0:	656c7564 	.word	0x656c7564
   101b4:	4250203a 	.word	0x4250203a
   101b8:	49003446 	.word	0x49003446
   101bc:	2074696e 	.word	0x2074696e
   101c0:	75646f4d 	.word	0x75646f4d
   101c4:	203a656c 	.word	0x203a656c
   101c8:	36314e45 	.word	0x36314e45
   101cc:	696e4900 	.word	0x696e4900
   101d0:	6f4d2074 	.word	0x6f4d2074
   101d4:	656c7564 	.word	0x656c7564
   101d8:	6e55203a 	.word	0x6e55203a
   101dc:	776f6e6b 	.word	0x776f6e6b
   101e0:	6f4d206e 	.word	0x6f4d206e
   101e4:	656c7564 	.word	0x656c7564
   101e8:	43574800 	.word	0x43574800
   101ec:	4d204746 	.word	0x4d204746
   101f0:	616d7369 	.word	0x616d7369
   101f4:	00686374 	.word	0x00686374
   101f8:	0f0e0d0c 	.word	0x0f0e0d0c
   101fc:	0b0a0908 	.word	0x0b0a0908
   10200:	07060504 	.word	0x07060504
   10204:	03020100 	.word	0x03020100
   10208:	30353002 	.word	0x30353002
   1020c:	30304266 	.word	0x30304266
   10210:	30304132 	.word	0x30304132
   10214:	03364135 	.word	0x03364135
   10218:	30303002 	.word	0x30303002
   1021c:	39303066 	.word	0x39303066
   10220:	41304130 	.word	0x41304130
   10224:	30020336 	.word	0x30020336
   10228:	41663034 	.word	0x41663034
   1022c:	41313030 	.word	0x41313030
   10230:	02000337 	.word	0x02000337
   10234:	66303530 	.word	0x66303530
   10238:	32303042 	.word	0x32303042
   1023c:	36303041 	.word	0x36303041
   10240:	02033641 	.word	0x02033641
   10244:	66303030 	.word	0x66303030
   10248:	30383030 	.word	0x30383030
   1024c:	36413041 	.word	0x36413041
   10250:	34300203 	.word	0x34300203
   10254:	30416630 	.word	0x30416630
   10258:	37413130 	.word	0x37413130
   1025c:	30020003 	.word	0x30020003
   10260:	41663134 	.word	0x41663134
   10264:	42313030 	.word	0x42313030
   10268:	42324231 	.word	0x42324231
   1026c:	30020333 	.word	0x30020333
   10270:	41663134 	.word	0x41663134
   10274:	42323030 	.word	0x42323030
   10278:	42324231 	.word	0x42324231
   1027c:	0333      	.short	0x0333
   1027e:	00          	.byte	0x00
   1027f:	0c          	.byte	0x0c
   10280:	080f0e0d 	.word	0x080f0e0d
   10284:	040b0a09 	.word	0x040b0a09
   10288:	00070605 	.word	0x00070605
   1028c:	0201      	.short	0x0201
   1028e:	03          	.byte	0x03
   1028f:	02          	.byte	0x02
   10290:	66303530 	.word	0x66303530
   10294:	33303042 	.word	0x33303042
   10298:	32303041 	.word	0x32303041
   1029c:	02033241 	.word	0x02033241
   102a0:	66303030 	.word	0x66303030
   102a4:	30623030 	.word	0x30623030
   102a8:	32413041 	.word	0x32413041
   102ac:	34300203 	.word	0x34300203
   102b0:	30416630 	.word	0x30416630
   102b4:	33413130 	.word	0x33413130
   102b8:	30020003 	.word	0x30020003
   102bc:	42663035 	.word	0x42663035
   102c0:	41333030 	.word	0x41333030
   102c4:	41353030 	.word	0x41353030
   102c8:	30020336 	.word	0x30020336
   102cc:	30663030 	.word	0x30663030
   102d0:	41303930 	.word	0x41303930
   102d4:	03364130 	.word	0x03364130
   102d8:	30343002 	.word	0x30343002
   102dc:	30304166 	.word	0x30304166
   102e0:	03374132 	.word	0x03374132
   102e4:	35300200 	.word	0x35300200
   102e8:	30426630 	.word	0x30426630
   102ec:	30413330 	.word	0x30413330
   102f0:	36413630 	.word	0x36413630
   102f4:	30300203 	.word	0x30300203
   102f8:	30306630 	.word	0x30306630
   102fc:	30413038 	.word	0x30413038
   10300:	02033641 	.word	0x02033641
   10304:	66303430 	.word	0x66303430
   10308:	32303041 	.word	0x32303041
   1030c:	00033741 	.word	0x00033741
   10310:	0f0e0d0c 	.word	0x0f0e0d0c
   10314:	0b0a0908 	.word	0x0b0a0908
   10318:	07060504 	.word	0x07060504
   1031c:	03020100 	.word	0x03020100
   10320:	30353002 	.word	0x30353002
   10324:	30304266 	.word	0x30304266
   10328:	30304131 	.word	0x30304131
   1032c:	03324132 	.word	0x03324132
   10330:	30303002 	.word	0x30303002
   10334:	62303066 	.word	0x62303066
   10338:	41304130 	.word	0x41304130
   1033c:	30020332 	.word	0x30020332
   10340:	41663034 	.word	0x41663034
   10344:	41313030 	.word	0x41313030
   10348:	0333      	.short	0x0333
   1034a:	00          	.byte	0x00
   1034b:	0c          	.byte	0x0c
   1034c:	080f0e0d 	.word	0x080f0e0d
   10350:	040b0a09 	.word	0x040b0a09
   10354:	00070605 	.word	0x00070605
   10358:	0201      	.short	0x0201
   1035a:	03          	.byte	0x03
   1035b:	25          	.byte	0x25
   1035c:	00783830 	.word	0x00783830
   10360:	64697267 	.word	0x64697267
   10364:	7379735f 	.word	0x7379735f
   10368:	68633a3a 	.word	0x68633a3a
   1036c:	736b6365 	.word	0x736b6365
   10370:	43006d75 	.word	0x43006d75
   10374:	6b636568 	.word	0x6b636568
   10378:	206d7573 	.word	0x206d7573
   1037c:	64616552 	.word	0x64616552
   10380:	6c61432f 	.word	0x6c61432f
   10384:	616c7563 	.word	0x616c7563
   10388:	70006574 	.word	0x70006574
   1038c:	656b6361 	.word	0x656b6361
   10390:	64257b74 	.word	0x64257b74
   10394:	6425202c 	.word	0x6425202c
   10398:	6425202c 	.word	0x6425202c
   1039c:	6425202c 	.word	0x6425202c
   103a0:	6425202c 	.word	0x6425202c
   103a4:	6425202c 	.word	0x6425202c
   103a8:	6425202c 	.word	0x6425202c
   103ac:	6425202c 	.word	0x6425202c
   103b0:	6552207d 	.word	0x6552207d
   103b4:	203a6461 	.word	0x203a6461
   103b8:	202c6425 	.word	0x202c6425
   103bc:	636c6143 	.word	0x636c6143
   103c0:	74616c75 	.word	0x74616c75
   103c4:	25203a65 	.word	0x25203a65
   103c8:	68430064 	.word	0x68430064
   103cc:	736b6365 	.word	0x736b6365
   103d0:	57206d75 	.word	0x57206d75
   103d4:	65746972 	.word	0x65746972
   103d8:	6c61432f 	.word	0x6c61432f
   103dc:	616c7563 	.word	0x616c7563
   103e0:	43006574 	.word	0x43006574
   103e4:	6b636568 	.word	0x6b636568
   103e8:	206d7573 	.word	0x206d7573
   103ec:	7265764f 	.word	0x7265764f
   103f0:	74697277 	.word	0x74697277
   103f4:	61500065 	.word	0x61500065
   103f8:	61706172 	.word	0x61706172
   103fc:	6b697270 	.word	0x6b697270
   10400:	25007361 	.word	0x25007361
   10404:	2e632563 	.word	0x2e632563
   10408:	2e2e2e2e 	.word	0x2e2e2e2e
   1040c:	2e2e2e2e 	.word	0x2e2e2e2e
   10410:	252e2e2e 	.word	0x252e2e2e
   10414:	63250063 	.word	0x63250063
   10418:	78333025 	.word	0x78333025
   1041c:	2e2e2e5f 	.word	0x2e2e2e5f
   10420:	0063252e 	.word	0x0063252e
   10424:	2e2e6325 	.word	0x2e2e6325
   10428:	0000000a 	.word	0x0000000a
   1042c:	20001298 	.word	0x20001298
   10430:	20006d38 	.word	0x20006d38
   10434:	20004bfc 	.word	0x20004bfc
   10438:	20003bdc 	.word	0x20003bdc

0001043c <_adcs>:
   1043c:	01000000 0003000c 00041807 00000000     ................
   1044c:	0014080b 00010000 000c0100 18040003     ................
   1045c:	00000004 080b0000 00000014              ............

00010468 <_cfgs>:
   10468:	00200600 08068000 00200400 08068000     .. ....... .....
   10478:	00201000 08068000 00200c00 08068000     .. ....... .....
	...
   10498:	00200b00 14000003 00200a00 08000002     .. ....... .....
   104a8:	00201300 14000003 00000000 00000000     .. .............
	...
   10558:	00005400 1c000000 00005300 0c000000     .T.......S......

00010568 <user_mux_confs>:
	...
   10594:	04030201 04030201 00000000 00000000     ................
	...

000105ac <channel_confs>:
   105ac:	05230522 05250524 00000000 00000000     ".#.$.%.........
	...

000105ec <interrupt_cfg>:
   105ec:	00000002 00000002 00000002 00000002     ................
	...
   1066c:	40003000 40003400 41012000 41014000     .0.@.4.@. .A.@.A
   1067c:	43000000 43000400 43000800 43000c00     ...C...C...C...C

0001068c <sercomspi_regs>:
   1068c:	3020000c 00020000 00000000 01ff0005     .. 0............
   1069c:	20000c03 00000000 00000000 ff000600     ... ............
   106ac:	00000701                                ....

000106b0 <_i2cms>:
   106b0:	00000005 00200014 00000100 0000e6e5     ...... .........
   106c0:	00d70000 02dc6c00                       .....l..

000106c8 <_usarts>:
   106c8:	00000000 40100004 00030000 00700002     .......@......p.
   106d8:	0000aaaa 00000000 00000001 40100004     ...............@
   106e8:	00030000 00700002 0000aaaa 00000000     ......p.........
   106f8:	00000002 40100004 00030000 00700002     .......@......p.
   10708:	00005555 00000000 00000004 40100004     UU.............@
   10718:	00030000 00700002 0000aaaa 00000000     ......p.........
   10728:	00000006 40100004 00030000 00700002     .......@......p.
   10738:	0000aaaa 00000000 40003800 40003c00     .........8.@.<.@
   10748:	4101a000 4101c000 42001400 42001800     ...A...A...B...B
   10758:	43001400 43001800                       ...C...C

00010760 <_tcs>:
   10760:	006b0000 00000308 00000021 00003a98     ..k.....!....:..
   10770:	00000000 006c0001 00000308 00000021     ......l.....!...
   10780:	00003a98 00000000 006d0002 00000308     .:........m.....
   10790:	00000021 00003a98 00000000 006e0003     !....:........n.
   107a0:	00000308 00000021 00003a98 00000000     ....!....:......

000107b0 <_usb_ep_cfgs>:
   107b0:	20000da4 00000000 00000040 00000000     ... ....@.......
	...
   107c8:	20000d9c 00000000 00000008 20000d5c     ... ........\.. 
   107d8:	20000d54 00080040 00000000 00000000     T.. @...........
	...
   107f0:	20000d14 00400000 72617453 6e492074     ... ..@.Start In
   10800:	61697469 657a696c 35440064 6e492031     itialized.D51 In
   10810:	43007469 6f706d6f 65746973 76654420     it.Composite Dev
   10820:	20656369 74696e49 696c6169 0064657a     ice Initialized.
   10830:	64697247 646f4d20 20656c75 74696e49     Grid Module Init
   10840:	696c6169 0064657a 65746e45 676e6972     ialized.Entering
   10850:	69614d20 6f4c206e 5300706f 74726174      Main Loop.Start
   10860:	20666f20 75626564 45000a67 746e6576      of debug..Event
   10870:	2e642520 69746361 3a206e6f 6f43000a      %d.action :..Co
   10880:	736f706d 20657469 69766544 43206563     mposite Device C
   10890:	656e6e6f 64657463 74227b00 22657079     onnected.{"type"
   108a0:	4154223a 2c224b53 61642220 3a226174     :"TASK", "data":
   108b0:	22005b20 00226425 7b00202c 70797422      [."%d"., .{"typ
   108c0:	223a2265 504f4f4c 22202c22 61746164     e":"LOOP", "data
   108d0:	5b203a22 22642522 2522202c 202c2264     ": ["%d", "%d", 
   108e0:	22642522 2522202c 7d5d2264 05000a0d              "%d", "%d"]}...

000108ef <keyboard_report_desc>:
   108ef:	06090105 070501a1 e729e019 01250015     ..........)...%.
   108ff:	08950175 01810281 65290019 65250015     u.........)e..%e
   1090f:	06950875 08050081 05290119 01250015     u.........)...%.
   1091f:	05950175 03950291 05c00191                       u..........

0001092a <mouse_report_desc>:
   1092a:	02090105 010901a1 090500a1 03290119     ..............).
   1093a:	01250015 03950175 05750281 01810195     ..%.u.....u.....
   1094a:	30090105 38093109 7f258115 03950875     ...0.1.8..%.u...
   1095a:	c0c00681 054c0000                                ......

00010960 <_global_impure_ptr>:
   10960:	2000054c                                L.. 

00010964 <__sf_fake_stderr>:
	...

00010984 <__sf_fake_stdin>:
	...

000109a4 <__sf_fake_stdout>:
	...
   109c4:	2b302d23 6c680020 6665004c 47464567     #-0+ .hlL.efgEFG
   109d4:	32313000 36353433 41393837 45444342     .0123456789ABCDE
   109e4:	31300046 35343332 39383736 64636261     F.0123456789abcd
   109f4:	00006665                                ef..

000109f8 <_init>:
   109f8:	b5f8      	push	{r3, r4, r5, r6, r7, lr}
   109fa:	bf00      	nop
   109fc:	bcf8      	pop	{r3, r4, r5, r6, r7}
   109fe:	bc08      	pop	{r3}
   10a00:	469e      	mov	lr, r3
   10a02:	4770      	bx	lr

00010a04 <__init_array_start>:
   10a04:	00004289 	.word	0x00004289

00010a08 <_fini>:
   10a08:	b5f8      	push	{r3, r4, r5, r6, r7, lr}
   10a0a:	bf00      	nop
   10a0c:	bcf8      	pop	{r3, r4, r5, r6, r7}
   10a0e:	bc08      	pop	{r3}
   10a10:	469e      	mov	lr, r3
   10a12:	4770      	bx	lr

00010a14 <__fini_array_start>:
   10a14:	00004265 	.word	0x00004265
