
grid_toplevel.elf:     file format elf32-littlearm

Sections:
Idx Name          Size      VMA       LMA       File off  Algn
  0 .text         0000a1e8  00004000  00004000  00004000  2**4
                  CONTENTS, ALLOC, LOAD, READONLY, CODE
  1 .relocate     000005b8  20000000  0000e1e8  00010000  2**2
                  CONTENTS, ALLOC, LOAD, DATA
  2 .bkupram      00000000  47000000  47000000  000105b8  2**0
                  CONTENTS
  3 .qspi         00000000  04000000  04000000  000105b8  2**0
                  CONTENTS
  4 .bss          000038a0  200005c0  0000e7b0  000105c0  2**4
                  ALLOC
  5 .stack        00010000  20003e60  00012050  000105c0  2**0
                  ALLOC
  6 .ARM.attributes 0000002e  00000000  00000000  000105b8  2**0
                  CONTENTS, READONLY
  7 .comment      00000059  00000000  00000000  000105e6  2**0
                  CONTENTS, READONLY
  8 .debug_frame  00000644  00000000  00000000  00010640  2**2
                  CONTENTS, READONLY, DEBUGGING

Disassembly of section .text:

00004000 <exception_table>:
    4000:	60 3e 01 20 ed 42 00 00 e9 42 00 00 e9 42 00 00     `>. .B...B...B..
    4010:	e9 42 00 00 e9 42 00 00 e9 42 00 00 00 00 00 00     .B...B...B......
	...
    402c:	e9 42 00 00 e9 42 00 00 00 00 00 00 e9 42 00 00     .B...B.......B..
    403c:	e9 42 00 00 e9 42 00 00 e9 42 00 00 e9 42 00 00     .B...B...B...B..
    404c:	e9 42 00 00 e9 42 00 00 e9 42 00 00 e9 42 00 00     .B...B...B...B..
    405c:	e9 42 00 00 e9 42 00 00 e9 42 00 00 e9 42 00 00     .B...B...B...B..
    406c:	bd 8f 00 00 e9 42 00 00 e9 42 00 00 e9 42 00 00     .....B...B...B..
    407c:	e9 42 00 00 e9 42 00 00 e9 42 00 00 e9 42 00 00     .B...B...B...B..
    408c:	e9 42 00 00 e9 42 00 00 e9 42 00 00 e9 42 00 00     .B...B...B...B..
    409c:	e9 42 00 00 e9 42 00 00 e9 42 00 00 e9 42 00 00     .B...B...B...B..
    40ac:	e9 42 00 00 e9 42 00 00 49 8d 00 00 1d 8d 00 00     .B...B..I.......
    40bc:	d1 8b 00 00 d9 8b 00 00 e1 8b 00 00 e9 8b 00 00     ................
    40cc:	f1 8b 00 00 e9 42 00 00 e9 42 00 00 e9 42 00 00     .....B...B...B..
    40dc:	e9 42 00 00 e9 42 00 00 e9 42 00 00 00 00 00 00     .B...B...B......
	...
    40f4:	65 8e 00 00 09 98 00 00 01 98 00 00 f9 97 00 00     e...............
    4104:	e9 97 00 00 31 98 00 00 29 98 00 00 21 98 00 00     ....1...)...!...
    4114:	11 98 00 00 59 98 00 00 51 98 00 00 49 98 00 00     ....Y...Q...I...
    4124:	39 98 00 00 b5 98 00 00 ad 98 00 00 a5 98 00 00     9...............
    4134:	61 98 00 00 dd 98 00 00 d5 98 00 00 cd 98 00 00     a...............
    4144:	bd 98 00 00 59 99 00 00 51 99 00 00 49 99 00 00     ....Y...Q...I...
    4154:	e5 98 00 00 81 99 00 00 79 99 00 00 71 99 00 00     ........y...q...
    4164:	61 99 00 00 e9 42 00 00 e9 42 00 00 e9 42 00 00     a....B...B...B..
    4174:	e9 42 00 00 00 00 00 00 00 00 00 00 c5 af 00 00     .B..............
    4184:	cd af 00 00 d5 af 00 00 dd af 00 00 00 00 00 00     ................
    4194:	e9 42 00 00 e9 42 00 00 e9 42 00 00 e9 42 00 00     .B...B...B...B..
    41a4:	e9 42 00 00 e9 42 00 00 e9 42 00 00 e9 42 00 00     .B...B...B...B..
    41b4:	e9 42 00 00 e9 42 00 00 e9 42 00 00 e9 42 00 00     .B...B...B...B..
    41c4:	e9 42 00 00 e9 42 00 00 e9 42 00 00 e9 42 00 00     .B...B...B...B..
    41d4:	e9 42 00 00 e9 42 00 00 e9 42 00 00 e9 42 00 00     .B...B...B...B..
    41e4:	e9 42 00 00 e9 42 00 00 15 a1 00 00 25 a1 00 00     .B...B......%...
    41f4:	35 a1 00 00 45 a1 00 00 e9 42 00 00 e9 42 00 00     5...E....B...B..
    4204:	e9 42 00 00 e9 42 00 00 e9 42 00 00 e9 42 00 00     .B...B...B...B..
    4214:	e9 42 00 00 15 89 00 00 05 89 00 00 2d 89 00 00     .B..........-...
    4224:	1d 89 00 00 e9 42 00 00 e9 42 00 00 e9 42 00 00     .....B...B...B..
    4234:	e9 42 00 00 e9 42 00 00 e9 42 00 00 e9 42 00 00     .B...B...B...B..
    4244:	e9 42 00 00 e9 42 00 00 e9 42 00 00 e9 42 00 00     .B...B...B...B..
    4254:	e9 42 00 00 e9 42 00 00 e9 42 00 00 e9 42 00 00     .B...B...B...B..

00004264 <__do_global_dtors_aux>:
    4264:	b510      	push	{r4, lr}
    4266:	4c05      	ldr	r4, [pc, #20]	; (427c <__do_global_dtors_aux+0x18>)
    4268:	7823      	ldrb	r3, [r4, #0]
    426a:	b933      	cbnz	r3, 427a <__do_global_dtors_aux+0x16>
    426c:	4b04      	ldr	r3, [pc, #16]	; (4280 <__do_global_dtors_aux+0x1c>)
    426e:	b113      	cbz	r3, 4276 <__do_global_dtors_aux+0x12>
    4270:	4804      	ldr	r0, [pc, #16]	; (4284 <__do_global_dtors_aux+0x20>)
    4272:	f3af 8000 	nop.w
    4276:	2301      	movs	r3, #1
    4278:	7023      	strb	r3, [r4, #0]
    427a:	bd10      	pop	{r4, pc}
    427c:	200005c0 	.word	0x200005c0
    4280:	00000000 	.word	0x00000000
    4284:	0000e1e8 	.word	0x0000e1e8

00004288 <frame_dummy>:
    4288:	4b0c      	ldr	r3, [pc, #48]	; (42bc <frame_dummy+0x34>)
    428a:	b143      	cbz	r3, 429e <frame_dummy+0x16>
    428c:	480c      	ldr	r0, [pc, #48]	; (42c0 <frame_dummy+0x38>)
    428e:	490d      	ldr	r1, [pc, #52]	; (42c4 <frame_dummy+0x3c>)
    4290:	b510      	push	{r4, lr}
    4292:	f3af 8000 	nop.w
    4296:	480c      	ldr	r0, [pc, #48]	; (42c8 <frame_dummy+0x40>)
    4298:	6803      	ldr	r3, [r0, #0]
    429a:	b923      	cbnz	r3, 42a6 <frame_dummy+0x1e>
    429c:	bd10      	pop	{r4, pc}
    429e:	480a      	ldr	r0, [pc, #40]	; (42c8 <frame_dummy+0x40>)
    42a0:	6803      	ldr	r3, [r0, #0]
    42a2:	b933      	cbnz	r3, 42b2 <frame_dummy+0x2a>
    42a4:	4770      	bx	lr
    42a6:	4b09      	ldr	r3, [pc, #36]	; (42cc <frame_dummy+0x44>)
    42a8:	2b00      	cmp	r3, #0
    42aa:	d0f7      	beq.n	429c <frame_dummy+0x14>
    42ac:	e8bd 4010 	ldmia.w	sp!, {r4, lr}
    42b0:	4718      	bx	r3
    42b2:	4b06      	ldr	r3, [pc, #24]	; (42cc <frame_dummy+0x44>)
    42b4:	2b00      	cmp	r3, #0
    42b6:	d0f5      	beq.n	42a4 <frame_dummy+0x1c>
    42b8:	4718      	bx	r3
    42ba:	bf00      	nop
    42bc:	00000000 	.word	0x00000000
    42c0:	0000e1e8 	.word	0x0000e1e8
    42c4:	200005c4 	.word	0x200005c4
    42c8:	0000e1e8 	.word	0x0000e1e8
    42cc:	00000000 	.word	0x00000000

000042d0 <atmel_start_init>:
    42d0:	b510      	push	{r4, lr}
    42d2:	4b03      	ldr	r3, [pc, #12]	; (42e0 <atmel_start_init+0x10>)
    42d4:	4798      	blx	r3
    42d6:	4b03      	ldr	r3, [pc, #12]	; (42e4 <atmel_start_init+0x14>)
    42d8:	e8bd 4010 	ldmia.w	sp!, {r4, lr}
    42dc:	4718      	bx	r3
    42de:	bf00      	nop
    42e0:	00004b29 	.word	0x00004b29
    42e4:	0000ca41 	.word	0x0000ca41

000042e8 <Dummy_Handler>:
    42e8:	e7fe      	b.n	42e8 <Dummy_Handler>
	...

000042ec <Reset_Handler>:
    42ec:	b508      	push	{r3, lr}
    42ee:	4a14      	ldr	r2, [pc, #80]	; (4340 <Reset_Handler+0x54>)
    42f0:	4b14      	ldr	r3, [pc, #80]	; (4344 <Reset_Handler+0x58>)
    42f2:	429a      	cmp	r2, r3
    42f4:	d118      	bne.n	4328 <Reset_Handler+0x3c>
    42f6:	4b14      	ldr	r3, [pc, #80]	; (4348 <Reset_Handler+0x5c>)
    42f8:	4a14      	ldr	r2, [pc, #80]	; (434c <Reset_Handler+0x60>)
    42fa:	2100      	movs	r1, #0
    42fc:	4293      	cmp	r3, r2
    42fe:	d31c      	bcc.n	433a <Reset_Handler+0x4e>
    4300:	4a13      	ldr	r2, [pc, #76]	; (4350 <Reset_Handler+0x64>)
    4302:	4b14      	ldr	r3, [pc, #80]	; (4354 <Reset_Handler+0x68>)
    4304:	f022 027f 	bic.w	r2, r2, #127	; 0x7f
    4308:	609a      	str	r2, [r3, #8]
    430a:	f8d3 2088 	ldr.w	r2, [r3, #136]	; 0x88
    430e:	f442 0270 	orr.w	r2, r2, #15728640	; 0xf00000
    4312:	f8c3 2088 	str.w	r2, [r3, #136]	; 0x88
    4316:	f3bf 8f4f 	dsb	sy
    431a:	f3bf 8f6f 	isb	sy
    431e:	4b0e      	ldr	r3, [pc, #56]	; (4358 <Reset_Handler+0x6c>)
    4320:	4798      	blx	r3
    4322:	4b0e      	ldr	r3, [pc, #56]	; (435c <Reset_Handler+0x70>)
    4324:	4798      	blx	r3
    4326:	e7fe      	b.n	4326 <Reset_Handler+0x3a>
    4328:	490d      	ldr	r1, [pc, #52]	; (4360 <Reset_Handler+0x74>)
    432a:	3a04      	subs	r2, #4
    432c:	428b      	cmp	r3, r1
    432e:	d2e2      	bcs.n	42f6 <Reset_Handler+0xa>
    4330:	f852 0f04 	ldr.w	r0, [r2, #4]!
    4334:	f843 0b04 	str.w	r0, [r3], #4
    4338:	e7f8      	b.n	432c <Reset_Handler+0x40>
    433a:	f843 1b04 	str.w	r1, [r3], #4
    433e:	e7dd      	b.n	42fc <Reset_Handler+0x10>
    4340:	0000e1e8 	.word	0x0000e1e8
    4344:	20000000 	.word	0x20000000
    4348:	200005c0 	.word	0x200005c0
    434c:	20003e60 	.word	0x20003e60
    4350:	00004000 	.word	0x00004000
    4354:	e000ed00 	.word	0xe000ed00
    4358:	0000d21d 	.word	0x0000d21d
    435c:	0000b52d 	.word	0x0000b52d
    4360:	200005b8 	.word	0x200005b8

00004364 <_gpio_set_pin_function>:
    4364:	b530      	push	{r4, r5, lr}
    4366:	1c4a      	adds	r2, r1, #1
    4368:	b2c4      	uxtb	r4, r0
    436a:	f3c0 1247 	ubfx	r2, r0, #5, #8
    436e:	4816      	ldr	r0, [pc, #88]	; (43c8 <_gpio_set_pin_function+0x64>)
    4370:	f004 031f 	and.w	r3, r4, #31
    4374:	eb00 10c2 	add.w	r0, r0, r2, lsl #7
    4378:	d107      	bne.n	438a <_gpio_set_pin_function+0x26>
    437a:	4418      	add	r0, r3
    437c:	f890 3040 	ldrb.w	r3, [r0, #64]	; 0x40
    4380:	f003 03fe 	and.w	r3, r3, #254	; 0xfe
    4384:	f880 3040 	strb.w	r3, [r0, #64]	; 0x40
    4388:	bd30      	pop	{r4, r5, pc}
    438a:	18c5      	adds	r5, r0, r3
    438c:	085b      	lsrs	r3, r3, #1
    438e:	f895 2040 	ldrb.w	r2, [r5, #64]	; 0x40
    4392:	f002 02fe 	and.w	r2, r2, #254	; 0xfe
    4396:	4418      	add	r0, r3
    4398:	f042 0201 	orr.w	r2, r2, #1
    439c:	f885 2040 	strb.w	r2, [r5, #64]	; 0x40
    43a0:	f890 3030 	ldrb.w	r3, [r0, #48]	; 0x30
    43a4:	f014 0f01 	tst.w	r4, #1
    43a8:	bf19      	ittee	ne
    43aa:	f003 030f 	andne.w	r3, r3, #15
    43ae:	ea43 1101 	orrne.w	r1, r3, r1, lsl #4
    43b2:	f001 010f 	andeq.w	r1, r1, #15
    43b6:	f003 03f0 	andeq.w	r3, r3, #240	; 0xf0
    43ba:	bf14      	ite	ne
    43bc:	b2c9      	uxtbne	r1, r1
    43be:	4319      	orreq	r1, r3
    43c0:	f880 1030 	strb.w	r1, [r0, #48]	; 0x30
    43c4:	bd30      	pop	{r4, r5, pc}
    43c6:	bf00      	nop
    43c8:	41008000 	.word	0x41008000

000043cc <gpio_set_pin_direction>:
    43cc:	2201      	movs	r2, #1
    43ce:	0943      	lsrs	r3, r0, #5
    43d0:	4291      	cmp	r1, r2
    43d2:	f000 001f 	and.w	r0, r0, #31
    43d6:	fa02 f000 	lsl.w	r0, r2, r0
    43da:	d011      	beq.n	4400 <gpio_set_pin_direction+0x34>
    43dc:	d302      	bcc.n	43e4 <gpio_set_pin_direction+0x18>
    43de:	2902      	cmp	r1, #2
    43e0:	d01f      	beq.n	4422 <gpio_set_pin_direction+0x56>
    43e2:	4770      	bx	lr
    43e4:	01db      	lsls	r3, r3, #7
    43e6:	f103 4382 	add.w	r3, r3, #1090519040	; 0x41000000
    43ea:	f503 4300 	add.w	r3, r3, #32768	; 0x8000
    43ee:	6058      	str	r0, [r3, #4]
    43f0:	b282      	uxth	r2, r0
    43f2:	f042 4280 	orr.w	r2, r2, #1073741824	; 0x40000000
    43f6:	0c00      	lsrs	r0, r0, #16
    43f8:	629a      	str	r2, [r3, #40]	; 0x28
    43fa:	f040 4040 	orr.w	r0, r0, #3221225472	; 0xc0000000
    43fe:	e00e      	b.n	441e <gpio_set_pin_direction+0x52>
    4400:	01db      	lsls	r3, r3, #7
    4402:	b282      	uxth	r2, r0
    4404:	f103 4382 	add.w	r3, r3, #1090519040	; 0x41000000
    4408:	f503 4300 	add.w	r3, r3, #32768	; 0x8000
    440c:	f042 4280 	orr.w	r2, r2, #1073741824	; 0x40000000
    4410:	f442 3200 	orr.w	r2, r2, #131072	; 0x20000
    4414:	6058      	str	r0, [r3, #4]
    4416:	629a      	str	r2, [r3, #40]	; 0x28
    4418:	4a05      	ldr	r2, [pc, #20]	; (4430 <gpio_set_pin_direction+0x64>)
    441a:	ea42 4010 	orr.w	r0, r2, r0, lsr #16
    441e:	6298      	str	r0, [r3, #40]	; 0x28
    4420:	4770      	bx	lr
    4422:	01db      	lsls	r3, r3, #7
    4424:	f103 4382 	add.w	r3, r3, #1090519040	; 0x41000000
    4428:	f503 4300 	add.w	r3, r3, #32768	; 0x8000
    442c:	6098      	str	r0, [r3, #8]
    442e:	e7df      	b.n	43f0 <gpio_set_pin_direction+0x24>
    4430:	c0020000 	.word	0xc0020000

00004434 <ADC_0_init>:
    4434:	b5f0      	push	{r4, r5, r6, r7, lr}
    4436:	4a14      	ldr	r2, [pc, #80]	; (4488 <ADC_0_init+0x54>)
    4438:	4e14      	ldr	r6, [pc, #80]	; (448c <ADC_0_init+0x58>)
    443a:	6a13      	ldr	r3, [r2, #32]
    443c:	4d14      	ldr	r5, [pc, #80]	; (4490 <ADC_0_init+0x5c>)
    443e:	4915      	ldr	r1, [pc, #84]	; (4494 <ADC_0_init+0x60>)
    4440:	4f15      	ldr	r7, [pc, #84]	; (4498 <ADC_0_init+0x64>)
    4442:	f043 0380 	orr.w	r3, r3, #128	; 0x80
    4446:	6213      	str	r3, [r2, #32]
    4448:	4b14      	ldr	r3, [pc, #80]	; (449c <ADC_0_init+0x68>)
    444a:	b085      	sub	sp, #20
    444c:	2241      	movs	r2, #65	; 0x41
    444e:	f8c3 2120 	str.w	r2, [r3, #288]	; 0x120
    4452:	4b13      	ldr	r3, [pc, #76]	; (44a0 <ADC_0_init+0x6c>)
    4454:	9301      	str	r3, [sp, #4]
    4456:	2400      	movs	r4, #0
    4458:	2301      	movs	r3, #1
    445a:	9300      	str	r3, [sp, #0]
    445c:	4632      	mov	r2, r6
    445e:	4623      	mov	r3, r4
    4460:	9402      	str	r4, [sp, #8]
    4462:	4628      	mov	r0, r5
    4464:	47b8      	blx	r7
    4466:	1c72      	adds	r2, r6, #1
    4468:	4621      	mov	r1, r4
    446a:	2310      	movs	r3, #16
    446c:	4628      	mov	r0, r5
    446e:	4d0d      	ldr	r5, [pc, #52]	; (44a4 <ADC_0_init+0x70>)
    4470:	47a8      	blx	r5
    4472:	4621      	mov	r1, r4
    4474:	2007      	movs	r0, #7
    4476:	4b0c      	ldr	r3, [pc, #48]	; (44a8 <ADC_0_init+0x74>)
    4478:	4798      	blx	r3
    447a:	490c      	ldr	r1, [pc, #48]	; (44ac <ADC_0_init+0x78>)
    447c:	4b0c      	ldr	r3, [pc, #48]	; (44b0 <ADC_0_init+0x7c>)
    447e:	2007      	movs	r0, #7
    4480:	b005      	add	sp, #20
    4482:	e8bd 40f0 	ldmia.w	sp!, {r4, r5, r6, r7, lr}
    4486:	4718      	bx	r3
    4488:	40000800 	.word	0x40000800
    448c:	200005dc 	.word	0x200005dc
    4490:	20000fdc 	.word	0x20000fdc
    4494:	43001c00 	.word	0x43001c00
    4498:	00007765 	.word	0x00007765
    449c:	40001c00 	.word	0x40001c00
    44a0:	200010d8 	.word	0x200010d8
    44a4:	000077b1 	.word	0x000077b1
    44a8:	000043cd 	.word	0x000043cd
    44ac:	00070001 	.word	0x00070001
    44b0:	00004365 	.word	0x00004365

000044b4 <ADC_1_init>:
    44b4:	b5f0      	push	{r4, r5, r6, r7, lr}
    44b6:	4a15      	ldr	r2, [pc, #84]	; (450c <ADC_1_init+0x58>)
    44b8:	4e15      	ldr	r6, [pc, #84]	; (4510 <ADC_1_init+0x5c>)
    44ba:	6a13      	ldr	r3, [r2, #32]
    44bc:	4d15      	ldr	r5, [pc, #84]	; (4514 <ADC_1_init+0x60>)
    44be:	4916      	ldr	r1, [pc, #88]	; (4518 <ADC_1_init+0x64>)
    44c0:	4f16      	ldr	r7, [pc, #88]	; (451c <ADC_1_init+0x68>)
    44c2:	f443 7380 	orr.w	r3, r3, #256	; 0x100
    44c6:	6213      	str	r3, [r2, #32]
    44c8:	4b15      	ldr	r3, [pc, #84]	; (4520 <ADC_1_init+0x6c>)
    44ca:	b085      	sub	sp, #20
    44cc:	2241      	movs	r2, #65	; 0x41
    44ce:	f8c3 2124 	str.w	r2, [r3, #292]	; 0x124
    44d2:	4b14      	ldr	r3, [pc, #80]	; (4524 <ADC_1_init+0x70>)
    44d4:	9301      	str	r3, [sp, #4]
    44d6:	2400      	movs	r4, #0
    44d8:	2301      	movs	r3, #1
    44da:	9300      	str	r3, [sp, #0]
    44dc:	f106 0211 	add.w	r2, r6, #17
    44e0:	4623      	mov	r3, r4
    44e2:	9402      	str	r4, [sp, #8]
    44e4:	4628      	mov	r0, r5
    44e6:	47b8      	blx	r7
    44e8:	f106 0212 	add.w	r2, r6, #18
    44ec:	4621      	mov	r1, r4
    44ee:	2310      	movs	r3, #16
    44f0:	4628      	mov	r0, r5
    44f2:	4d0d      	ldr	r5, [pc, #52]	; (4528 <ADC_1_init+0x74>)
    44f4:	47a8      	blx	r5
    44f6:	4621      	mov	r1, r4
    44f8:	2042      	movs	r0, #66	; 0x42
    44fa:	4b0c      	ldr	r3, [pc, #48]	; (452c <ADC_1_init+0x78>)
    44fc:	4798      	blx	r3
    44fe:	490c      	ldr	r1, [pc, #48]	; (4530 <ADC_1_init+0x7c>)
    4500:	4b0c      	ldr	r3, [pc, #48]	; (4534 <ADC_1_init+0x80>)
    4502:	2042      	movs	r0, #66	; 0x42
    4504:	b005      	add	sp, #20
    4506:	e8bd 40f0 	ldmia.w	sp!, {r4, r5, r6, r7, lr}
    450a:	4718      	bx	r3
    450c:	40000800 	.word	0x40000800
    4510:	200005dc 	.word	0x200005dc
    4514:	200011b0 	.word	0x200011b0
    4518:	43002000 	.word	0x43002000
    451c:	00007765 	.word	0x00007765
    4520:	40001c00 	.word	0x40001c00
    4524:	20000f34 	.word	0x20000f34
    4528:	000077b1 	.word	0x000077b1
    452c:	000043cd 	.word	0x000043cd
    4530:	00420001 	.word	0x00420001
    4534:	00004365 	.word	0x00004365

00004538 <CRC_0_init>:
    4538:	4a04      	ldr	r2, [pc, #16]	; (454c <CRC_0_init+0x14>)
    453a:	4905      	ldr	r1, [pc, #20]	; (4550 <CRC_0_init+0x18>)
    453c:	6993      	ldr	r3, [r2, #24]
    453e:	4805      	ldr	r0, [pc, #20]	; (4554 <CRC_0_init+0x1c>)
    4540:	f043 0302 	orr.w	r3, r3, #2
    4544:	6193      	str	r3, [r2, #24]
    4546:	4b04      	ldr	r3, [pc, #16]	; (4558 <CRC_0_init+0x20>)
    4548:	4718      	bx	r3
    454a:	bf00      	nop
    454c:	40000800 	.word	0x40000800
    4550:	41002000 	.word	0x41002000
    4554:	20000f30 	.word	0x20000f30
    4558:	00007909 	.word	0x00007909

0000455c <EVENT_SYSTEM_0_init>:
    455c:	4b08      	ldr	r3, [pc, #32]	; (4580 <EVENT_SYSTEM_0_init+0x24>)
    455e:	2240      	movs	r2, #64	; 0x40
    4560:	f8c3 20ac 	str.w	r2, [r3, #172]	; 0xac
    4564:	f8c3 20b0 	str.w	r2, [r3, #176]	; 0xb0
    4568:	f8c3 20b4 	str.w	r2, [r3, #180]	; 0xb4
    456c:	f8c3 20b8 	str.w	r2, [r3, #184]	; 0xb8
    4570:	4a04      	ldr	r2, [pc, #16]	; (4584 <EVENT_SYSTEM_0_init+0x28>)
    4572:	6993      	ldr	r3, [r2, #24]
    4574:	f043 0380 	orr.w	r3, r3, #128	; 0x80
    4578:	6193      	str	r3, [r2, #24]
    457a:	4b03      	ldr	r3, [pc, #12]	; (4588 <EVENT_SYSTEM_0_init+0x2c>)
    457c:	4718      	bx	r3
    457e:	bf00      	nop
    4580:	40001c00 	.word	0x40001c00
    4584:	40000800 	.word	0x40000800
    4588:	00007945 	.word	0x00007945

0000458c <FLASH_0_CLOCK_init>:
    458c:	4a02      	ldr	r2, [pc, #8]	; (4598 <FLASH_0_CLOCK_init+0xc>)
    458e:	6913      	ldr	r3, [r2, #16]
    4590:	f043 0340 	orr.w	r3, r3, #64	; 0x40
    4594:	6113      	str	r3, [r2, #16]
    4596:	4770      	bx	lr
    4598:	40000800 	.word	0x40000800

0000459c <FLASH_0_init>:
    459c:	b510      	push	{r4, lr}
    459e:	4b04      	ldr	r3, [pc, #16]	; (45b0 <FLASH_0_init+0x14>)
    45a0:	4798      	blx	r3
    45a2:	4904      	ldr	r1, [pc, #16]	; (45b4 <FLASH_0_init+0x18>)
    45a4:	4804      	ldr	r0, [pc, #16]	; (45b8 <FLASH_0_init+0x1c>)
    45a6:	4b05      	ldr	r3, [pc, #20]	; (45bc <FLASH_0_init+0x20>)
    45a8:	e8bd 4010 	ldmia.w	sp!, {r4, lr}
    45ac:	4718      	bx	r3
    45ae:	bf00      	nop
    45b0:	0000458d 	.word	0x0000458d
    45b4:	41004000 	.word	0x41004000
    45b8:	20000f14 	.word	0x20000f14
    45bc:	0000795d 	.word	0x0000795d

000045c0 <USART_EAST_CLOCK_init>:
    45c0:	4b06      	ldr	r3, [pc, #24]	; (45dc <USART_EAST_CLOCK_init+0x1c>)
    45c2:	2241      	movs	r2, #65	; 0x41
    45c4:	f8c3 209c 	str.w	r2, [r3, #156]	; 0x9c
    45c8:	2242      	movs	r2, #66	; 0x42
    45ca:	f8c3 208c 	str.w	r2, [r3, #140]	; 0x8c
    45ce:	4a04      	ldr	r2, [pc, #16]	; (45e0 <USART_EAST_CLOCK_init+0x20>)
    45d0:	6953      	ldr	r3, [r2, #20]
    45d2:	f443 5380 	orr.w	r3, r3, #4096	; 0x1000
    45d6:	6153      	str	r3, [r2, #20]
    45d8:	4770      	bx	lr
    45da:	bf00      	nop
    45dc:	40001c00 	.word	0x40001c00
    45e0:	40000800 	.word	0x40000800

000045e4 <USART_EAST_PORT_init>:
    45e4:	b510      	push	{r4, lr}
    45e6:	4c05      	ldr	r4, [pc, #20]	; (45fc <USART_EAST_PORT_init+0x18>)
    45e8:	4905      	ldr	r1, [pc, #20]	; (4600 <USART_EAST_PORT_init+0x1c>)
    45ea:	2051      	movs	r0, #81	; 0x51
    45ec:	47a0      	blx	r4
    45ee:	4623      	mov	r3, r4
    45f0:	4904      	ldr	r1, [pc, #16]	; (4604 <USART_EAST_PORT_init+0x20>)
    45f2:	2050      	movs	r0, #80	; 0x50
    45f4:	e8bd 4010 	ldmia.w	sp!, {r4, lr}
    45f8:	4718      	bx	r3
    45fa:	bf00      	nop
    45fc:	00004365 	.word	0x00004365
    4600:	00510003 	.word	0x00510003
    4604:	00500003 	.word	0x00500003

00004608 <USART_EAST_init>:
    4608:	b513      	push	{r0, r1, r4, lr}
    460a:	4b07      	ldr	r3, [pc, #28]	; (4628 <USART_EAST_init+0x20>)
    460c:	4c07      	ldr	r4, [pc, #28]	; (462c <USART_EAST_init+0x24>)
    460e:	4798      	blx	r3
    4610:	2300      	movs	r3, #0
    4612:	9300      	str	r3, [sp, #0]
    4614:	4a06      	ldr	r2, [pc, #24]	; (4630 <USART_EAST_init+0x28>)
    4616:	4907      	ldr	r1, [pc, #28]	; (4634 <USART_EAST_init+0x2c>)
    4618:	4807      	ldr	r0, [pc, #28]	; (4638 <USART_EAST_init+0x30>)
    461a:	2310      	movs	r3, #16
    461c:	47a0      	blx	r4
    461e:	4b07      	ldr	r3, [pc, #28]	; (463c <USART_EAST_init+0x34>)
    4620:	b002      	add	sp, #8
    4622:	e8bd 4010 	ldmia.w	sp!, {r4, lr}
    4626:	4718      	bx	r3
    4628:	000045c1 	.word	0x000045c1
    462c:	00007fc5 	.word	0x00007fc5
    4630:	200005fe 	.word	0x200005fe
    4634:	40003000 	.word	0x40003000
    4638:	20001008 	.word	0x20001008
    463c:	000045e5 	.word	0x000045e5

00004640 <USART_NORTH_CLOCK_init>:
    4640:	4b06      	ldr	r3, [pc, #24]	; (465c <USART_NORTH_CLOCK_init+0x1c>)
    4642:	2241      	movs	r2, #65	; 0x41
    4644:	f8c3 20a0 	str.w	r2, [r3, #160]	; 0xa0
    4648:	2242      	movs	r2, #66	; 0x42
    464a:	f8c3 208c 	str.w	r2, [r3, #140]	; 0x8c
    464e:	4a04      	ldr	r2, [pc, #16]	; (4660 <USART_NORTH_CLOCK_init+0x20>)
    4650:	6953      	ldr	r3, [r2, #20]
    4652:	f443 5300 	orr.w	r3, r3, #8192	; 0x2000
    4656:	6153      	str	r3, [r2, #20]
    4658:	4770      	bx	lr
    465a:	bf00      	nop
    465c:	40001c00 	.word	0x40001c00
    4660:	40000800 	.word	0x40000800

00004664 <USART_NORTH_PORT_init>:
    4664:	b510      	push	{r4, lr}
    4666:	4c05      	ldr	r4, [pc, #20]	; (467c <USART_NORTH_PORT_init+0x18>)
    4668:	4905      	ldr	r1, [pc, #20]	; (4680 <USART_NORTH_PORT_init+0x1c>)
    466a:	205b      	movs	r0, #91	; 0x5b
    466c:	47a0      	blx	r4
    466e:	4623      	mov	r3, r4
    4670:	4904      	ldr	r1, [pc, #16]	; (4684 <USART_NORTH_PORT_init+0x20>)
    4672:	205c      	movs	r0, #92	; 0x5c
    4674:	e8bd 4010 	ldmia.w	sp!, {r4, lr}
    4678:	4718      	bx	r3
    467a:	bf00      	nop
    467c:	00004365 	.word	0x00004365
    4680:	005b0002 	.word	0x005b0002
    4684:	005c0002 	.word	0x005c0002

00004688 <USART_NORTH_init>:
    4688:	b513      	push	{r0, r1, r4, lr}
    468a:	4b07      	ldr	r3, [pc, #28]	; (46a8 <USART_NORTH_init+0x20>)
    468c:	4c07      	ldr	r4, [pc, #28]	; (46ac <USART_NORTH_init+0x24>)
    468e:	4798      	blx	r3
    4690:	2300      	movs	r3, #0
    4692:	9300      	str	r3, [sp, #0]
    4694:	4a06      	ldr	r2, [pc, #24]	; (46b0 <USART_NORTH_init+0x28>)
    4696:	4907      	ldr	r1, [pc, #28]	; (46b4 <USART_NORTH_init+0x2c>)
    4698:	4807      	ldr	r0, [pc, #28]	; (46b8 <USART_NORTH_init+0x30>)
    469a:	2310      	movs	r3, #16
    469c:	47a0      	blx	r4
    469e:	4b07      	ldr	r3, [pc, #28]	; (46bc <USART_NORTH_init+0x34>)
    46a0:	b002      	add	sp, #8
    46a2:	e8bd 4010 	ldmia.w	sp!, {r4, lr}
    46a6:	4718      	bx	r3
    46a8:	00004641 	.word	0x00004641
    46ac:	00007fc5 	.word	0x00007fc5
    46b0:	2000060e 	.word	0x2000060e
    46b4:	40003400 	.word	0x40003400
    46b8:	2000105c 	.word	0x2000105c
    46bc:	00004665 	.word	0x00004665

000046c0 <GRID_AUX_CLOCK_init>:
    46c0:	4b06      	ldr	r3, [pc, #24]	; (46dc <GRID_AUX_CLOCK_init+0x1c>)
    46c2:	2241      	movs	r2, #65	; 0x41
    46c4:	f8c3 20dc 	str.w	r2, [r3, #220]	; 0xdc
    46c8:	2242      	movs	r2, #66	; 0x42
    46ca:	f8c3 208c 	str.w	r2, [r3, #140]	; 0x8c
    46ce:	4a04      	ldr	r2, [pc, #16]	; (46e0 <GRID_AUX_CLOCK_init+0x20>)
    46d0:	6993      	ldr	r3, [r2, #24]
    46d2:	f443 7300 	orr.w	r3, r3, #512	; 0x200
    46d6:	6193      	str	r3, [r2, #24]
    46d8:	4770      	bx	lr
    46da:	bf00      	nop
    46dc:	40001c00 	.word	0x40001c00
    46e0:	40000800 	.word	0x40000800

000046e4 <GRID_AUX_PORT_init>:
    46e4:	b510      	push	{r4, lr}
    46e6:	4c05      	ldr	r4, [pc, #20]	; (46fc <GRID_AUX_PORT_init+0x18>)
    46e8:	4905      	ldr	r1, [pc, #20]	; (4700 <GRID_AUX_PORT_init+0x1c>)
    46ea:	2039      	movs	r0, #57	; 0x39
    46ec:	47a0      	blx	r4
    46ee:	4623      	mov	r3, r4
    46f0:	4904      	ldr	r1, [pc, #16]	; (4704 <GRID_AUX_PORT_init+0x20>)
    46f2:	2038      	movs	r0, #56	; 0x38
    46f4:	e8bd 4010 	ldmia.w	sp!, {r4, lr}
    46f8:	4718      	bx	r3
    46fa:	bf00      	nop
    46fc:	00004365 	.word	0x00004365
    4700:	00390003 	.word	0x00390003
    4704:	00380003 	.word	0x00380003

00004708 <GRID_AUX_init>:
    4708:	b513      	push	{r0, r1, r4, lr}
    470a:	4b07      	ldr	r3, [pc, #28]	; (4728 <GRID_AUX_init+0x20>)
    470c:	4c07      	ldr	r4, [pc, #28]	; (472c <GRID_AUX_init+0x24>)
    470e:	4798      	blx	r3
    4710:	2300      	movs	r3, #0
    4712:	9300      	str	r3, [sp, #0]
    4714:	4a06      	ldr	r2, [pc, #24]	; (4730 <GRID_AUX_init+0x28>)
    4716:	4907      	ldr	r1, [pc, #28]	; (4734 <GRID_AUX_init+0x2c>)
    4718:	4807      	ldr	r0, [pc, #28]	; (4738 <GRID_AUX_init+0x30>)
    471a:	2310      	movs	r3, #16
    471c:	47a0      	blx	r4
    471e:	4b07      	ldr	r3, [pc, #28]	; (473c <GRID_AUX_init+0x34>)
    4720:	b002      	add	sp, #8
    4722:	e8bd 4010 	ldmia.w	sp!, {r4, lr}
    4726:	4718      	bx	r3
    4728:	000046c1 	.word	0x000046c1
    472c:	00007fc5 	.word	0x00007fc5
    4730:	2000061e 	.word	0x2000061e
    4734:	41012000 	.word	0x41012000
    4738:	20000f8c 	.word	0x20000f8c
    473c:	000046e5 	.word	0x000046e5

00004740 <UI_SPI_PORT_init>:
    4740:	b570      	push	{r4, r5, r6, lr}
    4742:	4c13      	ldr	r4, [pc, #76]	; (4790 <UI_SPI_PORT_init+0x50>)
    4744:	4e13      	ldr	r6, [pc, #76]	; (4794 <UI_SPI_PORT_init+0x54>)
    4746:	4d14      	ldr	r5, [pc, #80]	; (4798 <UI_SPI_PORT_init+0x58>)
    4748:	f44f 1380 	mov.w	r3, #1048576	; 0x100000
    474c:	f8c4 3094 	str.w	r3, [r4, #148]	; 0x94
    4750:	2102      	movs	r1, #2
    4752:	2034      	movs	r0, #52	; 0x34
    4754:	47b0      	blx	r6
    4756:	4911      	ldr	r1, [pc, #68]	; (479c <UI_SPI_PORT_init+0x5c>)
    4758:	2034      	movs	r0, #52	; 0x34
    475a:	47a8      	blx	r5
    475c:	f44f 1300 	mov.w	r3, #2097152	; 0x200000
    4760:	f8c4 3094 	str.w	r3, [r4, #148]	; 0x94
    4764:	2102      	movs	r1, #2
    4766:	2035      	movs	r0, #53	; 0x35
    4768:	47b0      	blx	r6
    476a:	490d      	ldr	r1, [pc, #52]	; (47a0 <UI_SPI_PORT_init+0x60>)
    476c:	2035      	movs	r0, #53	; 0x35
    476e:	47a8      	blx	r5
    4770:	2101      	movs	r1, #1
    4772:	2014      	movs	r0, #20
    4774:	47b0      	blx	r6
    4776:	f894 3054 	ldrb.w	r3, [r4, #84]	; 0x54
    477a:	490a      	ldr	r1, [pc, #40]	; (47a4 <UI_SPI_PORT_init+0x64>)
    477c:	f003 03fb 	and.w	r3, r3, #251	; 0xfb
    4780:	f884 3054 	strb.w	r3, [r4, #84]	; 0x54
    4784:	2014      	movs	r0, #20
    4786:	462b      	mov	r3, r5
    4788:	e8bd 4070 	ldmia.w	sp!, {r4, r5, r6, lr}
    478c:	4718      	bx	r3
    478e:	bf00      	nop
    4790:	41008000 	.word	0x41008000
    4794:	000043cd 	.word	0x000043cd
    4798:	00004365 	.word	0x00004365
    479c:	00340002 	.word	0x00340002
    47a0:	00350002 	.word	0x00350002
    47a4:	00140003 	.word	0x00140003

000047a8 <UI_SPI_CLOCK_init>:
    47a8:	4b06      	ldr	r3, [pc, #24]	; (47c4 <UI_SPI_CLOCK_init+0x1c>)
    47aa:	2241      	movs	r2, #65	; 0x41
    47ac:	f8c3 20e0 	str.w	r2, [r3, #224]	; 0xe0
    47b0:	2243      	movs	r2, #67	; 0x43
    47b2:	f8c3 208c 	str.w	r2, [r3, #140]	; 0x8c
    47b6:	4a04      	ldr	r2, [pc, #16]	; (47c8 <UI_SPI_CLOCK_init+0x20>)
    47b8:	6993      	ldr	r3, [r2, #24]
    47ba:	f443 6380 	orr.w	r3, r3, #1024	; 0x400
    47be:	6193      	str	r3, [r2, #24]
    47c0:	4770      	bx	lr
    47c2:	bf00      	nop
    47c4:	40001c00 	.word	0x40001c00
    47c8:	40000800 	.word	0x40000800

000047cc <UI_SPI_init>:
    47cc:	b510      	push	{r4, lr}
    47ce:	4b05      	ldr	r3, [pc, #20]	; (47e4 <UI_SPI_init+0x18>)
    47d0:	4798      	blx	r3
    47d2:	4b05      	ldr	r3, [pc, #20]	; (47e8 <UI_SPI_init+0x1c>)
    47d4:	4905      	ldr	r1, [pc, #20]	; (47ec <UI_SPI_init+0x20>)
    47d6:	4806      	ldr	r0, [pc, #24]	; (47f0 <UI_SPI_init+0x24>)
    47d8:	4798      	blx	r3
    47da:	4b06      	ldr	r3, [pc, #24]	; (47f4 <UI_SPI_init+0x28>)
    47dc:	e8bd 4010 	ldmia.w	sp!, {r4, lr}
    47e0:	4718      	bx	r3
    47e2:	bf00      	nop
    47e4:	000047a9 	.word	0x000047a9
    47e8:	00007bd9 	.word	0x00007bd9
    47ec:	41014000 	.word	0x41014000
    47f0:	20000e8c 	.word	0x20000e8c
    47f4:	00004741 	.word	0x00004741

000047f8 <USART_WEST_CLOCK_init>:
    47f8:	4b06      	ldr	r3, [pc, #24]	; (4814 <USART_WEST_CLOCK_init+0x1c>)
    47fa:	2241      	movs	r2, #65	; 0x41
    47fc:	f8c3 2108 	str.w	r2, [r3, #264]	; 0x108
    4800:	2242      	movs	r2, #66	; 0x42
    4802:	f8c3 208c 	str.w	r2, [r3, #140]	; 0x8c
    4806:	4a04      	ldr	r2, [pc, #16]	; (4818 <USART_WEST_CLOCK_init+0x20>)
    4808:	6a13      	ldr	r3, [r2, #32]
    480a:	f043 0301 	orr.w	r3, r3, #1
    480e:	6213      	str	r3, [r2, #32]
    4810:	4770      	bx	lr
    4812:	bf00      	nop
    4814:	40001c00 	.word	0x40001c00
    4818:	40000800 	.word	0x40000800

0000481c <USART_WEST_PORT_init>:
    481c:	b510      	push	{r4, lr}
    481e:	4c05      	ldr	r4, [pc, #20]	; (4834 <USART_WEST_PORT_init+0x18>)
    4820:	4905      	ldr	r1, [pc, #20]	; (4838 <USART_WEST_PORT_init+0x1c>)
    4822:	2028      	movs	r0, #40	; 0x28
    4824:	47a0      	blx	r4
    4826:	4623      	mov	r3, r4
    4828:	4904      	ldr	r1, [pc, #16]	; (483c <USART_WEST_PORT_init+0x20>)
    482a:	2029      	movs	r0, #41	; 0x29
    482c:	e8bd 4010 	ldmia.w	sp!, {r4, lr}
    4830:	4718      	bx	r3
    4832:	bf00      	nop
    4834:	00004365 	.word	0x00004365
    4838:	00280003 	.word	0x00280003
    483c:	00290003 	.word	0x00290003

00004840 <USART_WEST_init>:
    4840:	b513      	push	{r0, r1, r4, lr}
    4842:	4b08      	ldr	r3, [pc, #32]	; (4864 <USART_WEST_init+0x24>)
    4844:	4c08      	ldr	r4, [pc, #32]	; (4868 <USART_WEST_init+0x28>)
    4846:	4798      	blx	r3
    4848:	2300      	movs	r3, #0
    484a:	9300      	str	r3, [sp, #0]
    484c:	4a07      	ldr	r2, [pc, #28]	; (486c <USART_WEST_init+0x2c>)
    484e:	4808      	ldr	r0, [pc, #32]	; (4870 <USART_WEST_init+0x30>)
    4850:	2310      	movs	r3, #16
    4852:	f04f 4186 	mov.w	r1, #1124073472	; 0x43000000
    4856:	47a0      	blx	r4
    4858:	4b06      	ldr	r3, [pc, #24]	; (4874 <USART_WEST_init+0x34>)
    485a:	b002      	add	sp, #8
    485c:	e8bd 4010 	ldmia.w	sp!, {r4, lr}
    4860:	4718      	bx	r3
    4862:	bf00      	nop
    4864:	000047f9 	.word	0x000047f9
    4868:	00007fc5 	.word	0x00007fc5
    486c:	2000062e 	.word	0x2000062e
    4870:	20001110 	.word	0x20001110
    4874:	0000481d 	.word	0x0000481d

00004878 <SYS_I2C_PORT_init>:
    4878:	b570      	push	{r4, r5, r6, lr}
    487a:	4c0b      	ldr	r4, [pc, #44]	; (48a8 <SYS_I2C_PORT_init+0x30>)
    487c:	4d0b      	ldr	r5, [pc, #44]	; (48ac <SYS_I2C_PORT_init+0x34>)
    487e:	f894 3057 	ldrb.w	r3, [r4, #87]	; 0x57
    4882:	490b      	ldr	r1, [pc, #44]	; (48b0 <SYS_I2C_PORT_init+0x38>)
    4884:	f003 03fb 	and.w	r3, r3, #251	; 0xfb
    4888:	f884 3057 	strb.w	r3, [r4, #87]	; 0x57
    488c:	2017      	movs	r0, #23
    488e:	47a8      	blx	r5
    4890:	f894 3056 	ldrb.w	r3, [r4, #86]	; 0x56
    4894:	4907      	ldr	r1, [pc, #28]	; (48b4 <SYS_I2C_PORT_init+0x3c>)
    4896:	f003 03fb 	and.w	r3, r3, #251	; 0xfb
    489a:	f884 3056 	strb.w	r3, [r4, #86]	; 0x56
    489e:	2016      	movs	r0, #22
    48a0:	462b      	mov	r3, r5
    48a2:	e8bd 4070 	ldmia.w	sp!, {r4, r5, r6, lr}
    48a6:	4718      	bx	r3
    48a8:	41008000 	.word	0x41008000
    48ac:	00004365 	.word	0x00004365
    48b0:	00170003 	.word	0x00170003
    48b4:	00160003 	.word	0x00160003

000048b8 <SYS_I2C_CLOCK_init>:
    48b8:	4b06      	ldr	r3, [pc, #24]	; (48d4 <SYS_I2C_CLOCK_init+0x1c>)
    48ba:	2241      	movs	r2, #65	; 0x41
    48bc:	f8c3 210c 	str.w	r2, [r3, #268]	; 0x10c
    48c0:	2242      	movs	r2, #66	; 0x42
    48c2:	f8c3 208c 	str.w	r2, [r3, #140]	; 0x8c
    48c6:	4a04      	ldr	r2, [pc, #16]	; (48d8 <SYS_I2C_CLOCK_init+0x20>)
    48c8:	6a13      	ldr	r3, [r2, #32]
    48ca:	f043 0302 	orr.w	r3, r3, #2
    48ce:	6213      	str	r3, [r2, #32]
    48d0:	4770      	bx	lr
    48d2:	bf00      	nop
    48d4:	40001c00 	.word	0x40001c00
    48d8:	40000800 	.word	0x40000800

000048dc <SYS_I2C_init>:
    48dc:	b510      	push	{r4, lr}
    48de:	4b05      	ldr	r3, [pc, #20]	; (48f4 <SYS_I2C_init+0x18>)
    48e0:	4798      	blx	r3
    48e2:	4b05      	ldr	r3, [pc, #20]	; (48f8 <SYS_I2C_init+0x1c>)
    48e4:	4905      	ldr	r1, [pc, #20]	; (48fc <SYS_I2C_init+0x20>)
    48e6:	4806      	ldr	r0, [pc, #24]	; (4900 <SYS_I2C_init+0x24>)
    48e8:	4798      	blx	r3
    48ea:	4b06      	ldr	r3, [pc, #24]	; (4904 <SYS_I2C_init+0x28>)
    48ec:	e8bd 4010 	ldmia.w	sp!, {r4, lr}
    48f0:	4718      	bx	r3
    48f2:	bf00      	nop
    48f4:	000048b9 	.word	0x000048b9
    48f8:	00007a01 	.word	0x00007a01
    48fc:	43000400 	.word	0x43000400
    4900:	20000f4c 	.word	0x20000f4c
    4904:	00004879 	.word	0x00004879

00004908 <USART_SOUTH_CLOCK_init>:
    4908:	4b06      	ldr	r3, [pc, #24]	; (4924 <USART_SOUTH_CLOCK_init+0x1c>)
    490a:	2241      	movs	r2, #65	; 0x41
    490c:	f8c3 2110 	str.w	r2, [r3, #272]	; 0x110
    4910:	2242      	movs	r2, #66	; 0x42
    4912:	f8c3 208c 	str.w	r2, [r3, #140]	; 0x8c
    4916:	4a04      	ldr	r2, [pc, #16]	; (4928 <USART_SOUTH_CLOCK_init+0x20>)
    4918:	6a13      	ldr	r3, [r2, #32]
    491a:	f043 0304 	orr.w	r3, r3, #4
    491e:	6213      	str	r3, [r2, #32]
    4920:	4770      	bx	lr
    4922:	bf00      	nop
    4924:	40001c00 	.word	0x40001c00
    4928:	40000800 	.word	0x40000800

0000492c <USART_SOUTH_PORT_init>:
    492c:	b510      	push	{r4, lr}
    492e:	4c05      	ldr	r4, [pc, #20]	; (4944 <USART_SOUTH_PORT_init+0x18>)
    4930:	4905      	ldr	r1, [pc, #20]	; (4948 <USART_SOUTH_PORT_init+0x1c>)
    4932:	204d      	movs	r0, #77	; 0x4d
    4934:	47a0      	blx	r4
    4936:	4623      	mov	r3, r4
    4938:	4904      	ldr	r1, [pc, #16]	; (494c <USART_SOUTH_PORT_init+0x20>)
    493a:	204c      	movs	r0, #76	; 0x4c
    493c:	e8bd 4010 	ldmia.w	sp!, {r4, lr}
    4940:	4718      	bx	r3
    4942:	bf00      	nop
    4944:	00004365 	.word	0x00004365
    4948:	004d0003 	.word	0x004d0003
    494c:	004c0003 	.word	0x004c0003

00004950 <USART_SOUTH_init>:
    4950:	b513      	push	{r0, r1, r4, lr}
    4952:	4b07      	ldr	r3, [pc, #28]	; (4970 <USART_SOUTH_init+0x20>)
    4954:	4c07      	ldr	r4, [pc, #28]	; (4974 <USART_SOUTH_init+0x24>)
    4956:	4798      	blx	r3
    4958:	2300      	movs	r3, #0
    495a:	9300      	str	r3, [sp, #0]
    495c:	4a06      	ldr	r2, [pc, #24]	; (4978 <USART_SOUTH_init+0x28>)
    495e:	4907      	ldr	r1, [pc, #28]	; (497c <USART_SOUTH_init+0x2c>)
    4960:	4807      	ldr	r0, [pc, #28]	; (4980 <USART_SOUTH_init+0x30>)
    4962:	2310      	movs	r3, #16
    4964:	47a0      	blx	r4
    4966:	4b07      	ldr	r3, [pc, #28]	; (4984 <USART_SOUTH_init+0x34>)
    4968:	b002      	add	sp, #8
    496a:	e8bd 4010 	ldmia.w	sp!, {r4, lr}
    496e:	4718      	bx	r3
    4970:	00004909 	.word	0x00004909
    4974:	00007fc5 	.word	0x00007fc5
    4978:	2000063e 	.word	0x2000063e
    497c:	43000800 	.word	0x43000800
    4980:	20001160 	.word	0x20001160
    4984:	0000492d 	.word	0x0000492d

00004988 <GRID_LED_PORT_init>:
    4988:	b570      	push	{r4, r5, r6, lr}
    498a:	4c13      	ldr	r4, [pc, #76]	; (49d8 <GRID_LED_PORT_init+0x50>)
    498c:	4e13      	ldr	r6, [pc, #76]	; (49dc <GRID_LED_PORT_init+0x54>)
    498e:	4d14      	ldr	r5, [pc, #80]	; (49e0 <GRID_LED_PORT_init+0x58>)
    4990:	f04f 4380 	mov.w	r3, #1073741824	; 0x40000000
    4994:	f8c4 3094 	str.w	r3, [r4, #148]	; 0x94
    4998:	2102      	movs	r1, #2
    499a:	203e      	movs	r0, #62	; 0x3e
    499c:	47b0      	blx	r6
    499e:	4911      	ldr	r1, [pc, #68]	; (49e4 <GRID_LED_PORT_init+0x5c>)
    49a0:	203e      	movs	r0, #62	; 0x3e
    49a2:	47a8      	blx	r5
    49a4:	f04f 4300 	mov.w	r3, #2147483648	; 0x80000000
    49a8:	f8c4 3094 	str.w	r3, [r4, #148]	; 0x94
    49ac:	2102      	movs	r1, #2
    49ae:	203f      	movs	r0, #63	; 0x3f
    49b0:	47b0      	blx	r6
    49b2:	490d      	ldr	r1, [pc, #52]	; (49e8 <GRID_LED_PORT_init+0x60>)
    49b4:	203f      	movs	r0, #63	; 0x3f
    49b6:	47a8      	blx	r5
    49b8:	2101      	movs	r1, #1
    49ba:	201e      	movs	r0, #30
    49bc:	47b0      	blx	r6
    49be:	f894 305e 	ldrb.w	r3, [r4, #94]	; 0x5e
    49c2:	490a      	ldr	r1, [pc, #40]	; (49ec <GRID_LED_PORT_init+0x64>)
    49c4:	f003 03fb 	and.w	r3, r3, #251	; 0xfb
    49c8:	f884 305e 	strb.w	r3, [r4, #94]	; 0x5e
    49cc:	201e      	movs	r0, #30
    49ce:	462b      	mov	r3, r5
    49d0:	e8bd 4070 	ldmia.w	sp!, {r4, r5, r6, lr}
    49d4:	4718      	bx	r3
    49d6:	bf00      	nop
    49d8:	41008000 	.word	0x41008000
    49dc:	000043cd 	.word	0x000043cd
    49e0:	00004365 	.word	0x00004365
    49e4:	003e0002 	.word	0x003e0002
    49e8:	003f0002 	.word	0x003f0002
    49ec:	001e0002 	.word	0x001e0002

000049f0 <GRID_LED_CLOCK_init>:
    49f0:	4b06      	ldr	r3, [pc, #24]	; (4a0c <GRID_LED_CLOCK_init+0x1c>)
    49f2:	2241      	movs	r2, #65	; 0x41
    49f4:	f8c3 2114 	str.w	r2, [r3, #276]	; 0x114
    49f8:	2242      	movs	r2, #66	; 0x42
    49fa:	f8c3 208c 	str.w	r2, [r3, #140]	; 0x8c
    49fe:	4a04      	ldr	r2, [pc, #16]	; (4a10 <GRID_LED_CLOCK_init+0x20>)
    4a00:	6a13      	ldr	r3, [r2, #32]
    4a02:	f043 0308 	orr.w	r3, r3, #8
    4a06:	6213      	str	r3, [r2, #32]
    4a08:	4770      	bx	lr
    4a0a:	bf00      	nop
    4a0c:	40001c00 	.word	0x40001c00
    4a10:	40000800 	.word	0x40000800

00004a14 <GRID_LED_init>:
    4a14:	b510      	push	{r4, lr}
    4a16:	4b05      	ldr	r3, [pc, #20]	; (4a2c <GRID_LED_init+0x18>)
    4a18:	4798      	blx	r3
    4a1a:	4b05      	ldr	r3, [pc, #20]	; (4a30 <GRID_LED_init+0x1c>)
    4a1c:	4905      	ldr	r1, [pc, #20]	; (4a34 <GRID_LED_init+0x20>)
    4a1e:	4806      	ldr	r0, [pc, #24]	; (4a38 <GRID_LED_init+0x24>)
    4a20:	4798      	blx	r3
    4a22:	4b06      	ldr	r3, [pc, #24]	; (4a3c <GRID_LED_init+0x28>)
    4a24:	e8bd 4010 	ldmia.w	sp!, {r4, lr}
    4a28:	4718      	bx	r3
    4a2a:	bf00      	nop
    4a2c:	000049f1 	.word	0x000049f1
    4a30:	00007d15 	.word	0x00007d15
    4a34:	43000c00 	.word	0x43000c00
    4a38:	200010ac 	.word	0x200010ac
    4a3c:	00004989 	.word	0x00004989

00004a40 <delay_driver_init>:
    4a40:	4801      	ldr	r0, [pc, #4]	; (4a48 <delay_driver_init+0x8>)
    4a42:	4b02      	ldr	r3, [pc, #8]	; (4a4c <delay_driver_init+0xc>)
    4a44:	4718      	bx	r3
    4a46:	bf00      	nop
    4a48:	e000e010 	.word	0xe000e010
    4a4c:	00007911 	.word	0x00007911

00004a50 <USB_DEVICE_INSTANCE_PORT_init>:
    4a50:	b570      	push	{r4, r5, r6, lr}
    4a52:	2102      	movs	r1, #2
    4a54:	4c11      	ldr	r4, [pc, #68]	; (4a9c <USB_DEVICE_INSTANCE_PORT_init+0x4c>)
    4a56:	4e12      	ldr	r6, [pc, #72]	; (4aa0 <USB_DEVICE_INSTANCE_PORT_init+0x50>)
    4a58:	4d12      	ldr	r5, [pc, #72]	; (4aa4 <USB_DEVICE_INSTANCE_PORT_init+0x54>)
    4a5a:	2018      	movs	r0, #24
    4a5c:	47b0      	blx	r6
    4a5e:	f04f 7380 	mov.w	r3, #16777216	; 0x1000000
    4a62:	6163      	str	r3, [r4, #20]
    4a64:	f894 3058 	ldrb.w	r3, [r4, #88]	; 0x58
    4a68:	490f      	ldr	r1, [pc, #60]	; (4aa8 <USB_DEVICE_INSTANCE_PORT_init+0x58>)
    4a6a:	f003 03fb 	and.w	r3, r3, #251	; 0xfb
    4a6e:	f884 3058 	strb.w	r3, [r4, #88]	; 0x58
    4a72:	2018      	movs	r0, #24
    4a74:	47a8      	blx	r5
    4a76:	2102      	movs	r1, #2
    4a78:	2019      	movs	r0, #25
    4a7a:	47b0      	blx	r6
    4a7c:	f04f 7300 	mov.w	r3, #33554432	; 0x2000000
    4a80:	6163      	str	r3, [r4, #20]
    4a82:	f894 3059 	ldrb.w	r3, [r4, #89]	; 0x59
    4a86:	4909      	ldr	r1, [pc, #36]	; (4aac <USB_DEVICE_INSTANCE_PORT_init+0x5c>)
    4a88:	f003 03fb 	and.w	r3, r3, #251	; 0xfb
    4a8c:	f884 3059 	strb.w	r3, [r4, #89]	; 0x59
    4a90:	2019      	movs	r0, #25
    4a92:	462b      	mov	r3, r5
    4a94:	e8bd 4070 	ldmia.w	sp!, {r4, r5, r6, lr}
    4a98:	4718      	bx	r3
    4a9a:	bf00      	nop
    4a9c:	41008000 	.word	0x41008000
    4aa0:	000043cd 	.word	0x000043cd
    4aa4:	00004365 	.word	0x00004365
    4aa8:	00180007 	.word	0x00180007
    4aac:	00190007 	.word	0x00190007

00004ab0 <USB_DEVICE_INSTANCE_CLOCK_init>:
    4ab0:	4b07      	ldr	r3, [pc, #28]	; (4ad0 <USB_DEVICE_INSTANCE_CLOCK_init+0x20>)
    4ab2:	2241      	movs	r2, #65	; 0x41
    4ab4:	f8c3 20a8 	str.w	r2, [r3, #168]	; 0xa8
    4ab8:	f5a3 53a0 	sub.w	r3, r3, #5120	; 0x1400
    4abc:	691a      	ldr	r2, [r3, #16]
    4abe:	f442 6280 	orr.w	r2, r2, #1024	; 0x400
    4ac2:	611a      	str	r2, [r3, #16]
    4ac4:	699a      	ldr	r2, [r3, #24]
    4ac6:	f042 0201 	orr.w	r2, r2, #1
    4aca:	619a      	str	r2, [r3, #24]
    4acc:	4770      	bx	lr
    4ace:	bf00      	nop
    4ad0:	40001c00 	.word	0x40001c00

00004ad4 <USB_DEVICE_INSTANCE_init>:
    4ad4:	b510      	push	{r4, lr}
    4ad6:	4b04      	ldr	r3, [pc, #16]	; (4ae8 <USB_DEVICE_INSTANCE_init+0x14>)
    4ad8:	4798      	blx	r3
    4ada:	4b04      	ldr	r3, [pc, #16]	; (4aec <USB_DEVICE_INSTANCE_init+0x18>)
    4adc:	4798      	blx	r3
    4ade:	4b04      	ldr	r3, [pc, #16]	; (4af0 <USB_DEVICE_INSTANCE_init+0x1c>)
    4ae0:	e8bd 4010 	ldmia.w	sp!, {r4, lr}
    4ae4:	4718      	bx	r3
    4ae6:	bf00      	nop
    4ae8:	00004ab1 	.word	0x00004ab1
    4aec:	00008279 	.word	0x00008279
    4af0:	00004a51 	.word	0x00004a51

00004af4 <WDT_0_CLOCK_init>:
    4af4:	4a02      	ldr	r2, [pc, #8]	; (4b00 <WDT_0_CLOCK_init+0xc>)
    4af6:	6953      	ldr	r3, [r2, #20]
    4af8:	f443 7380 	orr.w	r3, r3, #256	; 0x100
    4afc:	6153      	str	r3, [r2, #20]
    4afe:	4770      	bx	lr
    4b00:	40000800 	.word	0x40000800

00004b04 <WDT_0_init>:
    4b04:	b510      	push	{r4, lr}
    4b06:	4b04      	ldr	r3, [pc, #16]	; (4b18 <WDT_0_init+0x14>)
    4b08:	4798      	blx	r3
    4b0a:	4804      	ldr	r0, [pc, #16]	; (4b1c <WDT_0_init+0x18>)
    4b0c:	4b04      	ldr	r3, [pc, #16]	; (4b20 <WDT_0_init+0x1c>)
    4b0e:	6003      	str	r3, [r0, #0]
    4b10:	e8bd 4010 	ldmia.w	sp!, {r4, lr}
    4b14:	4b03      	ldr	r3, [pc, #12]	; (4b24 <WDT_0_init+0x20>)
    4b16:	4718      	bx	r3
    4b18:	00004af5 	.word	0x00004af5
    4b1c:	20001058 	.word	0x20001058
    4b20:	40002000 	.word	0x40002000
    4b24:	0000afe5 	.word	0x0000afe5

00004b28 <system_init>:
    4b28:	e92d 41f0 	stmdb	sp!, {r4, r5, r6, r7, r8, lr}
    4b2c:	4b84      	ldr	r3, [pc, #528]	; (4d40 <system_init+0x218>)
    4b2e:	4c85      	ldr	r4, [pc, #532]	; (4d44 <system_init+0x21c>)
    4b30:	4d85      	ldr	r5, [pc, #532]	; (4d48 <system_init+0x220>)
    4b32:	4f86      	ldr	r7, [pc, #536]	; (4d4c <system_init+0x224>)
    4b34:	4798      	blx	r3
    4b36:	2320      	movs	r3, #32
    4b38:	6163      	str	r3, [r4, #20]
    4b3a:	2102      	movs	r1, #2
    4b3c:	2005      	movs	r0, #5
    4b3e:	47a8      	blx	r5
    4b40:	f894 3045 	ldrb.w	r3, [r4, #69]	; 0x45
    4b44:	f003 03fe 	and.w	r3, r3, #254	; 0xfe
    4b48:	f884 3045 	strb.w	r3, [r4, #69]	; 0x45
    4b4c:	2101      	movs	r1, #1
    4b4e:	2015      	movs	r0, #21
    4b50:	47a8      	blx	r5
    4b52:	f894 3055 	ldrb.w	r3, [r4, #85]	; 0x55
    4b56:	f003 03fb 	and.w	r3, r3, #251	; 0xfb
    4b5a:	f884 3055 	strb.w	r3, [r4, #85]	; 0x55
    4b5e:	f894 3055 	ldrb.w	r3, [r4, #85]	; 0x55
    4b62:	f003 03fe 	and.w	r3, r3, #254	; 0xfe
    4b66:	f884 3055 	strb.w	r3, [r4, #85]	; 0x55
    4b6a:	2101      	movs	r1, #1
    4b6c:	2027      	movs	r0, #39	; 0x27
    4b6e:	47a8      	blx	r5
    4b70:	f894 30c7 	ldrb.w	r3, [r4, #199]	; 0xc7
    4b74:	f003 03fb 	and.w	r3, r3, #251	; 0xfb
    4b78:	f884 30c7 	strb.w	r3, [r4, #199]	; 0xc7
    4b7c:	f894 30c7 	ldrb.w	r3, [r4, #199]	; 0xc7
    4b80:	f003 03fe 	and.w	r3, r3, #254	; 0xfe
    4b84:	f884 30c7 	strb.w	r3, [r4, #199]	; 0xc7
    4b88:	f44f 5300 	mov.w	r3, #8192	; 0x2000
    4b8c:	f8c4 3094 	str.w	r3, [r4, #148]	; 0x94
    4b90:	2102      	movs	r1, #2
    4b92:	202d      	movs	r0, #45	; 0x2d
    4b94:	47a8      	blx	r5
    4b96:	f894 30cd 	ldrb.w	r3, [r4, #205]	; 0xcd
    4b9a:	f44f 4680 	mov.w	r6, #16384	; 0x4000
    4b9e:	f003 03fe 	and.w	r3, r3, #254	; 0xfe
    4ba2:	f884 30cd 	strb.w	r3, [r4, #205]	; 0xcd
    4ba6:	2102      	movs	r1, #2
    4ba8:	f8c4 6094 	str.w	r6, [r4, #148]	; 0x94
    4bac:	202e      	movs	r0, #46	; 0x2e
    4bae:	47a8      	blx	r5
    4bb0:	f894 30ce 	ldrb.w	r3, [r4, #206]	; 0xce
    4bb4:	f003 03fe 	and.w	r3, r3, #254	; 0xfe
    4bb8:	f884 30ce 	strb.w	r3, [r4, #206]	; 0xce
    4bbc:	2101      	movs	r1, #1
    4bbe:	202f      	movs	r0, #47	; 0x2f
    4bc0:	47a8      	blx	r5
    4bc2:	f894 30cf 	ldrb.w	r3, [r4, #207]	; 0xcf
    4bc6:	f003 03fb 	and.w	r3, r3, #251	; 0xfb
    4bca:	f884 30cf 	strb.w	r3, [r4, #207]	; 0xcf
    4bce:	f894 30cf 	ldrb.w	r3, [r4, #207]	; 0xcf
    4bd2:	f003 03fe 	and.w	r3, r3, #254	; 0xfe
    4bd6:	f884 30cf 	strb.w	r3, [r4, #207]	; 0xcf
    4bda:	2101      	movs	r1, #1
    4bdc:	204b      	movs	r0, #75	; 0x4b
    4bde:	47a8      	blx	r5
    4be0:	f44f 6200 	mov.w	r2, #2048	; 0x800
    4be4:	f8c4 2104 	str.w	r2, [r4, #260]	; 0x104
    4be8:	f894 314b 	ldrb.w	r3, [r4, #331]	; 0x14b
    4bec:	f043 0304 	orr.w	r3, r3, #4
    4bf0:	f884 314b 	strb.w	r3, [r4, #331]	; 0x14b
    4bf4:	f8c4 2118 	str.w	r2, [r4, #280]	; 0x118
    4bf8:	f894 314b 	ldrb.w	r3, [r4, #331]	; 0x14b
    4bfc:	f003 03fe 	and.w	r3, r3, #254	; 0xfe
    4c00:	f884 314b 	strb.w	r3, [r4, #331]	; 0x14b
    4c04:	2102      	movs	r1, #2
    4c06:	f8c4 6114 	str.w	r6, [r4, #276]	; 0x114
    4c0a:	204e      	movs	r0, #78	; 0x4e
    4c0c:	47a8      	blx	r5
    4c0e:	f894 314e 	ldrb.w	r3, [r4, #334]	; 0x14e
    4c12:	f003 03fe 	and.w	r3, r3, #254	; 0xfe
    4c16:	f884 314e 	strb.w	r3, [r4, #334]	; 0x14e
    4c1a:	2101      	movs	r1, #1
    4c1c:	2052      	movs	r0, #82	; 0x52
    4c1e:	47a8      	blx	r5
    4c20:	f894 3152 	ldrb.w	r3, [r4, #338]	; 0x152
    4c24:	f003 03fb 	and.w	r3, r3, #251	; 0xfb
    4c28:	f884 3152 	strb.w	r3, [r4, #338]	; 0x152
    4c2c:	f894 3152 	ldrb.w	r3, [r4, #338]	; 0x152
    4c30:	f003 03fe 	and.w	r3, r3, #254	; 0xfe
    4c34:	f884 3152 	strb.w	r3, [r4, #338]	; 0x152
    4c38:	f44f 2300 	mov.w	r3, #524288	; 0x80000
    4c3c:	f8c4 3114 	str.w	r3, [r4, #276]	; 0x114
    4c40:	2102      	movs	r1, #2
    4c42:	2053      	movs	r0, #83	; 0x53
    4c44:	47a8      	blx	r5
    4c46:	f894 3153 	ldrb.w	r3, [r4, #339]	; 0x153
    4c4a:	f003 03fe 	and.w	r3, r3, #254	; 0xfe
    4c4e:	f884 3153 	strb.w	r3, [r4, #339]	; 0x153
    4c52:	f44f 1380 	mov.w	r3, #1048576	; 0x100000
    4c56:	f8c4 3114 	str.w	r3, [r4, #276]	; 0x114
    4c5a:	2102      	movs	r1, #2
    4c5c:	2054      	movs	r0, #84	; 0x54
    4c5e:	47a8      	blx	r5
    4c60:	f894 3154 	ldrb.w	r3, [r4, #340]	; 0x154
    4c64:	f003 03fe 	and.w	r3, r3, #254	; 0xfe
    4c68:	f884 3154 	strb.w	r3, [r4, #340]	; 0x154
    4c6c:	f44f 1300 	mov.w	r3, #2097152	; 0x200000
    4c70:	2102      	movs	r1, #2
    4c72:	2055      	movs	r0, #85	; 0x55
    4c74:	f8c4 3114 	str.w	r3, [r4, #276]	; 0x114
    4c78:	47a8      	blx	r5
    4c7a:	f894 3155 	ldrb.w	r3, [r4, #341]	; 0x155
    4c7e:	4d34      	ldr	r5, [pc, #208]	; (4d50 <system_init+0x228>)
    4c80:	f003 03fe 	and.w	r3, r3, #254	; 0xfe
    4c84:	f884 3155 	strb.w	r3, [r4, #341]	; 0x155
    4c88:	4b32      	ldr	r3, [pc, #200]	; (4d54 <system_init+0x22c>)
    4c8a:	4c33      	ldr	r4, [pc, #204]	; (4d58 <system_init+0x230>)
    4c8c:	4798      	blx	r3
    4c8e:	4b33      	ldr	r3, [pc, #204]	; (4d5c <system_init+0x234>)
    4c90:	4798      	blx	r3
    4c92:	4b33      	ldr	r3, [pc, #204]	; (4d60 <system_init+0x238>)
    4c94:	4798      	blx	r3
    4c96:	4b33      	ldr	r3, [pc, #204]	; (4d64 <system_init+0x23c>)
    4c98:	4798      	blx	r3
    4c9a:	4b33      	ldr	r3, [pc, #204]	; (4d68 <system_init+0x240>)
    4c9c:	4798      	blx	r3
    4c9e:	6963      	ldr	r3, [r4, #20]
    4ca0:	f443 7300 	orr.w	r3, r3, #512	; 0x200
    4ca4:	6163      	str	r3, [r4, #20]
    4ca6:	4b31      	ldr	r3, [pc, #196]	; (4d6c <system_init+0x244>)
    4ca8:	4798      	blx	r3
    4caa:	4931      	ldr	r1, [pc, #196]	; (4d70 <system_init+0x248>)
    4cac:	4602      	mov	r2, r0
    4cae:	4831      	ldr	r0, [pc, #196]	; (4d74 <system_init+0x24c>)
    4cb0:	47a8      	blx	r5
    4cb2:	4b31      	ldr	r3, [pc, #196]	; (4d78 <system_init+0x250>)
    4cb4:	4798      	blx	r3
    4cb6:	4b31      	ldr	r3, [pc, #196]	; (4d7c <system_init+0x254>)
    4cb8:	4798      	blx	r3
    4cba:	4b31      	ldr	r3, [pc, #196]	; (4d80 <system_init+0x258>)
    4cbc:	4798      	blx	r3
    4cbe:	4b31      	ldr	r3, [pc, #196]	; (4d84 <system_init+0x25c>)
    4cc0:	4798      	blx	r3
    4cc2:	4b31      	ldr	r3, [pc, #196]	; (4d88 <system_init+0x260>)
    4cc4:	4798      	blx	r3
    4cc6:	4b31      	ldr	r3, [pc, #196]	; (4d8c <system_init+0x264>)
    4cc8:	4798      	blx	r3
    4cca:	4b31      	ldr	r3, [pc, #196]	; (4d90 <system_init+0x268>)
    4ccc:	4798      	blx	r3
    4cce:	4b31      	ldr	r3, [pc, #196]	; (4d94 <system_init+0x26c>)
    4cd0:	4798      	blx	r3
    4cd2:	4b31      	ldr	r3, [pc, #196]	; (4d98 <system_init+0x270>)
    4cd4:	4798      	blx	r3
    4cd6:	6963      	ldr	r3, [r4, #20]
    4cd8:	f04f 0840 	mov.w	r8, #64	; 0x40
    4cdc:	4333      	orrs	r3, r6
    4cde:	6163      	str	r3, [r4, #20]
    4ce0:	4e2e      	ldr	r6, [pc, #184]	; (4d9c <system_init+0x274>)
    4ce2:	f8c7 80a4 	str.w	r8, [r7, #164]	; 0xa4
    4ce6:	47b0      	blx	r6
    4ce8:	492d      	ldr	r1, [pc, #180]	; (4da0 <system_init+0x278>)
    4cea:	4602      	mov	r2, r0
    4cec:	482d      	ldr	r0, [pc, #180]	; (4da4 <system_init+0x27c>)
    4cee:	47a8      	blx	r5
    4cf0:	6963      	ldr	r3, [r4, #20]
    4cf2:	f443 4300 	orr.w	r3, r3, #32768	; 0x8000
    4cf6:	6163      	str	r3, [r4, #20]
    4cf8:	f8c7 80a4 	str.w	r8, [r7, #164]	; 0xa4
    4cfc:	47b0      	blx	r6
    4cfe:	492a      	ldr	r1, [pc, #168]	; (4da8 <system_init+0x280>)
    4d00:	4602      	mov	r2, r0
    4d02:	482a      	ldr	r0, [pc, #168]	; (4dac <system_init+0x284>)
    4d04:	47a8      	blx	r5
    4d06:	69a3      	ldr	r3, [r4, #24]
    4d08:	f443 5300 	orr.w	r3, r3, #8192	; 0x2000
    4d0c:	61a3      	str	r3, [r4, #24]
    4d0e:	f8c7 80e8 	str.w	r8, [r7, #232]	; 0xe8
    4d12:	47b0      	blx	r6
    4d14:	4926      	ldr	r1, [pc, #152]	; (4db0 <system_init+0x288>)
    4d16:	4602      	mov	r2, r0
    4d18:	4826      	ldr	r0, [pc, #152]	; (4db4 <system_init+0x28c>)
    4d1a:	47a8      	blx	r5
    4d1c:	69a3      	ldr	r3, [r4, #24]
    4d1e:	f443 4380 	orr.w	r3, r3, #16384	; 0x4000
    4d22:	61a3      	str	r3, [r4, #24]
    4d24:	f8c7 80e8 	str.w	r8, [r7, #232]	; 0xe8
    4d28:	47b0      	blx	r6
    4d2a:	4923      	ldr	r1, [pc, #140]	; (4db8 <system_init+0x290>)
    4d2c:	4602      	mov	r2, r0
    4d2e:	4823      	ldr	r0, [pc, #140]	; (4dbc <system_init+0x294>)
    4d30:	47a8      	blx	r5
    4d32:	4b23      	ldr	r3, [pc, #140]	; (4dc0 <system_init+0x298>)
    4d34:	4798      	blx	r3
    4d36:	4b23      	ldr	r3, [pc, #140]	; (4dc4 <system_init+0x29c>)
    4d38:	e8bd 41f0 	ldmia.w	sp!, {r4, r5, r6, r7, r8, lr}
    4d3c:	4718      	bx	r3
    4d3e:	bf00      	nop
    4d40:	0000895d 	.word	0x0000895d
    4d44:	41008000 	.word	0x41008000
    4d48:	000043cd 	.word	0x000043cd
    4d4c:	40001c00 	.word	0x40001c00
    4d50:	00007e11 	.word	0x00007e11
    4d54:	00004435 	.word	0x00004435
    4d58:	40000800 	.word	0x40000800
    4d5c:	000044b5 	.word	0x000044b5
    4d60:	00004539 	.word	0x00004539
    4d64:	0000455d 	.word	0x0000455d
    4d68:	0000459d 	.word	0x0000459d
    4d6c:	00008fb5 	.word	0x00008fb5
    4d70:	40002400 	.word	0x40002400
    4d74:	20000ed4 	.word	0x20000ed4
    4d78:	00004609 	.word	0x00004609
    4d7c:	00004689 	.word	0x00004689
    4d80:	00004709 	.word	0x00004709
    4d84:	000047cd 	.word	0x000047cd
    4d88:	00004841 	.word	0x00004841
    4d8c:	000048dd 	.word	0x000048dd
    4d90:	00004951 	.word	0x00004951
    4d94:	00004a15 	.word	0x00004a15
    4d98:	00004a41 	.word	0x00004a41
    4d9c:	0000a10d 	.word	0x0000a10d
    4da0:	40003800 	.word	0x40003800
    4da4:	200011fc 	.word	0x200011fc
    4da8:	40003c00 	.word	0x40003c00
    4dac:	200010f0 	.word	0x200010f0
    4db0:	4101a000 	.word	0x4101a000
    4db4:	20000ef4 	.word	0x20000ef4
    4db8:	4101c000 	.word	0x4101c000
    4dbc:	200011dc 	.word	0x200011dc
    4dc0:	00004ad5 	.word	0x00004ad5
    4dc4:	00004b05 	.word	0x00004b05

00004dc8 <grid_ain_channel_init>:
    4dc8:	b570      	push	{r4, r5, r6, lr}
    4dca:	004d      	lsls	r5, r1, #1
    4dcc:	2600      	movs	r6, #0
    4dce:	7183      	strb	r3, [r0, #6]
    4dd0:	4604      	mov	r4, r0
    4dd2:	7101      	strb	r1, [r0, #4]
    4dd4:	7142      	strb	r2, [r0, #5]
    4dd6:	8146      	strh	r6, [r0, #10]
    4dd8:	4b07      	ldr	r3, [pc, #28]	; (4df8 <grid_ain_channel_init+0x30>)
    4dda:	4628      	mov	r0, r5
    4ddc:	4798      	blx	r3
    4dde:	4633      	mov	r3, r6
    4de0:	6020      	str	r0, [r4, #0]
    4de2:	4405      	add	r5, r0
    4de4:	42a8      	cmp	r0, r5
    4de6:	d103      	bne.n	4df0 <grid_ain_channel_init+0x28>
    4de8:	81a3      	strh	r3, [r4, #12]
    4dea:	8123      	strh	r3, [r4, #8]
    4dec:	2000      	movs	r0, #0
    4dee:	bd70      	pop	{r4, r5, r6, pc}
    4df0:	f820 3b02 	strh.w	r3, [r0], #2
    4df4:	e7f6      	b.n	4de4 <grid_ain_channel_init+0x1c>
    4df6:	bf00      	nop
    4df8:	0000d265 	.word	0x0000d265

00004dfc <grid_ain_init>:
    4dfc:	e92d 47f0 	stmdb	sp!, {r4, r5, r6, r7, r8, r9, sl, lr}
    4e00:	4606      	mov	r6, r0
    4e02:	4699      	mov	r9, r3
    4e04:	0100      	lsls	r0, r0, #4
    4e06:	4b0b      	ldr	r3, [pc, #44]	; (4e34 <grid_ain_init+0x38>)
    4e08:	4d0b      	ldr	r5, [pc, #44]	; (4e38 <grid_ain_init+0x3c>)
    4e0a:	f8df a030 	ldr.w	sl, [pc, #48]	; 4e3c <grid_ain_init+0x40>
    4e0e:	460f      	mov	r7, r1
    4e10:	4690      	mov	r8, r2
    4e12:	4798      	blx	r3
    4e14:	2400      	movs	r4, #0
    4e16:	6028      	str	r0, [r5, #0]
    4e18:	42a6      	cmp	r6, r4
    4e1a:	d102      	bne.n	4e22 <grid_ain_init+0x26>
    4e1c:	2000      	movs	r0, #0
    4e1e:	e8bd 87f0 	ldmia.w	sp!, {r4, r5, r6, r7, r8, r9, sl, pc}
    4e22:	6828      	ldr	r0, [r5, #0]
    4e24:	464b      	mov	r3, r9
    4e26:	eb00 1004 	add.w	r0, r0, r4, lsl #4
    4e2a:	4642      	mov	r2, r8
    4e2c:	4639      	mov	r1, r7
    4e2e:	47d0      	blx	sl
    4e30:	3401      	adds	r4, #1
    4e32:	e7f1      	b.n	4e18 <grid_ain_init+0x1c>
    4e34:	0000d265 	.word	0x0000d265
    4e38:	20001758 	.word	0x20001758
    4e3c:	00004dc9 	.word	0x00004dc9

00004e40 <grid_ain_add_sample>:
    4e40:	4b32      	ldr	r3, [pc, #200]	; (4f0c <grid_ain_add_sample+0xcc>)
    4e42:	e92d 47f0 	stmdb	sp!, {r4, r5, r6, r7, r8, r9, sl, lr}
    4e46:	f8d3 8000 	ldr.w	r8, [r3]
    4e4a:	ea4f 1c00 	mov.w	ip, r0, lsl #4
    4e4e:	eb08 020c 	add.w	r2, r8, ip
    4e52:	2400      	movs	r4, #0
    4e54:	7915      	ldrb	r5, [r2, #4]
    4e56:	4620      	mov	r0, r4
    4e58:	4626      	mov	r6, r4
    4e5a:	46a2      	mov	sl, r4
    4e5c:	f64f 79ff 	movw	r9, #65535	; 0xffff
    4e60:	4623      	mov	r3, r4
    4e62:	fa5f fe84 	uxtb.w	lr, r4
    4e66:	45ae      	cmp	lr, r5
    4e68:	d33f      	bcc.n	4eea <grid_ain_add_sample+0xaa>
    4e6a:	fbb3 f5f5 	udiv	r5, r3, r5
    4e6e:	b2ad      	uxth	r5, r5
    4e70:	428d      	cmp	r5, r1
    4e72:	bf38      	it	cc
    4e74:	b230      	sxthcc	r0, r6
    4e76:	f858 400c 	ldr.w	r4, [r8, ip]
    4e7a:	bf28      	it	cs
    4e7c:	b200      	sxthcs	r0, r0
    4e7e:	440b      	add	r3, r1
    4e80:	f834 5010 	ldrh.w	r5, [r4, r0, lsl #1]
    4e84:	f824 1010 	strh.w	r1, [r4, r0, lsl #1]
    4e88:	7990      	ldrb	r0, [r2, #6]
    4e8a:	7954      	ldrb	r4, [r2, #5]
    4e8c:	7911      	ldrb	r1, [r2, #4]
    4e8e:	8957      	ldrh	r7, [r2, #10]
    4e90:	f8b2 c008 	ldrh.w	ip, [r2, #8]
    4e94:	1b5b      	subs	r3, r3, r5
    4e96:	f1c0 0510 	rsb	r5, r0, #16
    4e9a:	fbb3 f3f1 	udiv	r3, r3, r1
    4e9e:	b2ed      	uxtb	r5, r5
    4ea0:	b29e      	uxth	r6, r3
    4ea2:	fa46 f105 	asr.w	r1, r6, r5
    4ea6:	1a20      	subs	r0, r4, r0
    4ea8:	b2c0      	uxtb	r0, r0
    4eaa:	b289      	uxth	r1, r1
    4eac:	1bbf      	subs	r7, r7, r6
    4eae:	4081      	lsls	r1, r0
    4eb0:	2f00      	cmp	r7, #0
    4eb2:	fa1f fe81 	uxth.w	lr, r1
    4eb6:	bfb8      	it	lt
    4eb8:	427f      	neglt	r7, r7
    4eba:	2601      	movs	r6, #1
    4ebc:	45f4      	cmp	ip, lr
    4ebe:	fa06 f505 	lsl.w	r5, r6, r5
    4ec2:	d020      	beq.n	4f06 <grid_ain_add_sample+0xc6>
    4ec4:	42af      	cmp	r7, r5
    4ec6:	dc09      	bgt.n	4edc <grid_ain_add_sample+0x9c>
    4ec8:	fa06 f404 	lsl.w	r4, r6, r4
    4ecc:	fa06 f000 	lsl.w	r0, r6, r0
    4ed0:	1a24      	subs	r4, r4, r0
    4ed2:	45a6      	cmp	lr, r4
    4ed4:	d002      	beq.n	4edc <grid_ain_add_sample+0x9c>
    4ed6:	f1be 0f00 	cmp.w	lr, #0
    4eda:	d114      	bne.n	4f06 <grid_ain_add_sample+0xc6>
    4edc:	2001      	movs	r0, #1
    4ede:	8153      	strh	r3, [r2, #10]
    4ee0:	f8a2 e008 	strh.w	lr, [r2, #8]
    4ee4:	8190      	strh	r0, [r2, #12]
    4ee6:	e8bd 87f0 	ldmia.w	sp!, {r4, r5, r6, r7, r8, r9, sl, pc}
    4eea:	6817      	ldr	r7, [r2, #0]
    4eec:	f837 7014 	ldrh.w	r7, [r7, r4, lsl #1]
    4ef0:	45ba      	cmp	sl, r7
    4ef2:	bf3c      	itt	cc
    4ef4:	4670      	movcc	r0, lr
    4ef6:	46ba      	movcc	sl, r7
    4ef8:	45b9      	cmp	r9, r7
    4efa:	443b      	add	r3, r7
    4efc:	bf84      	itt	hi
    4efe:	4676      	movhi	r6, lr
    4f00:	46b9      	movhi	r9, r7
    4f02:	3401      	adds	r4, #1
    4f04:	e7ad      	b.n	4e62 <grid_ain_add_sample+0x22>
    4f06:	2000      	movs	r0, #0
    4f08:	e8bd 87f0 	ldmia.w	sp!, {r4, r5, r6, r7, r8, r9, sl, pc}
    4f0c:	20001758 	.word	0x20001758

00004f10 <grid_ain_get_changed>:
    4f10:	4b02      	ldr	r3, [pc, #8]	; (4f1c <grid_ain_get_changed+0xc>)
    4f12:	681b      	ldr	r3, [r3, #0]
    4f14:	eb03 1000 	add.w	r0, r3, r0, lsl #4
    4f18:	7b00      	ldrb	r0, [r0, #12]
    4f1a:	4770      	bx	lr
    4f1c:	20001758 	.word	0x20001758

00004f20 <grid_ain_get_average>:
    4f20:	4b08      	ldr	r3, [pc, #32]	; (4f44 <grid_ain_get_average+0x24>)
    4f22:	681a      	ldr	r2, [r3, #0]
    4f24:	1fcb      	subs	r3, r1, #7
    4f26:	eb02 1200 	add.w	r2, r2, r0, lsl #4
    4f2a:	2b07      	cmp	r3, #7
    4f2c:	f04f 0000 	mov.w	r0, #0
    4f30:	8190      	strh	r0, [r2, #12]
    4f32:	bf9f      	itttt	ls
    4f34:	7950      	ldrbls	r0, [r2, #5]
    4f36:	8913      	ldrhls	r3, [r2, #8]
    4f38:	1a40      	subls	r0, r0, r1
    4f3a:	fa43 f000 	asrls.w	r0, r3, r0
    4f3e:	b280      	uxth	r0, r0
    4f40:	4770      	bx	lr
    4f42:	bf00      	nop
    4f44:	20001758 	.word	0x20001758

00004f48 <grid_buffer_init>:
    4f48:	b538      	push	{r3, r4, r5, lr}
    4f4a:	2400      	movs	r4, #0
    4f4c:	4605      	mov	r5, r0
    4f4e:	8001      	strh	r1, [r0, #0]
    4f50:	81c4      	strh	r4, [r0, #14]
    4f52:	8104      	strh	r4, [r0, #8]
    4f54:	8144      	strh	r4, [r0, #10]
    4f56:	8184      	strh	r4, [r0, #12]
    4f58:	8204      	strh	r4, [r0, #16]
    4f5a:	8244      	strh	r4, [r0, #18]
    4f5c:	8284      	strh	r4, [r0, #20]
    4f5e:	4b0a      	ldr	r3, [pc, #40]	; (4f88 <grid_buffer_init+0x40>)
    4f60:	4608      	mov	r0, r1
    4f62:	4798      	blx	r3
    4f64:	6068      	str	r0, [r5, #4]
    4f66:	b900      	cbnz	r0, 4f6a <grid_buffer_init+0x22>
    4f68:	e7fe      	b.n	4f68 <grid_buffer_init+0x20>
    4f6a:	4620      	mov	r0, r4
    4f6c:	882a      	ldrh	r2, [r5, #0]
    4f6e:	b2a3      	uxth	r3, r4
    4f70:	429a      	cmp	r2, r3
    4f72:	f104 0101 	add.w	r1, r4, #1
    4f76:	d801      	bhi.n	4f7c <grid_buffer_init+0x34>
    4f78:	2001      	movs	r0, #1
    4f7a:	bd38      	pop	{r3, r4, r5, pc}
    4f7c:	b2a4      	uxth	r4, r4
    4f7e:	686b      	ldr	r3, [r5, #4]
    4f80:	5518      	strb	r0, [r3, r4]
    4f82:	460c      	mov	r4, r1
    4f84:	e7f2      	b.n	4f6c <grid_buffer_init+0x24>
    4f86:	bf00      	nop
    4f88:	0000d265 	.word	0x0000d265

00004f8c <grid_buffer_write_size>:
    4f8c:	8903      	ldrh	r3, [r0, #8]
    4f8e:	8a02      	ldrh	r2, [r0, #16]
    4f90:	4293      	cmp	r3, r2
    4f92:	bf9b      	ittet	ls
    4f94:	8800      	ldrhls	r0, [r0, #0]
    4f96:	18c0      	addls	r0, r0, r3
    4f98:	1a98      	subhi	r0, r3, r2
    4f9a:	1a80      	subls	r0, r0, r2
    4f9c:	b280      	uxth	r0, r0
    4f9e:	4770      	bx	lr

00004fa0 <grid_buffer_write_init>:
    4fa0:	8a02      	ldrh	r2, [r0, #16]
    4fa2:	8903      	ldrh	r3, [r0, #8]
    4fa4:	4293      	cmp	r3, r2
    4fa6:	b510      	push	{r4, lr}
    4fa8:	bf9c      	itt	ls
    4faa:	8804      	ldrhls	r4, [r0, #0]
    4fac:	191b      	addls	r3, r3, r4
    4fae:	1a9b      	subs	r3, r3, r2
    4fb0:	b29b      	uxth	r3, r3
    4fb2:	428b      	cmp	r3, r1
    4fb4:	bf85      	ittet	hi
    4fb6:	8804      	ldrhhi	r4, [r0, #0]
    4fb8:	1852      	addhi	r2, r2, r1
    4fba:	2100      	movls	r1, #0
    4fbc:	fb92 f3f4 	sdivhi	r3, r2, r4
    4fc0:	bf84      	itt	hi
    4fc2:	fb04 2213 	mlshi	r2, r4, r3, r2
    4fc6:	8242      	strhhi	r2, [r0, #18]
    4fc8:	4608      	mov	r0, r1
    4fca:	bd10      	pop	{r4, pc}

00004fcc <grid_buffer_write_character>:
    4fcc:	8a83      	ldrh	r3, [r0, #20]
    4fce:	6842      	ldr	r2, [r0, #4]
    4fd0:	54d1      	strb	r1, [r2, r3]
    4fd2:	8a83      	ldrh	r3, [r0, #20]
    4fd4:	8801      	ldrh	r1, [r0, #0]
    4fd6:	3301      	adds	r3, #1
    4fd8:	b29b      	uxth	r3, r3
    4fda:	fbb3 f2f1 	udiv	r2, r3, r1
    4fde:	fb01 3312 	mls	r3, r1, r2, r3
    4fe2:	8283      	strh	r3, [r0, #20]
    4fe4:	2001      	movs	r0, #1
    4fe6:	4770      	bx	lr

00004fe8 <grid_buffer_write_acknowledge>:
    4fe8:	8a82      	ldrh	r2, [r0, #20]
    4fea:	8a43      	ldrh	r3, [r0, #18]
    4fec:	4293      	cmp	r3, r2
    4fee:	d000      	beq.n	4ff2 <grid_buffer_write_acknowledge+0xa>
    4ff0:	e7fe      	b.n	4ff0 <grid_buffer_write_acknowledge+0x8>
    4ff2:	8203      	strh	r3, [r0, #16]
    4ff4:	2001      	movs	r0, #1
    4ff6:	4770      	bx	lr

00004ff8 <grid_buffer_read_size>:
    4ff8:	b5f0      	push	{r4, r5, r6, r7, lr}
    4ffa:	8943      	ldrh	r3, [r0, #10]
    4ffc:	8985      	ldrh	r5, [r0, #12]
    4ffe:	42ab      	cmp	r3, r5
    5000:	d000      	beq.n	5004 <grid_buffer_read_size+0xc>
    5002:	e7fe      	b.n	5002 <grid_buffer_read_size+0xa>
    5004:	8902      	ldrh	r2, [r0, #8]
    5006:	429a      	cmp	r2, r3
    5008:	d000      	beq.n	500c <grid_buffer_read_size+0x14>
    500a:	e7fe      	b.n	500a <grid_buffer_read_size+0x12>
    500c:	8a06      	ldrh	r6, [r0, #16]
    500e:	42b5      	cmp	r5, r6
    5010:	d016      	beq.n	5040 <grid_buffer_read_size+0x48>
    5012:	8804      	ldrh	r4, [r0, #0]
    5014:	2200      	movs	r2, #0
    5016:	b293      	uxth	r3, r2
    5018:	42a3      	cmp	r3, r4
    501a:	d300      	bcc.n	501e <grid_buffer_read_size+0x26>
    501c:	e7fe      	b.n	501c <grid_buffer_read_size+0x24>
    501e:	18af      	adds	r7, r5, r2
    5020:	fb97 f1f4 	sdiv	r1, r7, r4
    5024:	fb04 7111 	mls	r1, r4, r1, r7
    5028:	b28f      	uxth	r7, r1
    502a:	42be      	cmp	r6, r7
    502c:	d008      	beq.n	5040 <grid_buffer_read_size+0x48>
    502e:	6847      	ldr	r7, [r0, #4]
    5030:	5c79      	ldrb	r1, [r7, r1]
    5032:	290a      	cmp	r1, #10
    5034:	f102 0201 	add.w	r2, r2, #1
    5038:	d1ed      	bne.n	5016 <grid_buffer_read_size+0x1e>
    503a:	1c58      	adds	r0, r3, #1
    503c:	b280      	uxth	r0, r0
    503e:	bdf0      	pop	{r4, r5, r6, r7, pc}
    5040:	2000      	movs	r0, #0
    5042:	bdf0      	pop	{r4, r5, r6, r7, pc}

00005044 <grid_buffer_read_init>:
    5044:	b5f0      	push	{r4, r5, r6, r7, lr}
    5046:	8943      	ldrh	r3, [r0, #10]
    5048:	8985      	ldrh	r5, [r0, #12]
    504a:	42ab      	cmp	r3, r5
    504c:	d000      	beq.n	5050 <grid_buffer_read_init+0xc>
    504e:	e7fe      	b.n	504e <grid_buffer_read_init+0xa>
    5050:	8902      	ldrh	r2, [r0, #8]
    5052:	429a      	cmp	r2, r3
    5054:	d000      	beq.n	5058 <grid_buffer_read_init+0x14>
    5056:	e7fe      	b.n	5056 <grid_buffer_read_init+0x12>
    5058:	8a06      	ldrh	r6, [r0, #16]
    505a:	42b5      	cmp	r5, r6
    505c:	d01e      	beq.n	509c <grid_buffer_read_init+0x58>
    505e:	8801      	ldrh	r1, [r0, #0]
    5060:	2400      	movs	r4, #0
    5062:	b2a2      	uxth	r2, r4
    5064:	428a      	cmp	r2, r1
    5066:	d300      	bcc.n	506a <grid_buffer_read_init+0x26>
    5068:	e7fe      	b.n	5068 <grid_buffer_read_init+0x24>
    506a:	192f      	adds	r7, r5, r4
    506c:	fb97 f3f1 	sdiv	r3, r7, r1
    5070:	fb01 7313 	mls	r3, r1, r3, r7
    5074:	b29f      	uxth	r7, r3
    5076:	42be      	cmp	r6, r7
    5078:	d010      	beq.n	509c <grid_buffer_read_init+0x58>
    507a:	6847      	ldr	r7, [r0, #4]
    507c:	5cff      	ldrb	r7, [r7, r3]
    507e:	2f0a      	cmp	r7, #10
    5080:	f104 0401 	add.w	r4, r4, #1
    5084:	d1ed      	bne.n	5062 <grid_buffer_read_init+0x1e>
    5086:	3301      	adds	r3, #1
    5088:	fb93 f4f1 	sdiv	r4, r3, r1
    508c:	fb01 3314 	mls	r3, r1, r4, r3
    5090:	8143      	strh	r3, [r0, #10]
    5092:	1c53      	adds	r3, r2, #1
    5094:	b29b      	uxth	r3, r3
    5096:	81c3      	strh	r3, [r0, #14]
    5098:	4618      	mov	r0, r3
    509a:	bdf0      	pop	{r4, r5, r6, r7, pc}
    509c:	2300      	movs	r3, #0
    509e:	e7fb      	b.n	5098 <grid_buffer_read_init+0x54>

000050a0 <grid_buffer_read_character>:
    50a0:	8983      	ldrh	r3, [r0, #12]
    50a2:	8941      	ldrh	r1, [r0, #10]
    50a4:	4299      	cmp	r1, r3
    50a6:	b510      	push	{r4, lr}
    50a8:	4602      	mov	r2, r0
    50aa:	d100      	bne.n	50ae <grid_buffer_read_character+0xe>
    50ac:	e7fe      	b.n	50ac <grid_buffer_read_character+0xc>
    50ae:	6841      	ldr	r1, [r0, #4]
    50b0:	8814      	ldrh	r4, [r2, #0]
    50b2:	5cc8      	ldrb	r0, [r1, r3]
    50b4:	3301      	adds	r3, #1
    50b6:	b29b      	uxth	r3, r3
    50b8:	fbb3 f1f4 	udiv	r1, r3, r4
    50bc:	fb04 3311 	mls	r3, r4, r1, r3
    50c0:	8193      	strh	r3, [r2, #12]
    50c2:	bd10      	pop	{r4, pc}

000050c4 <grid_buffer_read_acknowledge>:
    50c4:	8982      	ldrh	r2, [r0, #12]
    50c6:	8943      	ldrh	r3, [r0, #10]
    50c8:	4293      	cmp	r3, r2
    50ca:	d000      	beq.n	50ce <grid_buffer_read_acknowledge+0xa>
    50cc:	e7fe      	b.n	50cc <grid_buffer_read_acknowledge+0x8>
    50ce:	8103      	strh	r3, [r0, #8]
    50d0:	2001      	movs	r0, #1
    50d2:	4770      	bx	lr

000050d4 <grid_port_init>:
    50d4:	e92d 41f0 	stmdb	sp!, {r4, r5, r6, r7, r8, lr}
    50d8:	4604      	mov	r4, r0
    50da:	4690      	mov	r8, r2
    50dc:	4e2c      	ldr	r6, [pc, #176]	; (5190 <grid_port_init+0xbc>)
    50de:	f89d 5018 	ldrb.w	r5, [sp, #24]
    50e2:	f500 609b 	add.w	r0, r0, #1240	; 0x4d8
    50e6:	461f      	mov	r7, r3
    50e8:	47b0      	blx	r6
    50ea:	4641      	mov	r1, r8
    50ec:	f504 609e 	add.w	r0, r4, #1264	; 0x4f0
    50f0:	47b0      	blx	r6
    50f2:	2200      	movs	r2, #0
    50f4:	f89d 3020 	ldrb.w	r3, [sp, #32]
    50f8:	7022      	strb	r2, [r4, #0]
    50fa:	72a3      	strb	r3, [r4, #10]
    50fc:	f89d 301c 	ldrb.w	r3, [sp, #28]
    5100:	7263      	strb	r3, [r4, #9]
    5102:	4611      	mov	r1, r2
    5104:	6067      	str	r7, [r4, #4]
    5106:	4613      	mov	r3, r2
    5108:	7225      	strb	r5, [r4, #8]
    510a:	81a2      	strh	r2, [r4, #12]
    510c:	61e2      	str	r2, [r4, #28]
    510e:	18e2      	adds	r2, r4, r3
    5110:	3301      	adds	r3, #1
    5112:	f5b3 7f16 	cmp.w	r3, #600	; 0x258
    5116:	f882 1028 	strb.w	r1, [r2, #40]	; 0x28
    511a:	d1f8      	bne.n	510e <grid_port_init+0x3a>
    511c:	2200      	movs	r2, #0
    511e:	4613      	mov	r3, r2
    5120:	18a1      	adds	r1, r4, r2
    5122:	3201      	adds	r2, #1
    5124:	f5b2 7f16 	cmp.w	r2, #600	; 0x258
    5128:	f881 3280 	strb.w	r3, [r1, #640]	; 0x280
    512c:	d1f8      	bne.n	5120 <grid_port_init+0x4c>
    512e:	2201      	movs	r2, #1
    5130:	4295      	cmp	r5, r2
    5132:	f884 350c 	strb.w	r3, [r4, #1292]	; 0x50c
    5136:	f8c4 3508 	str.w	r3, [r4, #1288]	; 0x508
    513a:	f884 250f 	strb.w	r2, [r4, #1295]	; 0x50f
    513e:	d123      	bne.n	5188 <grid_port_init+0xb4>
    5140:	f884 350f 	strb.w	r3, [r4, #1295]	; 0x50f
    5144:	f884 350c 	strb.w	r3, [r4, #1292]	; 0x50c
    5148:	7a62      	ldrb	r2, [r4, #9]
    514a:	2a11      	cmp	r2, #17
    514c:	d105      	bne.n	515a <grid_port_init+0x86>
    514e:	f884 350d 	strb.w	r3, [r4, #1293]	; 0x50d
    5152:	f884 550e 	strb.w	r5, [r4, #1294]	; 0x50e
    5156:	e8bd 81f0 	ldmia.w	sp!, {r4, r5, r6, r7, r8, pc}
    515a:	7a62      	ldrb	r2, [r4, #9]
    515c:	2a12      	cmp	r2, #18
    515e:	d105      	bne.n	516c <grid_port_init+0x98>
    5160:	f884 550d 	strb.w	r5, [r4, #1293]	; 0x50d
    5164:	f884 350e 	strb.w	r3, [r4, #1294]	; 0x50e
    5168:	e8bd 81f0 	ldmia.w	sp!, {r4, r5, r6, r7, r8, pc}
    516c:	7a62      	ldrb	r2, [r4, #9]
    516e:	2a13      	cmp	r2, #19
    5170:	d103      	bne.n	517a <grid_port_init+0xa6>
    5172:	f884 350d 	strb.w	r3, [r4, #1293]	; 0x50d
    5176:	23ff      	movs	r3, #255	; 0xff
    5178:	e7f4      	b.n	5164 <grid_port_init+0x90>
    517a:	7a62      	ldrb	r2, [r4, #9]
    517c:	2a14      	cmp	r2, #20
    517e:	d105      	bne.n	518c <grid_port_init+0xb8>
    5180:	22ff      	movs	r2, #255	; 0xff
    5182:	f884 250d 	strb.w	r2, [r4, #1293]	; 0x50d
    5186:	e7ed      	b.n	5164 <grid_port_init+0x90>
    5188:	f884 250f 	strb.w	r2, [r4, #1295]	; 0x50f
    518c:	e8bd 81f0 	ldmia.w	sp!, {r4, r5, r6, r7, r8, pc}
    5190:	00004f49 	.word	0x00004f49

00005194 <grid_port_init_all>:
    5194:	e92d 47ff 	stmdb	sp!, {r0, r1, r2, r3, r4, r5, r6, r7, r8, r9, sl, lr}
    5198:	2401      	movs	r4, #1
    519a:	2600      	movs	r6, #0
    519c:	f44f 727a 	mov.w	r2, #1000	; 0x3e8
    51a0:	2311      	movs	r3, #17
    51a2:	4d25      	ldr	r5, [pc, #148]	; (5238 <grid_port_init_all+0xa4>)
    51a4:	9301      	str	r3, [sp, #4]
    51a6:	4611      	mov	r1, r2
    51a8:	9602      	str	r6, [sp, #8]
    51aa:	9400      	str	r4, [sp, #0]
    51ac:	4b23      	ldr	r3, [pc, #140]	; (523c <grid_port_init_all+0xa8>)
    51ae:	4824      	ldr	r0, [pc, #144]	; (5240 <grid_port_init_all+0xac>)
    51b0:	f8df 80ac 	ldr.w	r8, [pc, #172]	; 5260 <grid_port_init_all+0xcc>
    51b4:	47a8      	blx	r5
    51b6:	f44f 727a 	mov.w	r2, #1000	; 0x3e8
    51ba:	2312      	movs	r3, #18
    51bc:	9301      	str	r3, [sp, #4]
    51be:	4611      	mov	r1, r2
    51c0:	9402      	str	r4, [sp, #8]
    51c2:	9400      	str	r4, [sp, #0]
    51c4:	4b1f      	ldr	r3, [pc, #124]	; (5244 <grid_port_init_all+0xb0>)
    51c6:	4820      	ldr	r0, [pc, #128]	; (5248 <grid_port_init_all+0xb4>)
    51c8:	47a8      	blx	r5
    51ca:	f04f 0902 	mov.w	r9, #2
    51ce:	f44f 727a 	mov.w	r2, #1000	; 0x3e8
    51d2:	2313      	movs	r3, #19
    51d4:	9301      	str	r3, [sp, #4]
    51d6:	4611      	mov	r1, r2
    51d8:	f8cd 9008 	str.w	r9, [sp, #8]
    51dc:	9400      	str	r4, [sp, #0]
    51de:	4b1b      	ldr	r3, [pc, #108]	; (524c <grid_port_init_all+0xb8>)
    51e0:	481b      	ldr	r0, [pc, #108]	; (5250 <grid_port_init_all+0xbc>)
    51e2:	47a8      	blx	r5
    51e4:	2703      	movs	r7, #3
    51e6:	f44f 727a 	mov.w	r2, #1000	; 0x3e8
    51ea:	2314      	movs	r3, #20
    51ec:	9702      	str	r7, [sp, #8]
    51ee:	9301      	str	r3, [sp, #4]
    51f0:	4611      	mov	r1, r2
    51f2:	9400      	str	r4, [sp, #0]
    51f4:	4b17      	ldr	r3, [pc, #92]	; (5254 <grid_port_init_all+0xc0>)
    51f6:	4818      	ldr	r0, [pc, #96]	; (5258 <grid_port_init_all+0xc4>)
    51f8:	47a8      	blx	r5
    51fa:	f04f 0aff 	mov.w	sl, #255	; 0xff
    51fe:	f44f 727a 	mov.w	r2, #1000	; 0x3e8
    5202:	9700      	str	r7, [sp, #0]
    5204:	4633      	mov	r3, r6
    5206:	4611      	mov	r1, r2
    5208:	4640      	mov	r0, r8
    520a:	4f14      	ldr	r7, [pc, #80]	; (525c <grid_port_init_all+0xc8>)
    520c:	f8cd a008 	str.w	sl, [sp, #8]
    5210:	9601      	str	r6, [sp, #4]
    5212:	47a8      	blx	r5
    5214:	f44f 727a 	mov.w	r2, #1000	; 0x3e8
    5218:	f8cd a008 	str.w	sl, [sp, #8]
    521c:	9601      	str	r6, [sp, #4]
    521e:	f8cd 9000 	str.w	r9, [sp]
    5222:	4633      	mov	r3, r6
    5224:	4611      	mov	r1, r2
    5226:	4638      	mov	r0, r7
    5228:	47a8      	blx	r5
    522a:	f888 450f 	strb.w	r4, [r8, #1295]	; 0x50f
    522e:	f887 450f 	strb.w	r4, [r7, #1295]	; 0x50f
    5232:	b004      	add	sp, #16
    5234:	e8bd 87f0 	ldmia.w	sp!, {r4, r5, r6, r7, r8, r9, sl, pc}
    5238:	000050d5 	.word	0x000050d5
    523c:	2000105c 	.word	0x2000105c
    5240:	20001220 	.word	0x20001220
    5244:	20001008 	.word	0x20001008
    5248:	200031f4 	.word	0x200031f4
    524c:	20001160 	.word	0x20001160
    5250:	200027d0 	.word	0x200027d0
    5254:	20001110 	.word	0x20001110
    5258:	200022ac 	.word	0x200022ac
    525c:	20002ce4 	.word	0x20002ce4
    5260:	2000176c 	.word	0x2000176c

00005264 <grid_port_process_inbound>:
    5264:	e92d 4ff0 	stmdb	sp!, {r4, r5, r6, r7, r8, r9, sl, fp, lr}
    5268:	b091      	sub	sp, #68	; 0x44
    526a:	af02      	add	r7, sp, #8
    526c:	f500 639e 	add.w	r3, r0, #1264	; 0x4f0
    5270:	607b      	str	r3, [r7, #4]
    5272:	4605      	mov	r5, r0
    5274:	4618      	mov	r0, r3
    5276:	4b4c      	ldr	r3, [pc, #304]	; (53a8 <grid_port_process_inbound+0x144>)
    5278:	4798      	blx	r3
    527a:	4606      	mov	r6, r0
    527c:	2800      	cmp	r0, #0
    527e:	d05e      	beq.n	533e <grid_port_process_inbound+0xda>
    5280:	4b4a      	ldr	r3, [pc, #296]	; (53ac <grid_port_process_inbound+0x148>)
    5282:	60bb      	str	r3, [r7, #8]
    5284:	4b4a      	ldr	r3, [pc, #296]	; (53b0 <grid_port_process_inbound+0x14c>)
    5286:	60fb      	str	r3, [r7, #12]
    5288:	4b4a      	ldr	r3, [pc, #296]	; (53b4 <grid_port_process_inbound+0x150>)
    528a:	613b      	str	r3, [r7, #16]
    528c:	4b4a      	ldr	r3, [pc, #296]	; (53b8 <grid_port_process_inbound+0x154>)
    528e:	617b      	str	r3, [r7, #20]
    5290:	4b4a      	ldr	r3, [pc, #296]	; (53bc <grid_port_process_inbound+0x158>)
    5292:	61bb      	str	r3, [r7, #24]
    5294:	4b4a      	ldr	r3, [pc, #296]	; (53c0 <grid_port_process_inbound+0x15c>)
    5296:	61fb      	str	r3, [r7, #28]
    5298:	2300      	movs	r3, #0
    529a:	46e8      	mov	r8, sp
    529c:	461c      	mov	r4, r3
    529e:	f107 0108 	add.w	r1, r7, #8
    52a2:	f851 2023 	ldr.w	r2, [r1, r3, lsl #2]
    52a6:	f892 050f 	ldrb.w	r0, [r2, #1295]	; 0x50f
    52aa:	b138      	cbz	r0, 52bc <grid_port_process_inbound+0x58>
    52ac:	f107 0038 	add.w	r0, r7, #56	; 0x38
    52b0:	eb00 0084 	add.w	r0, r0, r4, lsl #2
    52b4:	3401      	adds	r4, #1
    52b6:	f840 2c18 	str.w	r2, [r0, #-24]
    52ba:	b2e4      	uxtb	r4, r4
    52bc:	3301      	adds	r3, #1
    52be:	2b06      	cmp	r3, #6
    52c0:	d1ef      	bne.n	52a2 <grid_port_process_inbound+0x3e>
    52c2:	f8df a11c 	ldr.w	sl, [pc, #284]	; 53e0 <grid_port_process_inbound+0x17c>
    52c6:	2100      	movs	r1, #0
    52c8:	f107 0920 	add.w	r9, r7, #32
    52cc:	b2cb      	uxtb	r3, r1
    52ce:	429c      	cmp	r4, r3
    52d0:	d821      	bhi.n	5316 <grid_port_process_inbound+0xb2>
    52d2:	6878      	ldr	r0, [r7, #4]
    52d4:	4b3b      	ldr	r3, [pc, #236]	; (53c4 <grid_port_process_inbound+0x160>)
    52d6:	4798      	blx	r3
    52d8:	4286      	cmp	r6, r0
    52da:	d134      	bne.n	5346 <grid_port_process_inbound+0xe2>
    52dc:	f8df a104 	ldr.w	sl, [pc, #260]	; 53e4 <grid_port_process_inbound+0x180>
    52e0:	f04f 0800 	mov.w	r8, #0
    52e4:	f107 0920 	add.w	r9, r7, #32
    52e8:	fa5f f388 	uxtb.w	r3, r8
    52ec:	429c      	cmp	r4, r3
    52ee:	d82b      	bhi.n	5348 <grid_port_process_inbound+0xe4>
    52f0:	f04f 0900 	mov.w	r9, #0
    52f4:	fa1f f389 	uxth.w	r3, r9
    52f8:	429e      	cmp	r6, r3
    52fa:	6878      	ldr	r0, [r7, #4]
    52fc:	d82f      	bhi.n	535e <grid_port_process_inbound+0xfa>
    52fe:	4b32      	ldr	r3, [pc, #200]	; (53c8 <grid_port_process_inbound+0x164>)
    5300:	4798      	blx	r3
    5302:	f107 0620 	add.w	r6, r7, #32
    5306:	2100      	movs	r1, #0
    5308:	b2cb      	uxtb	r3, r1
    530a:	429c      	cmp	r4, r3
    530c:	d841      	bhi.n	5392 <grid_port_process_inbound+0x12e>
    530e:	373c      	adds	r7, #60	; 0x3c
    5310:	46bd      	mov	sp, r7
    5312:	e8bd 8ff0 	ldmia.w	sp!, {r4, r5, r6, r7, r8, r9, sl, fp, pc}
    5316:	f859 0021 	ldr.w	r0, [r9, r1, lsl #2]
    531a:	4285      	cmp	r5, r0
    531c:	d011      	beq.n	5342 <grid_port_process_inbound+0xde>
    531e:	f500 609b 	add.w	r0, r0, #1240	; 0x4d8
    5322:	47d0      	blx	sl
    5324:	4286      	cmp	r6, r0
    5326:	d90c      	bls.n	5342 <grid_port_process_inbound+0xde>
    5328:	2202      	movs	r2, #2
    532a:	23c8      	movs	r3, #200	; 0xc8
    532c:	e88d 000c 	stmia.w	sp, {r2, r3}
    5330:	2264      	movs	r2, #100	; 0x64
    5332:	2300      	movs	r3, #0
    5334:	4611      	mov	r1, r2
    5336:	4825      	ldr	r0, [pc, #148]	; (53cc <grid_port_process_inbound+0x168>)
    5338:	4c25      	ldr	r4, [pc, #148]	; (53d0 <grid_port_process_inbound+0x16c>)
    533a:	47a0      	blx	r4
    533c:	46c5      	mov	sp, r8
    533e:	2000      	movs	r0, #0
    5340:	e7e5      	b.n	530e <grid_port_process_inbound+0xaa>
    5342:	3101      	adds	r1, #1
    5344:	e7c2      	b.n	52cc <grid_port_process_inbound+0x68>
    5346:	e7fe      	b.n	5346 <grid_port_process_inbound+0xe2>
    5348:	f859 0028 	ldr.w	r0, [r9, r8, lsl #2]
    534c:	4285      	cmp	r5, r0
    534e:	d003      	beq.n	5358 <grid_port_process_inbound+0xf4>
    5350:	4631      	mov	r1, r6
    5352:	f500 609b 	add.w	r0, r0, #1240	; 0x4d8
    5356:	47d0      	blx	sl
    5358:	f108 0801 	add.w	r8, r8, #1
    535c:	e7c4      	b.n	52e8 <grid_port_process_inbound+0x84>
    535e:	4b1d      	ldr	r3, [pc, #116]	; (53d4 <grid_port_process_inbound+0x170>)
    5360:	4798      	blx	r3
    5362:	f04f 0800 	mov.w	r8, #0
    5366:	4682      	mov	sl, r0
    5368:	f107 0b20 	add.w	fp, r7, #32
    536c:	fa5f f188 	uxtb.w	r1, r8
    5370:	428c      	cmp	r4, r1
    5372:	d802      	bhi.n	537a <grid_port_process_inbound+0x116>
    5374:	f109 0901 	add.w	r9, r9, #1
    5378:	e7bc      	b.n	52f4 <grid_port_process_inbound+0x90>
    537a:	f85b 0028 	ldr.w	r0, [fp, r8, lsl #2]
    537e:	4285      	cmp	r5, r0
    5380:	d004      	beq.n	538c <grid_port_process_inbound+0x128>
    5382:	4651      	mov	r1, sl
    5384:	f500 609b 	add.w	r0, r0, #1240	; 0x4d8
    5388:	4b13      	ldr	r3, [pc, #76]	; (53d8 <grid_port_process_inbound+0x174>)
    538a:	4798      	blx	r3
    538c:	f108 0801 	add.w	r8, r8, #1
    5390:	e7ec      	b.n	536c <grid_port_process_inbound+0x108>
    5392:	f856 0021 	ldr.w	r0, [r6, r1, lsl #2]
    5396:	4285      	cmp	r5, r0
    5398:	d003      	beq.n	53a2 <grid_port_process_inbound+0x13e>
    539a:	f500 609b 	add.w	r0, r0, #1240	; 0x4d8
    539e:	4b0f      	ldr	r3, [pc, #60]	; (53dc <grid_port_process_inbound+0x178>)
    53a0:	4798      	blx	r3
    53a2:	3101      	adds	r1, #1
    53a4:	e7b0      	b.n	5308 <grid_port_process_inbound+0xa4>
    53a6:	bf00      	nop
    53a8:	00004ff9 	.word	0x00004ff9
    53ac:	20001220 	.word	0x20001220
    53b0:	200031f4 	.word	0x200031f4
    53b4:	200027d0 	.word	0x200027d0
    53b8:	200022ac 	.word	0x200022ac
    53bc:	2000176c 	.word	0x2000176c
    53c0:	20002ce4 	.word	0x20002ce4
    53c4:	00005045 	.word	0x00005045
    53c8:	000050c5 	.word	0x000050c5
    53cc:	20001c88 	.word	0x20001c88
    53d0:	00007137 	.word	0x00007137
    53d4:	000050a1 	.word	0x000050a1
    53d8:	00004fcd 	.word	0x00004fcd
    53dc:	00004fe9 	.word	0x00004fe9
    53e0:	00004f8d 	.word	0x00004f8d
    53e4:	00004fa1 	.word	0x00004fa1

000053e8 <grid_port_process_outbound_usb>:
    53e8:	e92d 4ff0 	stmdb	sp!, {r4, r5, r6, r7, r8, r9, sl, fp, lr}
    53ec:	b097      	sub	sp, #92	; 0x5c
    53ee:	af06      	add	r7, sp, #24
    53f0:	f500 659b 	add.w	r5, r0, #1240	; 0x4d8
    53f4:	62b8      	str	r0, [r7, #40]	; 0x28
    53f6:	4bac      	ldr	r3, [pc, #688]	; (56a8 <grid_port_process_outbound_usb+0x2c0>)
    53f8:	4628      	mov	r0, r5
    53fa:	4798      	blx	r3
    53fc:	6278      	str	r0, [r7, #36]	; 0x24
    53fe:	b918      	cbnz	r0, 5408 <grid_port_process_outbound_usb+0x20>
    5400:	3744      	adds	r7, #68	; 0x44
    5402:	46bd      	mov	sp, r7
    5404:	e8bd 8ff0 	ldmia.w	sp!, {r4, r5, r6, r7, r8, r9, sl, fp, pc}
    5408:	4ba8      	ldr	r3, [pc, #672]	; (56ac <grid_port_process_outbound_usb+0x2c4>)
    540a:	f8df 82e8 	ldr.w	r8, [pc, #744]	; 56f4 <grid_port_process_outbound_usb+0x30c>
    540e:	f8df 92a8 	ldr.w	r9, [pc, #680]	; 56b8 <grid_port_process_outbound_usb+0x2d0>
    5412:	4628      	mov	r0, r5
    5414:	4798      	blx	r3
    5416:	2300      	movs	r3, #0
    5418:	b2dc      	uxtb	r4, r3
    541a:	1c5e      	adds	r6, r3, #1
    541c:	6a7b      	ldr	r3, [r7, #36]	; 0x24
    541e:	429c      	cmp	r4, r3
    5420:	4628      	mov	r0, r5
    5422:	d333      	bcc.n	548c <grid_port_process_outbound_usb+0xa4>
    5424:	4ba2      	ldr	r3, [pc, #648]	; (56b0 <grid_port_process_outbound_usb+0x2c8>)
    5426:	f8df 9290 	ldr.w	r9, [pc, #656]	; 56b8 <grid_port_process_outbound_usb+0x2d0>
    542a:	f8df a2cc 	ldr.w	sl, [pc, #716]	; 56f8 <grid_port_process_outbound_usb+0x310>
    542e:	4798      	blx	r3
    5430:	4ba0      	ldr	r3, [pc, #640]	; (56b4 <grid_port_process_outbound_usb+0x2cc>)
    5432:	48a1      	ldr	r0, [pc, #644]	; (56b8 <grid_port_process_outbound_usb+0x2d0>)
    5434:	4798      	blx	r3
    5436:	4ba1      	ldr	r3, [pc, #644]	; (56bc <grid_port_process_outbound_usb+0x2d4>)
    5438:	61f8      	str	r0, [r7, #28]
    543a:	489f      	ldr	r0, [pc, #636]	; (56b8 <grid_port_process_outbound_usb+0x2d0>)
    543c:	4798      	blx	r3
    543e:	387f      	subs	r0, #127	; 0x7f
    5440:	b243      	sxtb	r3, r0
    5442:	62fb      	str	r3, [r7, #44]	; 0x2c
    5444:	489c      	ldr	r0, [pc, #624]	; (56b8 <grid_port_process_outbound_usb+0x2d0>)
    5446:	4b9e      	ldr	r3, [pc, #632]	; (56c0 <grid_port_process_outbound_usb+0x2d8>)
    5448:	4798      	blx	r3
    544a:	387f      	subs	r0, #127	; 0x7f
    544c:	b243      	sxtb	r3, r0
    544e:	633b      	str	r3, [r7, #48]	; 0x30
    5450:	4899      	ldr	r0, [pc, #612]	; (56b8 <grid_port_process_outbound_usb+0x2d0>)
    5452:	4b9c      	ldr	r3, [pc, #624]	; (56c4 <grid_port_process_outbound_usb+0x2dc>)
    5454:	4798      	blx	r3
    5456:	2300      	movs	r3, #0
    5458:	61b8      	str	r0, [r7, #24]
    545a:	f887 303f 	strb.w	r3, [r7, #63]	; 0x3f
    545e:	637b      	str	r3, [r7, #52]	; 0x34
    5460:	469b      	mov	fp, r3
    5462:	461e      	mov	r6, r3
    5464:	6b7b      	ldr	r3, [r7, #52]	; 0x34
    5466:	f819 3003 	ldrb.w	r3, [r9, r3]
    546a:	2b02      	cmp	r3, #2
    546c:	d113      	bne.n	5496 <grid_port_process_outbound_usb+0xae>
    546e:	f897 6034 	ldrb.w	r6, [r7, #52]	; 0x34
    5472:	6b7b      	ldr	r3, [r7, #52]	; 0x34
    5474:	6a7a      	ldr	r2, [r7, #36]	; 0x24
    5476:	3301      	adds	r3, #1
    5478:	637b      	str	r3, [r7, #52]	; 0x34
    547a:	8ebb      	ldrh	r3, [r7, #52]	; 0x34
    547c:	429a      	cmp	r2, r3
    547e:	d8f1      	bhi.n	5464 <grid_port_process_outbound_usb+0x7c>
    5480:	6ab8      	ldr	r0, [r7, #40]	; 0x28
    5482:	4b91      	ldr	r3, [pc, #580]	; (56c8 <grid_port_process_outbound_usb+0x2e0>)
    5484:	4659      	mov	r1, fp
    5486:	3028      	adds	r0, #40	; 0x28
    5488:	4798      	blx	r3
    548a:	e7b9      	b.n	5400 <grid_port_process_outbound_usb+0x18>
    548c:	47c0      	blx	r8
    548e:	4633      	mov	r3, r6
    5490:	f809 0004 	strb.w	r0, [r9, r4]
    5494:	e7c0      	b.n	5418 <grid_port_process_outbound_usb+0x30>
    5496:	6b7b      	ldr	r3, [r7, #52]	; 0x34
    5498:	f819 3003 	ldrb.w	r3, [r9, r3]
    549c:	2b03      	cmp	r3, #3
    549e:	d1e8      	bne.n	5472 <grid_port_process_outbound_usb+0x8a>
    54a0:	2e00      	cmp	r6, #0
    54a2:	d0e6      	beq.n	5472 <grid_port_process_outbound_usb+0x8a>
    54a4:	1c70      	adds	r0, r6, #1
    54a6:	f107 023f 	add.w	r2, r7, #63	; 0x3f
    54aa:	2102      	movs	r1, #2
    54ac:	4448      	add	r0, r9
    54ae:	47d0      	blx	sl
    54b0:	b2c5      	uxtb	r5, r0
    54b2:	2d00      	cmp	r5, #0
    54b4:	d155      	bne.n	5562 <grid_port_process_outbound_usb+0x17a>
    54b6:	1cf0      	adds	r0, r6, #3
    54b8:	f107 023f 	add.w	r2, r7, #63	; 0x3f
    54bc:	2102      	movs	r1, #2
    54be:	4448      	add	r0, r9
    54c0:	47d0      	blx	sl
    54c2:	1d70      	adds	r0, r6, #5
    54c4:	f107 023f 	add.w	r2, r7, #63	; 0x3f
    54c8:	2102      	movs	r1, #2
    54ca:	4448      	add	r0, r9
    54cc:	47d0      	blx	sl
    54ce:	b2c3      	uxtb	r3, r0
    54d0:	1df0      	adds	r0, r6, #7
    54d2:	f107 023f 	add.w	r2, r7, #63	; 0x3f
    54d6:	2102      	movs	r1, #2
    54d8:	4448      	add	r0, r9
    54da:	623b      	str	r3, [r7, #32]
    54dc:	47d0      	blx	sl
    54de:	4604      	mov	r4, r0
    54e0:	f106 0009 	add.w	r0, r6, #9
    54e4:	f107 023f 	add.w	r2, r7, #63	; 0x3f
    54e8:	2102      	movs	r1, #2
    54ea:	4448      	add	r0, r9
    54ec:	47d0      	blx	sl
    54ee:	6b3b      	ldr	r3, [r7, #48]	; 0x30
    54f0:	8dba      	ldrh	r2, [r7, #44]	; 0x2c
    54f2:	4976      	ldr	r1, [pc, #472]	; (56cc <grid_port_process_outbound_usb+0x2e4>)
    54f4:	f5c3 7680 	rsb	r6, r3, #256	; 0x100
    54f8:	6abb      	ldr	r3, [r7, #40]	; 0x28
    54fa:	f10b 0828 	add.w	r8, fp, #40	; 0x28
    54fe:	b2e4      	uxtb	r4, r4
    5500:	4498      	add	r8, r3
    5502:	3440      	adds	r4, #64	; 0x40
    5504:	2310      	movs	r3, #16
    5506:	fb13 4402 	smlabb	r4, r3, r2, r4
    550a:	4263      	negs	r3, r4
    550c:	f003 037f 	and.w	r3, r3, #127	; 0x7f
    5510:	f004 047f 	and.w	r4, r4, #127	; 0x7f
    5514:	bf58      	it	pl
    5516:	425c      	negpl	r4, r3
    5518:	b2e3      	uxtb	r3, r4
    551a:	617b      	str	r3, [r7, #20]
    551c:	b2c3      	uxtb	r3, r0
    551e:	613b      	str	r3, [r7, #16]
    5520:	9305      	str	r3, [sp, #20]
    5522:	697b      	ldr	r3, [r7, #20]
    5524:	9304      	str	r3, [sp, #16]
    5526:	6a3b      	ldr	r3, [r7, #32]
    5528:	9303      	str	r3, [sp, #12]
    552a:	f006 060f 	and.w	r6, r6, #15
    552e:	9602      	str	r6, [sp, #8]
    5530:	69bb      	ldr	r3, [r7, #24]
    5532:	9301      	str	r3, [sp, #4]
    5534:	6b3b      	ldr	r3, [r7, #48]	; 0x30
    5536:	9300      	str	r3, [sp, #0]
    5538:	69fa      	ldr	r2, [r7, #28]
    553a:	6afb      	ldr	r3, [r7, #44]	; 0x2c
    553c:	4c64      	ldr	r4, [pc, #400]	; (56d0 <grid_port_process_outbound_usb+0x2e8>)
    553e:	4640      	mov	r0, r8
    5540:	47a0      	blx	r4
    5542:	4b64      	ldr	r3, [pc, #400]	; (56d4 <grid_port_process_outbound_usb+0x2ec>)
    5544:	4c64      	ldr	r4, [pc, #400]	; (56d8 <grid_port_process_outbound_usb+0x2f0>)
    5546:	4640      	mov	r0, r8
    5548:	4798      	blx	r3
    554a:	6a39      	ldr	r1, [r7, #32]
    554c:	693b      	ldr	r3, [r7, #16]
    554e:	697a      	ldr	r2, [r7, #20]
    5550:	4483      	add	fp, r0
    5552:	6a38      	ldr	r0, [r7, #32]
    5554:	4331      	orrs	r1, r6
    5556:	0900      	lsrs	r0, r0, #4
    5558:	fa5f fb8b 	uxtb.w	fp, fp
    555c:	47a0      	blx	r4
    555e:	2600      	movs	r6, #0
    5560:	e787      	b.n	5472 <grid_port_process_outbound_usb+0x8a>
    5562:	2d03      	cmp	r5, #3
    5564:	d12d      	bne.n	55c2 <grid_port_process_outbound_usb+0x1da>
    5566:	6afb      	ldr	r3, [r7, #44]	; 0x2c
    5568:	2b00      	cmp	r3, #0
    556a:	d1f8      	bne.n	555e <grid_port_process_outbound_usb+0x176>
    556c:	6b3b      	ldr	r3, [r7, #48]	; 0x30
    556e:	2b00      	cmp	r3, #0
    5570:	d1f5      	bne.n	555e <grid_port_process_outbound_usb+0x176>
    5572:	1cf0      	adds	r0, r6, #3
    5574:	f107 023f 	add.w	r2, r7, #63	; 0x3f
    5578:	2102      	movs	r1, #2
    557a:	4448      	add	r0, r9
    557c:	47d0      	blx	sl
    557e:	4605      	mov	r5, r0
    5580:	1d70      	adds	r0, r6, #5
    5582:	f107 023f 	add.w	r2, r7, #63	; 0x3f
    5586:	2102      	movs	r1, #2
    5588:	4448      	add	r0, r9
    558a:	47d0      	blx	sl
    558c:	4680      	mov	r8, r0
    558e:	1df0      	adds	r0, r6, #7
    5590:	f107 023f 	add.w	r2, r7, #63	; 0x3f
    5594:	2102      	movs	r1, #2
    5596:	4448      	add	r0, r9
    5598:	47d0      	blx	sl
    559a:	4604      	mov	r4, r0
    559c:	f106 0009 	add.w	r0, r6, #9
    55a0:	f107 023f 	add.w	r2, r7, #63	; 0x3f
    55a4:	2102      	movs	r1, #2
    55a6:	4448      	add	r0, r9
    55a8:	fa5f f888 	uxtb.w	r8, r8
    55ac:	47d0      	blx	sl
    55ae:	f1b8 0f63 	cmp.w	r8, #99	; 0x63
    55b2:	d1d4      	bne.n	555e <grid_port_process_outbound_usb+0x176>
    55b4:	b2c3      	uxtb	r3, r0
    55b6:	b2e1      	uxtb	r1, r4
    55b8:	b2ea      	uxtb	r2, r5
    55ba:	4848      	ldr	r0, [pc, #288]	; (56dc <grid_port_process_outbound_usb+0x2f4>)
    55bc:	4c48      	ldr	r4, [pc, #288]	; (56e0 <grid_port_process_outbound_usb+0x2f8>)
    55be:	47a0      	blx	r4
    55c0:	e7cd      	b.n	555e <grid_port_process_outbound_usb+0x176>
    55c2:	2d01      	cmp	r5, #1
    55c4:	f040 809a 	bne.w	56fc <grid_port_process_outbound_usb+0x314>
    55c8:	6b7b      	ldr	r3, [r7, #52]	; 0x34
    55ca:	f8c7 d004 	str.w	sp, [r7, #4]
    55ce:	1b9b      	subs	r3, r3, r6
    55d0:	2206      	movs	r2, #6
    55d2:	3b03      	subs	r3, #3
    55d4:	fb93 f3f2 	sdiv	r3, r3, r2
    55d8:	b2db      	uxtb	r3, r3
    55da:	623b      	str	r3, [r7, #32]
    55dc:	eb03 0343 	add.w	r3, r3, r3, lsl #1
    55e0:	3307      	adds	r3, #7
    55e2:	f023 0307 	bic.w	r3, r3, #7
    55e6:	ebad 0d03 	sub.w	sp, sp, r3
    55ea:	ab06      	add	r3, sp, #24
    55ec:	60fb      	str	r3, [r7, #12]
    55ee:	4698      	mov	r8, r3
    55f0:	6a3b      	ldr	r3, [r7, #32]
    55f2:	3603      	adds	r6, #3
    55f4:	fb02 6203 	mla	r2, r2, r3, r6
    55f8:	eb02 0309 	add.w	r3, r2, r9
    55fc:	eb06 0409 	add.w	r4, r6, r9
    5600:	603b      	str	r3, [r7, #0]
    5602:	683b      	ldr	r3, [r7, #0]
    5604:	429c      	cmp	r4, r3
    5606:	f108 0803 	add.w	r8, r8, #3
    560a:	d109      	bne.n	5620 <grid_port_process_outbound_usb+0x238>
    560c:	4b35      	ldr	r3, [pc, #212]	; (56e4 <grid_port_process_outbound_usb+0x2fc>)
    560e:	6a39      	ldr	r1, [r7, #32]
    5610:	68f8      	ldr	r0, [r7, #12]
    5612:	4798      	blx	r3
    5614:	4b34      	ldr	r3, [pc, #208]	; (56e8 <grid_port_process_outbound_usb+0x300>)
    5616:	b2c0      	uxtb	r0, r0
    5618:	7058      	strb	r0, [r3, #1]
    561a:	f8d7 d004 	ldr.w	sp, [r7, #4]
    561e:	e79e      	b.n	555e <grid_port_process_outbound_usb+0x176>
    5620:	f107 023f 	add.w	r2, r7, #63	; 0x3f
    5624:	2102      	movs	r1, #2
    5626:	4620      	mov	r0, r4
    5628:	47d0      	blx	sl
    562a:	2102      	movs	r1, #2
    562c:	4605      	mov	r5, r0
    562e:	f107 023f 	add.w	r2, r7, #63	; 0x3f
    5632:	1860      	adds	r0, r4, r1
    5634:	47d0      	blx	sl
    5636:	2102      	movs	r1, #2
    5638:	4606      	mov	r6, r0
    563a:	f107 023f 	add.w	r2, r7, #63	; 0x3f
    563e:	1d20      	adds	r0, r4, #4
    5640:	47d0      	blx	sl
    5642:	6aba      	ldr	r2, [r7, #40]	; 0x28
    5644:	6178      	str	r0, [r7, #20]
    5646:	f10b 0328 	add.w	r3, fp, #40	; 0x28
    564a:	18d3      	adds	r3, r2, r3
    564c:	613b      	str	r3, [r7, #16]
    564e:	4b27      	ldr	r3, [pc, #156]	; (56ec <grid_port_process_outbound_usb+0x304>)
    5650:	4798      	blx	r3
    5652:	b2f6      	uxtb	r6, r6
    5654:	b2eb      	uxtb	r3, r5
    5656:	9005      	str	r0, [sp, #20]
    5658:	60bb      	str	r3, [r7, #8]
    565a:	9603      	str	r6, [sp, #12]
    565c:	9304      	str	r3, [sp, #16]
    565e:	7d3b      	ldrb	r3, [r7, #20]
    5660:	9302      	str	r3, [sp, #8]
    5662:	69bb      	ldr	r3, [r7, #24]
    5664:	9301      	str	r3, [sp, #4]
    5666:	6b3b      	ldr	r3, [r7, #48]	; 0x30
    5668:	9300      	str	r3, [sp, #0]
    566a:	69fa      	ldr	r2, [r7, #28]
    566c:	6afb      	ldr	r3, [r7, #44]	; 0x2c
    566e:	4920      	ldr	r1, [pc, #128]	; (56f0 <grid_port_process_outbound_usb+0x308>)
    5670:	4d17      	ldr	r5, [pc, #92]	; (56d0 <grid_port_process_outbound_usb+0x2e8>)
    5672:	6938      	ldr	r0, [r7, #16]
    5674:	47a8      	blx	r5
    5676:	4b17      	ldr	r3, [pc, #92]	; (56d4 <grid_port_process_outbound_usb+0x2ec>)
    5678:	6938      	ldr	r0, [r7, #16]
    567a:	4798      	blx	r3
    567c:	7d3b      	ldrb	r3, [r7, #20]
    567e:	f808 3c03 	strb.w	r3, [r8, #-3]
    5682:	f1a6 0382 	sub.w	r3, r6, #130	; 0x82
    5686:	425e      	negs	r6, r3
    5688:	415e      	adcs	r6, r3
    568a:	68bb      	ldr	r3, [r7, #8]
    568c:	f808 6c02 	strb.w	r6, [r8, #-2]
    5690:	f1a3 0280 	sub.w	r2, r3, #128	; 0x80
    5694:	4255      	negs	r5, r2
    5696:	4483      	add	fp, r0
    5698:	4155      	adcs	r5, r2
    569a:	fa5f fb8b 	uxtb.w	fp, fp
    569e:	f808 5c01 	strb.w	r5, [r8, #-1]
    56a2:	3406      	adds	r4, #6
    56a4:	e7ad      	b.n	5602 <grid_port_process_outbound_usb+0x21a>
    56a6:	bf00      	nop
    56a8:	00004ff9 	.word	0x00004ff9
    56ac:	00005045 	.word	0x00005045
    56b0:	000050c5 	.word	0x000050c5
    56b4:	000072f9 	.word	0x000072f9
    56b8:	20003735 	.word	0x20003735
    56bc:	00007319 	.word	0x00007319
    56c0:	00007339 	.word	0x00007339
    56c4:	00007359 	.word	0x00007359
    56c8:	0000bbed 	.word	0x0000bbed
    56cc:	0000dbf2 	.word	0x0000dbf2
    56d0:	0000d489 	.word	0x0000d489
    56d4:	0000d4e1 	.word	0x0000d4e1
    56d8:	0000c2e1 	.word	0x0000c2e1
    56dc:	20003708 	.word	0x20003708
    56e0:	000058e5 	.word	0x000058e5
    56e4:	0000bdf5 	.word	0x0000bdf5
    56e8:	20003929 	.word	0x20003929
    56ec:	000071e9 	.word	0x000071e9
    56f0:	0000dc38 	.word	0x0000dc38
    56f4:	000050a1 	.word	0x000050a1
    56f8:	00007185 	.word	0x00007185
    56fc:	2d02      	cmp	r5, #2
    56fe:	f43f af2e 	beq.w	555e <grid_port_process_outbound_usb+0x176>
    5702:	6abb      	ldr	r3, [r7, #40]	; 0x28
    5704:	4907      	ldr	r1, [pc, #28]	; (5724 <grid_port_process_outbound_usb+0x33c>)
    5706:	f10b 0428 	add.w	r4, fp, #40	; 0x28
    570a:	441c      	add	r4, r3
    570c:	462a      	mov	r2, r5
    570e:	4b06      	ldr	r3, [pc, #24]	; (5728 <grid_port_process_outbound_usb+0x340>)
    5710:	4620      	mov	r0, r4
    5712:	4798      	blx	r3
    5714:	4620      	mov	r0, r4
    5716:	4b05      	ldr	r3, [pc, #20]	; (572c <grid_port_process_outbound_usb+0x344>)
    5718:	4798      	blx	r3
    571a:	4483      	add	fp, r0
    571c:	fa5f fb8b 	uxtb.w	fp, fp
    5720:	e71d      	b.n	555e <grid_port_process_outbound_usb+0x176>
    5722:	bf00      	nop
    5724:	0000dc7e 	.word	0x0000dc7e
    5728:	0000d489 	.word	0x0000d489
    572c:	0000d4e1 	.word	0x0000d4e1

00005730 <grid_port_process_outbound_ui>:
    5730:	e92d 41f0 	stmdb	sp!, {r4, r5, r6, r7, r8, lr}
    5734:	f500 649b 	add.w	r4, r0, #1240	; 0x4d8
    5738:	4620      	mov	r0, r4
    573a:	4b0b      	ldr	r3, [pc, #44]	; (5768 <grid_port_process_outbound_ui+0x38>)
    573c:	4798      	blx	r3
    573e:	4606      	mov	r6, r0
    5740:	b180      	cbz	r0, 5764 <grid_port_process_outbound_ui+0x34>
    5742:	4620      	mov	r0, r4
    5744:	4b09      	ldr	r3, [pc, #36]	; (576c <grid_port_process_outbound_ui+0x3c>)
    5746:	4f0a      	ldr	r7, [pc, #40]	; (5770 <grid_port_process_outbound_ui+0x40>)
    5748:	4798      	blx	r3
    574a:	2500      	movs	r5, #0
    574c:	b2eb      	uxtb	r3, r5
    574e:	429e      	cmp	r6, r3
    5750:	4620      	mov	r0, r4
    5752:	f105 0501 	add.w	r5, r5, #1
    5756:	d803      	bhi.n	5760 <grid_port_process_outbound_ui+0x30>
    5758:	4b06      	ldr	r3, [pc, #24]	; (5774 <grid_port_process_outbound_ui+0x44>)
    575a:	e8bd 41f0 	ldmia.w	sp!, {r4, r5, r6, r7, r8, lr}
    575e:	4718      	bx	r3
    5760:	47b8      	blx	r7
    5762:	e7f3      	b.n	574c <grid_port_process_outbound_ui+0x1c>
    5764:	e8bd 81f0 	ldmia.w	sp!, {r4, r5, r6, r7, r8, pc}
    5768:	00004ff9 	.word	0x00004ff9
    576c:	00005045 	.word	0x00005045
    5770:	000050a1 	.word	0x000050a1
    5774:	000050c5 	.word	0x000050c5

00005778 <grid_port_process_outbound_usart>:
    5778:	e92d 43f8 	stmdb	sp!, {r3, r4, r5, r6, r7, r8, r9, lr}
    577c:	8984      	ldrh	r4, [r0, #12]
    577e:	4606      	mov	r6, r0
    5780:	b9ec      	cbnz	r4, 57be <grid_port_process_outbound_usart+0x46>
    5782:	f500 679b 	add.w	r7, r0, #1240	; 0x4d8
    5786:	4638      	mov	r0, r7
    5788:	4b11      	ldr	r3, [pc, #68]	; (57d0 <grid_port_process_outbound_usart+0x58>)
    578a:	4798      	blx	r3
    578c:	4605      	mov	r5, r0
    578e:	b908      	cbnz	r0, 5794 <grid_port_process_outbound_usart+0x1c>
    5790:	e8bd 83f8 	ldmia.w	sp!, {r3, r4, r5, r6, r7, r8, r9, pc}
    5794:	4b0f      	ldr	r3, [pc, #60]	; (57d4 <grid_port_process_outbound_usart+0x5c>)
    5796:	f8df 9048 	ldr.w	r9, [pc, #72]	; 57e0 <grid_port_process_outbound_usart+0x68>
    579a:	4638      	mov	r0, r7
    579c:	4798      	blx	r3
    579e:	81b5      	strh	r5, [r6, #12]
    57a0:	4623      	mov	r3, r4
    57a2:	b2dc      	uxtb	r4, r3
    57a4:	42ac      	cmp	r4, r5
    57a6:	f103 0801 	add.w	r8, r3, #1
    57aa:	4638      	mov	r0, r7
    57ac:	d309      	bcc.n	57c2 <grid_port_process_outbound_usart+0x4a>
    57ae:	4b0a      	ldr	r3, [pc, #40]	; (57d8 <grid_port_process_outbound_usart+0x60>)
    57b0:	4798      	blx	r3
    57b2:	89b2      	ldrh	r2, [r6, #12]
    57b4:	6870      	ldr	r0, [r6, #4]
    57b6:	4b09      	ldr	r3, [pc, #36]	; (57dc <grid_port_process_outbound_usart+0x64>)
    57b8:	f106 0128 	add.w	r1, r6, #40	; 0x28
    57bc:	4798      	blx	r3
    57be:	e8bd 83f8 	ldmia.w	sp!, {r3, r4, r5, r6, r7, r8, r9, pc}
    57c2:	47c8      	blx	r9
    57c4:	1933      	adds	r3, r6, r4
    57c6:	f883 0028 	strb.w	r0, [r3, #40]	; 0x28
    57ca:	4643      	mov	r3, r8
    57cc:	e7e9      	b.n	57a2 <grid_port_process_outbound_usart+0x2a>
    57ce:	bf00      	nop
    57d0:	00004ff9 	.word	0x00004ff9
    57d4:	00005045 	.word	0x00005045
    57d8:	000050c5 	.word	0x000050c5
    57dc:	00007a51 	.word	0x00007a51
    57e0:	000050a1 	.word	0x000050a1

000057e4 <grid_led_hardware_transfer_complete_cb>:
    57e4:	4b01      	ldr	r3, [pc, #4]	; (57ec <grid_led_hardware_transfer_complete_cb+0x8>)
    57e6:	2201      	movs	r2, #1
    57e8:	701a      	strb	r2, [r3, #0]
    57ea:	4770      	bx	lr
    57ec:	2000121c 	.word	0x2000121c

000057f0 <grid_led_set_color>:
    57f0:	b510      	push	{r4, lr}
    57f2:	7844      	ldrb	r4, [r0, #1]
    57f4:	428c      	cmp	r4, r1
    57f6:	d911      	bls.n	581c <grid_led_set_color+0x2c>
    57f8:	240c      	movs	r4, #12
    57fa:	4361      	muls	r1, r4
    57fc:	4c08      	ldr	r4, [pc, #32]	; (5820 <grid_led_set_color+0x30>)
    57fe:	68c0      	ldr	r0, [r0, #12]
    5800:	f854 3023 	ldr.w	r3, [r4, r3, lsl #2]
    5804:	5043      	str	r3, [r0, r1]
    5806:	4401      	add	r1, r0
    5808:	f854 3022 	ldr.w	r3, [r4, r2, lsl #2]
    580c:	604b      	str	r3, [r1, #4]
    580e:	f89d 3008 	ldrb.w	r3, [sp, #8]
    5812:	f854 3023 	ldr.w	r3, [r4, r3, lsl #2]
    5816:	608b      	str	r3, [r1, #8]
    5818:	2000      	movs	r0, #0
    581a:	bd10      	pop	{r4, pc}
    581c:	20ff      	movs	r0, #255	; 0xff
    581e:	bd10      	pop	{r4, pc}
    5820:	20001e9c 	.word	0x20001e9c

00005824 <grid_led_hardware_init>:
    5824:	b510      	push	{r4, lr}
    5826:	4c06      	ldr	r4, [pc, #24]	; (5840 <grid_led_hardware_init+0x1c>)
    5828:	4b06      	ldr	r3, [pc, #24]	; (5844 <grid_led_hardware_init+0x20>)
    582a:	f100 0114 	add.w	r1, r0, #20
    582e:	4620      	mov	r0, r4
    5830:	4798      	blx	r3
    5832:	4620      	mov	r0, r4
    5834:	4a04      	ldr	r2, [pc, #16]	; (5848 <grid_led_hardware_init+0x24>)
    5836:	4b05      	ldr	r3, [pc, #20]	; (584c <grid_led_hardware_init+0x28>)
    5838:	2100      	movs	r1, #0
    583a:	e8bd 4010 	ldmia.w	sp!, {r4, lr}
    583e:	4718      	bx	r3
    5840:	200010ac 	.word	0x200010ac
    5844:	00007d51 	.word	0x00007d51
    5848:	000057e5 	.word	0x000057e5
    584c:	00007d45 	.word	0x00007d45

00005850 <grid_led_get_led_number>:
    5850:	7840      	ldrb	r0, [r0, #1]
    5852:	4770      	bx	lr

00005854 <grid_led_tick>:
    5854:	b5f0      	push	{r4, r5, r6, r7, lr}
    5856:	7847      	ldrb	r7, [r0, #1]
    5858:	2300      	movs	r3, #0
    585a:	260d      	movs	r6, #13
    585c:	b2da      	uxtb	r2, r3
    585e:	4297      	cmp	r7, r2
    5860:	d90f      	bls.n	5882 <grid_led_tick+0x2e>
    5862:	6905      	ldr	r5, [r0, #16]
    5864:	fb06 5103 	mla	r1, r6, r3, r5
    5868:	7acc      	ldrb	r4, [r1, #11]
    586a:	7b0a      	ldrb	r2, [r1, #12]
    586c:	4414      	add	r4, r2
    586e:	18fa      	adds	r2, r7, r3
    5870:	fb06 5202 	mla	r2, r6, r2, r5
    5874:	72cc      	strb	r4, [r1, #11]
    5876:	7ad1      	ldrb	r1, [r2, #11]
    5878:	7b14      	ldrb	r4, [r2, #12]
    587a:	4421      	add	r1, r4
    587c:	72d1      	strb	r1, [r2, #11]
    587e:	3301      	adds	r3, #1
    5880:	e7ec      	b.n	585c <grid_led_tick+0x8>
    5882:	bdf0      	pop	{r4, r5, r6, r7, pc}

00005884 <grid_led_set_min>:
    5884:	b510      	push	{r4, lr}
    5886:	7844      	ldrb	r4, [r0, #1]
    5888:	6900      	ldr	r0, [r0, #16]
    588a:	fb04 1202 	mla	r2, r4, r2, r1
    588e:	240d      	movs	r4, #13
    5890:	4362      	muls	r2, r4
    5892:	1881      	adds	r1, r0, r2
    5894:	5483      	strb	r3, [r0, r2]
    5896:	f89d 3008 	ldrb.w	r3, [sp, #8]
    589a:	704b      	strb	r3, [r1, #1]
    589c:	f89d 300c 	ldrb.w	r3, [sp, #12]
    58a0:	708b      	strb	r3, [r1, #2]
    58a2:	bd10      	pop	{r4, pc}

000058a4 <grid_led_set_mid>:
    58a4:	b510      	push	{r4, lr}
    58a6:	7844      	ldrb	r4, [r0, #1]
    58a8:	fb04 1202 	mla	r2, r4, r2, r1
    58ac:	6901      	ldr	r1, [r0, #16]
    58ae:	200d      	movs	r0, #13
    58b0:	fb00 1202 	mla	r2, r0, r2, r1
    58b4:	70d3      	strb	r3, [r2, #3]
    58b6:	f89d 3008 	ldrb.w	r3, [sp, #8]
    58ba:	7113      	strb	r3, [r2, #4]
    58bc:	f89d 300c 	ldrb.w	r3, [sp, #12]
    58c0:	7153      	strb	r3, [r2, #5]
    58c2:	bd10      	pop	{r4, pc}

000058c4 <grid_led_set_max>:
    58c4:	b510      	push	{r4, lr}
    58c6:	7844      	ldrb	r4, [r0, #1]
    58c8:	fb04 1202 	mla	r2, r4, r2, r1
    58cc:	6901      	ldr	r1, [r0, #16]
    58ce:	200d      	movs	r0, #13
    58d0:	fb00 1202 	mla	r2, r0, r2, r1
    58d4:	7193      	strb	r3, [r2, #6]
    58d6:	f89d 3008 	ldrb.w	r3, [sp, #8]
    58da:	71d3      	strb	r3, [r2, #7]
    58dc:	f89d 300c 	ldrb.w	r3, [sp, #12]
    58e0:	7213      	strb	r3, [r2, #8]
    58e2:	bd10      	pop	{r4, pc}

000058e4 <grid_led_set_phase>:
    58e4:	b510      	push	{r4, lr}
    58e6:	7844      	ldrb	r4, [r0, #1]
    58e8:	fb04 1202 	mla	r2, r4, r2, r1
    58ec:	6901      	ldr	r1, [r0, #16]
    58ee:	240d      	movs	r4, #13
    58f0:	fb04 1202 	mla	r2, r4, r2, r1
    58f4:	72d3      	strb	r3, [r2, #11]
    58f6:	bd10      	pop	{r4, pc}

000058f8 <grid_led_set_frequency>:
    58f8:	b510      	push	{r4, lr}
    58fa:	7844      	ldrb	r4, [r0, #1]
    58fc:	fb04 1202 	mla	r2, r4, r2, r1
    5900:	6901      	ldr	r1, [r0, #16]
    5902:	240d      	movs	r4, #13
    5904:	fb04 1202 	mla	r2, r4, r2, r1
    5908:	7313      	strb	r3, [r2, #12]
    590a:	bd10      	pop	{r4, pc}

0000590c <grid_led_buffer_init>:
    590c:	e92d 4ff0 	stmdb	sp!, {r4, r5, r6, r7, r8, r9, sl, fp, lr}
    5910:	4605      	mov	r5, r0
    5912:	7041      	strb	r1, [r0, #1]
    5914:	b2cc      	uxtb	r4, r1
    5916:	200c      	movs	r0, #12
    5918:	4360      	muls	r0, r4
    591a:	3090      	adds	r0, #144	; 0x90
    591c:	b085      	sub	sp, #20
    591e:	6068      	str	r0, [r5, #4]
    5920:	4f3d      	ldr	r7, [pc, #244]	; (5a18 <grid_led_buffer_init+0x10c>)
    5922:	47b8      	blx	r7
    5924:	4606      	mov	r6, r0
    5926:	f100 0390 	add.w	r3, r0, #144	; 0x90
    592a:	60a8      	str	r0, [r5, #8]
    592c:	201a      	movs	r0, #26
    592e:	60eb      	str	r3, [r5, #12]
    5930:	4360      	muls	r0, r4
    5932:	47b8      	blx	r7
    5934:	b106      	cbz	r6, 5938 <grid_led_buffer_init+0x2c>
    5936:	b900      	cbnz	r0, 593a <grid_led_buffer_init+0x2e>
    5938:	e7fe      	b.n	5938 <grid_led_buffer_init+0x2c>
    593a:	2300      	movs	r3, #0
    593c:	6128      	str	r0, [r5, #16]
    593e:	4619      	mov	r1, r3
    5940:	68aa      	ldr	r2, [r5, #8]
    5942:	54d1      	strb	r1, [r2, r3]
    5944:	3301      	adds	r3, #1
    5946:	2b90      	cmp	r3, #144	; 0x90
    5948:	d1fa      	bne.n	5940 <grid_led_buffer_init+0x34>
    594a:	2400      	movs	r4, #0
    594c:	4f33      	ldr	r7, [pc, #204]	; (5a1c <grid_led_buffer_init+0x110>)
    594e:	4626      	mov	r6, r4
    5950:	786b      	ldrb	r3, [r5, #1]
    5952:	429c      	cmp	r4, r3
    5954:	d310      	bcc.n	5978 <grid_led_buffer_init+0x6c>
    5956:	2300      	movs	r3, #0
    5958:	f8df 80c8 	ldr.w	r8, [pc, #200]	; 5a24 <grid_led_buffer_init+0x118>
    595c:	f8df 90c8 	ldr.w	r9, [pc, #200]	; 5a28 <grid_led_buffer_init+0x11c>
    5960:	9303      	str	r3, [sp, #12]
    5962:	9b03      	ldr	r3, [sp, #12]
    5964:	f89d 600c 	ldrb.w	r6, [sp, #12]
    5968:	3301      	adds	r3, #1
    596a:	9303      	str	r3, [sp, #12]
    596c:	786b      	ldrb	r3, [r5, #1]
    596e:	42b3      	cmp	r3, r6
    5970:	d80a      	bhi.n	5988 <grid_led_buffer_init+0x7c>
    5972:	b005      	add	sp, #20
    5974:	e8bd 8ff0 	ldmia.w	sp!, {r4, r5, r6, r7, r8, r9, sl, fp, pc}
    5978:	2300      	movs	r3, #0
    597a:	4621      	mov	r1, r4
    597c:	9600      	str	r6, [sp, #0]
    597e:	461a      	mov	r2, r3
    5980:	4628      	mov	r0, r5
    5982:	47b8      	blx	r7
    5984:	3401      	adds	r4, #1
    5986:	e7e3      	b.n	5950 <grid_led_buffer_init+0x44>
    5988:	2400      	movs	r4, #0
    598a:	4623      	mov	r3, r4
    598c:	4622      	mov	r2, r4
    598e:	4631      	mov	r1, r6
    5990:	4628      	mov	r0, r5
    5992:	4f23      	ldr	r7, [pc, #140]	; (5a20 <grid_led_buffer_init+0x114>)
    5994:	9401      	str	r4, [sp, #4]
    5996:	9400      	str	r4, [sp, #0]
    5998:	47b8      	blx	r7
    599a:	237f      	movs	r3, #127	; 0x7f
    599c:	9300      	str	r3, [sp, #0]
    599e:	4622      	mov	r2, r4
    59a0:	4623      	mov	r3, r4
    59a2:	4631      	mov	r1, r6
    59a4:	4628      	mov	r0, r5
    59a6:	9401      	str	r4, [sp, #4]
    59a8:	47c0      	blx	r8
    59aa:	23ff      	movs	r3, #255	; 0xff
    59ac:	9300      	str	r3, [sp, #0]
    59ae:	4622      	mov	r2, r4
    59b0:	4623      	mov	r3, r4
    59b2:	4631      	mov	r1, r6
    59b4:	4628      	mov	r0, r5
    59b6:	9401      	str	r4, [sp, #4]
    59b8:	47c8      	blx	r9
    59ba:	f8df b070 	ldr.w	fp, [pc, #112]	; 5a2c <grid_led_buffer_init+0x120>
    59be:	f8df a070 	ldr.w	sl, [pc, #112]	; 5a30 <grid_led_buffer_init+0x124>
    59c2:	4623      	mov	r3, r4
    59c4:	4622      	mov	r2, r4
    59c6:	4631      	mov	r1, r6
    59c8:	4628      	mov	r0, r5
    59ca:	47d8      	blx	fp
    59cc:	4623      	mov	r3, r4
    59ce:	4622      	mov	r2, r4
    59d0:	4631      	mov	r1, r6
    59d2:	4628      	mov	r0, r5
    59d4:	47d0      	blx	sl
    59d6:	4623      	mov	r3, r4
    59d8:	4631      	mov	r1, r6
    59da:	4628      	mov	r0, r5
    59dc:	9401      	str	r4, [sp, #4]
    59de:	9400      	str	r4, [sp, #0]
    59e0:	2201      	movs	r2, #1
    59e2:	47b8      	blx	r7
    59e4:	4623      	mov	r3, r4
    59e6:	4631      	mov	r1, r6
    59e8:	4628      	mov	r0, r5
    59ea:	9401      	str	r4, [sp, #4]
    59ec:	9400      	str	r4, [sp, #0]
    59ee:	2201      	movs	r2, #1
    59f0:	47c0      	blx	r8
    59f2:	4623      	mov	r3, r4
    59f4:	4631      	mov	r1, r6
    59f6:	4628      	mov	r0, r5
    59f8:	9401      	str	r4, [sp, #4]
    59fa:	9400      	str	r4, [sp, #0]
    59fc:	2201      	movs	r2, #1
    59fe:	47c8      	blx	r9
    5a00:	4623      	mov	r3, r4
    5a02:	4631      	mov	r1, r6
    5a04:	4628      	mov	r0, r5
    5a06:	2201      	movs	r2, #1
    5a08:	47d8      	blx	fp
    5a0a:	4623      	mov	r3, r4
    5a0c:	2201      	movs	r2, #1
    5a0e:	4631      	mov	r1, r6
    5a10:	4628      	mov	r0, r5
    5a12:	47d0      	blx	sl
    5a14:	e7a5      	b.n	5962 <grid_led_buffer_init+0x56>
    5a16:	bf00      	nop
    5a18:	0000d265 	.word	0x0000d265
    5a1c:	000057f1 	.word	0x000057f1
    5a20:	00005885 	.word	0x00005885
    5a24:	000058a5 	.word	0x000058a5
    5a28:	000058c5 	.word	0x000058c5
    5a2c:	000058f9 	.word	0x000058f9
    5a30:	000058e5 	.word	0x000058e5

00005a34 <grid_led_render>:
    5a34:	e92d 4ff0 	stmdb	sp!, {r4, r5, r6, r7, r8, r9, sl, fp, lr}
    5a38:	6904      	ldr	r4, [r0, #16]
    5a3a:	7843      	ldrb	r3, [r0, #1]
    5a3c:	f8df a0a0 	ldr.w	sl, [pc, #160]	; 5ae0 <grid_led_render+0xac>
    5a40:	b085      	sub	sp, #20
    5a42:	2500      	movs	r5, #0
    5a44:	f04f 090d 	mov.w	r9, #13
    5a48:	9303      	str	r3, [sp, #12]
    5a4a:	fb09 4401 	mla	r4, r9, r1, r4
    5a4e:	2602      	movs	r6, #2
    5a50:	462b      	mov	r3, r5
    5a52:	462a      	mov	r2, r5
    5a54:	7ae7      	ldrb	r7, [r4, #11]
    5a56:	f894 c003 	ldrb.w	ip, [r4, #3]
    5a5a:	f81a e007 	ldrb.w	lr, [sl, r7]
    5a5e:	f894 b000 	ldrb.w	fp, [r4]
    5a62:	4457      	add	r7, sl
    5a64:	3e01      	subs	r6, #1
    5a66:	f897 8100 	ldrb.w	r8, [r7, #256]	; 0x100
    5a6a:	f897 7200 	ldrb.w	r7, [r7, #512]	; 0x200
    5a6e:	fb1c fc08 	smulbb	ip, ip, r8
    5a72:	fb0b cc0e 	mla	ip, fp, lr, ip
    5a76:	f894 b006 	ldrb.w	fp, [r4, #6]
    5a7a:	fb0b cc07 	mla	ip, fp, r7, ip
    5a7e:	4462      	add	r2, ip
    5a80:	f894 c004 	ldrb.w	ip, [r4, #4]
    5a84:	f894 b001 	ldrb.w	fp, [r4, #1]
    5a88:	fb1c fc08 	smulbb	ip, ip, r8
    5a8c:	fb0b cc0e 	mla	ip, fp, lr, ip
    5a90:	f894 b007 	ldrb.w	fp, [r4, #7]
    5a94:	fb0b cc07 	mla	ip, fp, r7, ip
    5a98:	4463      	add	r3, ip
    5a9a:	f894 c005 	ldrb.w	ip, [r4, #5]
    5a9e:	f894 b002 	ldrb.w	fp, [r4, #2]
    5aa2:	fb1c f808 	smulbb	r8, ip, r8
    5aa6:	fb0b 8e0e 	mla	lr, fp, lr, r8
    5aaa:	f894 b008 	ldrb.w	fp, [r4, #8]
    5aae:	fb0b e707 	mla	r7, fp, r7, lr
    5ab2:	443d      	add	r5, r7
    5ab4:	f8bd 700c 	ldrh.w	r7, [sp, #12]
    5ab8:	f016 06ff 	ands.w	r6, r6, #255	; 0xff
    5abc:	fb19 4407 	smlabb	r4, r9, r7, r4
    5ac0:	d1c8      	bne.n	5a54 <grid_led_render+0x20>
    5ac2:	f3c5 2547 	ubfx	r5, r5, #9, #8
    5ac6:	9500      	str	r5, [sp, #0]
    5ac8:	f3c3 2347 	ubfx	r3, r3, #9, #8
    5acc:	f3c2 2247 	ubfx	r2, r2, #9, #8
    5ad0:	4c02      	ldr	r4, [pc, #8]	; (5adc <grid_led_render+0xa8>)
    5ad2:	47a0      	blx	r4
    5ad4:	b005      	add	sp, #20
    5ad6:	e8bd 8ff0 	ldmia.w	sp!, {r4, r5, r6, r7, r8, r9, sl, fp, pc}
    5ada:	bf00      	nop
    5adc:	000057f1 	.word	0x000057f1
    5ae0:	20000000 	.word	0x20000000

00005ae4 <grid_led_render_all>:
    5ae4:	b570      	push	{r4, r5, r6, lr}
    5ae6:	4e06      	ldr	r6, [pc, #24]	; (5b00 <grid_led_render_all+0x1c>)
    5ae8:	4605      	mov	r5, r0
    5aea:	2400      	movs	r4, #0
    5aec:	786b      	ldrb	r3, [r5, #1]
    5aee:	429c      	cmp	r4, r3
    5af0:	d300      	bcc.n	5af4 <grid_led_render_all+0x10>
    5af2:	bd70      	pop	{r4, r5, r6, pc}
    5af4:	4621      	mov	r1, r4
    5af6:	4628      	mov	r0, r5
    5af8:	47b0      	blx	r6
    5afa:	3401      	adds	r4, #1
    5afc:	e7f6      	b.n	5aec <grid_led_render_all+0x8>
    5afe:	bf00      	nop
    5b00:	00005a35 	.word	0x00005a35

00005b04 <grid_led_hardware_start_transfer_blocking>:
    5b04:	b538      	push	{r3, r4, r5, lr}
    5b06:	4c08      	ldr	r4, [pc, #32]	; (5b28 <grid_led_hardware_start_transfer_blocking+0x24>)
    5b08:	4605      	mov	r5, r0
    5b0a:	2300      	movs	r3, #0
    5b0c:	7023      	strb	r3, [r4, #0]
    5b0e:	4807      	ldr	r0, [pc, #28]	; (5b2c <grid_led_hardware_start_transfer_blocking+0x28>)
    5b10:	4b07      	ldr	r3, [pc, #28]	; (5b30 <grid_led_hardware_start_transfer_blocking+0x2c>)
    5b12:	4798      	blx	r3
    5b14:	88aa      	ldrh	r2, [r5, #4]
    5b16:	68a9      	ldr	r1, [r5, #8]
    5b18:	6968      	ldr	r0, [r5, #20]
    5b1a:	4b06      	ldr	r3, [pc, #24]	; (5b34 <grid_led_hardware_start_transfer_blocking+0x30>)
    5b1c:	4798      	blx	r3
    5b1e:	7823      	ldrb	r3, [r4, #0]
    5b20:	2b01      	cmp	r3, #1
    5b22:	d1fc      	bne.n	5b1e <grid_led_hardware_start_transfer_blocking+0x1a>
    5b24:	bd38      	pop	{r3, r4, r5, pc}
    5b26:	bf00      	nop
    5b28:	2000121c 	.word	0x2000121c
    5b2c:	200010ac 	.word	0x200010ac
    5b30:	00007d39 	.word	0x00007d39
    5b34:	00007a51 	.word	0x00007a51

00005b38 <grid_led_startup_animation>:
    5b38:	e92d 4ff0 	stmdb	sp!, {r4, r5, r6, r7, r8, r9, sl, fp, lr}
    5b3c:	4b1a      	ldr	r3, [pc, #104]	; (5ba8 <grid_led_startup_animation+0x70>)
    5b3e:	f8df 9074 	ldr.w	r9, [pc, #116]	; 5bb4 <grid_led_startup_animation+0x7c>
    5b42:	781b      	ldrb	r3, [r3, #0]
    5b44:	2b20      	cmp	r3, #32
    5b46:	bf16      	itet	ne
    5b48:	2701      	movne	r7, #1
    5b4a:	2300      	moveq	r3, #0
    5b4c:	463b      	movne	r3, r7
    5b4e:	b085      	sub	sp, #20
    5b50:	bf08      	it	eq
    5b52:	2702      	moveq	r7, #2
    5b54:	fb03 fa07 	mul.w	sl, r3, r7
    5b58:	2400      	movs	r4, #0
    5b5a:	23ff      	movs	r3, #255	; 0xff
    5b5c:	4680      	mov	r8, r0
    5b5e:	4625      	mov	r5, r4
    5b60:	9303      	str	r3, [sp, #12]
    5b62:	2100      	movs	r1, #0
    5b64:	e006      	b.n	5b74 <grid_led_startup_animation+0x3c>
    5b66:	9400      	str	r4, [sp, #0]
    5b68:	4623      	mov	r3, r4
    5b6a:	462a      	mov	r2, r5
    5b6c:	4640      	mov	r0, r8
    5b6e:	4e0f      	ldr	r6, [pc, #60]	; (5bac <grid_led_startup_animation+0x74>)
    5b70:	47b0      	blx	r6
    5b72:	4659      	mov	r1, fp
    5b74:	f898 3001 	ldrb.w	r3, [r8, #1]
    5b78:	f101 0b01 	add.w	fp, r1, #1
    5b7c:	b2c9      	uxtb	r1, r1
    5b7e:	428b      	cmp	r3, r1
    5b80:	d8f1      	bhi.n	5b66 <grid_led_startup_animation+0x2e>
    5b82:	4640      	mov	r0, r8
    5b84:	47c8      	blx	r9
    5b86:	4b0a      	ldr	r3, [pc, #40]	; (5bb0 <grid_led_startup_animation+0x78>)
    5b88:	2001      	movs	r0, #1
    5b8a:	4798      	blx	r3
    5b8c:	9b03      	ldr	r3, [sp, #12]
    5b8e:	1e5e      	subs	r6, r3, #1
    5b90:	443d      	add	r5, r7
    5b92:	4454      	add	r4, sl
    5b94:	f016 03ff 	ands.w	r3, r6, #255	; 0xff
    5b98:	b2ed      	uxtb	r5, r5
    5b9a:	b2e4      	uxtb	r4, r4
    5b9c:	9303      	str	r3, [sp, #12]
    5b9e:	d1e0      	bne.n	5b62 <grid_led_startup_animation+0x2a>
    5ba0:	b005      	add	sp, #20
    5ba2:	e8bd 8ff0 	ldmia.w	sp!, {r4, r5, r6, r7, r8, r9, sl, fp, pc}
    5ba6:	bf00      	nop
    5ba8:	40000c00 	.word	0x40000c00
    5bac:	000057f1 	.word	0x000057f1
    5bb0:	00007921 	.word	0x00007921
    5bb4:	00005b05 	.word	0x00005b05

00005bb8 <grid_led_init>:
    5bb8:	b570      	push	{r4, r5, r6, lr}
    5bba:	4e2a      	ldr	r6, [pc, #168]	; (5c64 <grid_led_init+0xac>)
    5bbc:	4604      	mov	r4, r0
    5bbe:	2200      	movs	r2, #0
    5bc0:	b293      	uxth	r3, r2
    5bc2:	f013 0f01 	tst.w	r3, #1
    5bc6:	bf14      	ite	ne
    5bc8:	f04f 6060 	movne.w	r0, #234881024	; 0xe000000
    5bcc:	f04f 6000 	moveq.w	r0, #134217728	; 0x8000000
    5bd0:	f013 0f02 	tst.w	r3, #2
    5bd4:	bf0c      	ite	eq
    5bd6:	f04f 4500 	moveq.w	r5, #2147483648	; 0x80000000
    5bda:	f04f 4560 	movne.w	r5, #3758096384	; 0xe0000000
    5bde:	f013 0f04 	tst.w	r3, #4
    5be2:	ea45 0500 	orr.w	r5, r5, r0
    5be6:	bf0c      	ite	eq
    5be8:	f44f 2000 	moveq.w	r0, #524288	; 0x80000
    5bec:	f44f 2060 	movne.w	r0, #917504	; 0xe0000
    5bf0:	f013 0f08 	tst.w	r3, #8
    5bf4:	ea40 0005 	orr.w	r0, r0, r5
    5bf8:	bf0c      	ite	eq
    5bfa:	f44f 0500 	moveq.w	r5, #8388608	; 0x800000
    5bfe:	f44f 0560 	movne.w	r5, #14680064	; 0xe00000
    5c02:	f013 0f10 	tst.w	r3, #16
    5c06:	ea40 0005 	orr.w	r0, r0, r5
    5c0a:	bf0c      	ite	eq
    5c0c:	f44f 6500 	moveq.w	r5, #2048	; 0x800
    5c10:	f44f 6560 	movne.w	r5, #3584	; 0xe00
    5c14:	f013 0f20 	tst.w	r3, #32
    5c18:	ea45 0500 	orr.w	r5, r5, r0
    5c1c:	bf0c      	ite	eq
    5c1e:	f44f 4000 	moveq.w	r0, #32768	; 0x8000
    5c22:	f44f 4060 	movne.w	r0, #57344	; 0xe000
    5c26:	f013 0f40 	tst.w	r3, #64	; 0x40
    5c2a:	ea45 0500 	orr.w	r5, r5, r0
    5c2e:	bf0c      	ite	eq
    5c30:	2008      	moveq	r0, #8
    5c32:	200e      	movne	r0, #14
    5c34:	09db      	lsrs	r3, r3, #7
    5c36:	bf14      	ite	ne
    5c38:	23e0      	movne	r3, #224	; 0xe0
    5c3a:	2380      	moveq	r3, #128	; 0x80
    5c3c:	4328      	orrs	r0, r5
    5c3e:	4303      	orrs	r3, r0
    5c40:	f846 3022 	str.w	r3, [r6, r2, lsl #2]
    5c44:	3201      	adds	r2, #1
    5c46:	f5b2 7f80 	cmp.w	r2, #256	; 0x100
    5c4a:	d1b9      	bne.n	5bc0 <grid_led_init+0x8>
    5c4c:	4620      	mov	r0, r4
    5c4e:	4b06      	ldr	r3, [pc, #24]	; (5c68 <grid_led_init+0xb0>)
    5c50:	4798      	blx	r3
    5c52:	4620      	mov	r0, r4
    5c54:	4b05      	ldr	r3, [pc, #20]	; (5c6c <grid_led_init+0xb4>)
    5c56:	4798      	blx	r3
    5c58:	4620      	mov	r0, r4
    5c5a:	4b05      	ldr	r3, [pc, #20]	; (5c70 <grid_led_init+0xb8>)
    5c5c:	4798      	blx	r3
    5c5e:	2000      	movs	r0, #0
    5c60:	bd70      	pop	{r4, r5, r6, pc}
    5c62:	bf00      	nop
    5c64:	20001e9c 	.word	0x20001e9c
    5c68:	0000590d 	.word	0x0000590d
    5c6c:	00005825 	.word	0x00005825
    5c70:	00005b39 	.word	0x00005b39

00005c74 <grid_led_hardware_start_transfer>:
    5c74:	b510      	push	{r4, lr}
    5c76:	4b07      	ldr	r3, [pc, #28]	; (5c94 <grid_led_hardware_start_transfer+0x20>)
    5c78:	4604      	mov	r4, r0
    5c7a:	2200      	movs	r2, #0
    5c7c:	701a      	strb	r2, [r3, #0]
    5c7e:	4806      	ldr	r0, [pc, #24]	; (5c98 <grid_led_hardware_start_transfer+0x24>)
    5c80:	4b06      	ldr	r3, [pc, #24]	; (5c9c <grid_led_hardware_start_transfer+0x28>)
    5c82:	4798      	blx	r3
    5c84:	88a2      	ldrh	r2, [r4, #4]
    5c86:	68a1      	ldr	r1, [r4, #8]
    5c88:	6960      	ldr	r0, [r4, #20]
    5c8a:	4b05      	ldr	r3, [pc, #20]	; (5ca0 <grid_led_hardware_start_transfer+0x2c>)
    5c8c:	e8bd 4010 	ldmia.w	sp!, {r4, lr}
    5c90:	4718      	bx	r3
    5c92:	bf00      	nop
    5c94:	2000121c 	.word	0x2000121c
    5c98:	200010ac 	.word	0x200010ac
    5c9c:	00007d39 	.word	0x00007d39
    5ca0:	00007a51 	.word	0x00007a51

00005ca4 <grid_led_hardware_is_transfer_completed>:
    5ca4:	4b01      	ldr	r3, [pc, #4]	; (5cac <grid_led_hardware_is_transfer_completed+0x8>)
    5ca6:	7818      	ldrb	r0, [r3, #0]
    5ca8:	4770      	bx	lr
    5caa:	bf00      	nop
    5cac:	2000121c 	.word	0x2000121c

00005cb0 <grid_module_common_init>:
    5cb0:	4b12      	ldr	r3, [pc, #72]	; (5cfc <grid_module_common_init+0x4c>)
    5cb2:	f44f 4280 	mov.w	r2, #16384	; 0x4000
    5cb6:	b510      	push	{r4, lr}
    5cb8:	f8c3 2118 	str.w	r2, [r3, #280]	; 0x118
    5cbc:	4c10      	ldr	r4, [pc, #64]	; (5d00 <grid_module_common_init+0x50>)
    5cbe:	47a0      	blx	r4
    5cc0:	b910      	cbnz	r0, 5cc8 <grid_module_common_init+0x18>
    5cc2:	4810      	ldr	r0, [pc, #64]	; (5d04 <grid_module_common_init+0x54>)
    5cc4:	4b10      	ldr	r3, [pc, #64]	; (5d08 <grid_module_common_init+0x58>)
    5cc6:	4798      	blx	r3
    5cc8:	47a0      	blx	r4
    5cca:	2880      	cmp	r0, #128	; 0x80
    5ccc:	d102      	bne.n	5cd4 <grid_module_common_init+0x24>
    5cce:	480d      	ldr	r0, [pc, #52]	; (5d04 <grid_module_common_init+0x54>)
    5cd0:	4b0e      	ldr	r3, [pc, #56]	; (5d0c <grid_module_common_init+0x5c>)
    5cd2:	4798      	blx	r3
    5cd4:	47a0      	blx	r4
    5cd6:	2840      	cmp	r0, #64	; 0x40
    5cd8:	d102      	bne.n	5ce0 <grid_module_common_init+0x30>
    5cda:	480a      	ldr	r0, [pc, #40]	; (5d04 <grid_module_common_init+0x54>)
    5cdc:	4b0c      	ldr	r3, [pc, #48]	; (5d10 <grid_module_common_init+0x60>)
    5cde:	4798      	blx	r3
    5ce0:	47a0      	blx	r4
    5ce2:	28c0      	cmp	r0, #192	; 0xc0
    5ce4:	d102      	bne.n	5cec <grid_module_common_init+0x3c>
    5ce6:	4807      	ldr	r0, [pc, #28]	; (5d04 <grid_module_common_init+0x54>)
    5ce8:	4b0a      	ldr	r3, [pc, #40]	; (5d14 <grid_module_common_init+0x64>)
    5cea:	4798      	blx	r3
    5cec:	4b0a      	ldr	r3, [pc, #40]	; (5d18 <grid_module_common_init+0x68>)
    5cee:	4798      	blx	r3
    5cf0:	4b0a      	ldr	r3, [pc, #40]	; (5d1c <grid_module_common_init+0x6c>)
    5cf2:	4798      	blx	r3
    5cf4:	4b0a      	ldr	r3, [pc, #40]	; (5d20 <grid_module_common_init+0x70>)
    5cf6:	e8bd 4010 	ldmia.w	sp!, {r4, lr}
    5cfa:	4718      	bx	r3
    5cfc:	41008000 	.word	0x41008000
    5d00:	000071e9 	.word	0x000071e9
    5d04:	20001c7c 	.word	0x20001c7c
    5d08:	00006d89 	.word	0x00006d89
    5d0c:	00006001 	.word	0x00006001
    5d10:	000069b1 	.word	0x000069b1
    5d14:	0000648d 	.word	0x0000648d
    5d18:	00005195 	.word	0x00005195
    5d1c:	00006f55 	.word	0x00006f55
    5d20:	0000706d 	.word	0x0000706d

00005d24 <grid_module_bu16_revb_hardware_start_transfer>:
    5d24:	b510      	push	{r4, lr}
    5d26:	4c04      	ldr	r4, [pc, #16]	; (5d38 <grid_module_bu16_revb_hardware_start_transfer+0x14>)
    5d28:	4804      	ldr	r0, [pc, #16]	; (5d3c <grid_module_bu16_revb_hardware_start_transfer+0x18>)
    5d2a:	47a0      	blx	r4
    5d2c:	4623      	mov	r3, r4
    5d2e:	4804      	ldr	r0, [pc, #16]	; (5d40 <grid_module_bu16_revb_hardware_start_transfer+0x1c>)
    5d30:	e8bd 4010 	ldmia.w	sp!, {r4, lr}
    5d34:	4718      	bx	r3
    5d36:	bf00      	nop
    5d38:	000078dd 	.word	0x000078dd
    5d3c:	20000fdc 	.word	0x20000fdc
    5d40:	200011b0 	.word	0x200011b0

00005d44 <grid_module_bu16_revb_hardware_transfer_complete_cb>:
    5d44:	e92d 4ff0 	stmdb	sp!, {r4, r5, r6, r7, r8, r9, sl, fp, lr}
    5d48:	4a8f      	ldr	r2, [pc, #572]	; (5f88 <grid_module_bu16_revb_hardware_transfer_complete_cb+0x244>)
    5d4a:	7813      	ldrb	r3, [r2, #0]
    5d4c:	b089      	sub	sp, #36	; 0x24
    5d4e:	4615      	mov	r5, r2
    5d50:	b933      	cbnz	r3, 5d60 <grid_module_bu16_revb_hardware_transfer_complete_cb+0x1c>
    5d52:	7813      	ldrb	r3, [r2, #0]
    5d54:	3301      	adds	r3, #1
    5d56:	b2db      	uxtb	r3, r3
    5d58:	7013      	strb	r3, [r2, #0]
    5d5a:	b009      	add	sp, #36	; 0x24
    5d5c:	e8bd 8ff0 	ldmia.w	sp!, {r4, r5, r6, r7, r8, r9, sl, fp, pc}
    5d60:	4c8a      	ldr	r4, [pc, #552]	; (5f8c <grid_module_bu16_revb_hardware_transfer_complete_cb+0x248>)
    5d62:	4e8b      	ldr	r6, [pc, #556]	; (5f90 <grid_module_bu16_revb_hardware_transfer_complete_cb+0x24c>)
    5d64:	a804      	add	r0, sp, #16
    5d66:	47a0      	blx	r4
    5d68:	a807      	add	r0, sp, #28
    5d6a:	47a0      	blx	r4
    5d6c:	4b89      	ldr	r3, [pc, #548]	; (5f94 <grid_module_bu16_revb_hardware_transfer_complete_cb+0x250>)
    5d6e:	f8d3 1100 	ldr.w	r1, [r3, #256]	; 0x100
    5d72:	f8d3 2120 	ldr.w	r2, [r3, #288]	; 0x120
    5d76:	f8d3 7110 	ldr.w	r7, [r3, #272]	; 0x110
    5d7a:	4057      	eors	r7, r2
    5d7c:	400f      	ands	r7, r1
    5d7e:	a807      	add	r0, sp, #28
    5d80:	4057      	eors	r7, r2
    5d82:	47b0      	blx	r6
    5d84:	4984      	ldr	r1, [pc, #528]	; (5f98 <grid_module_bu16_revb_hardware_transfer_complete_cb+0x254>)
    5d86:	9400      	str	r4, [sp, #0]
    5d88:	684b      	ldr	r3, [r1, #4]
    5d8a:	68db      	ldr	r3, [r3, #12]
    5d8c:	781a      	ldrb	r2, [r3, #0]
    5d8e:	f3c7 27c0 	ubfx	r7, r7, #11, #1
    5d92:	4297      	cmp	r7, r2
    5d94:	460c      	mov	r4, r1
    5d96:	d00f      	beq.n	5db8 <grid_module_bu16_revb_hardware_transfer_complete_cb+0x74>
    5d98:	2a00      	cmp	r2, #0
    5d9a:	f040 80f1 	bne.w	5f80 <grid_module_bu16_revb_hardware_transfer_complete_cb+0x23c>
    5d9e:	2201      	movs	r2, #1
    5da0:	701a      	strb	r2, [r3, #0]
    5da2:	2280      	movs	r2, #128	; 0x80
    5da4:	6863      	ldr	r3, [r4, #4]
    5da6:	6858      	ldr	r0, [r3, #4]
    5da8:	4b7c      	ldr	r3, [pc, #496]	; (5f9c <grid_module_bu16_revb_hardware_transfer_complete_cb+0x258>)
    5daa:	2102      	movs	r1, #2
    5dac:	3003      	adds	r0, #3
    5dae:	4798      	blx	r3
    5db0:	2100      	movs	r1, #0
    5db2:	4879      	ldr	r0, [pc, #484]	; (5f98 <grid_module_bu16_revb_hardware_transfer_complete_cb+0x254>)
    5db4:	4b7a      	ldr	r3, [pc, #488]	; (5fa0 <grid_module_bu16_revb_hardware_transfer_complete_cb+0x25c>)
    5db6:	4798      	blx	r3
    5db8:	a804      	add	r0, sp, #16
    5dba:	47b0      	blx	r6
    5dbc:	2300      	movs	r3, #0
    5dbe:	f8ad 300c 	strh.w	r3, [sp, #12]
    5dc2:	f8ad 300e 	strh.w	r3, [sp, #14]
    5dc6:	786b      	ldrb	r3, [r5, #1]
    5dc8:	4a76      	ldr	r2, [pc, #472]	; (5fa4 <grid_module_bu16_revb_hardware_transfer_complete_cb+0x260>)
    5dca:	4f77      	ldr	r7, [pc, #476]	; (5fa8 <grid_module_bu16_revb_hardware_transfer_complete_cb+0x264>)
    5dcc:	4877      	ldr	r0, [pc, #476]	; (5fac <grid_module_bu16_revb_hardware_transfer_complete_cb+0x268>)
    5dce:	3308      	adds	r3, #8
    5dd0:	2100      	movs	r1, #0
    5dd2:	f812 a003 	ldrb.w	sl, [r2, r3]
    5dd6:	786b      	ldrb	r3, [r5, #1]
    5dd8:	b2db      	uxtb	r3, r3
    5dda:	fa5f fa8a 	uxtb.w	sl, sl
    5dde:	f812 8003 	ldrb.w	r8, [r2, r3]
    5de2:	786b      	ldrb	r3, [r5, #1]
    5de4:	3301      	adds	r3, #1
    5de6:	b2db      	uxtb	r3, r3
    5de8:	706b      	strb	r3, [r5, #1]
    5dea:	786b      	ldrb	r3, [r5, #1]
    5dec:	f003 0307 	and.w	r3, r3, #7
    5df0:	706b      	strb	r3, [r5, #1]
    5df2:	786b      	ldrb	r3, [r5, #1]
    5df4:	f013 0f01 	tst.w	r3, #1
    5df8:	4b66      	ldr	r3, [pc, #408]	; (5f94 <grid_module_bu16_revb_hardware_transfer_complete_cb+0x250>)
    5dfa:	f44f 2200 	mov.w	r2, #524288	; 0x80000
    5dfe:	bf14      	ite	ne
    5e00:	f8c3 2118 	strne.w	r2, [r3, #280]	; 0x118
    5e04:	f8c3 2114 	streq.w	r2, [r3, #276]	; 0x114
    5e08:	786b      	ldrb	r3, [r5, #1]
    5e0a:	f013 0f02 	tst.w	r3, #2
    5e0e:	4b61      	ldr	r3, [pc, #388]	; (5f94 <grid_module_bu16_revb_hardware_transfer_complete_cb+0x250>)
    5e10:	f44f 1280 	mov.w	r2, #1048576	; 0x100000
    5e14:	bf14      	ite	ne
    5e16:	f8c3 2118 	strne.w	r2, [r3, #280]	; 0x118
    5e1a:	f8c3 2114 	streq.w	r2, [r3, #276]	; 0x114
    5e1e:	786b      	ldrb	r3, [r5, #1]
    5e20:	f013 0f04 	tst.w	r3, #4
    5e24:	4b5b      	ldr	r3, [pc, #364]	; (5f94 <grid_module_bu16_revb_hardware_transfer_complete_cb+0x250>)
    5e26:	f44f 1200 	mov.w	r2, #2097152	; 0x200000
    5e2a:	bf14      	ite	ne
    5e2c:	f8c3 2118 	strne.w	r2, [r3, #280]	; 0x118
    5e30:	f8c3 2114 	streq.w	r2, [r3, #276]	; 0x114
    5e34:	2302      	movs	r3, #2
    5e36:	aa03      	add	r2, sp, #12
    5e38:	47b8      	blx	r7
    5e3a:	2100      	movs	r1, #0
    5e3c:	2302      	movs	r3, #2
    5e3e:	f10d 020e 	add.w	r2, sp, #14
    5e42:	485b      	ldr	r0, [pc, #364]	; (5fb0 <grid_module_bu16_revb_hardware_transfer_complete_cb+0x26c>)
    5e44:	47b8      	blx	r7
    5e46:	f8bd 200c 	ldrh.w	r2, [sp, #12]
    5e4a:	f242 7310 	movw	r3, #10000	; 0x2710
    5e4e:	429a      	cmp	r2, r3
    5e50:	bf8c      	ite	hi
    5e52:	2200      	movhi	r2, #0
    5e54:	227f      	movls	r2, #127	; 0x7f
    5e56:	f8ad 200c 	strh.w	r2, [sp, #12]
    5e5a:	f8bd 200e 	ldrh.w	r2, [sp, #14]
    5e5e:	429a      	cmp	r2, r3
    5e60:	bf8c      	ite	hi
    5e62:	2300      	movhi	r3, #0
    5e64:	237f      	movls	r3, #127	; 0x7f
    5e66:	f8ad 300e 	strh.w	r3, [sp, #14]
    5e6a:	a805      	add	r0, sp, #20
    5e6c:	9b00      	ldr	r3, [sp, #0]
    5e6e:	4798      	blx	r3
    5e70:	f10a 0301 	add.w	r3, sl, #1
    5e74:	6862      	ldr	r2, [r4, #4]
    5e76:	f8bd 000c 	ldrh.w	r0, [sp, #12]
    5e7a:	9301      	str	r3, [sp, #4]
    5e7c:	011f      	lsls	r7, r3, #4
    5e7e:	443a      	add	r2, r7
    5e80:	fa5f f888 	uxtb.w	r8, r8
    5e84:	68d1      	ldr	r1, [r2, #12]
    5e86:	7809      	ldrb	r1, [r1, #0]
    5e88:	4288      	cmp	r0, r1
    5e8a:	d030      	beq.n	5eee <grid_module_bu16_revb_hardware_transfer_complete_cb+0x1aa>
    5e8c:	6850      	ldr	r0, [r2, #4]
    5e8e:	f8df 910c 	ldr.w	r9, [pc, #268]	; 5f9c <grid_module_bu16_revb_hardware_transfer_complete_cb+0x258>
    5e92:	2900      	cmp	r1, #0
    5e94:	bf0c      	ite	eq
    5e96:	2290      	moveq	r2, #144	; 0x90
    5e98:	2280      	movne	r2, #128	; 0x80
    5e9a:	f04f 0102 	mov.w	r1, #2
    5e9e:	f100 0005 	add.w	r0, r0, #5
    5ea2:	bf0c      	ite	eq
    5ea4:	f04f 0b7f 	moveq.w	fp, #127	; 0x7f
    5ea8:	f04f 0b00 	movne.w	fp, #0
    5eac:	47c8      	blx	r9
    5eae:	6862      	ldr	r2, [r4, #4]
    5eb0:	443a      	add	r2, r7
    5eb2:	2102      	movs	r1, #2
    5eb4:	6850      	ldr	r0, [r2, #4]
    5eb6:	4652      	mov	r2, sl
    5eb8:	3007      	adds	r0, #7
    5eba:	47c8      	blx	r9
    5ebc:	6862      	ldr	r2, [r4, #4]
    5ebe:	443a      	add	r2, r7
    5ec0:	2102      	movs	r1, #2
    5ec2:	6850      	ldr	r0, [r2, #4]
    5ec4:	465a      	mov	r2, fp
    5ec6:	3009      	adds	r0, #9
    5ec8:	47c8      	blx	r9
    5eca:	6862      	ldr	r2, [r4, #4]
    5ecc:	443a      	add	r2, r7
    5ece:	2102      	movs	r1, #2
    5ed0:	6850      	ldr	r0, [r2, #4]
    5ed2:	ea4f 024b 	mov.w	r2, fp, lsl #1
    5ed6:	3015      	adds	r0, #21
    5ed8:	47c8      	blx	r9
    5eda:	6862      	ldr	r2, [r4, #4]
    5edc:	9b01      	ldr	r3, [sp, #4]
    5ede:	482e      	ldr	r0, [pc, #184]	; (5f98 <grid_module_bu16_revb_hardware_transfer_complete_cb+0x254>)
    5ee0:	4417      	add	r7, r2
    5ee2:	b2d9      	uxtb	r1, r3
    5ee4:	68fa      	ldr	r2, [r7, #12]
    5ee6:	4b2e      	ldr	r3, [pc, #184]	; (5fa0 <grid_module_bu16_revb_hardware_transfer_complete_cb+0x25c>)
    5ee8:	f882 b000 	strb.w	fp, [r2]
    5eec:	4798      	blx	r3
    5eee:	a805      	add	r0, sp, #20
    5ef0:	47b0      	blx	r6
    5ef2:	9b00      	ldr	r3, [sp, #0]
    5ef4:	a806      	add	r0, sp, #24
    5ef6:	4798      	blx	r3
    5ef8:	f108 0b01 	add.w	fp, r8, #1
    5efc:	6863      	ldr	r3, [r4, #4]
    5efe:	f8bd 100e 	ldrh.w	r1, [sp, #14]
    5f02:	ea4f 170b 	mov.w	r7, fp, lsl #4
    5f06:	443b      	add	r3, r7
    5f08:	68da      	ldr	r2, [r3, #12]
    5f0a:	7812      	ldrb	r2, [r2, #0]
    5f0c:	4291      	cmp	r1, r2
    5f0e:	d030      	beq.n	5f72 <grid_module_bu16_revb_hardware_transfer_complete_cb+0x22e>
    5f10:	6858      	ldr	r0, [r3, #4]
    5f12:	f8df 9088 	ldr.w	r9, [pc, #136]	; 5f9c <grid_module_bu16_revb_hardware_transfer_complete_cb+0x258>
    5f16:	2a00      	cmp	r2, #0
    5f18:	bf0c      	ite	eq
    5f1a:	2290      	moveq	r2, #144	; 0x90
    5f1c:	2280      	movne	r2, #128	; 0x80
    5f1e:	f04f 0102 	mov.w	r1, #2
    5f22:	f100 0005 	add.w	r0, r0, #5
    5f26:	bf0c      	ite	eq
    5f28:	f04f 0a7f 	moveq.w	sl, #127	; 0x7f
    5f2c:	f04f 0a00 	movne.w	sl, #0
    5f30:	47c8      	blx	r9
    5f32:	6863      	ldr	r3, [r4, #4]
    5f34:	443b      	add	r3, r7
    5f36:	4642      	mov	r2, r8
    5f38:	6858      	ldr	r0, [r3, #4]
    5f3a:	2102      	movs	r1, #2
    5f3c:	3007      	adds	r0, #7
    5f3e:	47c8      	blx	r9
    5f40:	6863      	ldr	r3, [r4, #4]
    5f42:	443b      	add	r3, r7
    5f44:	4652      	mov	r2, sl
    5f46:	6858      	ldr	r0, [r3, #4]
    5f48:	2102      	movs	r1, #2
    5f4a:	3009      	adds	r0, #9
    5f4c:	47c8      	blx	r9
    5f4e:	6863      	ldr	r3, [r4, #4]
    5f50:	443b      	add	r3, r7
    5f52:	2102      	movs	r1, #2
    5f54:	6858      	ldr	r0, [r3, #4]
    5f56:	ea4f 024a 	mov.w	r2, sl, lsl #1
    5f5a:	3015      	adds	r0, #21
    5f5c:	47c8      	blx	r9
    5f5e:	6863      	ldr	r3, [r4, #4]
    5f60:	480d      	ldr	r0, [pc, #52]	; (5f98 <grid_module_bu16_revb_hardware_transfer_complete_cb+0x254>)
    5f62:	441f      	add	r7, r3
    5f64:	fa5f f18b 	uxtb.w	r1, fp
    5f68:	68fb      	ldr	r3, [r7, #12]
    5f6a:	f883 a000 	strb.w	sl, [r3]
    5f6e:	4b0c      	ldr	r3, [pc, #48]	; (5fa0 <grid_module_bu16_revb_hardware_transfer_complete_cb+0x25c>)
    5f70:	4798      	blx	r3
    5f72:	a806      	add	r0, sp, #24
    5f74:	47b0      	blx	r6
    5f76:	2300      	movs	r3, #0
    5f78:	702b      	strb	r3, [r5, #0]
    5f7a:	4b0e      	ldr	r3, [pc, #56]	; (5fb4 <grid_module_bu16_revb_hardware_transfer_complete_cb+0x270>)
    5f7c:	4798      	blx	r3
    5f7e:	e6ec      	b.n	5d5a <grid_module_bu16_revb_hardware_transfer_complete_cb+0x16>
    5f80:	2200      	movs	r2, #0
    5f82:	701a      	strb	r2, [r3, #0]
    5f84:	2281      	movs	r2, #129	; 0x81
    5f86:	e70d      	b.n	5da4 <grid_module_bu16_revb_hardware_transfer_complete_cb+0x60>
    5f88:	2000064e 	.word	0x2000064e
    5f8c:	000078ed 	.word	0x000078ed
    5f90:	000078fb 	.word	0x000078fb
    5f94:	41008000 	.word	0x41008000
    5f98:	20001c7c 	.word	0x20001c7c
    5f9c:	000071b5 	.word	0x000071b5
    5fa0:	00007565 	.word	0x00007565
    5fa4:	20000300 	.word	0x20000300
    5fa8:	00007869 	.word	0x00007869
    5fac:	20000fdc 	.word	0x20000fdc
    5fb0:	200011b0 	.word	0x200011b0
    5fb4:	00005d25 	.word	0x00005d25

00005fb8 <grid_module_bu16_revb_hardware_init>:
    5fb8:	e92d 41f0 	stmdb	sp!, {r4, r5, r6, r7, r8, lr}
    5fbc:	4f0b      	ldr	r7, [pc, #44]	; (5fec <grid_module_bu16_revb_hardware_init+0x34>)
    5fbe:	4c0c      	ldr	r4, [pc, #48]	; (5ff0 <grid_module_bu16_revb_hardware_init+0x38>)
    5fc0:	4e0c      	ldr	r6, [pc, #48]	; (5ff4 <grid_module_bu16_revb_hardware_init+0x3c>)
    5fc2:	4d0d      	ldr	r5, [pc, #52]	; (5ff8 <grid_module_bu16_revb_hardware_init+0x40>)
    5fc4:	2200      	movs	r2, #0
    5fc6:	463b      	mov	r3, r7
    5fc8:	4611      	mov	r1, r2
    5fca:	4620      	mov	r0, r4
    5fcc:	47b0      	blx	r6
    5fce:	2200      	movs	r2, #0
    5fd0:	463b      	mov	r3, r7
    5fd2:	4611      	mov	r1, r2
    5fd4:	4628      	mov	r0, r5
    5fd6:	47b0      	blx	r6
    5fd8:	4620      	mov	r0, r4
    5fda:	4c08      	ldr	r4, [pc, #32]	; (5ffc <grid_module_bu16_revb_hardware_init+0x44>)
    5fdc:	2100      	movs	r1, #0
    5fde:	47a0      	blx	r4
    5fe0:	4628      	mov	r0, r5
    5fe2:	4623      	mov	r3, r4
    5fe4:	2100      	movs	r1, #0
    5fe6:	e8bd 41f0 	ldmia.w	sp!, {r4, r5, r6, r7, r8, lr}
    5fea:	4718      	bx	r3
    5fec:	00005d45 	.word	0x00005d45
    5ff0:	20000fdc 	.word	0x20000fdc
    5ff4:	0000782d 	.word	0x0000782d
    5ff8:	200011b0 	.word	0x200011b0
    5ffc:	0000781d 	.word	0x0000781d

00006000 <grid_module_bu16_revb_init>:
    6000:	e92d 4ff0 	stmdb	sp!, {r4, r5, r6, r7, r8, r9, sl, fp, lr}
    6004:	2110      	movs	r1, #16
    6006:	4605      	mov	r5, r0
    6008:	b09b      	sub	sp, #108	; 0x6c
    600a:	4b2b      	ldr	r3, [pc, #172]	; (60b8 <grid_module_bu16_revb_init+0xb8>)
    600c:	482b      	ldr	r0, [pc, #172]	; (60bc <grid_module_bu16_revb_init+0xbc>)
    600e:	4798      	blx	r3
    6010:	4b2b      	ldr	r3, [pc, #172]	; (60c0 <grid_module_bu16_revb_init+0xc0>)
    6012:	2111      	movs	r1, #17
    6014:	4628      	mov	r0, r5
    6016:	4798      	blx	r3
    6018:	686b      	ldr	r3, [r5, #4]
    601a:	2b00      	cmp	r3, #0
    601c:	d033      	beq.n	6086 <grid_module_bu16_revb_init+0x86>
    601e:	4e29      	ldr	r6, [pc, #164]	; (60c4 <grid_module_bu16_revb_init+0xc4>)
    6020:	4f29      	ldr	r7, [pc, #164]	; (60c8 <grid_module_bu16_revb_init+0xc8>)
    6022:	2400      	movs	r4, #0
    6024:	fa5f f984 	uxtb.w	r9, r4
    6028:	2103      	movs	r1, #3
    602a:	2c00      	cmp	r4, #0
    602c:	d12e      	bne.n	608c <grid_module_bu16_revb_init+0x8c>
    602e:	2283      	movs	r2, #131	; 0x83
    6030:	2313      	movs	r3, #19
    6032:	9103      	str	r1, [sp, #12]
    6034:	2180      	movs	r1, #128	; 0x80
    6036:	e88d 000e 	stmia.w	sp, {r1, r2, r3}
    603a:	a812      	add	r0, sp, #72	; 0x48
    603c:	2301      	movs	r3, #1
    603e:	2202      	movs	r2, #2
    6040:	4922      	ldr	r1, [pc, #136]	; (60cc <grid_module_bu16_revb_init+0xcc>)
    6042:	47b0      	blx	r6
    6044:	f8df b098 	ldr.w	fp, [pc, #152]	; 60e0 <grid_module_bu16_revb_init+0xe0>
    6048:	a812      	add	r0, sp, #72	; 0x48
    604a:	47d8      	blx	fp
    604c:	f10d 0a34 	add.w	sl, sp, #52	; 0x34
    6050:	491f      	ldr	r1, [pc, #124]	; (60d0 <grid_module_bu16_revb_init+0xd0>)
    6052:	4a20      	ldr	r2, [pc, #128]	; (60d4 <grid_module_bu16_revb_init+0xd4>)
    6054:	4680      	mov	r8, r0
    6056:	4650      	mov	r0, sl
    6058:	4790      	blx	r2
    605a:	4650      	mov	r0, sl
    605c:	47d8      	blx	fp
    605e:	b2c0      	uxtb	r0, r0
    6060:	9001      	str	r0, [sp, #4]
    6062:	4649      	mov	r1, r9
    6064:	f8cd a000 	str.w	sl, [sp]
    6068:	fa5f f388 	uxtb.w	r3, r8
    606c:	aa12      	add	r2, sp, #72	; 0x48
    606e:	4628      	mov	r0, r5
    6070:	f8df 9070 	ldr.w	r9, [pc, #112]	; 60e4 <grid_module_bu16_revb_init+0xe4>
    6074:	47c8      	blx	r9
    6076:	b930      	cbnz	r0, 6086 <grid_module_bu16_revb_init+0x86>
    6078:	3401      	adds	r4, #1
    607a:	2c11      	cmp	r4, #17
    607c:	d1d2      	bne.n	6024 <grid_module_bu16_revb_init+0x24>
    607e:	4b16      	ldr	r3, [pc, #88]	; (60d8 <grid_module_bu16_revb_init+0xd8>)
    6080:	4798      	blx	r3
    6082:	4b16      	ldr	r3, [pc, #88]	; (60dc <grid_module_bu16_revb_init+0xdc>)
    6084:	4798      	blx	r3
    6086:	b01b      	add	sp, #108	; 0x6c
    6088:	e8bd 8ff0 	ldmia.w	sp!, {r4, r5, r6, r7, r8, r9, sl, fp, pc}
    608c:	2263      	movs	r2, #99	; 0x63
    608e:	2300      	movs	r3, #0
    6090:	1e60      	subs	r0, r4, #1
    6092:	910b      	str	r1, [sp, #44]	; 0x2c
    6094:	9208      	str	r2, [sp, #32]
    6096:	9106      	str	r1, [sp, #24]
    6098:	2202      	movs	r2, #2
    609a:	9104      	str	r1, [sp, #16]
    609c:	2190      	movs	r1, #144	; 0x90
    609e:	9009      	str	r0, [sp, #36]	; 0x24
    60a0:	9002      	str	r0, [sp, #8]
    60a2:	9101      	str	r1, [sp, #4]
    60a4:	930a      	str	r3, [sp, #40]	; 0x28
    60a6:	9307      	str	r3, [sp, #28]
    60a8:	9205      	str	r2, [sp, #20]
    60aa:	9303      	str	r3, [sp, #12]
    60ac:	9300      	str	r3, [sp, #0]
    60ae:	4639      	mov	r1, r7
    60b0:	a812      	add	r0, sp, #72	; 0x48
    60b2:	47b0      	blx	r6
    60b4:	e7c6      	b.n	6044 <grid_module_bu16_revb_init+0x44>
    60b6:	bf00      	nop
    60b8:	00005bb9 	.word	0x00005bb9
    60bc:	20003708 	.word	0x20003708
    60c0:	000074a1 	.word	0x000074a1
    60c4:	0000d489 	.word	0x0000d489
    60c8:	0000dcae 	.word	0x0000dcae
    60cc:	0000dc99 	.word	0x0000dc99
    60d0:	0000dcdf 	.word	0x0000dcdf
    60d4:	0000d4d1 	.word	0x0000d4d1
    60d8:	00005fb9 	.word	0x00005fb9
    60dc:	00005d25 	.word	0x00005d25
    60e0:	0000d4e1 	.word	0x0000d4e1
    60e4:	000074b9 	.word	0x000074b9

000060e8 <grid_module_en16_reva_hardware_start_transfer>:
    60e8:	b510      	push	{r4, lr}
    60ea:	4b08      	ldr	r3, [pc, #32]	; (610c <grid_module_en16_reva_hardware_start_transfer+0x24>)
    60ec:	4c08      	ldr	r4, [pc, #32]	; (6110 <grid_module_en16_reva_hardware_start_transfer+0x28>)
    60ee:	f44f 1200 	mov.w	r2, #2097152	; 0x200000
    60f2:	619a      	str	r2, [r3, #24]
    60f4:	4620      	mov	r0, r4
    60f6:	4b07      	ldr	r3, [pc, #28]	; (6114 <grid_module_en16_reva_hardware_start_transfer+0x2c>)
    60f8:	4798      	blx	r3
    60fa:	4620      	mov	r0, r4
    60fc:	4c06      	ldr	r4, [pc, #24]	; (6118 <grid_module_en16_reva_hardware_start_transfer+0x30>)
    60fe:	4a07      	ldr	r2, [pc, #28]	; (611c <grid_module_en16_reva_hardware_start_transfer+0x34>)
    6100:	4907      	ldr	r1, [pc, #28]	; (6120 <grid_module_en16_reva_hardware_start_transfer+0x38>)
    6102:	46a4      	mov	ip, r4
    6104:	2308      	movs	r3, #8
    6106:	e8bd 4010 	ldmia.w	sp!, {r4, lr}
    610a:	4760      	bx	ip
    610c:	41008000 	.word	0x41008000
    6110:	20000e8c 	.word	0x20000e8c
    6114:	00007c3d 	.word	0x00007c3d
    6118:	00007c79 	.word	0x00007c79
    611c:	2000175d 	.word	0x2000175d
    6120:	20000310 	.word	0x20000310
    6124:	00000000 	.word	0x00000000

00006128 <grid_module_en16_reva_hardware_transfer_complete_cb>:
    6128:	4ba7      	ldr	r3, [pc, #668]	; (63c8 <grid_module_en16_reva_hardware_transfer_complete_cb+0x2a0>)
    612a:	e92d 4ff7 	stmdb	sp!, {r0, r1, r2, r4, r5, r6, r7, r8, r9, sl, fp, lr}
    612e:	f44f 1200 	mov.w	r2, #2097152	; 0x200000
    6132:	4ca6      	ldr	r4, [pc, #664]	; (63cc <grid_module_en16_reva_hardware_transfer_complete_cb+0x2a4>)
    6134:	615a      	str	r2, [r3, #20]
    6136:	f04f 0800 	mov.w	r8, #0
    613a:	fa5f f288 	uxtb.w	r2, r8
    613e:	0853      	lsrs	r3, r2, #1
    6140:	49a3      	ldr	r1, [pc, #652]	; (63d0 <grid_module_en16_reva_hardware_transfer_complete_cb+0x2a8>)
    6142:	5cce      	ldrb	r6, [r1, r3]
    6144:	49a3      	ldr	r1, [pc, #652]	; (63d4 <grid_module_en16_reva_hardware_transfer_complete_cb+0x2ac>)
    6146:	f002 0301 	and.w	r3, r2, #1
    614a:	009b      	lsls	r3, r3, #2
    614c:	411e      	asrs	r6, r3
    614e:	b2f6      	uxtb	r6, r6
    6150:	f811 1008 	ldrb.w	r1, [r1, r8]
    6154:	f006 030f 	and.w	r3, r6, #15
    6158:	428b      	cmp	r3, r1
    615a:	f000 80f0 	beq.w	633e <grid_module_en16_reva_hardware_transfer_complete_cb+0x216>
    615e:	499e      	ldr	r1, [pc, #632]	; (63d8 <grid_module_en16_reva_hardware_transfer_complete_cb+0x2b0>)
    6160:	4d9e      	ldr	r5, [pc, #632]	; (63dc <grid_module_en16_reva_hardware_transfer_complete_cb+0x2b4>)
    6162:	700a      	strb	r2, [r1, #0]
    6164:	7822      	ldrb	r2, [r4, #0]
    6166:	eb05 1102 	add.w	r1, r5, r2, lsl #4
    616a:	0898      	lsrs	r0, r3, #2
    616c:	784f      	ldrb	r7, [r1, #1]
    616e:	4287      	cmp	r7, r0
    6170:	f3c3 0b40 	ubfx	fp, r3, #1, #1
    6174:	f006 0601 	and.w	r6, r6, #1
    6178:	d042      	beq.n	6200 <grid_module_en16_reva_hardware_transfer_complete_cb+0xd8>
    617a:	2701      	movs	r7, #1
    617c:	708f      	strb	r7, [r1, #2]
    617e:	4f98      	ldr	r7, [pc, #608]	; (63e0 <grid_module_en16_reva_hardware_transfer_complete_cb+0x2b8>)
    6180:	7048      	strb	r0, [r1, #1]
    6182:	1c51      	adds	r1, r2, #1
    6184:	687a      	ldr	r2, [r7, #4]
    6186:	f8df 9288 	ldr.w	r9, [pc, #648]	; 6410 <grid_module_en16_reva_hardware_transfer_complete_cb+0x2e8>
    618a:	eb02 1201 	add.w	r2, r2, r1, lsl #4
    618e:	68d1      	ldr	r1, [r2, #12]
    6190:	6850      	ldr	r0, [r2, #4]
    6192:	7809      	ldrb	r1, [r1, #0]
    6194:	2900      	cmp	r1, #0
    6196:	bf0c      	ite	eq
    6198:	2290      	moveq	r2, #144	; 0x90
    619a:	2280      	movne	r2, #128	; 0x80
    619c:	f04f 0102 	mov.w	r1, #2
    61a0:	f100 0005 	add.w	r0, r0, #5
    61a4:	bf0c      	ite	eq
    61a6:	f04f 0a7f 	moveq.w	sl, #127	; 0x7f
    61aa:	f04f 0a00 	movne.w	sl, #0
    61ae:	47c8      	blx	r9
    61b0:	7822      	ldrb	r2, [r4, #0]
    61b2:	6879      	ldr	r1, [r7, #4]
    61b4:	eb01 1102 	add.w	r1, r1, r2, lsl #4
    61b8:	6948      	ldr	r0, [r1, #20]
    61ba:	2102      	movs	r1, #2
    61bc:	3007      	adds	r0, #7
    61be:	47c8      	blx	r9
    61c0:	7821      	ldrb	r1, [r4, #0]
    61c2:	687a      	ldr	r2, [r7, #4]
    61c4:	eb02 1201 	add.w	r2, r2, r1, lsl #4
    61c8:	2102      	movs	r1, #2
    61ca:	6950      	ldr	r0, [r2, #20]
    61cc:	4652      	mov	r2, sl
    61ce:	3009      	adds	r0, #9
    61d0:	47c8      	blx	r9
    61d2:	7821      	ldrb	r1, [r4, #0]
    61d4:	687a      	ldr	r2, [r7, #4]
    61d6:	eb02 1201 	add.w	r2, r2, r1, lsl #4
    61da:	2102      	movs	r1, #2
    61dc:	6950      	ldr	r0, [r2, #20]
    61de:	ea4f 024a 	mov.w	r2, sl, lsl #1
    61e2:	3015      	adds	r0, #21
    61e4:	47c8      	blx	r9
    61e6:	7821      	ldrb	r1, [r4, #0]
    61e8:	687a      	ldr	r2, [r7, #4]
    61ea:	eb02 1201 	add.w	r2, r2, r1, lsl #4
    61ee:	4638      	mov	r0, r7
    61f0:	69d2      	ldr	r2, [r2, #28]
    61f2:	f882 a000 	strb.w	sl, [r2]
    61f6:	7821      	ldrb	r1, [r4, #0]
    61f8:	4a7a      	ldr	r2, [pc, #488]	; (63e4 <grid_module_en16_reva_hardware_transfer_complete_cb+0x2bc>)
    61fa:	3101      	adds	r1, #1
    61fc:	b2c9      	uxtb	r1, r1
    61fe:	4790      	blx	r2
    6200:	7822      	ldrb	r2, [r4, #0]
    6202:	3201      	adds	r2, #1
    6204:	0112      	lsls	r2, r2, #4
    6206:	18a9      	adds	r1, r5, r2
    6208:	7b49      	ldrb	r1, [r1, #13]
    620a:	4559      	cmp	r1, fp
    620c:	f000 80cd 	beq.w	63aa <grid_module_en16_reva_hardware_transfer_complete_cb+0x282>
    6210:	45b3      	cmp	fp, r6
    6212:	bf14      	ite	ne
    6214:	f04f 37ff 	movne.w	r7, #4294967295
    6218:	2701      	moveq	r7, #1
    621a:	442a      	add	r2, r5
    621c:	f882 b00d 	strb.w	fp, [r2, #13]
    6220:	7396      	strb	r6, [r2, #14]
    6222:	2f00      	cmp	r7, #0
    6224:	f000 808b 	beq.w	633e <grid_module_en16_reva_hardware_transfer_complete_cb+0x216>
    6228:	6891      	ldr	r1, [r2, #8]
    622a:	4b6f      	ldr	r3, [pc, #444]	; (63e8 <grid_module_en16_reva_hardware_transfer_complete_cb+0x2c0>)
    622c:	486f      	ldr	r0, [pc, #444]	; (63ec <grid_module_en16_reva_hardware_transfer_complete_cb+0x2c4>)
    622e:	4e70      	ldr	r6, [pc, #448]	; (63f0 <grid_module_en16_reva_hardware_transfer_complete_cb+0x2c8>)
    6230:	4798      	blx	r3
    6232:	9000      	str	r0, [sp, #0]
    6234:	9b00      	ldr	r3, [sp, #0]
    6236:	486f      	ldr	r0, [pc, #444]	; (63f4 <grid_module_en16_reva_hardware_transfer_complete_cb+0x2cc>)
    6238:	f5b3 7fc8 	cmp.w	r3, #400	; 0x190
    623c:	bf84      	itt	hi
    623e:	f44f 73c8 	movhi.w	r3, #400	; 0x190
    6242:	9300      	strhi	r3, [sp, #0]
    6244:	9b00      	ldr	r3, [sp, #0]
    6246:	2b13      	cmp	r3, #19
    6248:	bf9c      	itt	ls
    624a:	2314      	movls	r3, #20
    624c:	9300      	strls	r3, [sp, #0]
    624e:	9b00      	ldr	r3, [sp, #0]
    6250:	9a00      	ldr	r2, [sp, #0]
    6252:	fb02 0013 	mls	r0, r2, r3, r0
    6256:	4b68      	ldr	r3, [pc, #416]	; (63f8 <grid_module_en16_reva_hardware_transfer_complete_cb+0x2d0>)
    6258:	4798      	blx	r3
    625a:	a359      	add	r3, pc, #356	; (adr r3, 63c0 <grid_module_en16_reva_hardware_transfer_complete_cb+0x298>)
    625c:	e9d3 2300 	ldrd	r2, r3, [r3]
    6260:	47b0      	blx	r6
    6262:	2200      	movs	r2, #0
    6264:	4b65      	ldr	r3, [pc, #404]	; (63fc <grid_module_en16_reva_hardware_transfer_complete_cb+0x2d4>)
    6266:	4e66      	ldr	r6, [pc, #408]	; (6400 <grid_module_en16_reva_hardware_transfer_complete_cb+0x2d8>)
    6268:	47b0      	blx	r6
    626a:	4b66      	ldr	r3, [pc, #408]	; (6404 <grid_module_en16_reva_hardware_transfer_complete_cb+0x2dc>)
    626c:	4798      	blx	r3
    626e:	4b66      	ldr	r3, [pc, #408]	; (6408 <grid_module_en16_reva_hardware_transfer_complete_cb+0x2e0>)
    6270:	7826      	ldrb	r6, [r4, #0]
    6272:	fa5f f980 	uxtb.w	r9, r0
    6276:	485d      	ldr	r0, [pc, #372]	; (63ec <grid_module_en16_reva_hardware_transfer_complete_cb+0x2c4>)
    6278:	4798      	blx	r3
    627a:	7821      	ldrb	r1, [r4, #0]
    627c:	1c4a      	adds	r2, r1, #1
    627e:	eb05 1202 	add.w	r2, r5, r2, lsl #4
    6282:	3601      	adds	r6, #1
    6284:	78d3      	ldrb	r3, [r2, #3]
    6286:	eb05 1606 	add.w	r6, r5, r6, lsl #4
    628a:	b2ff      	uxtb	r7, r7
    628c:	60b0      	str	r0, [r6, #8]
    628e:	443b      	add	r3, r7
    6290:	4e53      	ldr	r6, [pc, #332]	; (63e0 <grid_module_en16_reva_hardware_transfer_complete_cb+0x2b8>)
    6292:	f003 037f 	and.w	r3, r3, #127	; 0x7f
    6296:	3111      	adds	r1, #17
    6298:	70d3      	strb	r3, [r2, #3]
    629a:	b2c9      	uxtb	r1, r1
    629c:	4b5b      	ldr	r3, [pc, #364]	; (640c <grid_module_en16_reva_hardware_transfer_complete_cb+0x2e4>)
    629e:	4630      	mov	r0, r6
    62a0:	4798      	blx	r3
    62a2:	7822      	ldrb	r2, [r4, #0]
    62a4:	6873      	ldr	r3, [r6, #4]
    62a6:	eb03 1302 	add.w	r3, r3, r2, lsl #4
    62aa:	f8d3 311c 	ldr.w	r3, [r3, #284]	; 0x11c
    62ae:	2800      	cmp	r0, #0
    62b0:	d17d      	bne.n	63ae <grid_module_en16_reva_hardware_transfer_complete_cb+0x286>
    62b2:	7018      	strb	r0, [r3, #0]
    62b4:	2340      	movs	r3, #64	; 0x40
    62b6:	7822      	ldrb	r2, [r4, #0]
    62b8:	fb09 3707 	mla	r7, r9, r7, r3
    62bc:	6873      	ldr	r3, [r6, #4]
    62be:	f102 0111 	add.w	r1, r2, #17
    62c2:	eb03 1301 	add.w	r3, r3, r1, lsl #4
    62c6:	b2ff      	uxtb	r7, r7
    62c8:	68d9      	ldr	r1, [r3, #12]
    62ca:	7809      	ldrb	r1, [r1, #0]
    62cc:	42b9      	cmp	r1, r7
    62ce:	d036      	beq.n	633e <grid_module_en16_reva_hardware_transfer_complete_cb+0x216>
    62d0:	eb05 1502 	add.w	r5, r5, r2, lsl #4
    62d4:	6858      	ldr	r0, [r3, #4]
    62d6:	f895 9013 	ldrb.w	r9, [r5, #19]
    62da:	4d4d      	ldr	r5, [pc, #308]	; (6410 <grid_module_en16_reva_hardware_transfer_complete_cb+0x2e8>)
    62dc:	22b0      	movs	r2, #176	; 0xb0
    62de:	2102      	movs	r1, #2
    62e0:	3005      	adds	r0, #5
    62e2:	47a8      	blx	r5
    62e4:	7822      	ldrb	r2, [r4, #0]
    62e6:	6873      	ldr	r3, [r6, #4]
    62e8:	eb03 1302 	add.w	r3, r3, r2, lsl #4
    62ec:	2102      	movs	r1, #2
    62ee:	f8d3 0114 	ldr.w	r0, [r3, #276]	; 0x114
    62f2:	3007      	adds	r0, #7
    62f4:	47a8      	blx	r5
    62f6:	7822      	ldrb	r2, [r4, #0]
    62f8:	6873      	ldr	r3, [r6, #4]
    62fa:	eb03 1302 	add.w	r3, r3, r2, lsl #4
    62fe:	2102      	movs	r1, #2
    6300:	f8d3 0114 	ldr.w	r0, [r3, #276]	; 0x114
    6304:	463a      	mov	r2, r7
    6306:	3009      	adds	r0, #9
    6308:	47a8      	blx	r5
    630a:	7821      	ldrb	r1, [r4, #0]
    630c:	6873      	ldr	r3, [r6, #4]
    630e:	eb03 1301 	add.w	r3, r3, r1, lsl #4
    6312:	ea4f 0249 	mov.w	r2, r9, lsl #1
    6316:	f8d3 0114 	ldr.w	r0, [r3, #276]	; 0x114
    631a:	f002 02fe 	and.w	r2, r2, #254	; 0xfe
    631e:	2102      	movs	r1, #2
    6320:	3015      	adds	r0, #21
    6322:	47a8      	blx	r5
    6324:	7822      	ldrb	r2, [r4, #0]
    6326:	6873      	ldr	r3, [r6, #4]
    6328:	482d      	ldr	r0, [pc, #180]	; (63e0 <grid_module_en16_reva_hardware_transfer_complete_cb+0x2b8>)
    632a:	eb03 1302 	add.w	r3, r3, r2, lsl #4
    632e:	f8d3 311c 	ldr.w	r3, [r3, #284]	; 0x11c
    6332:	701f      	strb	r7, [r3, #0]
    6334:	7821      	ldrb	r1, [r4, #0]
    6336:	4b2b      	ldr	r3, [pc, #172]	; (63e4 <grid_module_en16_reva_hardware_transfer_complete_cb+0x2bc>)
    6338:	3111      	adds	r1, #17
    633a:	b2c9      	uxtb	r1, r1
    633c:	4798      	blx	r3
    633e:	f108 0801 	add.w	r8, r8, #1
    6342:	f1b8 0f10 	cmp.w	r8, #16
    6346:	f104 0401 	add.w	r4, r4, #1
    634a:	f47f aef6 	bne.w	613a <grid_module_en16_reva_hardware_transfer_complete_cb+0x12>
    634e:	a801      	add	r0, sp, #4
    6350:	4b30      	ldr	r3, [pc, #192]	; (6414 <grid_module_en16_reva_hardware_transfer_complete_cb+0x2ec>)
    6352:	4798      	blx	r3
    6354:	4b1c      	ldr	r3, [pc, #112]	; (63c8 <grid_module_en16_reva_hardware_transfer_complete_cb+0x2a0>)
    6356:	f8d3 1100 	ldr.w	r1, [r3, #256]	; 0x100
    635a:	f8d3 2120 	ldr.w	r2, [r3, #288]	; 0x120
    635e:	f8d3 4110 	ldr.w	r4, [r3, #272]	; 0x110
    6362:	4b2d      	ldr	r3, [pc, #180]	; (6418 <grid_module_en16_reva_hardware_transfer_complete_cb+0x2f0>)
    6364:	4054      	eors	r4, r2
    6366:	400c      	ands	r4, r1
    6368:	a801      	add	r0, sp, #4
    636a:	4054      	eors	r4, r2
    636c:	4798      	blx	r3
    636e:	4b1c      	ldr	r3, [pc, #112]	; (63e0 <grid_module_en16_reva_hardware_transfer_complete_cb+0x2b8>)
    6370:	685a      	ldr	r2, [r3, #4]
    6372:	68d2      	ldr	r2, [r2, #12]
    6374:	7811      	ldrb	r1, [r2, #0]
    6376:	f3c4 24c0 	ubfx	r4, r4, #11, #1
    637a:	428c      	cmp	r4, r1
    637c:	d00d      	beq.n	639a <grid_module_en16_reva_hardware_transfer_complete_cb+0x272>
    637e:	b9c1      	cbnz	r1, 63b2 <grid_module_en16_reva_hardware_transfer_complete_cb+0x28a>
    6380:	2101      	movs	r1, #1
    6382:	7011      	strb	r1, [r2, #0]
    6384:	2281      	movs	r2, #129	; 0x81
    6386:	685b      	ldr	r3, [r3, #4]
    6388:	6858      	ldr	r0, [r3, #4]
    638a:	4b21      	ldr	r3, [pc, #132]	; (6410 <grid_module_en16_reva_hardware_transfer_complete_cb+0x2e8>)
    638c:	2102      	movs	r1, #2
    638e:	3003      	adds	r0, #3
    6390:	4798      	blx	r3
    6392:	2100      	movs	r1, #0
    6394:	4812      	ldr	r0, [pc, #72]	; (63e0 <grid_module_en16_reva_hardware_transfer_complete_cb+0x2b8>)
    6396:	4b13      	ldr	r3, [pc, #76]	; (63e4 <grid_module_en16_reva_hardware_transfer_complete_cb+0x2bc>)
    6398:	4798      	blx	r3
    639a:	4b20      	ldr	r3, [pc, #128]	; (641c <grid_module_en16_reva_hardware_transfer_complete_cb+0x2f4>)
    639c:	2200      	movs	r2, #0
    639e:	701a      	strb	r2, [r3, #0]
    63a0:	4b1f      	ldr	r3, [pc, #124]	; (6420 <grid_module_en16_reva_hardware_transfer_complete_cb+0x2f8>)
    63a2:	4798      	blx	r3
    63a4:	b003      	add	sp, #12
    63a6:	e8bd 8ff0 	ldmia.w	sp!, {r4, r5, r6, r7, r8, r9, sl, fp, pc}
    63aa:	2700      	movs	r7, #0
    63ac:	e735      	b.n	621a <grid_module_en16_reva_hardware_transfer_complete_cb+0xf2>
    63ae:	781b      	ldrb	r3, [r3, #0]
    63b0:	e781      	b.n	62b6 <grid_module_en16_reva_hardware_transfer_complete_cb+0x18e>
    63b2:	2100      	movs	r1, #0
    63b4:	7011      	strb	r1, [r2, #0]
    63b6:	2280      	movs	r2, #128	; 0x80
    63b8:	e7e5      	b.n	6386 <grid_module_en16_reva_hardware_transfer_complete_cb+0x25e>
    63ba:	bf00      	nop
    63bc:	f3af 8000 	nop.w
    63c0:	00000000 	.word	0x00000000
    63c4:	40e38800 	.word	0x40e38800
    63c8:	41008000 	.word	0x41008000
    63cc:	2000031e 	.word	0x2000031e
    63d0:	2000175d 	.word	0x2000175d
    63d4:	20001748 	.word	0x20001748
    63d8:	20001730 	.word	0x20001730
    63dc:	20003934 	.word	0x20003934
    63e0:	20001c7c 	.word	0x20001c7c
    63e4:	00007565 	.word	0x00007565
    63e8:	000070dd 	.word	0x000070dd
    63ec:	20001c88 	.word	0x20001c88
    63f0:	0000d00d 	.word	0x0000d00d
    63f4:	00027100 	.word	0x00027100
    63f8:	0000cccd 	.word	0x0000cccd
    63fc:	3ff00000 	.word	0x3ff00000
    6400:	0000ca55 	.word	0x0000ca55
    6404:	0000d1dd 	.word	0x0000d1dd
    6408:	000070d9 	.word	0x000070d9
    640c:	0000755d 	.word	0x0000755d
    6410:	000071b5 	.word	0x000071b5
    6414:	000078ed 	.word	0x000078ed
    6418:	000078fb 	.word	0x000078fb
    641c:	20003734 	.word	0x20003734
    6420:	000060e9 	.word	0x000060e9

00006424 <grid_module_en16_reva_hardware_init>:
    6424:	4b0f      	ldr	r3, [pc, #60]	; (6464 <grid_module_en16_reva_hardware_init+0x40>)
    6426:	f44f 1200 	mov.w	r2, #2097152	; 0x200000
    642a:	b510      	push	{r4, lr}
    642c:	615a      	str	r2, [r3, #20]
    642e:	4c0e      	ldr	r4, [pc, #56]	; (6468 <grid_module_en16_reva_hardware_init+0x44>)
    6430:	609a      	str	r2, [r3, #8]
    6432:	f04f 4280 	mov.w	r2, #1073741824	; 0x40000000
    6436:	629a      	str	r2, [r3, #40]	; 0x28
    6438:	4a0c      	ldr	r2, [pc, #48]	; (646c <grid_module_en16_reva_hardware_init+0x48>)
    643a:	629a      	str	r2, [r3, #40]	; 0x28
    643c:	2103      	movs	r1, #3
    643e:	4620      	mov	r0, r4
    6440:	4b0b      	ldr	r3, [pc, #44]	; (6470 <grid_module_en16_reva_hardware_init+0x4c>)
    6442:	4798      	blx	r3
    6444:	490b      	ldr	r1, [pc, #44]	; (6474 <grid_module_en16_reva_hardware_init+0x50>)
    6446:	4b0c      	ldr	r3, [pc, #48]	; (6478 <grid_module_en16_reva_hardware_init+0x54>)
    6448:	4620      	mov	r0, r4
    644a:	4798      	blx	r3
    644c:	490b      	ldr	r1, [pc, #44]	; (647c <grid_module_en16_reva_hardware_init+0x58>)
    644e:	4b0c      	ldr	r3, [pc, #48]	; (6480 <grid_module_en16_reva_hardware_init+0x5c>)
    6450:	4620      	mov	r0, r4
    6452:	4798      	blx	r3
    6454:	4620      	mov	r0, r4
    6456:	4a0b      	ldr	r2, [pc, #44]	; (6484 <grid_module_en16_reva_hardware_init+0x60>)
    6458:	4b0b      	ldr	r3, [pc, #44]	; (6488 <grid_module_en16_reva_hardware_init+0x64>)
    645a:	2100      	movs	r1, #0
    645c:	e8bd 4010 	ldmia.w	sp!, {r4, lr}
    6460:	4718      	bx	r3
    6462:	bf00      	nop
    6464:	41008000 	.word	0x41008000
    6468:	20000e8c 	.word	0x20000e8c
    646c:	c0000020 	.word	0xc0000020
    6470:	00007c61 	.word	0x00007c61
    6474:	00061a80 	.word	0x00061a80
    6478:	00007c49 	.word	0x00007c49
    647c:	20001744 	.word	0x20001744
    6480:	00007cdd 	.word	0x00007cdd
    6484:	00006129 	.word	0x00006129
    6488:	00007cc1 	.word	0x00007cc1

0000648c <grid_module_en16_reva_init>:
    648c:	e92d 4ff0 	stmdb	sp!, {r4, r5, r6, r7, r8, r9, sl, fp, lr}
    6490:	2321      	movs	r3, #33	; 0x21
    6492:	7003      	strb	r3, [r0, #0]
    6494:	4605      	mov	r5, r0
    6496:	b09b      	sub	sp, #108	; 0x6c
    6498:	f44f 7004 	mov.w	r0, #528	; 0x210
    649c:	4b35      	ldr	r3, [pc, #212]	; (6574 <grid_module_en16_reva_init+0xe8>)
    649e:	4e36      	ldr	r6, [pc, #216]	; (6578 <grid_module_en16_reva_init+0xec>)
    64a0:	f8df 80fc 	ldr.w	r8, [pc, #252]	; 65a0 <grid_module_en16_reva_init+0x114>
    64a4:	4798      	blx	r3
    64a6:	2400      	movs	r4, #0
    64a8:	6068      	str	r0, [r5, #4]
    64aa:	b2e7      	uxtb	r7, r4
    64ac:	2c00      	cmp	r4, #0
    64ae:	d136      	bne.n	651e <grid_module_en16_reva_init+0x92>
    64b0:	2080      	movs	r0, #128	; 0x80
    64b2:	2183      	movs	r1, #131	; 0x83
    64b4:	2239      	movs	r2, #57	; 0x39
    64b6:	2303      	movs	r3, #3
    64b8:	e88d 000f 	stmia.w	sp, {r0, r1, r2, r3}
    64bc:	2301      	movs	r3, #1
    64be:	2202      	movs	r2, #2
    64c0:	492e      	ldr	r1, [pc, #184]	; (657c <grid_module_en16_reva_init+0xf0>)
    64c2:	a812      	add	r0, sp, #72	; 0x48
    64c4:	47b0      	blx	r6
    64c6:	f8df b0dc 	ldr.w	fp, [pc, #220]	; 65a4 <grid_module_en16_reva_init+0x118>
    64ca:	a812      	add	r0, sp, #72	; 0x48
    64cc:	47d8      	blx	fp
    64ce:	f10d 0a34 	add.w	sl, sp, #52	; 0x34
    64d2:	492b      	ldr	r1, [pc, #172]	; (6580 <grid_module_en16_reva_init+0xf4>)
    64d4:	4a2b      	ldr	r2, [pc, #172]	; (6584 <grid_module_en16_reva_init+0xf8>)
    64d6:	4681      	mov	r9, r0
    64d8:	4650      	mov	r0, sl
    64da:	4790      	blx	r2
    64dc:	4650      	mov	r0, sl
    64de:	47d8      	blx	fp
    64e0:	b2c0      	uxtb	r0, r0
    64e2:	9001      	str	r0, [sp, #4]
    64e4:	4639      	mov	r1, r7
    64e6:	f8cd a000 	str.w	sl, [sp]
    64ea:	fa5f f389 	uxtb.w	r3, r9
    64ee:	aa12      	add	r2, sp, #72	; 0x48
    64f0:	4628      	mov	r0, r5
    64f2:	4f25      	ldr	r7, [pc, #148]	; (6588 <grid_module_en16_reva_init+0xfc>)
    64f4:	3401      	adds	r4, #1
    64f6:	47b8      	blx	r7
    64f8:	2c21      	cmp	r4, #33	; 0x21
    64fa:	d1d6      	bne.n	64aa <grid_module_en16_reva_init+0x1e>
    64fc:	4b23      	ldr	r3, [pc, #140]	; (658c <grid_module_en16_reva_init+0x100>)
    64fe:	2100      	movs	r1, #0
    6500:	010a      	lsls	r2, r1, #4
    6502:	54d1      	strb	r1, [r2, r3]
    6504:	3101      	adds	r1, #1
    6506:	2910      	cmp	r1, #16
    6508:	d1fa      	bne.n	6500 <grid_module_en16_reva_init+0x74>
    650a:	4b21      	ldr	r3, [pc, #132]	; (6590 <grid_module_en16_reva_init+0x104>)
    650c:	4821      	ldr	r0, [pc, #132]	; (6594 <grid_module_en16_reva_init+0x108>)
    650e:	4798      	blx	r3
    6510:	4b21      	ldr	r3, [pc, #132]	; (6598 <grid_module_en16_reva_init+0x10c>)
    6512:	4798      	blx	r3
    6514:	4b21      	ldr	r3, [pc, #132]	; (659c <grid_module_en16_reva_init+0x110>)
    6516:	4798      	blx	r3
    6518:	b01b      	add	sp, #108	; 0x6c
    651a:	e8bd 8ff0 	ldmia.w	sp!, {r4, r5, r6, r7, r8, r9, sl, fp, pc}
    651e:	2f10      	cmp	r7, #16
    6520:	f04f 0103 	mov.w	r1, #3
    6524:	d814      	bhi.n	6550 <grid_module_en16_reva_init+0xc4>
    6526:	2263      	movs	r2, #99	; 0x63
    6528:	2300      	movs	r3, #0
    652a:	1e60      	subs	r0, r4, #1
    652c:	9208      	str	r2, [sp, #32]
    652e:	2202      	movs	r2, #2
    6530:	910b      	str	r1, [sp, #44]	; 0x2c
    6532:	9106      	str	r1, [sp, #24]
    6534:	9104      	str	r1, [sp, #16]
    6536:	930a      	str	r3, [sp, #40]	; 0x28
    6538:	9009      	str	r0, [sp, #36]	; 0x24
    653a:	9307      	str	r3, [sp, #28]
    653c:	9205      	str	r2, [sp, #20]
    653e:	9303      	str	r3, [sp, #12]
    6540:	9002      	str	r0, [sp, #8]
    6542:	2190      	movs	r1, #144	; 0x90
    6544:	9101      	str	r1, [sp, #4]
    6546:	9300      	str	r3, [sp, #0]
    6548:	4641      	mov	r1, r8
    654a:	a812      	add	r0, sp, #72	; 0x48
    654c:	47b0      	blx	r6
    654e:	e7ba      	b.n	64c6 <grid_module_en16_reva_init+0x3a>
    6550:	2263      	movs	r2, #99	; 0x63
    6552:	2300      	movs	r3, #0
    6554:	f1a4 0011 	sub.w	r0, r4, #17
    6558:	9208      	str	r2, [sp, #32]
    655a:	2202      	movs	r2, #2
    655c:	910b      	str	r1, [sp, #44]	; 0x2c
    655e:	9106      	str	r1, [sp, #24]
    6560:	9104      	str	r1, [sp, #16]
    6562:	930a      	str	r3, [sp, #40]	; 0x28
    6564:	9009      	str	r0, [sp, #36]	; 0x24
    6566:	9307      	str	r3, [sp, #28]
    6568:	9205      	str	r2, [sp, #20]
    656a:	9303      	str	r3, [sp, #12]
    656c:	9002      	str	r0, [sp, #8]
    656e:	21b0      	movs	r1, #176	; 0xb0
    6570:	e7e8      	b.n	6544 <grid_module_en16_reva_init+0xb8>
    6572:	bf00      	nop
    6574:	0000d265 	.word	0x0000d265
    6578:	0000d489 	.word	0x0000d489
    657c:	0000dce2 	.word	0x0000dce2
    6580:	0000dcdf 	.word	0x0000dcdf
    6584:	0000d4d1 	.word	0x0000d4d1
    6588:	000074b9 	.word	0x000074b9
    658c:	20003934 	.word	0x20003934
    6590:	00005bb9 	.word	0x00005bb9
    6594:	20003708 	.word	0x20003708
    6598:	00006425 	.word	0x00006425
    659c:	000060e9 	.word	0x000060e9
    65a0:	0000dcae 	.word	0x0000dcae
    65a4:	0000d4e1 	.word	0x0000d4e1

000065a8 <grid_module_pbf4_reva_hardware_start_transfer>:
    65a8:	b510      	push	{r4, lr}
    65aa:	4c04      	ldr	r4, [pc, #16]	; (65bc <grid_module_pbf4_reva_hardware_start_transfer+0x14>)
    65ac:	4804      	ldr	r0, [pc, #16]	; (65c0 <grid_module_pbf4_reva_hardware_start_transfer+0x18>)
    65ae:	47a0      	blx	r4
    65b0:	4623      	mov	r3, r4
    65b2:	4804      	ldr	r0, [pc, #16]	; (65c4 <grid_module_pbf4_reva_hardware_start_transfer+0x1c>)
    65b4:	e8bd 4010 	ldmia.w	sp!, {r4, lr}
    65b8:	4718      	bx	r3
    65ba:	bf00      	nop
    65bc:	000078dd 	.word	0x000078dd
    65c0:	20000fdc 	.word	0x20000fdc
    65c4:	200011b0 	.word	0x200011b0

000065c8 <grid_module_pbf4_reva_hardware_transfer_complete_cb>:
    65c8:	e92d 4ff7 	stmdb	sp!, {r0, r1, r2, r4, r5, r6, r7, r8, r9, sl, fp, lr}
    65cc:	4a9c      	ldr	r2, [pc, #624]	; (6840 <grid_module_pbf4_reva_hardware_transfer_complete_cb+0x278>)
    65ce:	7813      	ldrb	r3, [r2, #0]
    65d0:	b933      	cbnz	r3, 65e0 <grid_module_pbf4_reva_hardware_transfer_complete_cb+0x18>
    65d2:	7813      	ldrb	r3, [r2, #0]
    65d4:	3301      	adds	r3, #1
    65d6:	b2db      	uxtb	r3, r3
    65d8:	7013      	strb	r3, [r2, #0]
    65da:	b003      	add	sp, #12
    65dc:	e8bd 8ff0 	ldmia.w	sp!, {r4, r5, r6, r7, r8, r9, sl, fp, pc}
    65e0:	a801      	add	r0, sp, #4
    65e2:	4b98      	ldr	r3, [pc, #608]	; (6844 <grid_module_pbf4_reva_hardware_transfer_complete_cb+0x27c>)
    65e4:	4c98      	ldr	r4, [pc, #608]	; (6848 <grid_module_pbf4_reva_hardware_transfer_complete_cb+0x280>)
    65e6:	4798      	blx	r3
    65e8:	4b98      	ldr	r3, [pc, #608]	; (684c <grid_module_pbf4_reva_hardware_transfer_complete_cb+0x284>)
    65ea:	f8d3 1100 	ldr.w	r1, [r3, #256]	; 0x100
    65ee:	f8d3 2120 	ldr.w	r2, [r3, #288]	; 0x120
    65f2:	f8d3 5110 	ldr.w	r5, [r3, #272]	; 0x110
    65f6:	4b96      	ldr	r3, [pc, #600]	; (6850 <grid_module_pbf4_reva_hardware_transfer_complete_cb+0x288>)
    65f8:	4055      	eors	r5, r2
    65fa:	400d      	ands	r5, r1
    65fc:	a801      	add	r0, sp, #4
    65fe:	4055      	eors	r5, r2
    6600:	4798      	blx	r3
    6602:	6863      	ldr	r3, [r4, #4]
    6604:	68db      	ldr	r3, [r3, #12]
    6606:	781a      	ldrb	r2, [r3, #0]
    6608:	f3c5 25c0 	ubfx	r5, r5, #11, #1
    660c:	4295      	cmp	r5, r2
    660e:	d00f      	beq.n	6630 <grid_module_pbf4_reva_hardware_transfer_complete_cb+0x68>
    6610:	2a00      	cmp	r2, #0
    6612:	f040 810a 	bne.w	682a <grid_module_pbf4_reva_hardware_transfer_complete_cb+0x262>
    6616:	2201      	movs	r2, #1
    6618:	701a      	strb	r2, [r3, #0]
    661a:	2280      	movs	r2, #128	; 0x80
    661c:	6863      	ldr	r3, [r4, #4]
    661e:	6858      	ldr	r0, [r3, #4]
    6620:	4b8c      	ldr	r3, [pc, #560]	; (6854 <grid_module_pbf4_reva_hardware_transfer_complete_cb+0x28c>)
    6622:	2102      	movs	r1, #2
    6624:	3003      	adds	r0, #3
    6626:	4798      	blx	r3
    6628:	2100      	movs	r1, #0
    662a:	4887      	ldr	r0, [pc, #540]	; (6848 <grid_module_pbf4_reva_hardware_transfer_complete_cb+0x280>)
    662c:	4b8a      	ldr	r3, [pc, #552]	; (6858 <grid_module_pbf4_reva_hardware_transfer_complete_cb+0x290>)
    662e:	4798      	blx	r3
    6630:	2300      	movs	r3, #0
    6632:	f8ad 3000 	strh.w	r3, [sp]
    6636:	f8ad 3002 	strh.w	r3, [sp, #2]
    663a:	4b88      	ldr	r3, [pc, #544]	; (685c <grid_module_pbf4_reva_hardware_transfer_complete_cb+0x294>)
    663c:	4988      	ldr	r1, [pc, #544]	; (6860 <grid_module_pbf4_reva_hardware_transfer_complete_cb+0x298>)
    663e:	781a      	ldrb	r2, [r3, #0]
    6640:	4f88      	ldr	r7, [pc, #544]	; (6864 <grid_module_pbf4_reva_hardware_transfer_complete_cb+0x29c>)
    6642:	4889      	ldr	r0, [pc, #548]	; (6868 <grid_module_pbf4_reva_hardware_transfer_complete_cb+0x2a0>)
    6644:	f8df b22c 	ldr.w	fp, [pc, #556]	; 6874 <grid_module_pbf4_reva_hardware_transfer_complete_cb+0x2ac>
    6648:	f8df a22c 	ldr.w	sl, [pc, #556]	; 6878 <grid_module_pbf4_reva_hardware_transfer_complete_cb+0x2b0>
    664c:	f8df 922c 	ldr.w	r9, [pc, #556]	; 687c <grid_module_pbf4_reva_hardware_transfer_complete_cb+0x2b4>
    6650:	3208      	adds	r2, #8
    6652:	f64f 78ff 	movw	r8, #65535	; 0xffff
    6656:	5c8e      	ldrb	r6, [r1, r2]
    6658:	781a      	ldrb	r2, [r3, #0]
    665a:	b2d2      	uxtb	r2, r2
    665c:	b2f6      	uxtb	r6, r6
    665e:	5c8d      	ldrb	r5, [r1, r2]
    6660:	781a      	ldrb	r2, [r3, #0]
    6662:	3201      	adds	r2, #1
    6664:	b2d2      	uxtb	r2, r2
    6666:	701a      	strb	r2, [r3, #0]
    6668:	781a      	ldrb	r2, [r3, #0]
    666a:	f002 0207 	and.w	r2, r2, #7
    666e:	701a      	strb	r2, [r3, #0]
    6670:	781a      	ldrb	r2, [r3, #0]
    6672:	f012 0f01 	tst.w	r2, #1
    6676:	4a75      	ldr	r2, [pc, #468]	; (684c <grid_module_pbf4_reva_hardware_transfer_complete_cb+0x284>)
    6678:	f44f 2100 	mov.w	r1, #524288	; 0x80000
    667c:	bf14      	ite	ne
    667e:	f8c2 1118 	strne.w	r1, [r2, #280]	; 0x118
    6682:	f8c2 1114 	streq.w	r1, [r2, #276]	; 0x114
    6686:	781a      	ldrb	r2, [r3, #0]
    6688:	f012 0f02 	tst.w	r2, #2
    668c:	4a6f      	ldr	r2, [pc, #444]	; (684c <grid_module_pbf4_reva_hardware_transfer_complete_cb+0x284>)
    668e:	f44f 1180 	mov.w	r1, #1048576	; 0x100000
    6692:	bf14      	ite	ne
    6694:	f8c2 1118 	strne.w	r1, [r2, #280]	; 0x118
    6698:	f8c2 1114 	streq.w	r1, [r2, #276]	; 0x114
    669c:	781b      	ldrb	r3, [r3, #0]
    669e:	f013 0f04 	tst.w	r3, #4
    66a2:	4b6a      	ldr	r3, [pc, #424]	; (684c <grid_module_pbf4_reva_hardware_transfer_complete_cb+0x284>)
    66a4:	f44f 1200 	mov.w	r2, #2097152	; 0x200000
    66a8:	bf14      	ite	ne
    66aa:	f8c3 2118 	strne.w	r2, [r3, #280]	; 0x118
    66ae:	f8c3 2114 	streq.w	r2, [r3, #276]	; 0x114
    66b2:	2100      	movs	r1, #0
    66b4:	2302      	movs	r3, #2
    66b6:	466a      	mov	r2, sp
    66b8:	47b8      	blx	r7
    66ba:	2302      	movs	r3, #2
    66bc:	eb0d 0203 	add.w	r2, sp, r3
    66c0:	2100      	movs	r1, #0
    66c2:	486a      	ldr	r0, [pc, #424]	; (686c <grid_module_pbf4_reva_hardware_transfer_complete_cb+0x2a4>)
    66c4:	47b8      	blx	r7
    66c6:	f8bd 0000 	ldrh.w	r0, [sp]
    66ca:	47d8      	blx	fp
    66cc:	a35a      	add	r3, pc, #360	; (adr r3, 6838 <grid_module_pbf4_reva_hardware_transfer_complete_cb+0x270>)
    66ce:	e9d3 2300 	ldrd	r2, r3, [r3]
    66d2:	47d0      	blx	sl
    66d4:	47c8      	blx	r9
    66d6:	4540      	cmp	r0, r8
    66d8:	bf28      	it	cs
    66da:	4640      	movcs	r0, r8
    66dc:	f8ad 0000 	strh.w	r0, [sp]
    66e0:	4607      	mov	r7, r0
    66e2:	f8bd 0002 	ldrh.w	r0, [sp, #2]
    66e6:	47d8      	blx	fp
    66e8:	a353      	add	r3, pc, #332	; (adr r3, 6838 <grid_module_pbf4_reva_hardware_transfer_complete_cb+0x270>)
    66ea:	e9d3 2300 	ldrd	r2, r3, [r3]
    66ee:	47d0      	blx	sl
    66f0:	47c8      	blx	r9
    66f2:	b2ed      	uxtb	r5, r5
    66f4:	4540      	cmp	r0, r8
    66f6:	f1a5 0308 	sub.w	r3, r5, #8
    66fa:	bf28      	it	cs
    66fc:	4640      	movcs	r0, r8
    66fe:	2b01      	cmp	r3, #1
    6700:	f8ad 0002 	strh.w	r0, [sp, #2]
    6704:	f240 808b 	bls.w	681e <grid_module_pbf4_reva_hardware_transfer_complete_cb+0x256>
    6708:	2e0d      	cmp	r6, #13
    670a:	f240 80b9 	bls.w	6880 <grid_module_pbf4_reva_hardware_transfer_complete_cb+0x2b8>
    670e:	f242 7310 	movw	r3, #10000	; 0x2710
    6712:	429f      	cmp	r7, r3
    6714:	bf8c      	ite	hi
    6716:	2200      	movhi	r2, #0
    6718:	227f      	movls	r2, #127	; 0x7f
    671a:	4298      	cmp	r0, r3
    671c:	bf8c      	ite	hi
    671e:	2300      	movhi	r3, #0
    6720:	237f      	movls	r3, #127	; 0x7f
    6722:	f106 5780 	add.w	r7, r6, #268435456	; 0x10000000
    6726:	f8ad 3002 	strh.w	r3, [sp, #2]
    672a:	3f03      	subs	r7, #3
    672c:	6863      	ldr	r3, [r4, #4]
    672e:	f8ad 2000 	strh.w	r2, [sp]
    6732:	013f      	lsls	r7, r7, #4
    6734:	443b      	add	r3, r7
    6736:	f8bd 1000 	ldrh.w	r1, [sp]
    673a:	68da      	ldr	r2, [r3, #12]
    673c:	7812      	ldrb	r2, [r2, #0]
    673e:	4291      	cmp	r1, r2
    6740:	d030      	beq.n	67a4 <grid_module_pbf4_reva_hardware_transfer_complete_cb+0x1dc>
    6742:	6858      	ldr	r0, [r3, #4]
    6744:	f8df 810c 	ldr.w	r8, [pc, #268]	; 6854 <grid_module_pbf4_reva_hardware_transfer_complete_cb+0x28c>
    6748:	2a00      	cmp	r2, #0
    674a:	bf0c      	ite	eq
    674c:	2290      	moveq	r2, #144	; 0x90
    674e:	2280      	movne	r2, #128	; 0x80
    6750:	f04f 0102 	mov.w	r1, #2
    6754:	f100 0005 	add.w	r0, r0, #5
    6758:	bf0c      	ite	eq
    675a:	f04f 097f 	moveq.w	r9, #127	; 0x7f
    675e:	f04f 0900 	movne.w	r9, #0
    6762:	47c0      	blx	r8
    6764:	6863      	ldr	r3, [r4, #4]
    6766:	443b      	add	r3, r7
    6768:	4632      	mov	r2, r6
    676a:	6858      	ldr	r0, [r3, #4]
    676c:	2102      	movs	r1, #2
    676e:	3007      	adds	r0, #7
    6770:	47c0      	blx	r8
    6772:	6863      	ldr	r3, [r4, #4]
    6774:	443b      	add	r3, r7
    6776:	464a      	mov	r2, r9
    6778:	6858      	ldr	r0, [r3, #4]
    677a:	2102      	movs	r1, #2
    677c:	3009      	adds	r0, #9
    677e:	47c0      	blx	r8
    6780:	6863      	ldr	r3, [r4, #4]
    6782:	443b      	add	r3, r7
    6784:	2102      	movs	r1, #2
    6786:	6858      	ldr	r0, [r3, #4]
    6788:	ea4f 0249 	mov.w	r2, r9, lsl #1
    678c:	3015      	adds	r0, #21
    678e:	47c0      	blx	r8
    6790:	6863      	ldr	r3, [r4, #4]
    6792:	482d      	ldr	r0, [pc, #180]	; (6848 <grid_module_pbf4_reva_hardware_transfer_complete_cb+0x280>)
    6794:	441f      	add	r7, r3
    6796:	1ef1      	subs	r1, r6, #3
    6798:	68fb      	ldr	r3, [r7, #12]
    679a:	b2c9      	uxtb	r1, r1
    679c:	f883 9000 	strb.w	r9, [r3]
    67a0:	4b2d      	ldr	r3, [pc, #180]	; (6858 <grid_module_pbf4_reva_hardware_transfer_complete_cb+0x290>)
    67a2:	4798      	blx	r3
    67a4:	f105 5780 	add.w	r7, r5, #268435456	; 0x10000000
    67a8:	3f03      	subs	r7, #3
    67aa:	6863      	ldr	r3, [r4, #4]
    67ac:	f8bd 1002 	ldrh.w	r1, [sp, #2]
    67b0:	013f      	lsls	r7, r7, #4
    67b2:	443b      	add	r3, r7
    67b4:	68da      	ldr	r2, [r3, #12]
    67b6:	7812      	ldrb	r2, [r2, #0]
    67b8:	4291      	cmp	r1, r2
    67ba:	d030      	beq.n	681e <grid_module_pbf4_reva_hardware_transfer_complete_cb+0x256>
    67bc:	6858      	ldr	r0, [r3, #4]
    67be:	f8df 8094 	ldr.w	r8, [pc, #148]	; 6854 <grid_module_pbf4_reva_hardware_transfer_complete_cb+0x28c>
    67c2:	2a00      	cmp	r2, #0
    67c4:	bf0c      	ite	eq
    67c6:	2290      	moveq	r2, #144	; 0x90
    67c8:	2280      	movne	r2, #128	; 0x80
    67ca:	f04f 0102 	mov.w	r1, #2
    67ce:	f100 0005 	add.w	r0, r0, #5
    67d2:	bf0c      	ite	eq
    67d4:	f04f 097f 	moveq.w	r9, #127	; 0x7f
    67d8:	f04f 0900 	movne.w	r9, #0
    67dc:	47c0      	blx	r8
    67de:	6863      	ldr	r3, [r4, #4]
    67e0:	443b      	add	r3, r7
    67e2:	4632      	mov	r2, r6
    67e4:	6858      	ldr	r0, [r3, #4]
    67e6:	2102      	movs	r1, #2
    67e8:	3007      	adds	r0, #7
    67ea:	47c0      	blx	r8
    67ec:	6863      	ldr	r3, [r4, #4]
    67ee:	443b      	add	r3, r7
    67f0:	464a      	mov	r2, r9
    67f2:	6858      	ldr	r0, [r3, #4]
    67f4:	2102      	movs	r1, #2
    67f6:	3009      	adds	r0, #9
    67f8:	47c0      	blx	r8
    67fa:	6863      	ldr	r3, [r4, #4]
    67fc:	443b      	add	r3, r7
    67fe:	2102      	movs	r1, #2
    6800:	6858      	ldr	r0, [r3, #4]
    6802:	ea4f 0249 	mov.w	r2, r9, lsl #1
    6806:	3015      	adds	r0, #21
    6808:	47c0      	blx	r8
    680a:	6863      	ldr	r3, [r4, #4]
    680c:	441f      	add	r7, r3
    680e:	1ee9      	subs	r1, r5, #3
    6810:	68fb      	ldr	r3, [r7, #12]
    6812:	b2c9      	uxtb	r1, r1
    6814:	f883 9000 	strb.w	r9, [r3]
    6818:	480b      	ldr	r0, [pc, #44]	; (6848 <grid_module_pbf4_reva_hardware_transfer_complete_cb+0x280>)
    681a:	4b0f      	ldr	r3, [pc, #60]	; (6858 <grid_module_pbf4_reva_hardware_transfer_complete_cb+0x290>)
    681c:	4798      	blx	r3
    681e:	4a08      	ldr	r2, [pc, #32]	; (6840 <grid_module_pbf4_reva_hardware_transfer_complete_cb+0x278>)
    6820:	2300      	movs	r3, #0
    6822:	7013      	strb	r3, [r2, #0]
    6824:	4b12      	ldr	r3, [pc, #72]	; (6870 <grid_module_pbf4_reva_hardware_transfer_complete_cb+0x2a8>)
    6826:	4798      	blx	r3
    6828:	e6d7      	b.n	65da <grid_module_pbf4_reva_hardware_transfer_complete_cb+0x12>
    682a:	2200      	movs	r2, #0
    682c:	701a      	strb	r2, [r3, #0]
    682e:	2281      	movs	r2, #129	; 0x81
    6830:	e6f4      	b.n	661c <grid_module_pbf4_reva_hardware_transfer_complete_cb+0x54>
    6832:	bf00      	nop
    6834:	f3af 8000 	nop.w
    6838:	47ae147b 	.word	0x47ae147b
    683c:	3ff07ae1 	.word	0x3ff07ae1
    6840:	2000175c 	.word	0x2000175c
    6844:	000078ed 	.word	0x000078ed
    6848:	20001c7c 	.word	0x20001c7c
    684c:	41008000 	.word	0x41008000
    6850:	000078fb 	.word	0x000078fb
    6854:	000071b5 	.word	0x000071b5
    6858:	00007565 	.word	0x00007565
    685c:	20003704 	.word	0x20003704
    6860:	2000032f 	.word	0x2000032f
    6864:	00007869 	.word	0x00007869
    6868:	20000fdc 	.word	0x20000fdc
    686c:	200011b0 	.word	0x200011b0
    6870:	000065a9 	.word	0x000065a9
    6874:	0000cced 	.word	0x0000cced
    6878:	0000cdb9 	.word	0x0000cdb9
    687c:	0000d1dd 	.word	0x0000d1dd
    6880:	2d01      	cmp	r5, #1
    6882:	f8df 90e0 	ldr.w	r9, [pc, #224]	; 6964 <grid_module_pbf4_reva_hardware_transfer_complete_cb+0x39c>
    6886:	d85c      	bhi.n	6942 <grid_module_pbf4_reva_hardware_transfer_complete_cb+0x37a>
    6888:	eba8 0107 	sub.w	r1, r8, r7
    688c:	4630      	mov	r0, r6
    688e:	47c8      	blx	r9
    6890:	f8bd 1002 	ldrh.w	r1, [sp, #2]
    6894:	eba8 0101 	sub.w	r1, r8, r1
    6898:	4628      	mov	r0, r5
    689a:	47c8      	blx	r9
    689c:	4f2c      	ldr	r7, [pc, #176]	; (6950 <grid_module_pbf4_reva_hardware_transfer_complete_cb+0x388>)
    689e:	4630      	mov	r0, r6
    68a0:	47b8      	blx	r7
    68a2:	b340      	cbz	r0, 68f6 <grid_module_pbf4_reva_hardware_transfer_complete_cb+0x32e>
    68a4:	2107      	movs	r1, #7
    68a6:	4630      	mov	r0, r6
    68a8:	4b2a      	ldr	r3, [pc, #168]	; (6954 <grid_module_pbf4_reva_hardware_transfer_complete_cb+0x38c>)
    68aa:	4798      	blx	r3
    68ac:	f106 0a01 	add.w	sl, r6, #1
    68b0:	6863      	ldr	r3, [r4, #4]
    68b2:	ea4f 190a 	mov.w	r9, sl, lsl #4
    68b6:	444b      	add	r3, r9
    68b8:	4680      	mov	r8, r0
    68ba:	6858      	ldr	r0, [r3, #4]
    68bc:	4632      	mov	r2, r6
    68be:	2102      	movs	r1, #2
    68c0:	4e25      	ldr	r6, [pc, #148]	; (6958 <grid_module_pbf4_reva_hardware_transfer_complete_cb+0x390>)
    68c2:	3007      	adds	r0, #7
    68c4:	47b0      	blx	r6
    68c6:	6863      	ldr	r3, [r4, #4]
    68c8:	444b      	add	r3, r9
    68ca:	fa5f f288 	uxtb.w	r2, r8
    68ce:	6858      	ldr	r0, [r3, #4]
    68d0:	2102      	movs	r1, #2
    68d2:	3009      	adds	r0, #9
    68d4:	47b0      	blx	r6
    68d6:	6863      	ldr	r3, [r4, #4]
    68d8:	4499      	add	r9, r3
    68da:	ea4f 0248 	mov.w	r2, r8, lsl #1
    68de:	f8d9 0004 	ldr.w	r0, [r9, #4]
    68e2:	2102      	movs	r1, #2
    68e4:	f002 02fe 	and.w	r2, r2, #254	; 0xfe
    68e8:	3015      	adds	r0, #21
    68ea:	47b0      	blx	r6
    68ec:	fa5f f18a 	uxtb.w	r1, sl
    68f0:	481a      	ldr	r0, [pc, #104]	; (695c <grid_module_pbf4_reva_hardware_transfer_complete_cb+0x394>)
    68f2:	4b1b      	ldr	r3, [pc, #108]	; (6960 <grid_module_pbf4_reva_hardware_transfer_complete_cb+0x398>)
    68f4:	4798      	blx	r3
    68f6:	4628      	mov	r0, r5
    68f8:	47b8      	blx	r7
    68fa:	2800      	cmp	r0, #0
    68fc:	d08f      	beq.n	681e <grid_module_pbf4_reva_hardware_transfer_complete_cb+0x256>
    68fe:	2107      	movs	r1, #7
    6900:	4628      	mov	r0, r5
    6902:	4b14      	ldr	r3, [pc, #80]	; (6954 <grid_module_pbf4_reva_hardware_transfer_complete_cb+0x38c>)
    6904:	4798      	blx	r3
    6906:	1c6f      	adds	r7, r5, #1
    6908:	6863      	ldr	r3, [r4, #4]
    690a:	ea4f 1807 	mov.w	r8, r7, lsl #4
    690e:	4443      	add	r3, r8
    6910:	4606      	mov	r6, r0
    6912:	6858      	ldr	r0, [r3, #4]
    6914:	462a      	mov	r2, r5
    6916:	2102      	movs	r1, #2
    6918:	4d0f      	ldr	r5, [pc, #60]	; (6958 <grid_module_pbf4_reva_hardware_transfer_complete_cb+0x390>)
    691a:	3007      	adds	r0, #7
    691c:	47a8      	blx	r5
    691e:	6863      	ldr	r3, [r4, #4]
    6920:	4443      	add	r3, r8
    6922:	b2f2      	uxtb	r2, r6
    6924:	6858      	ldr	r0, [r3, #4]
    6926:	2102      	movs	r1, #2
    6928:	3009      	adds	r0, #9
    692a:	47a8      	blx	r5
    692c:	6863      	ldr	r3, [r4, #4]
    692e:	4443      	add	r3, r8
    6930:	0072      	lsls	r2, r6, #1
    6932:	6858      	ldr	r0, [r3, #4]
    6934:	2102      	movs	r1, #2
    6936:	f002 02fe 	and.w	r2, r2, #254	; 0xfe
    693a:	3015      	adds	r0, #21
    693c:	47a8      	blx	r5
    693e:	b2f9      	uxtb	r1, r7
    6940:	e76a      	b.n	6818 <grid_module_pbf4_reva_hardware_transfer_complete_cb+0x250>
    6942:	4639      	mov	r1, r7
    6944:	4630      	mov	r0, r6
    6946:	47c8      	blx	r9
    6948:	f8bd 1002 	ldrh.w	r1, [sp, #2]
    694c:	e7a4      	b.n	6898 <grid_module_pbf4_reva_hardware_transfer_complete_cb+0x2d0>
    694e:	bf00      	nop
    6950:	00004f11 	.word	0x00004f11
    6954:	00004f21 	.word	0x00004f21
    6958:	000071b5 	.word	0x000071b5
    695c:	20001c7c 	.word	0x20001c7c
    6960:	00007565 	.word	0x00007565
    6964:	00004e41 	.word	0x00004e41

00006968 <grid_module_pbf4_reva_hardware_init>:
    6968:	e92d 41f0 	stmdb	sp!, {r4, r5, r6, r7, r8, lr}
    696c:	4f0b      	ldr	r7, [pc, #44]	; (699c <grid_module_pbf4_reva_hardware_init+0x34>)
    696e:	4c0c      	ldr	r4, [pc, #48]	; (69a0 <grid_module_pbf4_reva_hardware_init+0x38>)
    6970:	4e0c      	ldr	r6, [pc, #48]	; (69a4 <grid_module_pbf4_reva_hardware_init+0x3c>)
    6972:	4d0d      	ldr	r5, [pc, #52]	; (69a8 <grid_module_pbf4_reva_hardware_init+0x40>)
    6974:	2200      	movs	r2, #0
    6976:	463b      	mov	r3, r7
    6978:	4611      	mov	r1, r2
    697a:	4620      	mov	r0, r4
    697c:	47b0      	blx	r6
    697e:	2200      	movs	r2, #0
    6980:	463b      	mov	r3, r7
    6982:	4611      	mov	r1, r2
    6984:	4628      	mov	r0, r5
    6986:	47b0      	blx	r6
    6988:	4620      	mov	r0, r4
    698a:	4c08      	ldr	r4, [pc, #32]	; (69ac <grid_module_pbf4_reva_hardware_init+0x44>)
    698c:	2100      	movs	r1, #0
    698e:	47a0      	blx	r4
    6990:	4628      	mov	r0, r5
    6992:	4623      	mov	r3, r4
    6994:	2100      	movs	r1, #0
    6996:	e8bd 41f0 	ldmia.w	sp!, {r4, r5, r6, r7, r8, lr}
    699a:	4718      	bx	r3
    699c:	000065c9 	.word	0x000065c9
    69a0:	20000fdc 	.word	0x20000fdc
    69a4:	0000782d 	.word	0x0000782d
    69a8:	200011b0 	.word	0x200011b0
    69ac:	0000781d 	.word	0x0000781d

000069b0 <grid_module_pbf4_reva_init>:
    69b0:	e92d 4ff0 	stmdb	sp!, {r4, r5, r6, r7, r8, r9, sl, fp, lr}
    69b4:	210d      	movs	r1, #13
    69b6:	b09b      	sub	sp, #108	; 0x6c
    69b8:	4b2e      	ldr	r3, [pc, #184]	; (6a74 <grid_module_pbf4_reva_init+0xc4>)
    69ba:	4e2f      	ldr	r6, [pc, #188]	; (6a78 <grid_module_pbf4_reva_init+0xc8>)
    69bc:	f8df 80e0 	ldr.w	r8, [pc, #224]	; 6aa0 <grid_module_pbf4_reva_init+0xf0>
    69c0:	4607      	mov	r7, r0
    69c2:	4798      	blx	r3
    69c4:	2500      	movs	r5, #0
    69c6:	783b      	ldrb	r3, [r7, #0]
    69c8:	b2ec      	uxtb	r4, r5
    69ca:	42a3      	cmp	r3, r4
    69cc:	d810      	bhi.n	69f0 <grid_module_pbf4_reva_init+0x40>
    69ce:	220e      	movs	r2, #14
    69d0:	2307      	movs	r3, #7
    69d2:	2105      	movs	r1, #5
    69d4:	4c29      	ldr	r4, [pc, #164]	; (6a7c <grid_module_pbf4_reva_init+0xcc>)
    69d6:	2010      	movs	r0, #16
    69d8:	47a0      	blx	r4
    69da:	210c      	movs	r1, #12
    69dc:	4b28      	ldr	r3, [pc, #160]	; (6a80 <grid_module_pbf4_reva_init+0xd0>)
    69de:	4829      	ldr	r0, [pc, #164]	; (6a84 <grid_module_pbf4_reva_init+0xd4>)
    69e0:	4798      	blx	r3
    69e2:	4b29      	ldr	r3, [pc, #164]	; (6a88 <grid_module_pbf4_reva_init+0xd8>)
    69e4:	4798      	blx	r3
    69e6:	4b29      	ldr	r3, [pc, #164]	; (6a8c <grid_module_pbf4_reva_init+0xdc>)
    69e8:	4798      	blx	r3
    69ea:	b01b      	add	sp, #108	; 0x6c
    69ec:	e8bd 8ff0 	ldmia.w	sp!, {r4, r5, r6, r7, r8, r9, sl, fp, pc}
    69f0:	bb24      	cbnz	r4, 6a3c <grid_module_pbf4_reva_init+0x8c>
    69f2:	2080      	movs	r0, #128	; 0x80
    69f4:	2183      	movs	r1, #131	; 0x83
    69f6:	2239      	movs	r2, #57	; 0x39
    69f8:	2303      	movs	r3, #3
    69fa:	e88d 000f 	stmia.w	sp, {r0, r1, r2, r3}
    69fe:	2301      	movs	r3, #1
    6a00:	2202      	movs	r2, #2
    6a02:	4923      	ldr	r1, [pc, #140]	; (6a90 <grid_module_pbf4_reva_init+0xe0>)
    6a04:	a812      	add	r0, sp, #72	; 0x48
    6a06:	47b0      	blx	r6
    6a08:	f8df b098 	ldr.w	fp, [pc, #152]	; 6aa4 <grid_module_pbf4_reva_init+0xf4>
    6a0c:	a812      	add	r0, sp, #72	; 0x48
    6a0e:	47d8      	blx	fp
    6a10:	f10d 0a34 	add.w	sl, sp, #52	; 0x34
    6a14:	491f      	ldr	r1, [pc, #124]	; (6a94 <grid_module_pbf4_reva_init+0xe4>)
    6a16:	4a20      	ldr	r2, [pc, #128]	; (6a98 <grid_module_pbf4_reva_init+0xe8>)
    6a18:	4681      	mov	r9, r0
    6a1a:	4650      	mov	r0, sl
    6a1c:	4790      	blx	r2
    6a1e:	4650      	mov	r0, sl
    6a20:	47d8      	blx	fp
    6a22:	b2c0      	uxtb	r0, r0
    6a24:	9001      	str	r0, [sp, #4]
    6a26:	4621      	mov	r1, r4
    6a28:	f8cd a000 	str.w	sl, [sp]
    6a2c:	fa5f f389 	uxtb.w	r3, r9
    6a30:	aa12      	add	r2, sp, #72	; 0x48
    6a32:	4638      	mov	r0, r7
    6a34:	4c19      	ldr	r4, [pc, #100]	; (6a9c <grid_module_pbf4_reva_init+0xec>)
    6a36:	47a0      	blx	r4
    6a38:	3501      	adds	r5, #1
    6a3a:	e7c4      	b.n	69c6 <grid_module_pbf4_reva_init+0x16>
    6a3c:	2103      	movs	r1, #3
    6a3e:	2c08      	cmp	r4, #8
    6a40:	f04f 0263 	mov.w	r2, #99	; 0x63
    6a44:	f04f 0300 	mov.w	r3, #0
    6a48:	f104 30ff 	add.w	r0, r4, #4294967295
    6a4c:	910b      	str	r1, [sp, #44]	; 0x2c
    6a4e:	9106      	str	r1, [sp, #24]
    6a50:	9104      	str	r1, [sp, #16]
    6a52:	9208      	str	r2, [sp, #32]
    6a54:	bf94      	ite	ls
    6a56:	21b0      	movls	r1, #176	; 0xb0
    6a58:	2190      	movhi	r1, #144	; 0x90
    6a5a:	2202      	movs	r2, #2
    6a5c:	9009      	str	r0, [sp, #36]	; 0x24
    6a5e:	9002      	str	r0, [sp, #8]
    6a60:	9101      	str	r1, [sp, #4]
    6a62:	930a      	str	r3, [sp, #40]	; 0x28
    6a64:	9307      	str	r3, [sp, #28]
    6a66:	9205      	str	r2, [sp, #20]
    6a68:	9303      	str	r3, [sp, #12]
    6a6a:	9300      	str	r3, [sp, #0]
    6a6c:	4641      	mov	r1, r8
    6a6e:	a812      	add	r0, sp, #72	; 0x48
    6a70:	47b0      	blx	r6
    6a72:	e7c9      	b.n	6a08 <grid_module_pbf4_reva_init+0x58>
    6a74:	000074a1 	.word	0x000074a1
    6a78:	0000d489 	.word	0x0000d489
    6a7c:	00004dfd 	.word	0x00004dfd
    6a80:	00005bb9 	.word	0x00005bb9
    6a84:	20003708 	.word	0x20003708
    6a88:	00006969 	.word	0x00006969
    6a8c:	000065a9 	.word	0x000065a9
    6a90:	0000dc99 	.word	0x0000dc99
    6a94:	0000dcdf 	.word	0x0000dcdf
    6a98:	0000d4d1 	.word	0x0000d4d1
    6a9c:	000074b9 	.word	0x000074b9
    6aa0:	0000dcae 	.word	0x0000dcae
    6aa4:	0000d4e1 	.word	0x0000d4e1

00006aa8 <grid_module_po16_revb_hardware_start_transfer>:
    6aa8:	b510      	push	{r4, lr}
    6aaa:	4c04      	ldr	r4, [pc, #16]	; (6abc <grid_module_po16_revb_hardware_start_transfer+0x14>)
    6aac:	4804      	ldr	r0, [pc, #16]	; (6ac0 <grid_module_po16_revb_hardware_start_transfer+0x18>)
    6aae:	47a0      	blx	r4
    6ab0:	4623      	mov	r3, r4
    6ab2:	4804      	ldr	r0, [pc, #16]	; (6ac4 <grid_module_po16_revb_hardware_start_transfer+0x1c>)
    6ab4:	e8bd 4010 	ldmia.w	sp!, {r4, lr}
    6ab8:	4718      	bx	r3
    6aba:	bf00      	nop
    6abc:	000078dd 	.word	0x000078dd
    6ac0:	20000fdc 	.word	0x20000fdc
    6ac4:	200011b0 	.word	0x200011b0

00006ac8 <grid_module_po16_revb_hardware_transfer_complete_cb>:
    6ac8:	e92d 4ff7 	stmdb	sp!, {r0, r1, r2, r4, r5, r6, r7, r8, r9, sl, fp, lr}
    6acc:	4a8a      	ldr	r2, [pc, #552]	; (6cf8 <grid_module_po16_revb_hardware_transfer_complete_cb+0x230>)
    6ace:	7813      	ldrb	r3, [r2, #0]
    6ad0:	4615      	mov	r5, r2
    6ad2:	b933      	cbnz	r3, 6ae2 <grid_module_po16_revb_hardware_transfer_complete_cb+0x1a>
    6ad4:	7813      	ldrb	r3, [r2, #0]
    6ad6:	3301      	adds	r3, #1
    6ad8:	b2db      	uxtb	r3, r3
    6ada:	7013      	strb	r3, [r2, #0]
    6adc:	b003      	add	sp, #12
    6ade:	e8bd 8ff0 	ldmia.w	sp!, {r4, r5, r6, r7, r8, r9, sl, fp, pc}
    6ae2:	a801      	add	r0, sp, #4
    6ae4:	4b85      	ldr	r3, [pc, #532]	; (6cfc <grid_module_po16_revb_hardware_transfer_complete_cb+0x234>)
    6ae6:	4c86      	ldr	r4, [pc, #536]	; (6d00 <grid_module_po16_revb_hardware_transfer_complete_cb+0x238>)
    6ae8:	4798      	blx	r3
    6aea:	4b86      	ldr	r3, [pc, #536]	; (6d04 <grid_module_po16_revb_hardware_transfer_complete_cb+0x23c>)
    6aec:	f8d3 1100 	ldr.w	r1, [r3, #256]	; 0x100
    6af0:	f8d3 2120 	ldr.w	r2, [r3, #288]	; 0x120
    6af4:	f8d3 6110 	ldr.w	r6, [r3, #272]	; 0x110
    6af8:	4b83      	ldr	r3, [pc, #524]	; (6d08 <grid_module_po16_revb_hardware_transfer_complete_cb+0x240>)
    6afa:	4056      	eors	r6, r2
    6afc:	400e      	ands	r6, r1
    6afe:	a801      	add	r0, sp, #4
    6b00:	4056      	eors	r6, r2
    6b02:	4798      	blx	r3
    6b04:	6863      	ldr	r3, [r4, #4]
    6b06:	68db      	ldr	r3, [r3, #12]
    6b08:	781a      	ldrb	r2, [r3, #0]
    6b0a:	f3c6 26c0 	ubfx	r6, r6, #11, #1
    6b0e:	4296      	cmp	r6, r2
    6b10:	d00f      	beq.n	6b32 <grid_module_po16_revb_hardware_transfer_complete_cb+0x6a>
    6b12:	2a00      	cmp	r2, #0
    6b14:	f040 80e5 	bne.w	6ce2 <grid_module_po16_revb_hardware_transfer_complete_cb+0x21a>
    6b18:	2201      	movs	r2, #1
    6b1a:	701a      	strb	r2, [r3, #0]
    6b1c:	2280      	movs	r2, #128	; 0x80
    6b1e:	6863      	ldr	r3, [r4, #4]
    6b20:	6858      	ldr	r0, [r3, #4]
    6b22:	4b7a      	ldr	r3, [pc, #488]	; (6d0c <grid_module_po16_revb_hardware_transfer_complete_cb+0x244>)
    6b24:	2102      	movs	r1, #2
    6b26:	3003      	adds	r0, #3
    6b28:	4798      	blx	r3
    6b2a:	2100      	movs	r1, #0
    6b2c:	4874      	ldr	r0, [pc, #464]	; (6d00 <grid_module_po16_revb_hardware_transfer_complete_cb+0x238>)
    6b2e:	4b78      	ldr	r3, [pc, #480]	; (6d10 <grid_module_po16_revb_hardware_transfer_complete_cb+0x248>)
    6b30:	4798      	blx	r3
    6b32:	2300      	movs	r3, #0
    6b34:	f8ad 3000 	strh.w	r3, [sp]
    6b38:	f8ad 3002 	strh.w	r3, [sp, #2]
    6b3c:	786b      	ldrb	r3, [r5, #1]
    6b3e:	4a75      	ldr	r2, [pc, #468]	; (6d14 <grid_module_po16_revb_hardware_transfer_complete_cb+0x24c>)
    6b40:	f8df 81e8 	ldr.w	r8, [pc, #488]	; 6d2c <grid_module_po16_revb_hardware_transfer_complete_cb+0x264>
    6b44:	4874      	ldr	r0, [pc, #464]	; (6d18 <grid_module_po16_revb_hardware_transfer_complete_cb+0x250>)
    6b46:	f8df b1e8 	ldr.w	fp, [pc, #488]	; 6d30 <grid_module_po16_revb_hardware_transfer_complete_cb+0x268>
    6b4a:	f8df a1e8 	ldr.w	sl, [pc, #488]	; 6d34 <grid_module_po16_revb_hardware_transfer_complete_cb+0x26c>
    6b4e:	3308      	adds	r3, #8
    6b50:	2100      	movs	r1, #0
    6b52:	5cd7      	ldrb	r7, [r2, r3]
    6b54:	786b      	ldrb	r3, [r5, #1]
    6b56:	b2db      	uxtb	r3, r3
    6b58:	b2ff      	uxtb	r7, r7
    6b5a:	5cd6      	ldrb	r6, [r2, r3]
    6b5c:	786b      	ldrb	r3, [r5, #1]
    6b5e:	3301      	adds	r3, #1
    6b60:	b2db      	uxtb	r3, r3
    6b62:	706b      	strb	r3, [r5, #1]
    6b64:	786b      	ldrb	r3, [r5, #1]
    6b66:	f003 0307 	and.w	r3, r3, #7
    6b6a:	706b      	strb	r3, [r5, #1]
    6b6c:	786b      	ldrb	r3, [r5, #1]
    6b6e:	f013 0f01 	tst.w	r3, #1
    6b72:	4b64      	ldr	r3, [pc, #400]	; (6d04 <grid_module_po16_revb_hardware_transfer_complete_cb+0x23c>)
    6b74:	f44f 2200 	mov.w	r2, #524288	; 0x80000
    6b78:	bf14      	ite	ne
    6b7a:	f8c3 2118 	strne.w	r2, [r3, #280]	; 0x118
    6b7e:	f8c3 2114 	streq.w	r2, [r3, #276]	; 0x114
    6b82:	786b      	ldrb	r3, [r5, #1]
    6b84:	f013 0f02 	tst.w	r3, #2
    6b88:	4b5e      	ldr	r3, [pc, #376]	; (6d04 <grid_module_po16_revb_hardware_transfer_complete_cb+0x23c>)
    6b8a:	f44f 1280 	mov.w	r2, #1048576	; 0x100000
    6b8e:	bf14      	ite	ne
    6b90:	f8c3 2118 	strne.w	r2, [r3, #280]	; 0x118
    6b94:	f8c3 2114 	streq.w	r2, [r3, #276]	; 0x114
    6b98:	786b      	ldrb	r3, [r5, #1]
    6b9a:	f013 0f04 	tst.w	r3, #4
    6b9e:	4b59      	ldr	r3, [pc, #356]	; (6d04 <grid_module_po16_revb_hardware_transfer_complete_cb+0x23c>)
    6ba0:	f44f 1200 	mov.w	r2, #2097152	; 0x200000
    6ba4:	bf14      	ite	ne
    6ba6:	f8c3 2118 	strne.w	r2, [r3, #280]	; 0x118
    6baa:	f8c3 2114 	streq.w	r2, [r3, #276]	; 0x114
    6bae:	2302      	movs	r3, #2
    6bb0:	466a      	mov	r2, sp
    6bb2:	47c0      	blx	r8
    6bb4:	2302      	movs	r3, #2
    6bb6:	eb0d 0203 	add.w	r2, sp, r3
    6bba:	2100      	movs	r1, #0
    6bbc:	4857      	ldr	r0, [pc, #348]	; (6d1c <grid_module_po16_revb_hardware_transfer_complete_cb+0x254>)
    6bbe:	47c0      	blx	r8
    6bc0:	f8bd 0000 	ldrh.w	r0, [sp]
    6bc4:	47d8      	blx	fp
    6bc6:	a34a      	add	r3, pc, #296	; (adr r3, 6cf0 <grid_module_po16_revb_hardware_transfer_complete_cb+0x228>)
    6bc8:	e9d3 2300 	ldrd	r2, r3, [r3]
    6bcc:	47d0      	blx	sl
    6bce:	4b54      	ldr	r3, [pc, #336]	; (6d20 <grid_module_po16_revb_hardware_transfer_complete_cb+0x258>)
    6bd0:	4798      	blx	r3
    6bd2:	f64f 78ff 	movw	r8, #65535	; 0xffff
    6bd6:	4540      	cmp	r0, r8
    6bd8:	bf28      	it	cs
    6bda:	4640      	movcs	r0, r8
    6bdc:	4681      	mov	r9, r0
    6bde:	f8ad 0000 	strh.w	r0, [sp]
    6be2:	f8bd 0002 	ldrh.w	r0, [sp, #2]
    6be6:	47d8      	blx	fp
    6be8:	a341      	add	r3, pc, #260	; (adr r3, 6cf0 <grid_module_po16_revb_hardware_transfer_complete_cb+0x228>)
    6bea:	e9d3 2300 	ldrd	r2, r3, [r3]
    6bee:	47d0      	blx	sl
    6bf0:	4b4b      	ldr	r3, [pc, #300]	; (6d20 <grid_module_po16_revb_hardware_transfer_complete_cb+0x258>)
    6bf2:	4798      	blx	r3
    6bf4:	4540      	cmp	r0, r8
    6bf6:	bf28      	it	cs
    6bf8:	4640      	movcs	r0, r8
    6bfa:	f8ad 0002 	strh.w	r0, [sp, #2]
    6bfe:	f8df 8138 	ldr.w	r8, [pc, #312]	; 6d38 <grid_module_po16_revb_hardware_transfer_complete_cb+0x270>
    6c02:	4649      	mov	r1, r9
    6c04:	b2f6      	uxtb	r6, r6
    6c06:	4638      	mov	r0, r7
    6c08:	47c0      	blx	r8
    6c0a:	f8bd 1002 	ldrh.w	r1, [sp, #2]
    6c0e:	4630      	mov	r0, r6
    6c10:	47c0      	blx	r8
    6c12:	4638      	mov	r0, r7
    6c14:	f8df 8124 	ldr.w	r8, [pc, #292]	; 6d3c <grid_module_po16_revb_hardware_transfer_complete_cb+0x274>
    6c18:	47c0      	blx	r8
    6c1a:	b368      	cbz	r0, 6c78 <grid_module_po16_revb_hardware_transfer_complete_cb+0x1b0>
    6c1c:	2107      	movs	r1, #7
    6c1e:	4638      	mov	r0, r7
    6c20:	4b40      	ldr	r3, [pc, #256]	; (6d24 <grid_module_po16_revb_hardware_transfer_complete_cb+0x25c>)
    6c22:	4798      	blx	r3
    6c24:	f107 0b01 	add.w	fp, r7, #1
    6c28:	6863      	ldr	r3, [r4, #4]
    6c2a:	ea4f 190b 	mov.w	r9, fp, lsl #4
    6c2e:	444b      	add	r3, r9
    6c30:	fa5f fa80 	uxtb.w	sl, r0
    6c34:	6858      	ldr	r0, [r3, #4]
    6c36:	463a      	mov	r2, r7
    6c38:	2102      	movs	r1, #2
    6c3a:	4f34      	ldr	r7, [pc, #208]	; (6d0c <grid_module_po16_revb_hardware_transfer_complete_cb+0x244>)
    6c3c:	3007      	adds	r0, #7
    6c3e:	47b8      	blx	r7
    6c40:	6863      	ldr	r3, [r4, #4]
    6c42:	444b      	add	r3, r9
    6c44:	4652      	mov	r2, sl
    6c46:	6858      	ldr	r0, [r3, #4]
    6c48:	2102      	movs	r1, #2
    6c4a:	3009      	adds	r0, #9
    6c4c:	47b8      	blx	r7
    6c4e:	6863      	ldr	r3, [r4, #4]
    6c50:	444b      	add	r3, r9
    6c52:	ea4f 024a 	mov.w	r2, sl, lsl #1
    6c56:	6858      	ldr	r0, [r3, #4]
    6c58:	f002 02fe 	and.w	r2, r2, #254	; 0xfe
    6c5c:	2102      	movs	r1, #2
    6c5e:	3015      	adds	r0, #21
    6c60:	47b8      	blx	r7
    6c62:	4b2b      	ldr	r3, [pc, #172]	; (6d10 <grid_module_po16_revb_hardware_transfer_complete_cb+0x248>)
    6c64:	4826      	ldr	r0, [pc, #152]	; (6d00 <grid_module_po16_revb_hardware_transfer_complete_cb+0x238>)
    6c66:	fa5f f18b 	uxtb.w	r1, fp
    6c6a:	4798      	blx	r3
    6c6c:	6863      	ldr	r3, [r4, #4]
    6c6e:	4499      	add	r9, r3
    6c70:	f8d9 300c 	ldr.w	r3, [r9, #12]
    6c74:	f883 a000 	strb.w	sl, [r3]
    6c78:	4630      	mov	r0, r6
    6c7a:	47c0      	blx	r8
    6c7c:	b360      	cbz	r0, 6cd8 <grid_module_po16_revb_hardware_transfer_complete_cb+0x210>
    6c7e:	2107      	movs	r1, #7
    6c80:	4630      	mov	r0, r6
    6c82:	4b28      	ldr	r3, [pc, #160]	; (6d24 <grid_module_po16_revb_hardware_transfer_complete_cb+0x25c>)
    6c84:	4798      	blx	r3
    6c86:	f106 0901 	add.w	r9, r6, #1
    6c8a:	6863      	ldr	r3, [r4, #4]
    6c8c:	ea4f 1709 	mov.w	r7, r9, lsl #4
    6c90:	443b      	add	r3, r7
    6c92:	fa5f f880 	uxtb.w	r8, r0
    6c96:	6858      	ldr	r0, [r3, #4]
    6c98:	4632      	mov	r2, r6
    6c9a:	2102      	movs	r1, #2
    6c9c:	4e1b      	ldr	r6, [pc, #108]	; (6d0c <grid_module_po16_revb_hardware_transfer_complete_cb+0x244>)
    6c9e:	3007      	adds	r0, #7
    6ca0:	47b0      	blx	r6
    6ca2:	6863      	ldr	r3, [r4, #4]
    6ca4:	443b      	add	r3, r7
    6ca6:	4642      	mov	r2, r8
    6ca8:	6858      	ldr	r0, [r3, #4]
    6caa:	2102      	movs	r1, #2
    6cac:	3009      	adds	r0, #9
    6cae:	47b0      	blx	r6
    6cb0:	6863      	ldr	r3, [r4, #4]
    6cb2:	443b      	add	r3, r7
    6cb4:	ea4f 0248 	mov.w	r2, r8, lsl #1
    6cb8:	6858      	ldr	r0, [r3, #4]
    6cba:	f002 02fe 	and.w	r2, r2, #254	; 0xfe
    6cbe:	2102      	movs	r1, #2
    6cc0:	3015      	adds	r0, #21
    6cc2:	47b0      	blx	r6
    6cc4:	4b12      	ldr	r3, [pc, #72]	; (6d10 <grid_module_po16_revb_hardware_transfer_complete_cb+0x248>)
    6cc6:	480e      	ldr	r0, [pc, #56]	; (6d00 <grid_module_po16_revb_hardware_transfer_complete_cb+0x238>)
    6cc8:	fa5f f189 	uxtb.w	r1, r9
    6ccc:	4798      	blx	r3
    6cce:	6863      	ldr	r3, [r4, #4]
    6cd0:	441f      	add	r7, r3
    6cd2:	68fb      	ldr	r3, [r7, #12]
    6cd4:	f883 8000 	strb.w	r8, [r3]
    6cd8:	2300      	movs	r3, #0
    6cda:	702b      	strb	r3, [r5, #0]
    6cdc:	4b12      	ldr	r3, [pc, #72]	; (6d28 <grid_module_po16_revb_hardware_transfer_complete_cb+0x260>)
    6cde:	4798      	blx	r3
    6ce0:	e6fc      	b.n	6adc <grid_module_po16_revb_hardware_transfer_complete_cb+0x14>
    6ce2:	2200      	movs	r2, #0
    6ce4:	701a      	strb	r2, [r3, #0]
    6ce6:	2281      	movs	r2, #129	; 0x81
    6ce8:	e719      	b.n	6b1e <grid_module_po16_revb_hardware_transfer_complete_cb+0x56>
    6cea:	bf00      	nop
    6cec:	f3af 8000 	nop.w
    6cf0:	47ae147b 	.word	0x47ae147b
    6cf4:	3ff07ae1 	.word	0x3ff07ae1
    6cf8:	20000650 	.word	0x20000650
    6cfc:	000078ed 	.word	0x000078ed
    6d00:	20001c7c 	.word	0x20001c7c
    6d04:	41008000 	.word	0x41008000
    6d08:	000078fb 	.word	0x000078fb
    6d0c:	000071b5 	.word	0x000071b5
    6d10:	00007565 	.word	0x00007565
    6d14:	2000033f 	.word	0x2000033f
    6d18:	20000fdc 	.word	0x20000fdc
    6d1c:	200011b0 	.word	0x200011b0
    6d20:	0000d1dd 	.word	0x0000d1dd
    6d24:	00004f21 	.word	0x00004f21
    6d28:	00006aa9 	.word	0x00006aa9
    6d2c:	00007869 	.word	0x00007869
    6d30:	0000cced 	.word	0x0000cced
    6d34:	0000cdb9 	.word	0x0000cdb9
    6d38:	00004e41 	.word	0x00004e41
    6d3c:	00004f11 	.word	0x00004f11

00006d40 <grid_module_po16_revb_hardware_init>:
    6d40:	e92d 41f0 	stmdb	sp!, {r4, r5, r6, r7, r8, lr}
    6d44:	4f0b      	ldr	r7, [pc, #44]	; (6d74 <grid_module_po16_revb_hardware_init+0x34>)
    6d46:	4c0c      	ldr	r4, [pc, #48]	; (6d78 <grid_module_po16_revb_hardware_init+0x38>)
    6d48:	4e0c      	ldr	r6, [pc, #48]	; (6d7c <grid_module_po16_revb_hardware_init+0x3c>)
    6d4a:	4d0d      	ldr	r5, [pc, #52]	; (6d80 <grid_module_po16_revb_hardware_init+0x40>)
    6d4c:	2200      	movs	r2, #0
    6d4e:	463b      	mov	r3, r7
    6d50:	4611      	mov	r1, r2
    6d52:	4620      	mov	r0, r4
    6d54:	47b0      	blx	r6
    6d56:	2200      	movs	r2, #0
    6d58:	463b      	mov	r3, r7
    6d5a:	4611      	mov	r1, r2
    6d5c:	4628      	mov	r0, r5
    6d5e:	47b0      	blx	r6
    6d60:	4620      	mov	r0, r4
    6d62:	4c08      	ldr	r4, [pc, #32]	; (6d84 <grid_module_po16_revb_hardware_init+0x44>)
    6d64:	2100      	movs	r1, #0
    6d66:	47a0      	blx	r4
    6d68:	4628      	mov	r0, r5
    6d6a:	4623      	mov	r3, r4
    6d6c:	2100      	movs	r1, #0
    6d6e:	e8bd 41f0 	ldmia.w	sp!, {r4, r5, r6, r7, r8, lr}
    6d72:	4718      	bx	r3
    6d74:	00006ac9 	.word	0x00006ac9
    6d78:	20000fdc 	.word	0x20000fdc
    6d7c:	0000782d 	.word	0x0000782d
    6d80:	200011b0 	.word	0x200011b0
    6d84:	0000781d 	.word	0x0000781d

00006d88 <grid_module_po16_revb_init>:
    6d88:	e92d 4ff0 	stmdb	sp!, {r4, r5, r6, r7, r8, r9, sl, fp, lr}
    6d8c:	2111      	movs	r1, #17
    6d8e:	b09b      	sub	sp, #108	; 0x6c
    6d90:	4b2b      	ldr	r3, [pc, #172]	; (6e40 <grid_module_po16_revb_init+0xb8>)
    6d92:	4d2c      	ldr	r5, [pc, #176]	; (6e44 <grid_module_po16_revb_init+0xbc>)
    6d94:	f8df 90d4 	ldr.w	r9, [pc, #212]	; 6e6c <grid_module_po16_revb_init+0xe4>
    6d98:	4606      	mov	r6, r0
    6d9a:	4798      	blx	r3
    6d9c:	2400      	movs	r4, #0
    6d9e:	b2e7      	uxtb	r7, r4
    6da0:	2103      	movs	r1, #3
    6da2:	2c00      	cmp	r4, #0
    6da4:	d136      	bne.n	6e14 <grid_module_po16_revb_init+0x8c>
    6da6:	2283      	movs	r2, #131	; 0x83
    6da8:	2339      	movs	r3, #57	; 0x39
    6daa:	9103      	str	r1, [sp, #12]
    6dac:	2180      	movs	r1, #128	; 0x80
    6dae:	e88d 000e 	stmia.w	sp, {r1, r2, r3}
    6db2:	a812      	add	r0, sp, #72	; 0x48
    6db4:	2301      	movs	r3, #1
    6db6:	2202      	movs	r2, #2
    6db8:	4649      	mov	r1, r9
    6dba:	47a8      	blx	r5
    6dbc:	f8df b0b0 	ldr.w	fp, [pc, #176]	; 6e70 <grid_module_po16_revb_init+0xe8>
    6dc0:	a812      	add	r0, sp, #72	; 0x48
    6dc2:	47d8      	blx	fp
    6dc4:	f10d 0a34 	add.w	sl, sp, #52	; 0x34
    6dc8:	491f      	ldr	r1, [pc, #124]	; (6e48 <grid_module_po16_revb_init+0xc0>)
    6dca:	4a20      	ldr	r2, [pc, #128]	; (6e4c <grid_module_po16_revb_init+0xc4>)
    6dcc:	4680      	mov	r8, r0
    6dce:	4650      	mov	r0, sl
    6dd0:	4790      	blx	r2
    6dd2:	4650      	mov	r0, sl
    6dd4:	47d8      	blx	fp
    6dd6:	b2c0      	uxtb	r0, r0
    6dd8:	9001      	str	r0, [sp, #4]
    6dda:	4639      	mov	r1, r7
    6ddc:	f8cd a000 	str.w	sl, [sp]
    6de0:	fa5f f388 	uxtb.w	r3, r8
    6de4:	aa12      	add	r2, sp, #72	; 0x48
    6de6:	4630      	mov	r0, r6
    6de8:	4f19      	ldr	r7, [pc, #100]	; (6e50 <grid_module_po16_revb_init+0xc8>)
    6dea:	3401      	adds	r4, #1
    6dec:	47b8      	blx	r7
    6dee:	2c11      	cmp	r4, #17
    6df0:	d1d5      	bne.n	6d9e <grid_module_po16_revb_init+0x16>
    6df2:	220e      	movs	r2, #14
    6df4:	2307      	movs	r3, #7
    6df6:	2105      	movs	r1, #5
    6df8:	4c16      	ldr	r4, [pc, #88]	; (6e54 <grid_module_po16_revb_init+0xcc>)
    6dfa:	2010      	movs	r0, #16
    6dfc:	47a0      	blx	r4
    6dfe:	2110      	movs	r1, #16
    6e00:	4b15      	ldr	r3, [pc, #84]	; (6e58 <grid_module_po16_revb_init+0xd0>)
    6e02:	4816      	ldr	r0, [pc, #88]	; (6e5c <grid_module_po16_revb_init+0xd4>)
    6e04:	4798      	blx	r3
    6e06:	4b16      	ldr	r3, [pc, #88]	; (6e60 <grid_module_po16_revb_init+0xd8>)
    6e08:	4798      	blx	r3
    6e0a:	4b16      	ldr	r3, [pc, #88]	; (6e64 <grid_module_po16_revb_init+0xdc>)
    6e0c:	4798      	blx	r3
    6e0e:	b01b      	add	sp, #108	; 0x6c
    6e10:	e8bd 8ff0 	ldmia.w	sp!, {r4, r5, r6, r7, r8, r9, sl, fp, pc}
    6e14:	2263      	movs	r2, #99	; 0x63
    6e16:	2300      	movs	r3, #0
    6e18:	1e60      	subs	r0, r4, #1
    6e1a:	910b      	str	r1, [sp, #44]	; 0x2c
    6e1c:	9208      	str	r2, [sp, #32]
    6e1e:	9106      	str	r1, [sp, #24]
    6e20:	2202      	movs	r2, #2
    6e22:	9104      	str	r1, [sp, #16]
    6e24:	21b0      	movs	r1, #176	; 0xb0
    6e26:	9009      	str	r0, [sp, #36]	; 0x24
    6e28:	9002      	str	r0, [sp, #8]
    6e2a:	9101      	str	r1, [sp, #4]
    6e2c:	930a      	str	r3, [sp, #40]	; 0x28
    6e2e:	9307      	str	r3, [sp, #28]
    6e30:	9205      	str	r2, [sp, #20]
    6e32:	9303      	str	r3, [sp, #12]
    6e34:	9300      	str	r3, [sp, #0]
    6e36:	490c      	ldr	r1, [pc, #48]	; (6e68 <grid_module_po16_revb_init+0xe0>)
    6e38:	a812      	add	r0, sp, #72	; 0x48
    6e3a:	47a8      	blx	r5
    6e3c:	e7be      	b.n	6dbc <grid_module_po16_revb_init+0x34>
    6e3e:	bf00      	nop
    6e40:	000074a1 	.word	0x000074a1
    6e44:	0000d489 	.word	0x0000d489
    6e48:	0000dcdf 	.word	0x0000dcdf
    6e4c:	0000d4d1 	.word	0x0000d4d1
    6e50:	000074b9 	.word	0x000074b9
    6e54:	00004dfd 	.word	0x00004dfd
    6e58:	00005bb9 	.word	0x00005bb9
    6e5c:	20003708 	.word	0x20003708
    6e60:	00006d41 	.word	0x00006d41
    6e64:	00006aa9 	.word	0x00006aa9
    6e68:	0000dcae 	.word	0x0000dcae
    6e6c:	0000dc99 	.word	0x0000dc99
    6e70:	0000d4e1 	.word	0x0000d4e1

00006e74 <gpio_set_pin_pull_mode.constprop.2>:
    6e74:	f000 031f 	and.w	r3, r0, #31
    6e78:	0940      	lsrs	r0, r0, #5
    6e7a:	01c0      	lsls	r0, r0, #7
    6e7c:	f100 4082 	add.w	r0, r0, #1090519040	; 0x41000000
    6e80:	f500 4000 	add.w	r0, r0, #32768	; 0x8000
    6e84:	2201      	movs	r2, #1
    6e86:	409a      	lsls	r2, r3
    6e88:	4403      	add	r3, r0
    6e8a:	6042      	str	r2, [r0, #4]
    6e8c:	f893 1040 	ldrb.w	r1, [r3, #64]	; 0x40
    6e90:	f041 0104 	orr.w	r1, r1, #4
    6e94:	f883 1040 	strb.w	r1, [r3, #64]	; 0x40
    6e98:	6182      	str	r2, [r0, #24]
    6e9a:	4770      	bx	lr

00006e9c <tx_cb_USART_GRID>:
    6e9c:	f100 0328 	add.w	r3, r0, #40	; 0x28
    6ea0:	f500 7120 	add.w	r1, r0, #640	; 0x280
    6ea4:	2200      	movs	r2, #0
    6ea6:	f803 2b01 	strb.w	r2, [r3], #1
    6eaa:	428b      	cmp	r3, r1
    6eac:	d1fb      	bne.n	6ea6 <tx_cb_USART_GRID+0xa>
    6eae:	8182      	strh	r2, [r0, #12]
    6eb0:	4770      	bx	lr
	...

00006eb4 <tx_cb_USART_GRID_W>:
    6eb4:	4801      	ldr	r0, [pc, #4]	; (6ebc <tx_cb_USART_GRID_W+0x8>)
    6eb6:	4b02      	ldr	r3, [pc, #8]	; (6ec0 <tx_cb_USART_GRID_W+0xc>)
    6eb8:	4718      	bx	r3
    6eba:	bf00      	nop
    6ebc:	200022ac 	.word	0x200022ac
    6ec0:	00006e9d 	.word	0x00006e9d

00006ec4 <tx_cb_USART_GRID_S>:
    6ec4:	4801      	ldr	r0, [pc, #4]	; (6ecc <tx_cb_USART_GRID_S+0x8>)
    6ec6:	4b02      	ldr	r3, [pc, #8]	; (6ed0 <tx_cb_USART_GRID_S+0xc>)
    6ec8:	4718      	bx	r3
    6eca:	bf00      	nop
    6ecc:	200027d0 	.word	0x200027d0
    6ed0:	00006e9d 	.word	0x00006e9d

00006ed4 <tx_cb_USART_GRID_E>:
    6ed4:	4801      	ldr	r0, [pc, #4]	; (6edc <tx_cb_USART_GRID_E+0x8>)
    6ed6:	4b02      	ldr	r3, [pc, #8]	; (6ee0 <tx_cb_USART_GRID_E+0xc>)
    6ed8:	4718      	bx	r3
    6eda:	bf00      	nop
    6edc:	200031f4 	.word	0x200031f4
    6ee0:	00006e9d 	.word	0x00006e9d

00006ee4 <tx_cb_USART_GRID_N>:
    6ee4:	4801      	ldr	r0, [pc, #4]	; (6eec <tx_cb_USART_GRID_N+0x8>)
    6ee6:	4b02      	ldr	r3, [pc, #8]	; (6ef0 <tx_cb_USART_GRID_N+0xc>)
    6ee8:	4718      	bx	r3
    6eea:	bf00      	nop
    6eec:	20001220 	.word	0x20001220
    6ef0:	00006e9d 	.word	0x00006e9d

00006ef4 <grid_sys_port_reset_dma>:
    6ef4:	7a80      	ldrb	r0, [r0, #10]
    6ef6:	0103      	lsls	r3, r0, #4
    6ef8:	f103 4382 	add.w	r3, r3, #1090519040	; 0x41000000
    6efc:	f503 4320 	add.w	r3, r3, #40960	; 0xa000
    6f00:	2100      	movs	r1, #0
    6f02:	6c1a      	ldr	r2, [r3, #64]	; 0x40
    6f04:	f022 0202 	bic.w	r2, r2, #2
    6f08:	641a      	str	r2, [r3, #64]	; 0x40
    6f0a:	4b01      	ldr	r3, [pc, #4]	; (6f10 <grid_sys_port_reset_dma+0x1c>)
    6f0c:	4718      	bx	r3
    6f0e:	bf00      	nop
    6f10:	00008b81 	.word	0x00008b81

00006f14 <dma_transfer_complete_n_cb>:
    6f14:	4801      	ldr	r0, [pc, #4]	; (6f1c <dma_transfer_complete_n_cb+0x8>)
    6f16:	4b02      	ldr	r3, [pc, #8]	; (6f20 <dma_transfer_complete_n_cb+0xc>)
    6f18:	4718      	bx	r3
    6f1a:	bf00      	nop
    6f1c:	20001220 	.word	0x20001220
    6f20:	00006ef5 	.word	0x00006ef5

00006f24 <dma_transfer_complete_e_cb>:
    6f24:	4801      	ldr	r0, [pc, #4]	; (6f2c <dma_transfer_complete_e_cb+0x8>)
    6f26:	4b02      	ldr	r3, [pc, #8]	; (6f30 <dma_transfer_complete_e_cb+0xc>)
    6f28:	4718      	bx	r3
    6f2a:	bf00      	nop
    6f2c:	200031f4 	.word	0x200031f4
    6f30:	00006ef5 	.word	0x00006ef5

00006f34 <dma_transfer_complete_s_cb>:
    6f34:	4801      	ldr	r0, [pc, #4]	; (6f3c <dma_transfer_complete_s_cb+0x8>)
    6f36:	4b02      	ldr	r3, [pc, #8]	; (6f40 <dma_transfer_complete_s_cb+0xc>)
    6f38:	4718      	bx	r3
    6f3a:	bf00      	nop
    6f3c:	200027d0 	.word	0x200027d0
    6f40:	00006ef5 	.word	0x00006ef5

00006f44 <dma_transfer_complete_w_cb>:
    6f44:	4801      	ldr	r0, [pc, #4]	; (6f4c <dma_transfer_complete_w_cb+0x8>)
    6f46:	4b02      	ldr	r3, [pc, #8]	; (6f50 <dma_transfer_complete_w_cb+0xc>)
    6f48:	4718      	bx	r3
    6f4a:	bf00      	nop
    6f4c:	200022ac 	.word	0x200022ac
    6f50:	00006ef5 	.word	0x00006ef5

00006f54 <grid_sys_uart_init>:
    6f54:	e92d 41f0 	stmdb	sp!, {r4, r5, r6, r7, r8, lr}
    6f58:	205c      	movs	r0, #92	; 0x5c
    6f5a:	4c1b      	ldr	r4, [pc, #108]	; (6fc8 <grid_sys_uart_init+0x74>)
    6f5c:	f8df 80a4 	ldr.w	r8, [pc, #164]	; 7004 <grid_sys_uart_init+0xb0>
    6f60:	4f1a      	ldr	r7, [pc, #104]	; (6fcc <grid_sys_uart_init+0x78>)
    6f62:	4e1b      	ldr	r6, [pc, #108]	; (6fd0 <grid_sys_uart_init+0x7c>)
    6f64:	4d1b      	ldr	r5, [pc, #108]	; (6fd4 <grid_sys_uart_init+0x80>)
    6f66:	47a0      	blx	r4
    6f68:	2050      	movs	r0, #80	; 0x50
    6f6a:	47a0      	blx	r4
    6f6c:	204c      	movs	r0, #76	; 0x4c
    6f6e:	47a0      	blx	r4
    6f70:	2029      	movs	r0, #41	; 0x29
    6f72:	47a0      	blx	r4
    6f74:	4c18      	ldr	r4, [pc, #96]	; (6fd8 <grid_sys_uart_init+0x84>)
    6f76:	4a19      	ldr	r2, [pc, #100]	; (6fdc <grid_sys_uart_init+0x88>)
    6f78:	2101      	movs	r1, #1
    6f7a:	4640      	mov	r0, r8
    6f7c:	47a0      	blx	r4
    6f7e:	4a18      	ldr	r2, [pc, #96]	; (6fe0 <grid_sys_uart_init+0x8c>)
    6f80:	2101      	movs	r1, #1
    6f82:	4638      	mov	r0, r7
    6f84:	47a0      	blx	r4
    6f86:	4a17      	ldr	r2, [pc, #92]	; (6fe4 <grid_sys_uart_init+0x90>)
    6f88:	2101      	movs	r1, #1
    6f8a:	4630      	mov	r0, r6
    6f8c:	47a0      	blx	r4
    6f8e:	4a16      	ldr	r2, [pc, #88]	; (6fe8 <grid_sys_uart_init+0x94>)
    6f90:	2101      	movs	r1, #1
    6f92:	4628      	mov	r0, r5
    6f94:	47a0      	blx	r4
    6f96:	4c15      	ldr	r4, [pc, #84]	; (6fec <grid_sys_uart_init+0x98>)
    6f98:	4915      	ldr	r1, [pc, #84]	; (6ff0 <grid_sys_uart_init+0x9c>)
    6f9a:	4640      	mov	r0, r8
    6f9c:	47a0      	blx	r4
    6f9e:	4915      	ldr	r1, [pc, #84]	; (6ff4 <grid_sys_uart_init+0xa0>)
    6fa0:	4638      	mov	r0, r7
    6fa2:	47a0      	blx	r4
    6fa4:	4914      	ldr	r1, [pc, #80]	; (6ff8 <grid_sys_uart_init+0xa4>)
    6fa6:	4630      	mov	r0, r6
    6fa8:	47a0      	blx	r4
    6faa:	4914      	ldr	r1, [pc, #80]	; (6ffc <grid_sys_uart_init+0xa8>)
    6fac:	4628      	mov	r0, r5
    6fae:	47a0      	blx	r4
    6fb0:	4c13      	ldr	r4, [pc, #76]	; (7000 <grid_sys_uart_init+0xac>)
    6fb2:	4640      	mov	r0, r8
    6fb4:	47a0      	blx	r4
    6fb6:	4638      	mov	r0, r7
    6fb8:	47a0      	blx	r4
    6fba:	4630      	mov	r0, r6
    6fbc:	47a0      	blx	r4
    6fbe:	4628      	mov	r0, r5
    6fc0:	4623      	mov	r3, r4
    6fc2:	e8bd 41f0 	ldmia.w	sp!, {r4, r5, r6, r7, r8, lr}
    6fc6:	4718      	bx	r3
    6fc8:	00006e75 	.word	0x00006e75
    6fcc:	20001008 	.word	0x20001008
    6fd0:	20001160 	.word	0x20001160
    6fd4:	20001110 	.word	0x20001110
    6fd8:	0000803d 	.word	0x0000803d
    6fdc:	00006ee5 	.word	0x00006ee5
    6fe0:	00006ed5 	.word	0x00006ed5
    6fe4:	00006ec5 	.word	0x00006ec5
    6fe8:	00006eb5 	.word	0x00006eb5
    6fec:	00008035 	.word	0x00008035
    6ff0:	20001c84 	.word	0x20001c84
    6ff4:	200027bc 	.word	0x200027bc
    6ff8:	20002ce0 	.word	0x20002ce0
    6ffc:	20003730 	.word	0x20003730
    7000:	00008025 	.word	0x00008025
    7004:	2000105c 	.word	0x2000105c

00007008 <grid_rx_dma_init_one>:
    7008:	b5f7      	push	{r0, r1, r2, r4, r5, r6, r7, lr}
    700a:	6843      	ldr	r3, [r0, #4]
    700c:	7a84      	ldrb	r4, [r0, #10]
    700e:	460f      	mov	r7, r1
    7010:	6a19      	ldr	r1, [r3, #32]
    7012:	4b10      	ldr	r3, [pc, #64]	; (7054 <grid_rx_dma_init_one+0x4c>)
    7014:	4605      	mov	r5, r0
    7016:	3128      	adds	r1, #40	; 0x28
    7018:	4620      	mov	r0, r4
    701a:	4616      	mov	r6, r2
    701c:	4798      	blx	r3
    701e:	f505 7120 	add.w	r1, r5, #640	; 0x280
    7022:	4620      	mov	r0, r4
    7024:	4b0c      	ldr	r3, [pc, #48]	; (7058 <grid_rx_dma_init_one+0x50>)
    7026:	4798      	blx	r3
    7028:	4639      	mov	r1, r7
    702a:	4620      	mov	r0, r4
    702c:	4b0b      	ldr	r3, [pc, #44]	; (705c <grid_rx_dma_init_one+0x54>)
    702e:	4798      	blx	r3
    7030:	4621      	mov	r1, r4
    7032:	a801      	add	r0, sp, #4
    7034:	4b0a      	ldr	r3, [pc, #40]	; (7060 <grid_rx_dma_init_one+0x58>)
    7036:	4798      	blx	r3
    7038:	9b01      	ldr	r3, [sp, #4]
    703a:	2201      	movs	r2, #1
    703c:	601e      	str	r6, [r3, #0]
    703e:	4620      	mov	r0, r4
    7040:	2100      	movs	r1, #0
    7042:	4b08      	ldr	r3, [pc, #32]	; (7064 <grid_rx_dma_init_one+0x5c>)
    7044:	4798      	blx	r3
    7046:	2100      	movs	r1, #0
    7048:	4620      	mov	r0, r4
    704a:	4b07      	ldr	r3, [pc, #28]	; (7068 <grid_rx_dma_init_one+0x60>)
    704c:	4798      	blx	r3
    704e:	b003      	add	sp, #12
    7050:	bdf0      	pop	{r4, r5, r6, r7, pc}
    7052:	bf00      	nop
    7054:	00008b11 	.word	0x00008b11
    7058:	00008b01 	.word	0x00008b01
    705c:	00008b3d 	.word	0x00008b3d
    7060:	00008bbd 	.word	0x00008bbd
    7064:	00008ad9 	.word	0x00008ad9
    7068:	00008b81 	.word	0x00008b81

0000706c <grid_rx_dma_init>:
    706c:	b510      	push	{r4, lr}
    706e:	4a10      	ldr	r2, [pc, #64]	; (70b0 <grid_rx_dma_init+0x44>)
    7070:	4c10      	ldr	r4, [pc, #64]	; (70b4 <grid_rx_dma_init+0x48>)
    7072:	4811      	ldr	r0, [pc, #68]	; (70b8 <grid_rx_dma_init+0x4c>)
    7074:	f44f 7116 	mov.w	r1, #600	; 0x258
    7078:	47a0      	blx	r4
    707a:	4a10      	ldr	r2, [pc, #64]	; (70bc <grid_rx_dma_init+0x50>)
    707c:	4810      	ldr	r0, [pc, #64]	; (70c0 <grid_rx_dma_init+0x54>)
    707e:	f44f 7116 	mov.w	r1, #600	; 0x258
    7082:	47a0      	blx	r4
    7084:	4a0f      	ldr	r2, [pc, #60]	; (70c4 <grid_rx_dma_init+0x58>)
    7086:	4810      	ldr	r0, [pc, #64]	; (70c8 <grid_rx_dma_init+0x5c>)
    7088:	f44f 7116 	mov.w	r1, #600	; 0x258
    708c:	47a0      	blx	r4
    708e:	4a0f      	ldr	r2, [pc, #60]	; (70cc <grid_rx_dma_init+0x60>)
    7090:	480f      	ldr	r0, [pc, #60]	; (70d0 <grid_rx_dma_init+0x64>)
    7092:	f44f 7116 	mov.w	r1, #600	; 0x258
    7096:	47a0      	blx	r4
    7098:	4b0e      	ldr	r3, [pc, #56]	; (70d4 <grid_rx_dma_init+0x68>)
    709a:	2200      	movs	r2, #0
    709c:	f883 231f 	strb.w	r2, [r3, #799]	; 0x31f
    70a0:	f883 2320 	strb.w	r2, [r3, #800]	; 0x320
    70a4:	f883 2321 	strb.w	r2, [r3, #801]	; 0x321
    70a8:	f883 2322 	strb.w	r2, [r3, #802]	; 0x322
    70ac:	bd10      	pop	{r4, pc}
    70ae:	bf00      	nop
    70b0:	00006f15 	.word	0x00006f15
    70b4:	00007009 	.word	0x00007009
    70b8:	20001220 	.word	0x20001220
    70bc:	00006f25 	.word	0x00006f25
    70c0:	200031f4 	.word	0x200031f4
    70c4:	00006f35 	.word	0x00006f35
    70c8:	200027d0 	.word	0x200027d0
    70cc:	00006f45 	.word	0x00006f45
    70d0:	200022ac 	.word	0x200022ac
    70d4:	e000e100 	.word	0xe000e100

000070d8 <grid_sys_rtc_get_time>:
    70d8:	68c0      	ldr	r0, [r0, #12]
    70da:	4770      	bx	lr

000070dc <grid_sys_rtc_get_elapsed_time>:
    70dc:	68c0      	ldr	r0, [r0, #12]
    70de:	4288      	cmp	r0, r1
    70e0:	bf96      	itet	ls
    70e2:	43c9      	mvnls	r1, r1
    70e4:	1a40      	subhi	r0, r0, r1
    70e6:	1840      	addls	r0, r0, r1
    70e8:	4770      	bx	lr

000070ea <grid_sys_alert_read_color_changed_flag>:
    70ea:	7a00      	ldrb	r0, [r0, #8]
    70ec:	4770      	bx	lr

000070ee <grid_sys_alert_clear_color_changed_flag>:
    70ee:	2300      	movs	r3, #0
    70f0:	7203      	strb	r3, [r0, #8]
    70f2:	4770      	bx	lr

000070f4 <grid_sys_alert_get_color_intensity>:
    70f4:	7983      	ldrb	r3, [r0, #6]
    70f6:	b963      	cbnz	r3, 7112 <grid_sys_alert_get_color_intensity+0x1e>
    70f8:	8880      	ldrh	r0, [r0, #4]
    70fa:	0840      	lsrs	r0, r0, #1
    70fc:	387d      	subs	r0, #125	; 0x7d
    70fe:	2800      	cmp	r0, #0
    7100:	bfb8      	it	lt
    7102:	4240      	neglt	r0, r0
    7104:	f1c0 007d 	rsb	r0, r0, #125	; 0x7d
    7108:	2302      	movs	r3, #2
    710a:	fb90 f0f3 	sdiv	r0, r0, r3
    710e:	b2c0      	uxtb	r0, r0
    7110:	4770      	bx	lr
    7112:	2b01      	cmp	r3, #1
    7114:	d106      	bne.n	7124 <grid_sys_alert_get_color_intensity+0x30>
    7116:	8880      	ldrh	r0, [r0, #4]
    7118:	23fa      	movs	r3, #250	; 0xfa
    711a:	fbb0 f0f3 	udiv	r0, r0, r3
    711e:	f340 0000 	sbfx	r0, r0, #0, #1
    7122:	e7f4      	b.n	710e <grid_sys_alert_get_color_intensity+0x1a>
    7124:	2b02      	cmp	r3, #2
    7126:	d105      	bne.n	7134 <grid_sys_alert_get_color_intensity+0x40>
    7128:	8880      	ldrh	r0, [r0, #4]
    712a:	2864      	cmp	r0, #100	; 0x64
    712c:	bf8c      	ite	hi
    712e:	20ff      	movhi	r0, #255	; 0xff
    7130:	2000      	movls	r0, #0
    7132:	4770      	bx	lr
    7134:	4770      	bx	lr

00007136 <grid_sys_alert_set_alert>:
    7136:	b510      	push	{r4, lr}
    7138:	7083      	strb	r3, [r0, #2]
    713a:	f8bd 300c 	ldrh.w	r3, [sp, #12]
    713e:	8083      	strh	r3, [r0, #4]
    7140:	2401      	movs	r4, #1
    7142:	f89d 3008 	ldrb.w	r3, [sp, #8]
    7146:	7204      	strb	r4, [r0, #8]
    7148:	7001      	strb	r1, [r0, #0]
    714a:	7042      	strb	r2, [r0, #1]
    714c:	7183      	strb	r3, [r0, #6]
    714e:	bd10      	pop	{r4, pc}

00007150 <grid_sys_alert_get_color_r>:
    7150:	7800      	ldrb	r0, [r0, #0]
    7152:	4770      	bx	lr

00007154 <grid_sys_alert_get_color_g>:
    7154:	7840      	ldrb	r0, [r0, #1]
    7156:	4770      	bx	lr

00007158 <grid_sys_alert_get_color_b>:
    7158:	7880      	ldrb	r0, [r0, #2]
    715a:	4770      	bx	lr

0000715c <grid_sys_read_hex_char_value>:
    715c:	f1a0 0330 	sub.w	r3, r0, #48	; 0x30
    7160:	4602      	mov	r2, r0
    7162:	b2d8      	uxtb	r0, r3
    7164:	2809      	cmp	r0, #9
    7166:	d90c      	bls.n	7182 <grid_sys_read_hex_char_value+0x26>
    7168:	f1a2 0361 	sub.w	r3, r2, #97	; 0x61
    716c:	2b05      	cmp	r3, #5
    716e:	d803      	bhi.n	7178 <grid_sys_read_hex_char_value+0x1c>
    7170:	f1a2 0057 	sub.w	r0, r2, #87	; 0x57
    7174:	b2c0      	uxtb	r0, r0
    7176:	4770      	bx	lr
    7178:	b111      	cbz	r1, 7180 <grid_sys_read_hex_char_value+0x24>
    717a:	700a      	strb	r2, [r1, #0]
    717c:	2000      	movs	r0, #0
    717e:	4770      	bx	lr
    7180:	4608      	mov	r0, r1
    7182:	4770      	bx	lr

00007184 <grid_sys_read_hex_string_value>:
    7184:	e92d 41f0 	stmdb	sp!, {r4, r5, r6, r7, r8, lr}
    7188:	3901      	subs	r1, #1
    718a:	f8df 8024 	ldr.w	r8, [pc, #36]	; 71b0 <grid_sys_read_hex_string_value+0x2c>
    718e:	4617      	mov	r7, r2
    7190:	4606      	mov	r6, r0
    7192:	008c      	lsls	r4, r1, #2
    7194:	2500      	movs	r5, #0
    7196:	1d23      	adds	r3, r4, #4
    7198:	d102      	bne.n	71a0 <grid_sys_read_hex_string_value+0x1c>
    719a:	4628      	mov	r0, r5
    719c:	e8bd 81f0 	ldmia.w	sp!, {r4, r5, r6, r7, r8, pc}
    71a0:	4639      	mov	r1, r7
    71a2:	f816 0b01 	ldrb.w	r0, [r6], #1
    71a6:	47c0      	blx	r8
    71a8:	40a0      	lsls	r0, r4
    71aa:	4405      	add	r5, r0
    71ac:	3c04      	subs	r4, #4
    71ae:	e7f2      	b.n	7196 <grid_sys_read_hex_string_value+0x12>
    71b0:	0000715d 	.word	0x0000715d

000071b4 <grid_sys_write_hex_string_value>:
    71b4:	b530      	push	{r4, r5, lr}
    71b6:	b085      	sub	sp, #20
    71b8:	4b09      	ldr	r3, [pc, #36]	; (71e0 <grid_sys_write_hex_string_value+0x2c>)
    71ba:	4605      	mov	r5, r0
    71bc:	460c      	mov	r4, r1
    71be:	a801      	add	r0, sp, #4
    71c0:	4908      	ldr	r1, [pc, #32]	; (71e4 <grid_sys_write_hex_string_value+0x30>)
    71c2:	4798      	blx	r3
    71c4:	2300      	movs	r3, #0
    71c6:	b2da      	uxtb	r2, r3
    71c8:	4294      	cmp	r4, r2
    71ca:	d801      	bhi.n	71d0 <grid_sys_write_hex_string_value+0x1c>
    71cc:	b005      	add	sp, #20
    71ce:	bd30      	pop	{r4, r5, pc}
    71d0:	1b1a      	subs	r2, r3, r4
    71d2:	a901      	add	r1, sp, #4
    71d4:	440a      	add	r2, r1
    71d6:	7a12      	ldrb	r2, [r2, #8]
    71d8:	54ea      	strb	r2, [r5, r3]
    71da:	3301      	adds	r3, #1
    71dc:	e7f3      	b.n	71c6 <grid_sys_write_hex_string_value+0x12>
    71de:	bf00      	nop
    71e0:	0000d489 	.word	0x0000d489
    71e4:	0000dcf8 	.word	0x0000dcf8

000071e8 <grid_sys_get_hwcfg>:
    71e8:	e92d 4ff7 	stmdb	sp!, {r0, r1, r2, r4, r5, r6, r7, r8, r9, sl, fp, lr}
    71ec:	4e30      	ldr	r6, [pc, #192]	; (72b0 <grid_sys_get_hwcfg+0xc8>)
    71ee:	6833      	ldr	r3, [r6, #0]
    71f0:	3301      	adds	r3, #1
    71f2:	d158      	bne.n	72a6 <grid_sys_get_hwcfg+0xbe>
    71f4:	4c2f      	ldr	r4, [pc, #188]	; (72b4 <grid_sys_get_hwcfg+0xcc>)
    71f6:	4b30      	ldr	r3, [pc, #192]	; (72b8 <grid_sys_get_hwcfg+0xd0>)
    71f8:	4f30      	ldr	r7, [pc, #192]	; (72bc <grid_sys_get_hwcfg+0xd4>)
    71fa:	f8df 90cc 	ldr.w	r9, [pc, #204]	; 72c8 <grid_sys_get_hwcfg+0xe0>
    71fe:	f44f 5500 	mov.w	r5, #8192	; 0x2000
    7202:	f8c4 5088 	str.w	r5, [r4, #136]	; 0x88
    7206:	f44f 4280 	mov.w	r2, #16384	; 0x4000
    720a:	f8c4 30a8 	str.w	r3, [r4, #168]	; 0xa8
    720e:	f04f 4340 	mov.w	r3, #3221225472	; 0xc0000000
    7212:	f8c4 30a8 	str.w	r3, [r4, #168]	; 0xa8
    7216:	f8c4 2088 	str.w	r2, [r4, #136]	; 0x88
    721a:	f04f 2240 	mov.w	r2, #1073758208	; 0x40004000
    721e:	f8c4 20a8 	str.w	r2, [r4, #168]	; 0xa8
    7222:	f8c4 30a8 	str.w	r3, [r4, #168]	; 0xa8
    7226:	f44f 4300 	mov.w	r3, #32768	; 0x8000
    722a:	f8c4 3084 	str.w	r3, [r4, #132]	; 0x84
    722e:	4b24      	ldr	r3, [pc, #144]	; (72c0 <grid_sys_get_hwcfg+0xd8>)
    7230:	f8c4 30a8 	str.w	r3, [r4, #168]	; 0xa8
    7234:	f1a3 2380 	sub.w	r3, r3, #2147516416	; 0x80008000
    7238:	f8c4 30a8 	str.w	r3, [r4, #168]	; 0xa8
    723c:	2001      	movs	r0, #1
    723e:	f8c4 5094 	str.w	r5, [r4, #148]	; 0x94
    7242:	47b8      	blx	r7
    7244:	f04f 0a00 	mov.w	sl, #0
    7248:	46d3      	mov	fp, sl
    724a:	46a8      	mov	r8, r5
    724c:	2001      	movs	r0, #1
    724e:	f8c4 8098 	str.w	r8, [r4, #152]	; 0x98
    7252:	47b8      	blx	r7
    7254:	a801      	add	r0, sp, #4
    7256:	47c8      	blx	r9
    7258:	f8d4 2080 	ldr.w	r2, [r4, #128]	; 0x80
    725c:	f8d4 30a0 	ldr.w	r3, [r4, #160]	; 0xa0
    7260:	f8d4 5090 	ldr.w	r5, [r4, #144]	; 0x90
    7264:	405d      	eors	r5, r3
    7266:	4015      	ands	r5, r2
    7268:	405d      	eors	r5, r3
    726a:	a801      	add	r0, sp, #4
    726c:	4b15      	ldr	r3, [pc, #84]	; (72c4 <grid_sys_get_hwcfg+0xdc>)
    726e:	4798      	blx	r3
    7270:	042b      	lsls	r3, r5, #16
    7272:	bf41      	itttt	mi
    7274:	2301      	movmi	r3, #1
    7276:	fa03 f30a 	lslmi.w	r3, r3, sl
    727a:	ea43 0b0b 	orrmi.w	fp, r3, fp
    727e:	fa5f fb8b 	uxtbmi.w	fp, fp
    7282:	f1ba 0f07 	cmp.w	sl, #7
    7286:	d007      	beq.n	7298 <grid_sys_get_hwcfg+0xb0>
    7288:	f44f 4580 	mov.w	r5, #16384	; 0x4000
    728c:	f8c4 5098 	str.w	r5, [r4, #152]	; 0x98
    7290:	2001      	movs	r0, #1
    7292:	47b8      	blx	r7
    7294:	f8c4 5094 	str.w	r5, [r4, #148]	; 0x94
    7298:	f10a 0a01 	add.w	sl, sl, #1
    729c:	f1ba 0f08 	cmp.w	sl, #8
    72a0:	d1d4      	bne.n	724c <grid_sys_get_hwcfg+0x64>
    72a2:	f8c6 b000 	str.w	fp, [r6]
    72a6:	6830      	ldr	r0, [r6, #0]
    72a8:	b003      	add	sp, #12
    72aa:	e8bd 8ff0 	ldmia.w	sp!, {r4, r5, r6, r7, r8, r9, sl, fp, pc}
    72ae:	bf00      	nop
    72b0:	20000350 	.word	0x20000350
    72b4:	41008000 	.word	0x41008000
    72b8:	40002000 	.word	0x40002000
    72bc:	00007921 	.word	0x00007921
    72c0:	40028000 	.word	0x40028000
    72c4:	000078fb 	.word	0x000078fb
    72c8:	000078ed 	.word	0x000078ed

000072cc <grid_msg_get_checksum>:
    72cc:	b510      	push	{r4, lr}
    72ce:	4602      	mov	r2, r0
    72d0:	2300      	movs	r3, #0
    72d2:	3903      	subs	r1, #3
    72d4:	1a14      	subs	r4, r2, r0
    72d6:	42a1      	cmp	r1, r4
    72d8:	d801      	bhi.n	72de <grid_msg_get_checksum+0x12>
    72da:	4618      	mov	r0, r3
    72dc:	bd10      	pop	{r4, pc}
    72de:	f812 4b01 	ldrb.w	r4, [r2], #1
    72e2:	4063      	eors	r3, r4
    72e4:	e7f6      	b.n	72d4 <grid_msg_get_checksum+0x8>
	...

000072e8 <grid_msg_set_checksum>:
    72e8:	1ecb      	subs	r3, r1, #3
    72ea:	4418      	add	r0, r3
    72ec:	2102      	movs	r1, #2
    72ee:	4b01      	ldr	r3, [pc, #4]	; (72f4 <grid_msg_set_checksum+0xc>)
    72f0:	4718      	bx	r3
    72f2:	bf00      	nop
    72f4:	000071b5 	.word	0x000071b5

000072f8 <grid_msg_get_id>:
    72f8:	b507      	push	{r0, r1, r2, lr}
    72fa:	aa02      	add	r2, sp, #8
    72fc:	2300      	movs	r3, #0
    72fe:	f802 3d01 	strb.w	r3, [r2, #-1]!
    7302:	2102      	movs	r1, #2
    7304:	4b03      	ldr	r3, [pc, #12]	; (7314 <grid_msg_get_id+0x1c>)
    7306:	3004      	adds	r0, #4
    7308:	4798      	blx	r3
    730a:	b2c0      	uxtb	r0, r0
    730c:	b003      	add	sp, #12
    730e:	f85d fb04 	ldr.w	pc, [sp], #4
    7312:	bf00      	nop
    7314:	00007185 	.word	0x00007185

00007318 <grid_msg_get_dx>:
    7318:	b507      	push	{r0, r1, r2, lr}
    731a:	aa02      	add	r2, sp, #8
    731c:	2300      	movs	r3, #0
    731e:	f802 3d01 	strb.w	r3, [r2, #-1]!
    7322:	2102      	movs	r1, #2
    7324:	4b03      	ldr	r3, [pc, #12]	; (7334 <grid_msg_get_dx+0x1c>)
    7326:	3006      	adds	r0, #6
    7328:	4798      	blx	r3
    732a:	b2c0      	uxtb	r0, r0
    732c:	b003      	add	sp, #12
    732e:	f85d fb04 	ldr.w	pc, [sp], #4
    7332:	bf00      	nop
    7334:	00007185 	.word	0x00007185

00007338 <grid_msg_get_dy>:
    7338:	b507      	push	{r0, r1, r2, lr}
    733a:	aa02      	add	r2, sp, #8
    733c:	2300      	movs	r3, #0
    733e:	f802 3d01 	strb.w	r3, [r2, #-1]!
    7342:	2102      	movs	r1, #2
    7344:	4b03      	ldr	r3, [pc, #12]	; (7354 <grid_msg_get_dy+0x1c>)
    7346:	3008      	adds	r0, #8
    7348:	4798      	blx	r3
    734a:	b2c0      	uxtb	r0, r0
    734c:	b003      	add	sp, #12
    734e:	f85d fb04 	ldr.w	pc, [sp], #4
    7352:	bf00      	nop
    7354:	00007185 	.word	0x00007185

00007358 <grid_msg_get_age>:
    7358:	b507      	push	{r0, r1, r2, lr}
    735a:	aa02      	add	r2, sp, #8
    735c:	2300      	movs	r3, #0
    735e:	f802 3d01 	strb.w	r3, [r2, #-1]!
    7362:	2102      	movs	r1, #2
    7364:	4b03      	ldr	r3, [pc, #12]	; (7374 <grid_msg_get_age+0x1c>)
    7366:	300a      	adds	r0, #10
    7368:	4798      	blx	r3
    736a:	b2c0      	uxtb	r0, r0
    736c:	b003      	add	sp, #12
    736e:	f85d fb04 	ldr.w	pc, [sp], #4
    7372:	bf00      	nop
    7374:	00007185 	.word	0x00007185

00007378 <grid_msg_set_id>:
    7378:	460a      	mov	r2, r1
    737a:	3004      	adds	r0, #4
    737c:	2102      	movs	r1, #2
    737e:	4b01      	ldr	r3, [pc, #4]	; (7384 <grid_msg_set_id+0xc>)
    7380:	4718      	bx	r3
    7382:	bf00      	nop
    7384:	000071b5 	.word	0x000071b5

00007388 <grid_msg_set_dx>:
    7388:	460a      	mov	r2, r1
    738a:	3006      	adds	r0, #6
    738c:	2102      	movs	r1, #2
    738e:	4b01      	ldr	r3, [pc, #4]	; (7394 <grid_msg_set_dx+0xc>)
    7390:	4718      	bx	r3
    7392:	bf00      	nop
    7394:	000071b5 	.word	0x000071b5

00007398 <grid_msg_set_dy>:
    7398:	460a      	mov	r2, r1
    739a:	3008      	adds	r0, #8
    739c:	2102      	movs	r1, #2
    739e:	4b01      	ldr	r3, [pc, #4]	; (73a4 <grid_msg_set_dy+0xc>)
    73a0:	4718      	bx	r3
    73a2:	bf00      	nop
    73a4:	000071b5 	.word	0x000071b5

000073a8 <grid_msg_set_age>:
    73a8:	460a      	mov	r2, r1
    73aa:	300a      	adds	r0, #10
    73ac:	2102      	movs	r1, #2
    73ae:	4b01      	ldr	r3, [pc, #4]	; (73b4 <grid_msg_set_age+0xc>)
    73b0:	4718      	bx	r3
    73b2:	bf00      	nop
    73b4:	000071b5 	.word	0x000071b5

000073b8 <grid_msg_find_recent>:
    73b8:	f100 0310 	add.w	r3, r0, #16
    73bc:	f500 7004 	add.w	r0, r0, #528	; 0x210
    73c0:	4283      	cmp	r3, r0
    73c2:	d101      	bne.n	73c8 <grid_msg_find_recent+0x10>
    73c4:	2000      	movs	r0, #0
    73c6:	4770      	bx	lr
    73c8:	f853 2b04 	ldr.w	r2, [r3], #4
    73cc:	428a      	cmp	r2, r1
    73ce:	d1f7      	bne.n	73c0 <grid_msg_find_recent+0x8>
    73d0:	2001      	movs	r0, #1
    73d2:	4770      	bx	lr

000073d4 <grid_msg_push_recent>:
    73d4:	f890 3210 	ldrb.w	r3, [r0, #528]	; 0x210
    73d8:	3301      	adds	r3, #1
    73da:	f003 037f 	and.w	r3, r3, #127	; 0x7f
    73de:	f880 3210 	strb.w	r3, [r0, #528]	; 0x210
    73e2:	3304      	adds	r3, #4
    73e4:	f840 1023 	str.w	r1, [r0, r3, lsl #2]
    73e8:	4770      	bx	lr
	...

000073ec <grid_sys_ping>:
    73ec:	b57f      	push	{r0, r1, r2, r3, r4, r5, r6, lr}
    73ee:	4b26      	ldr	r3, [pc, #152]	; (7488 <grid_sys_ping+0x9c>)
    73f0:	4d26      	ldr	r5, [pc, #152]	; (748c <grid_sys_ping+0xa0>)
    73f2:	4604      	mov	r4, r0
    73f4:	4798      	blx	r3
    73f6:	2301      	movs	r3, #1
    73f8:	f88d 3000 	strb.w	r3, [sp]
    73fc:	230e      	movs	r3, #14
    73fe:	f88d 3001 	strb.w	r3, [sp, #1]
    7402:	2307      	movs	r3, #7
    7404:	f88d 3002 	strb.w	r3, [sp, #2]
    7408:	7a63      	ldrb	r3, [r4, #9]
    740a:	f88d 3003 	strb.w	r3, [sp, #3]
    740e:	2204      	movs	r2, #4
    7410:	2330      	movs	r3, #48	; 0x30
    7412:	f88d 3004 	strb.w	r3, [sp, #4]
    7416:	f88d 3005 	strb.w	r3, [sp, #5]
    741a:	f88d 3006 	strb.w	r3, [sp, #6]
    741e:	f88d 3007 	strb.w	r3, [sp, #7]
    7422:	f88d 3008 	strb.w	r3, [sp, #8]
    7426:	f88d 3009 	strb.w	r3, [sp, #9]
    742a:	f88d 300a 	strb.w	r3, [sp, #10]
    742e:	f88d 300b 	strb.w	r3, [sp, #11]
    7432:	f88d 200c 	strb.w	r2, [sp, #12]
    7436:	f88d 300d 	strb.w	r3, [sp, #13]
    743a:	4602      	mov	r2, r0
    743c:	f88d 300e 	strb.w	r3, [sp, #14]
    7440:	2108      	movs	r1, #8
    7442:	230a      	movs	r3, #10
    7444:	a801      	add	r0, sp, #4
    7446:	f88d 300f 	strb.w	r3, [sp, #15]
    744a:	47a8      	blx	r5
    744c:	4b10      	ldr	r3, [pc, #64]	; (7490 <grid_sys_ping+0xa4>)
    744e:	2110      	movs	r1, #16
    7450:	4668      	mov	r0, sp
    7452:	4798      	blx	r3
    7454:	f504 649b 	add.w	r4, r4, #1240	; 0x4d8
    7458:	4602      	mov	r2, r0
    745a:	2102      	movs	r1, #2
    745c:	f10d 000d 	add.w	r0, sp, #13
    7460:	47a8      	blx	r5
    7462:	2110      	movs	r1, #16
    7464:	4620      	mov	r0, r4
    7466:	4b0b      	ldr	r3, [pc, #44]	; (7494 <grid_sys_ping+0xa8>)
    7468:	4798      	blx	r3
    746a:	b158      	cbz	r0, 7484 <grid_sys_ping+0x98>
    746c:	4e0a      	ldr	r6, [pc, #40]	; (7498 <grid_sys_ping+0xac>)
    746e:	2500      	movs	r5, #0
    7470:	f81d 1005 	ldrb.w	r1, [sp, r5]
    7474:	4620      	mov	r0, r4
    7476:	3501      	adds	r5, #1
    7478:	47b0      	blx	r6
    747a:	2d10      	cmp	r5, #16
    747c:	d1f8      	bne.n	7470 <grid_sys_ping+0x84>
    747e:	4620      	mov	r0, r4
    7480:	4b06      	ldr	r3, [pc, #24]	; (749c <grid_sys_ping+0xb0>)
    7482:	4798      	blx	r3
    7484:	b004      	add	sp, #16
    7486:	bd70      	pop	{r4, r5, r6, pc}
    7488:	000071e9 	.word	0x000071e9
    748c:	000071b5 	.word	0x000071b5
    7490:	000072cd 	.word	0x000072cd
    7494:	00004fa1 	.word	0x00004fa1
    7498:	00004fcd 	.word	0x00004fcd
    749c:	00004fe9 	.word	0x00004fe9

000074a0 <grid_ui_model_init>:
    74a0:	b538      	push	{r3, r4, r5, lr}
    74a2:	4604      	mov	r4, r0
    74a4:	4b03      	ldr	r3, [pc, #12]	; (74b4 <grid_ui_model_init+0x14>)
    74a6:	0108      	lsls	r0, r1, #4
    74a8:	460d      	mov	r5, r1
    74aa:	4798      	blx	r3
    74ac:	7025      	strb	r5, [r4, #0]
    74ae:	6060      	str	r0, [r4, #4]
    74b0:	bd38      	pop	{r3, r4, r5, pc}
    74b2:	bf00      	nop
    74b4:	0000d265 	.word	0x0000d265

000074b8 <grid_ui_report_init>:
    74b8:	e92d 4ff8 	stmdb	sp!, {r3, r4, r5, r6, r7, r8, r9, sl, fp, lr}
    74bc:	010f      	lsls	r7, r1, #4
    74be:	6841      	ldr	r1, [r0, #4]
    74c0:	f89d a02c 	ldrb.w	sl, [sp, #44]	; 0x2c
    74c4:	f8df b070 	ldr.w	fp, [pc, #112]	; 7538 <grid_ui_report_init+0x80>
    74c8:	eb01 0907 	add.w	r9, r1, r7
    74cc:	2400      	movs	r4, #0
    74ce:	55cc      	strb	r4, [r1, r7]
    74d0:	4606      	mov	r6, r0
    74d2:	f889 3001 	strb.w	r3, [r9, #1]
    74d6:	4618      	mov	r0, r3
    74d8:	f889 a008 	strb.w	sl, [r9, #8]
    74dc:	4690      	mov	r8, r2
    74de:	47d8      	blx	fp
    74e0:	f8c9 0004 	str.w	r0, [r9, #4]
    74e4:	4605      	mov	r5, r0
    74e6:	4650      	mov	r0, sl
    74e8:	47d8      	blx	fp
    74ea:	f8c9 000c 	str.w	r0, [r9, #12]
    74ee:	b1fd      	cbz	r5, 7530 <grid_ui_report_init+0x78>
    74f0:	b1f0      	cbz	r0, 7530 <grid_ui_report_init+0x78>
    74f2:	4623      	mov	r3, r4
    74f4:	6871      	ldr	r1, [r6, #4]
    74f6:	4439      	add	r1, r7
    74f8:	1c58      	adds	r0, r3, #1
    74fa:	784a      	ldrb	r2, [r1, #1]
    74fc:	b2db      	uxtb	r3, r3
    74fe:	429a      	cmp	r2, r3
    7500:	d80a      	bhi.n	7518 <grid_ui_report_init+0x60>
    7502:	2300      	movs	r3, #0
    7504:	6872      	ldr	r2, [r6, #4]
    7506:	443a      	add	r2, r7
    7508:	1c58      	adds	r0, r3, #1
    750a:	7a11      	ldrb	r1, [r2, #8]
    750c:	b2db      	uxtb	r3, r3
    750e:	4299      	cmp	r1, r3
    7510:	d808      	bhi.n	7524 <grid_ui_report_init+0x6c>
    7512:	2000      	movs	r0, #0
    7514:	e8bd 8ff8 	ldmia.w	sp!, {r3, r4, r5, r6, r7, r8, r9, sl, fp, pc}
    7518:	684a      	ldr	r2, [r1, #4]
    751a:	f818 4003 	ldrb.w	r4, [r8, r3]
    751e:	54d4      	strb	r4, [r2, r3]
    7520:	4603      	mov	r3, r0
    7522:	e7e7      	b.n	74f4 <grid_ui_report_init+0x3c>
    7524:	990a      	ldr	r1, [sp, #40]	; 0x28
    7526:	68d2      	ldr	r2, [r2, #12]
    7528:	5cc9      	ldrb	r1, [r1, r3]
    752a:	54d1      	strb	r1, [r2, r3]
    752c:	4603      	mov	r3, r0
    752e:	e7e9      	b.n	7504 <grid_ui_report_init+0x4c>
    7530:	20ff      	movs	r0, #255	; 0xff
    7532:	e8bd 8ff8 	ldmia.w	sp!, {r3, r4, r5, r6, r7, r8, r9, sl, fp, pc}
    7536:	bf00      	nop
    7538:	0000d265 	.word	0x0000d265

0000753c <grid_ui_report_render>:
    753c:	b510      	push	{r4, lr}
    753e:	6843      	ldr	r3, [r0, #4]
    7540:	eb03 1101 	add.w	r1, r3, r1, lsl #4
    7544:	2300      	movs	r3, #0
    7546:	7848      	ldrb	r0, [r1, #1]
    7548:	1c5c      	adds	r4, r3, #1
    754a:	b2db      	uxtb	r3, r3
    754c:	4283      	cmp	r3, r0
    754e:	d300      	bcc.n	7552 <grid_ui_report_render+0x16>
    7550:	bd10      	pop	{r4, pc}
    7552:	6848      	ldr	r0, [r1, #4]
    7554:	5cc0      	ldrb	r0, [r0, r3]
    7556:	54d0      	strb	r0, [r2, r3]
    7558:	4623      	mov	r3, r4
    755a:	e7f4      	b.n	7546 <grid_ui_report_render+0xa>

0000755c <grid_ui_report_get_changed_flag>:
    755c:	0109      	lsls	r1, r1, #4
    755e:	6843      	ldr	r3, [r0, #4]
    7560:	5c58      	ldrb	r0, [r3, r1]
    7562:	4770      	bx	lr

00007564 <grid_ui_report_set_changed_flag>:
    7564:	0109      	lsls	r1, r1, #4
    7566:	6843      	ldr	r3, [r0, #4]
    7568:	2201      	movs	r2, #1
    756a:	545a      	strb	r2, [r3, r1]
    756c:	4770      	bx	lr

0000756e <grid_ui_report_clear_changed_flag>:
    756e:	0109      	lsls	r1, r1, #4
    7570:	6843      	ldr	r3, [r0, #4]
    7572:	2200      	movs	r2, #0
    7574:	545a      	strb	r2, [r3, r1]
    7576:	4770      	bx	lr

00007578 <grid_port_process_ui>:
    7578:	e92d 4ff0 	stmdb	sp!, {r4, r5, r6, r7, r8, r9, sl, fp, lr}
    757c:	7805      	ldrb	r5, [r0, #0]
    757e:	b0cd      	sub	sp, #308	; 0x134
    7580:	4682      	mov	sl, r0
    7582:	b125      	cbz	r5, 758e <grid_port_process_ui+0x16>
    7584:	3d01      	subs	r5, #1
    7586:	7005      	strb	r5, [r0, #0]
    7588:	b04d      	add	sp, #308	; 0x134
    758a:	e8bd 8ff0 	ldmia.w	sp!, {r4, r5, r6, r7, r8, r9, sl, fp, pc}
    758e:	2317      	movs	r3, #23
    7590:	9305      	str	r3, [sp, #20]
    7592:	f8df 9148 	ldr.w	r9, [pc, #328]	; 76dc <grid_port_process_ui+0x164>
    7596:	9504      	str	r5, [sp, #16]
    7598:	237f      	movs	r3, #127	; 0x7f
    759a:	9303      	str	r3, [sp, #12]
    759c:	9302      	str	r3, [sp, #8]
    759e:	f899 3211 	ldrb.w	r3, [r9, #529]	; 0x211
    75a2:	9301      	str	r3, [sp, #4]
    75a4:	ae0c      	add	r6, sp, #48	; 0x30
    75a6:	230f      	movs	r3, #15
    75a8:	2201      	movs	r2, #1
    75aa:	493d      	ldr	r1, [pc, #244]	; (76a0 <grid_port_process_ui+0x128>)
    75ac:	f8df 8130 	ldr.w	r8, [pc, #304]	; 76e0 <grid_port_process_ui+0x168>
    75b0:	9500      	str	r5, [sp, #0]
    75b2:	4630      	mov	r0, r6
    75b4:	47c0      	blx	r8
    75b6:	4f3b      	ldr	r7, [pc, #236]	; (76a4 <grid_port_process_ui+0x12c>)
    75b8:	4630      	mov	r0, r6
    75ba:	47b8      	blx	r7
    75bc:	f8cd 9018 	str.w	r9, [sp, #24]
    75c0:	f8df 9120 	ldr.w	r9, [pc, #288]	; 76e4 <grid_port_process_ui+0x16c>
    75c4:	f8cd 801c 	str.w	r8, [sp, #28]
    75c8:	4604      	mov	r4, r0
    75ca:	46ab      	mov	fp, r5
    75cc:	f899 3000 	ldrb.w	r3, [r9]
    75d0:	fa5f f88b 	uxtb.w	r8, fp
    75d4:	4598      	cmp	r8, r3
    75d6:	d33e      	bcc.n	7656 <grid_port_process_ui+0xde>
    75d8:	2d00      	cmp	r5, #0
    75da:	d0d5      	beq.n	7588 <grid_port_process_ui+0x10>
    75dc:	9b06      	ldr	r3, [sp, #24]
    75de:	f88a 5000 	strb.w	r5, [sl]
    75e2:	f893 3211 	ldrb.w	r3, [r3, #529]	; 0x211
    75e6:	9a06      	ldr	r2, [sp, #24]
    75e8:	492f      	ldr	r1, [pc, #188]	; (76a8 <grid_port_process_ui+0x130>)
    75ea:	1935      	adds	r5, r6, r4
    75ec:	3301      	adds	r3, #1
    75ee:	f882 3211 	strb.w	r3, [r2, #529]	; 0x211
    75f2:	4628      	mov	r0, r5
    75f4:	2204      	movs	r2, #4
    75f6:	9b07      	ldr	r3, [sp, #28]
    75f8:	4798      	blx	r3
    75fa:	4628      	mov	r0, r5
    75fc:	47b8      	blx	r7
    75fe:	4404      	add	r4, r0
    7600:	4622      	mov	r2, r4
    7602:	492a      	ldr	r1, [pc, #168]	; (76ac <grid_port_process_ui+0x134>)
    7604:	9b07      	ldr	r3, [sp, #28]
    7606:	a80a      	add	r0, sp, #40	; 0x28
    7608:	4798      	blx	r3
    760a:	f89d 3028 	ldrb.w	r3, [sp, #40]	; 0x28
    760e:	70b3      	strb	r3, [r6, #2]
    7610:	f89d 3029 	ldrb.w	r3, [sp, #41]	; 0x29
    7614:	70f3      	strb	r3, [r6, #3]
    7616:	1933      	adds	r3, r6, r4
    7618:	4a25      	ldr	r2, [pc, #148]	; (76b0 <grid_port_process_ui+0x138>)
    761a:	4926      	ldr	r1, [pc, #152]	; (76b4 <grid_port_process_ui+0x13c>)
    761c:	4618      	mov	r0, r3
    761e:	4790      	blx	r2
    7620:	47b8      	blx	r7
    7622:	4404      	add	r4, r0
    7624:	4621      	mov	r1, r4
    7626:	4b24      	ldr	r3, [pc, #144]	; (76b8 <grid_port_process_ui+0x140>)
    7628:	4630      	mov	r0, r6
    762a:	4798      	blx	r3
    762c:	4621      	mov	r1, r4
    762e:	b2c2      	uxtb	r2, r0
    7630:	4b22      	ldr	r3, [pc, #136]	; (76bc <grid_port_process_ui+0x144>)
    7632:	4630      	mov	r0, r6
    7634:	4798      	blx	r3
    7636:	b2a1      	uxth	r1, r4
    7638:	4821      	ldr	r0, [pc, #132]	; (76c0 <grid_port_process_ui+0x148>)
    763a:	4b22      	ldr	r3, [pc, #136]	; (76c4 <grid_port_process_ui+0x14c>)
    763c:	4798      	blx	r3
    763e:	2800      	cmp	r0, #0
    7640:	d0a2      	beq.n	7588 <grid_port_process_ui+0x10>
    7642:	4f1f      	ldr	r7, [pc, #124]	; (76c0 <grid_port_process_ui+0x148>)
    7644:	f8df 80a0 	ldr.w	r8, [pc, #160]	; 76e8 <grid_port_process_ui+0x170>
    7648:	2500      	movs	r5, #0
    764a:	42a5      	cmp	r5, r4
    764c:	d122      	bne.n	7694 <grid_port_process_ui+0x11c>
    764e:	4b1e      	ldr	r3, [pc, #120]	; (76c8 <grid_port_process_ui+0x150>)
    7650:	481b      	ldr	r0, [pc, #108]	; (76c0 <grid_port_process_ui+0x148>)
    7652:	4798      	blx	r3
    7654:	e798      	b.n	7588 <grid_port_process_ui+0x10>
    7656:	2cc8      	cmp	r4, #200	; 0xc8
    7658:	d819      	bhi.n	768e <grid_port_process_ui+0x116>
    765a:	4b1c      	ldr	r3, [pc, #112]	; (76cc <grid_port_process_ui+0x154>)
    765c:	a809      	add	r0, sp, #36	; 0x24
    765e:	4798      	blx	r3
    7660:	f8d9 2004 	ldr.w	r2, [r9, #4]
    7664:	ea4f 1308 	mov.w	r3, r8, lsl #4
    7668:	5cd3      	ldrb	r3, [r2, r3]
    766a:	b16b      	cbz	r3, 7688 <grid_port_process_ui+0x110>
    766c:	1932      	adds	r2, r6, r4
    766e:	4641      	mov	r1, r8
    7670:	4b17      	ldr	r3, [pc, #92]	; (76d0 <grid_port_process_ui+0x158>)
    7672:	4648      	mov	r0, r9
    7674:	4798      	blx	r3
    7676:	4641      	mov	r1, r8
    7678:	4648      	mov	r0, r9
    767a:	4b16      	ldr	r3, [pc, #88]	; (76d4 <grid_port_process_ui+0x15c>)
    767c:	4798      	blx	r3
    767e:	1930      	adds	r0, r6, r4
    7680:	47b8      	blx	r7
    7682:	3501      	adds	r5, #1
    7684:	b2ed      	uxtb	r5, r5
    7686:	4404      	add	r4, r0
    7688:	a809      	add	r0, sp, #36	; 0x24
    768a:	4b13      	ldr	r3, [pc, #76]	; (76d8 <grid_port_process_ui+0x160>)
    768c:	4798      	blx	r3
    768e:	f10b 0b01 	add.w	fp, fp, #1
    7692:	e79b      	b.n	75cc <grid_port_process_ui+0x54>
    7694:	5d71      	ldrb	r1, [r6, r5]
    7696:	4638      	mov	r0, r7
    7698:	47c0      	blx	r8
    769a:	3501      	adds	r5, #1
    769c:	e7d5      	b.n	764a <grid_port_process_ui+0xd2>
    769e:	bf00      	nop
    76a0:	0000dcc4 	.word	0x0000dcc4
    76a4:	0000d4e1 	.word	0x0000d4e1
    76a8:	0000dcab 	.word	0x0000dcab
    76ac:	0000dcfd 	.word	0x0000dcfd
    76b0:	0000d4d1 	.word	0x0000d4d1
    76b4:	0000dd02 	.word	0x0000dd02
    76b8:	000072cd 	.word	0x000072cd
    76bc:	000072e9 	.word	0x000072e9
    76c0:	20001c5c 	.word	0x20001c5c
    76c4:	00004fa1 	.word	0x00004fa1
    76c8:	00004fe9 	.word	0x00004fe9
    76cc:	000078ed 	.word	0x000078ed
    76d0:	0000753d 	.word	0x0000753d
    76d4:	0000756f 	.word	0x0000756f
    76d8:	000078fb 	.word	0x000078fb
    76dc:	20001c88 	.word	0x20001c88
    76e0:	0000d489 	.word	0x0000d489
    76e4:	20001c7c 	.word	0x20001c7c
    76e8:	00004fcd 	.word	0x00004fcd

000076ec <adc_async_window_threshold_reached>:
    76ec:	6983      	ldr	r3, [r0, #24]
    76ee:	b103      	cbz	r3, 76f2 <adc_async_window_threshold_reached+0x6>
    76f0:	4718      	bx	r3
    76f2:	4770      	bx	lr

000076f4 <adc_async_error_occured>:
    76f4:	69c3      	ldr	r3, [r0, #28]
    76f6:	b103      	cbz	r3, 76fa <adc_async_error_occured+0x6>
    76f8:	4718      	bx	r3
    76fa:	4770      	bx	lr

000076fc <adc_async_channel_conversion_done>:
    76fc:	e92d 4ff1 	stmdb	sp!, {r0, r4, r5, r6, r7, r8, r9, sl, fp, lr}
    7700:	6a03      	ldr	r3, [r0, #32]
    7702:	f8d0 8028 	ldr.w	r8, [r0, #40]	; 0x28
    7706:	5c5c      	ldrb	r4, [r3, r1]
    7708:	f8df 9054 	ldr.w	r9, [pc, #84]	; 7760 <adc_async_channel_conversion_done+0x64>
    770c:	eb04 0444 	add.w	r4, r4, r4, lsl #1
    7710:	00e4      	lsls	r4, r4, #3
    7712:	eb08 0504 	add.w	r5, r8, r4
    7716:	f105 0a04 	add.w	sl, r5, #4
    771a:	4606      	mov	r6, r0
    771c:	460f      	mov	r7, r1
    771e:	4650      	mov	r0, sl
    7720:	b2d1      	uxtb	r1, r2
    7722:	4693      	mov	fp, r2
    7724:	47c8      	blx	r9
    7726:	4630      	mov	r0, r6
    7728:	4b0c      	ldr	r3, [pc, #48]	; (775c <adc_async_channel_conversion_done+0x60>)
    772a:	4798      	blx	r3
    772c:	2801      	cmp	r0, #1
    772e:	d906      	bls.n	773e <adc_async_channel_conversion_done+0x42>
    7730:	ea4f 211b 	mov.w	r1, fp, lsr #8
    7734:	4650      	mov	r0, sl
    7736:	47c8      	blx	r9
    7738:	8aab      	ldrh	r3, [r5, #20]
    773a:	3301      	adds	r3, #1
    773c:	82ab      	strh	r3, [r5, #20]
    773e:	8aab      	ldrh	r3, [r5, #20]
    7740:	3301      	adds	r3, #1
    7742:	82ab      	strh	r3, [r5, #20]
    7744:	f858 3004 	ldr.w	r3, [r8, r4]
    7748:	b12b      	cbz	r3, 7756 <adc_async_channel_conversion_done+0x5a>
    774a:	4639      	mov	r1, r7
    774c:	4630      	mov	r0, r6
    774e:	b001      	add	sp, #4
    7750:	e8bd 4ff0 	ldmia.w	sp!, {r4, r5, r6, r7, r8, r9, sl, fp, lr}
    7754:	4718      	bx	r3
    7756:	b001      	add	sp, #4
    7758:	e8bd 8ff0 	ldmia.w	sp!, {r4, r5, r6, r7, r8, r9, sl, fp, pc}
    775c:	000088b9 	.word	0x000088b9
    7760:	000085f1 	.word	0x000085f1

00007764 <adc_async_init>:
    7764:	b570      	push	{r4, r5, r6, lr}
    7766:	4604      	mov	r4, r0
    7768:	26ff      	movs	r6, #255	; 0xff
    776a:	2000      	movs	r0, #0
    776c:	b2c5      	uxtb	r5, r0
    776e:	3001      	adds	r0, #1
    7770:	5556      	strb	r6, [r2, r5]
    7772:	b2c5      	uxtb	r5, r0
    7774:	42ab      	cmp	r3, r5
    7776:	d2f9      	bcs.n	776c <adc_async_init+0x8>
    7778:	f884 3024 	strb.w	r3, [r4, #36]	; 0x24
    777c:	f89d 3010 	ldrb.w	r3, [sp, #16]
    7780:	f884 3025 	strb.w	r3, [r4, #37]	; 0x25
    7784:	9b05      	ldr	r3, [sp, #20]
    7786:	62a3      	str	r3, [r4, #40]	; 0x28
    7788:	6222      	str	r2, [r4, #32]
    778a:	4620      	mov	r0, r4
    778c:	4b04      	ldr	r3, [pc, #16]	; (77a0 <adc_async_init+0x3c>)
    778e:	4798      	blx	r3
    7790:	b928      	cbnz	r0, 779e <adc_async_init+0x3a>
    7792:	4b04      	ldr	r3, [pc, #16]	; (77a4 <adc_async_init+0x40>)
    7794:	60a3      	str	r3, [r4, #8]
    7796:	4b04      	ldr	r3, [pc, #16]	; (77a8 <adc_async_init+0x44>)
    7798:	6023      	str	r3, [r4, #0]
    779a:	4b04      	ldr	r3, [pc, #16]	; (77ac <adc_async_init+0x48>)
    779c:	6063      	str	r3, [r4, #4]
    779e:	bd70      	pop	{r4, r5, r6, pc}
    77a0:	000087f9 	.word	0x000087f9
    77a4:	000076fd 	.word	0x000076fd
    77a8:	000076ed 	.word	0x000076ed
    77ac:	000076f5 	.word	0x000076f5

000077b0 <adc_async_register_channel_buffer>:
    77b0:	b5f8      	push	{r3, r4, r5, r6, r7, lr}
    77b2:	460f      	mov	r7, r1
    77b4:	f8d0 e020 	ldr.w	lr, [r0, #32]
    77b8:	4611      	mov	r1, r2
    77ba:	f81e 2007 	ldrb.w	r2, [lr, r7]
    77be:	2aff      	cmp	r2, #255	; 0xff
    77c0:	4605      	mov	r5, r0
    77c2:	d11a      	bne.n	77fa <adc_async_register_channel_buffer+0x4a>
    77c4:	f890 2024 	ldrb.w	r2, [r0, #36]	; 0x24
    77c8:	2000      	movs	r0, #0
    77ca:	4604      	mov	r4, r0
    77cc:	b2c6      	uxtb	r6, r0
    77ce:	4296      	cmp	r6, r2
    77d0:	d916      	bls.n	7800 <adc_async_register_channel_buffer+0x50>
    77d2:	f895 2025 	ldrb.w	r2, [r5, #37]	; 0x25
    77d6:	42a2      	cmp	r2, r4
    77d8:	d31a      	bcc.n	7810 <adc_async_register_channel_buffer+0x60>
    77da:	eb04 0644 	add.w	r6, r4, r4, lsl #1
    77de:	6aa8      	ldr	r0, [r5, #40]	; 0x28
    77e0:	00f6      	lsls	r6, r6, #3
    77e2:	4430      	add	r0, r6
    77e4:	461a      	mov	r2, r3
    77e6:	3004      	adds	r0, #4
    77e8:	4b0b      	ldr	r3, [pc, #44]	; (7818 <adc_async_register_channel_buffer+0x68>)
    77ea:	4798      	blx	r3
    77ec:	b928      	cbnz	r0, 77fa <adc_async_register_channel_buffer+0x4a>
    77ee:	6a2b      	ldr	r3, [r5, #32]
    77f0:	55dc      	strb	r4, [r3, r7]
    77f2:	6aab      	ldr	r3, [r5, #40]	; 0x28
    77f4:	441e      	add	r6, r3
    77f6:	82b0      	strh	r0, [r6, #20]
    77f8:	bdf8      	pop	{r3, r4, r5, r6, r7, pc}
    77fa:	f06f 000c 	mvn.w	r0, #12
    77fe:	bdf8      	pop	{r3, r4, r5, r6, r7, pc}
    7800:	f81e 6006 	ldrb.w	r6, [lr, r6]
    7804:	2eff      	cmp	r6, #255	; 0xff
    7806:	bf1c      	itt	ne
    7808:	3401      	addne	r4, #1
    780a:	b2e4      	uxtbne	r4, r4
    780c:	3001      	adds	r0, #1
    780e:	e7dd      	b.n	77cc <adc_async_register_channel_buffer+0x1c>
    7810:	f06f 001b 	mvn.w	r0, #27
    7814:	bdf8      	pop	{r3, r4, r5, r6, r7, pc}
    7816:	bf00      	nop
    7818:	000085b7 	.word	0x000085b7

0000781c <adc_async_enable_channel>:
    781c:	b508      	push	{r3, lr}
    781e:	4b02      	ldr	r3, [pc, #8]	; (7828 <adc_async_enable_channel+0xc>)
    7820:	4798      	blx	r3
    7822:	2000      	movs	r0, #0
    7824:	bd08      	pop	{r3, pc}
    7826:	bf00      	nop
    7828:	000088ad 	.word	0x000088ad

0000782c <adc_async_register_callback>:
    782c:	2a01      	cmp	r2, #1
    782e:	b538      	push	{r3, r4, r5, lr}
    7830:	d013      	beq.n	785a <adc_async_register_callback+0x2e>
    7832:	d304      	bcc.n	783e <adc_async_register_callback+0x12>
    7834:	2a02      	cmp	r2, #2
    7836:	d012      	beq.n	785e <adc_async_register_callback+0x32>
    7838:	f06f 000c 	mvn.w	r0, #12
    783c:	bd38      	pop	{r3, r4, r5, pc}
    783e:	6a04      	ldr	r4, [r0, #32]
    7840:	6a85      	ldr	r5, [r0, #40]	; 0x28
    7842:	5c64      	ldrb	r4, [r4, r1]
    7844:	eb04 0444 	add.w	r4, r4, r4, lsl #1
    7848:	f845 3034 	str.w	r3, [r5, r4, lsl #3]
    784c:	3300      	adds	r3, #0
    784e:	bf18      	it	ne
    7850:	2301      	movne	r3, #1
    7852:	4c04      	ldr	r4, [pc, #16]	; (7864 <adc_async_register_callback+0x38>)
    7854:	47a0      	blx	r4
    7856:	2000      	movs	r0, #0
    7858:	bd38      	pop	{r3, r4, r5, pc}
    785a:	6183      	str	r3, [r0, #24]
    785c:	e7f6      	b.n	784c <adc_async_register_callback+0x20>
    785e:	61c3      	str	r3, [r0, #28]
    7860:	e7f4      	b.n	784c <adc_async_register_callback+0x20>
    7862:	bf00      	nop
    7864:	000088e5 	.word	0x000088e5

00007868 <adc_async_read_channel>:
    7868:	e92d 47f3 	stmdb	sp!, {r0, r1, r4, r5, r6, r7, r8, r9, sl, lr}
    786c:	4604      	mov	r4, r0
    786e:	461f      	mov	r7, r3
    7870:	4b15      	ldr	r3, [pc, #84]	; (78c8 <adc_async_read_channel+0x60>)
    7872:	f8df a064 	ldr.w	sl, [pc, #100]	; 78d8 <adc_async_read_channel+0x70>
    7876:	460d      	mov	r5, r1
    7878:	4690      	mov	r8, r2
    787a:	4798      	blx	r3
    787c:	6a23      	ldr	r3, [r4, #32]
    787e:	5d5d      	ldrb	r5, [r3, r5]
    7880:	6aa3      	ldr	r3, [r4, #40]	; 0x28
    7882:	eb05 0545 	add.w	r5, r5, r5, lsl #1
    7886:	eb03 05c5 	add.w	r5, r3, r5, lsl #3
    788a:	a801      	add	r0, sp, #4
    788c:	4b0f      	ldr	r3, [pc, #60]	; (78cc <adc_async_read_channel+0x64>)
    788e:	1d2e      	adds	r6, r5, #4
    7890:	4798      	blx	r3
    7892:	4b0f      	ldr	r3, [pc, #60]	; (78d0 <adc_async_read_channel+0x68>)
    7894:	4630      	mov	r0, r6
    7896:	4798      	blx	r3
    7898:	4b0e      	ldr	r3, [pc, #56]	; (78d4 <adc_async_read_channel+0x6c>)
    789a:	4681      	mov	r9, r0
    789c:	a801      	add	r0, sp, #4
    789e:	4798      	blx	r3
    78a0:	2400      	movs	r4, #0
    78a2:	45a1      	cmp	r9, r4
    78a4:	b2a2      	uxth	r2, r4
    78a6:	d001      	beq.n	78ac <adc_async_read_channel+0x44>
    78a8:	42bc      	cmp	r4, r7
    78aa:	d106      	bne.n	78ba <adc_async_read_channel+0x52>
    78ac:	8aab      	ldrh	r3, [r5, #20]
    78ae:	b2a0      	uxth	r0, r4
    78b0:	1a9b      	subs	r3, r3, r2
    78b2:	82ab      	strh	r3, [r5, #20]
    78b4:	b002      	add	sp, #8
    78b6:	e8bd 87f0 	ldmia.w	sp!, {r4, r5, r6, r7, r8, r9, sl, pc}
    78ba:	eb08 0104 	add.w	r1, r8, r4
    78be:	4630      	mov	r0, r6
    78c0:	47d0      	blx	sl
    78c2:	3401      	adds	r4, #1
    78c4:	e7ed      	b.n	78a2 <adc_async_read_channel+0x3a>
    78c6:	bf00      	nop
    78c8:	000088b9 	.word	0x000088b9
    78cc:	000078ed 	.word	0x000078ed
    78d0:	00008617 	.word	0x00008617
    78d4:	000078fb 	.word	0x000078fb
    78d8:	000085cf 	.word	0x000085cf

000078dc <adc_async_start_conversion>:
    78dc:	b508      	push	{r3, lr}
    78de:	4b02      	ldr	r3, [pc, #8]	; (78e8 <adc_async_start_conversion+0xc>)
    78e0:	4798      	blx	r3
    78e2:	2000      	movs	r0, #0
    78e4:	bd08      	pop	{r3, pc}
    78e6:	bf00      	nop
    78e8:	000088cd 	.word	0x000088cd

000078ec <atomic_enter_critical>:
    78ec:	f3ef 8310 	mrs	r3, PRIMASK
    78f0:	6003      	str	r3, [r0, #0]
    78f2:	b672      	cpsid	i
    78f4:	f3bf 8f5f 	dmb	sy
    78f8:	4770      	bx	lr

000078fa <atomic_leave_critical>:
    78fa:	f3bf 8f5f 	dmb	sy
    78fe:	6803      	ldr	r3, [r0, #0]
    7900:	f383 8810 	msr	PRIMASK, r3
    7904:	4770      	bx	lr
	...

00007908 <crc_sync_init>:
    7908:	4b00      	ldr	r3, [pc, #0]	; (790c <crc_sync_init+0x4>)
    790a:	4718      	bx	r3
    790c:	00008bf9 	.word	0x00008bf9

00007910 <delay_init>:
    7910:	4b01      	ldr	r3, [pc, #4]	; (7918 <delay_init+0x8>)
    7912:	6018      	str	r0, [r3, #0]
    7914:	4b01      	ldr	r3, [pc, #4]	; (791c <delay_init+0xc>)
    7916:	4718      	bx	r3
    7918:	20000654 	.word	0x20000654
    791c:	00009d9d 	.word	0x00009d9d

00007920 <delay_ms>:
    7920:	4b05      	ldr	r3, [pc, #20]	; (7938 <delay_ms+0x18>)
    7922:	b510      	push	{r4, lr}
    7924:	681c      	ldr	r4, [r3, #0]
    7926:	4b05      	ldr	r3, [pc, #20]	; (793c <delay_ms+0x1c>)
    7928:	4798      	blx	r3
    792a:	4b05      	ldr	r3, [pc, #20]	; (7940 <delay_ms+0x20>)
    792c:	4601      	mov	r1, r0
    792e:	4620      	mov	r0, r4
    7930:	e8bd 4010 	ldmia.w	sp!, {r4, lr}
    7934:	4718      	bx	r3
    7936:	bf00      	nop
    7938:	20000654 	.word	0x20000654
    793c:	00008951 	.word	0x00008951
    7940:	00009db1 	.word	0x00009db1

00007944 <event_system_init>:
    7944:	4b00      	ldr	r3, [pc, #0]	; (7948 <event_system_init+0x4>)
    7946:	4718      	bx	r3
    7948:	00008c01 	.word	0x00008c01

0000794c <flash_ready>:
    794c:	6943      	ldr	r3, [r0, #20]
    794e:	b103      	cbz	r3, 7952 <flash_ready+0x6>
    7950:	4718      	bx	r3
    7952:	4770      	bx	lr

00007954 <flash_error>:
    7954:	6983      	ldr	r3, [r0, #24]
    7956:	b103      	cbz	r3, 795a <flash_error+0x6>
    7958:	4718      	bx	r3
    795a:	4770      	bx	lr

0000795c <flash_init>:
    795c:	b510      	push	{r4, lr}
    795e:	4b04      	ldr	r3, [pc, #16]	; (7970 <flash_init+0x14>)
    7960:	4604      	mov	r4, r0
    7962:	4798      	blx	r3
    7964:	b918      	cbnz	r0, 796e <flash_init+0x12>
    7966:	4b03      	ldr	r3, [pc, #12]	; (7974 <flash_init+0x18>)
    7968:	6023      	str	r3, [r4, #0]
    796a:	4b03      	ldr	r3, [pc, #12]	; (7978 <flash_init+0x1c>)
    796c:	6063      	str	r3, [r4, #4]
    796e:	bd10      	pop	{r4, pc}
    7970:	00008cd1 	.word	0x00008cd1
    7974:	0000794d 	.word	0x0000794d
    7978:	00007955 	.word	0x00007955

0000797c <i2c_m_async_write>:
    797c:	b51f      	push	{r0, r1, r2, r3, r4, lr}
    797e:	8a83      	ldrh	r3, [r0, #20]
    7980:	f8ad 3004 	strh.w	r3, [sp, #4]
    7984:	f44f 4300 	mov.w	r3, #32768	; 0x8000
    7988:	f8ad 3006 	strh.w	r3, [sp, #6]
    798c:	9103      	str	r1, [sp, #12]
    798e:	4b05      	ldr	r3, [pc, #20]	; (79a4 <i2c_m_async_write+0x28>)
    7990:	9202      	str	r2, [sp, #8]
    7992:	a901      	add	r1, sp, #4
    7994:	3828      	subs	r0, #40	; 0x28
    7996:	4614      	mov	r4, r2
    7998:	4798      	blx	r3
    799a:	2800      	cmp	r0, #0
    799c:	bf08      	it	eq
    799e:	4620      	moveq	r0, r4
    79a0:	b004      	add	sp, #16
    79a2:	bd10      	pop	{r4, pc}
    79a4:	0000970d 	.word	0x0000970d

000079a8 <i2c_m_async_read>:
    79a8:	b51f      	push	{r0, r1, r2, r3, r4, lr}
    79aa:	8a83      	ldrh	r3, [r0, #20]
    79ac:	f8ad 3004 	strh.w	r3, [sp, #4]
    79b0:	f248 0301 	movw	r3, #32769	; 0x8001
    79b4:	f8ad 3006 	strh.w	r3, [sp, #6]
    79b8:	9103      	str	r1, [sp, #12]
    79ba:	4b05      	ldr	r3, [pc, #20]	; (79d0 <i2c_m_async_read+0x28>)
    79bc:	9202      	str	r2, [sp, #8]
    79be:	a901      	add	r1, sp, #4
    79c0:	3828      	subs	r0, #40	; 0x28
    79c2:	4614      	mov	r4, r2
    79c4:	4798      	blx	r3
    79c6:	2800      	cmp	r0, #0
    79c8:	bf08      	it	eq
    79ca:	4620      	moveq	r0, r4
    79cc:	b004      	add	sp, #16
    79ce:	bd10      	pop	{r4, pc}
    79d0:	0000970d 	.word	0x0000970d

000079d4 <i2c_tx_complete>:
    79d4:	8842      	ldrh	r2, [r0, #2]
    79d6:	05d2      	lsls	r2, r2, #23
    79d8:	d402      	bmi.n	79e0 <i2c_tx_complete+0xc>
    79da:	6b43      	ldr	r3, [r0, #52]	; 0x34
    79dc:	b103      	cbz	r3, 79e0 <i2c_tx_complete+0xc>
    79de:	4718      	bx	r3
    79e0:	4770      	bx	lr

000079e2 <i2c_rx_complete>:
    79e2:	8842      	ldrh	r2, [r0, #2]
    79e4:	05d2      	lsls	r2, r2, #23
    79e6:	d402      	bmi.n	79ee <i2c_rx_complete+0xc>
    79e8:	6b83      	ldr	r3, [r0, #56]	; 0x38
    79ea:	b103      	cbz	r3, 79ee <i2c_rx_complete+0xc>
    79ec:	4718      	bx	r3
    79ee:	4770      	bx	lr

000079f0 <i2c_error>:
    79f0:	8842      	ldrh	r2, [r0, #2]
    79f2:	05d2      	lsls	r2, r2, #23
    79f4:	d402      	bmi.n	79fc <i2c_error+0xc>
    79f6:	6b03      	ldr	r3, [r0, #48]	; 0x30
    79f8:	b103      	cbz	r3, 79fc <i2c_error+0xc>
    79fa:	4718      	bx	r3
    79fc:	4770      	bx	lr
	...

00007a00 <i2c_m_async_init>:
    7a00:	b570      	push	{r4, r5, r6, lr}
    7a02:	4b0c      	ldr	r3, [pc, #48]	; (7a34 <i2c_m_async_init+0x34>)
    7a04:	4604      	mov	r4, r0
    7a06:	4798      	blx	r3
    7a08:	4605      	mov	r5, r0
    7a0a:	b980      	cbnz	r0, 7a2e <i2c_m_async_init+0x2e>
    7a0c:	4b0a      	ldr	r3, [pc, #40]	; (7a38 <i2c_m_async_init+0x38>)
    7a0e:	62e3      	str	r3, [r4, #44]	; 0x2c
    7a10:	4b0a      	ldr	r3, [pc, #40]	; (7a3c <i2c_m_async_init+0x3c>)
    7a12:	62a3      	str	r3, [r4, #40]	; 0x28
    7a14:	4a0a      	ldr	r2, [pc, #40]	; (7a40 <i2c_m_async_init+0x40>)
    7a16:	4e0b      	ldr	r6, [pc, #44]	; (7a44 <i2c_m_async_init+0x44>)
    7a18:	2101      	movs	r1, #1
    7a1a:	4620      	mov	r0, r4
    7a1c:	47b0      	blx	r6
    7a1e:	4a0a      	ldr	r2, [pc, #40]	; (7a48 <i2c_m_async_init+0x48>)
    7a20:	2102      	movs	r1, #2
    7a22:	4620      	mov	r0, r4
    7a24:	47b0      	blx	r6
    7a26:	4a09      	ldr	r2, [pc, #36]	; (7a4c <i2c_m_async_init+0x4c>)
    7a28:	4629      	mov	r1, r5
    7a2a:	4620      	mov	r0, r4
    7a2c:	47b0      	blx	r6
    7a2e:	4628      	mov	r0, r5
    7a30:	bd70      	pop	{r4, r5, r6, pc}
    7a32:	bf00      	nop
    7a34:	000096a9 	.word	0x000096a9
    7a38:	000079a9 	.word	0x000079a9
    7a3c:	0000797d 	.word	0x0000797d
    7a40:	000079d5 	.word	0x000079d5
    7a44:	000097cd 	.word	0x000097cd
    7a48:	000079e3 	.word	0x000079e3
    7a4c:	000079f1 	.word	0x000079f1

00007a50 <io_write>:
    7a50:	6803      	ldr	r3, [r0, #0]
    7a52:	4718      	bx	r3

00007a54 <_spi_m_async_io_write>:
    7a54:	b510      	push	{r4, lr}
    7a56:	2310      	movs	r3, #16
    7a58:	2400      	movs	r4, #0
    7a5a:	6184      	str	r4, [r0, #24]
    7a5c:	6141      	str	r1, [r0, #20]
    7a5e:	61c2      	str	r2, [r0, #28]
    7a60:	6204      	str	r4, [r0, #32]
    7a62:	7203      	strb	r3, [r0, #8]
    7a64:	2101      	movs	r1, #1
    7a66:	4b02      	ldr	r3, [pc, #8]	; (7a70 <_spi_m_async_io_write+0x1c>)
    7a68:	3820      	subs	r0, #32
    7a6a:	4798      	blx	r3
    7a6c:	4620      	mov	r0, r4
    7a6e:	bd10      	pop	{r4, pc}
    7a70:	00009b15 	.word	0x00009b15

00007a74 <_spi_m_async_io_read>:
    7a74:	b538      	push	{r3, r4, r5, lr}
    7a76:	2500      	movs	r5, #0
    7a78:	f1a0 0420 	sub.w	r4, r0, #32
    7a7c:	2310      	movs	r3, #16
    7a7e:	61c2      	str	r2, [r0, #28]
    7a80:	6181      	str	r1, [r0, #24]
    7a82:	6145      	str	r5, [r0, #20]
    7a84:	6205      	str	r5, [r0, #32]
    7a86:	7203      	strb	r3, [r0, #8]
    7a88:	2101      	movs	r1, #1
    7a8a:	4620      	mov	r0, r4
    7a8c:	4b04      	ldr	r3, [pc, #16]	; (7aa0 <_spi_m_async_io_read+0x2c>)
    7a8e:	4798      	blx	r3
    7a90:	f240 11ff 	movw	r1, #511	; 0x1ff
    7a94:	4620      	mov	r0, r4
    7a96:	4b03      	ldr	r3, [pc, #12]	; (7aa4 <_spi_m_async_io_read+0x30>)
    7a98:	4798      	blx	r3
    7a9a:	4628      	mov	r0, r5
    7a9c:	bd38      	pop	{r3, r4, r5, pc}
    7a9e:	bf00      	nop
    7aa0:	00009b25 	.word	0x00009b25
    7aa4:	00009b45 	.word	0x00009b45

00007aa8 <_spi_dev_error>:
    7aa8:	b570      	push	{r4, r5, r6, lr}
    7aaa:	4b0c      	ldr	r3, [pc, #48]	; (7adc <_spi_dev_error+0x34>)
    7aac:	4604      	mov	r4, r0
    7aae:	460e      	mov	r6, r1
    7ab0:	2100      	movs	r1, #0
    7ab2:	1f05      	subs	r5, r0, #4
    7ab4:	4798      	blx	r3
    7ab6:	2100      	movs	r1, #0
    7ab8:	4b09      	ldr	r3, [pc, #36]	; (7ae0 <_spi_dev_error+0x38>)
    7aba:	4620      	mov	r0, r4
    7abc:	4798      	blx	r3
    7abe:	4b09      	ldr	r3, [pc, #36]	; (7ae4 <_spi_dev_error+0x3c>)
    7ac0:	2100      	movs	r1, #0
    7ac2:	4620      	mov	r0, r4
    7ac4:	4798      	blx	r3
    7ac6:	2300      	movs	r3, #0
    7ac8:	f884 3028 	strb.w	r3, [r4, #40]	; 0x28
    7acc:	6b23      	ldr	r3, [r4, #48]	; 0x30
    7ace:	b123      	cbz	r3, 7ada <_spi_dev_error+0x32>
    7ad0:	4631      	mov	r1, r6
    7ad2:	4628      	mov	r0, r5
    7ad4:	e8bd 4070 	ldmia.w	sp!, {r4, r5, r6, lr}
    7ad8:	4718      	bx	r3
    7ada:	bd70      	pop	{r4, r5, r6, pc}
    7adc:	00009b15 	.word	0x00009b15
    7ae0:	00009b25 	.word	0x00009b25
    7ae4:	00009b35 	.word	0x00009b35

00007ae8 <_spi_dev_complete>:
    7ae8:	6c02      	ldr	r2, [r0, #64]	; 0x40
    7aea:	6bc3      	ldr	r3, [r0, #60]	; 0x3c
    7aec:	429a      	cmp	r2, r3
    7aee:	b510      	push	{r4, lr}
    7af0:	4604      	mov	r4, r0
    7af2:	d30b      	bcc.n	7b0c <_spi_dev_complete+0x24>
    7af4:	4b06      	ldr	r3, [pc, #24]	; (7b10 <_spi_dev_complete+0x28>)
    7af6:	2100      	movs	r1, #0
    7af8:	4798      	blx	r3
    7afa:	2300      	movs	r3, #0
    7afc:	f884 3028 	strb.w	r3, [r4, #40]	; 0x28
    7b00:	6ae3      	ldr	r3, [r4, #44]	; 0x2c
    7b02:	b11b      	cbz	r3, 7b0c <_spi_dev_complete+0x24>
    7b04:	1f20      	subs	r0, r4, #4
    7b06:	e8bd 4010 	ldmia.w	sp!, {r4, lr}
    7b0a:	4718      	bx	r3
    7b0c:	bd10      	pop	{r4, pc}
    7b0e:	bf00      	nop
    7b10:	00009b35 	.word	0x00009b35

00007b14 <_spi_dev_rx>:
    7b14:	b570      	push	{r4, r5, r6, lr}
    7b16:	6b86      	ldr	r6, [r0, #56]	; 0x38
    7b18:	4b1a      	ldr	r3, [pc, #104]	; (7b84 <_spi_dev_rx+0x70>)
    7b1a:	4604      	mov	r4, r0
    7b1c:	b1ee      	cbz	r6, 7b5a <_spi_dev_rx+0x46>
    7b1e:	7902      	ldrb	r2, [r0, #4]
    7b20:	6c05      	ldr	r5, [r0, #64]	; 0x40
    7b22:	2a01      	cmp	r2, #1
    7b24:	f105 0201 	add.w	r2, r5, #1
    7b28:	6402      	str	r2, [r0, #64]	; 0x40
    7b2a:	d812      	bhi.n	7b52 <_spi_dev_rx+0x3e>
    7b2c:	4798      	blx	r3
    7b2e:	5570      	strb	r0, [r6, r5]
    7b30:	6c21      	ldr	r1, [r4, #64]	; 0x40
    7b32:	6be3      	ldr	r3, [r4, #60]	; 0x3c
    7b34:	4299      	cmp	r1, r3
    7b36:	d217      	bcs.n	7b68 <_spi_dev_rx+0x54>
    7b38:	6b62      	ldr	r2, [r4, #52]	; 0x34
    7b3a:	4b13      	ldr	r3, [pc, #76]	; (7b88 <_spi_dev_rx+0x74>)
    7b3c:	b192      	cbz	r2, 7b64 <_spi_dev_rx+0x50>
    7b3e:	7920      	ldrb	r0, [r4, #4]
    7b40:	2801      	cmp	r0, #1
    7b42:	bf94      	ite	ls
    7b44:	5c51      	ldrbls	r1, [r2, r1]
    7b46:	f832 1011 	ldrhhi.w	r1, [r2, r1, lsl #1]
    7b4a:	4620      	mov	r0, r4
    7b4c:	e8bd 4070 	ldmia.w	sp!, {r4, r5, r6, lr}
    7b50:	4718      	bx	r3
    7b52:	4798      	blx	r3
    7b54:	f826 0015 	strh.w	r0, [r6, r5, lsl #1]
    7b58:	e7ea      	b.n	7b30 <_spi_dev_rx+0x1c>
    7b5a:	4798      	blx	r3
    7b5c:	6c23      	ldr	r3, [r4, #64]	; 0x40
    7b5e:	3301      	adds	r3, #1
    7b60:	6423      	str	r3, [r4, #64]	; 0x40
    7b62:	e7e5      	b.n	7b30 <_spi_dev_rx+0x1c>
    7b64:	88e1      	ldrh	r1, [r4, #6]
    7b66:	e7f0      	b.n	7b4a <_spi_dev_rx+0x36>
    7b68:	4b08      	ldr	r3, [pc, #32]	; (7b8c <_spi_dev_rx+0x78>)
    7b6a:	2100      	movs	r1, #0
    7b6c:	4620      	mov	r0, r4
    7b6e:	4798      	blx	r3
    7b70:	2300      	movs	r3, #0
    7b72:	f884 3028 	strb.w	r3, [r4, #40]	; 0x28
    7b76:	6ae3      	ldr	r3, [r4, #44]	; 0x2c
    7b78:	b11b      	cbz	r3, 7b82 <_spi_dev_rx+0x6e>
    7b7a:	1f20      	subs	r0, r4, #4
    7b7c:	e8bd 4070 	ldmia.w	sp!, {r4, r5, r6, lr}
    7b80:	4718      	bx	r3
    7b82:	bd70      	pop	{r4, r5, r6, pc}
    7b84:	00009b4d 	.word	0x00009b4d
    7b88:	00009b45 	.word	0x00009b45
    7b8c:	00009b25 	.word	0x00009b25

00007b90 <_spi_dev_tx>:
    7b90:	b570      	push	{r4, r5, r6, lr}
    7b92:	7903      	ldrb	r3, [r0, #4]
    7b94:	6b41      	ldr	r1, [r0, #52]	; 0x34
    7b96:	4a0d      	ldr	r2, [pc, #52]	; (7bcc <_spi_dev_tx+0x3c>)
    7b98:	2b01      	cmp	r3, #1
    7b9a:	6c03      	ldr	r3, [r0, #64]	; 0x40
    7b9c:	f103 0501 	add.w	r5, r3, #1
    7ba0:	4604      	mov	r4, r0
    7ba2:	6405      	str	r5, [r0, #64]	; 0x40
    7ba4:	bf94      	ite	ls
    7ba6:	5cc9      	ldrbls	r1, [r1, r3]
    7ba8:	f831 1013 	ldrhhi.w	r1, [r1, r3, lsl #1]
    7bac:	4790      	blx	r2
    7bae:	6c22      	ldr	r2, [r4, #64]	; 0x40
    7bb0:	6be3      	ldr	r3, [r4, #60]	; 0x3c
    7bb2:	429a      	cmp	r2, r3
    7bb4:	d109      	bne.n	7bca <_spi_dev_tx+0x3a>
    7bb6:	2100      	movs	r1, #0
    7bb8:	4620      	mov	r0, r4
    7bba:	4b05      	ldr	r3, [pc, #20]	; (7bd0 <_spi_dev_tx+0x40>)
    7bbc:	4798      	blx	r3
    7bbe:	4620      	mov	r0, r4
    7bc0:	2101      	movs	r1, #1
    7bc2:	4b04      	ldr	r3, [pc, #16]	; (7bd4 <_spi_dev_tx+0x44>)
    7bc4:	e8bd 4070 	ldmia.w	sp!, {r4, r5, r6, lr}
    7bc8:	4718      	bx	r3
    7bca:	bd70      	pop	{r4, r5, r6, pc}
    7bcc:	00009b45 	.word	0x00009b45
    7bd0:	00009b15 	.word	0x00009b15
    7bd4:	00009b35 	.word	0x00009b35

00007bd8 <spi_m_async_init>:
    7bd8:	b570      	push	{r4, r5, r6, lr}
    7bda:	4604      	mov	r4, r0
    7bdc:	4606      	mov	r6, r0
    7bde:	f844 1f04 	str.w	r1, [r4, #4]!
    7be2:	4b0e      	ldr	r3, [pc, #56]	; (7c1c <spi_m_async_init+0x44>)
    7be4:	4620      	mov	r0, r4
    7be6:	4798      	blx	r3
    7be8:	2800      	cmp	r0, #0
    7bea:	db15      	blt.n	7c18 <spi_m_async_init+0x40>
    7bec:	4d0c      	ldr	r5, [pc, #48]	; (7c20 <spi_m_async_init+0x48>)
    7bee:	4a0d      	ldr	r2, [pc, #52]	; (7c24 <spi_m_async_init+0x4c>)
    7bf0:	2100      	movs	r1, #0
    7bf2:	4620      	mov	r0, r4
    7bf4:	47a8      	blx	r5
    7bf6:	4a0c      	ldr	r2, [pc, #48]	; (7c28 <spi_m_async_init+0x50>)
    7bf8:	2101      	movs	r1, #1
    7bfa:	4620      	mov	r0, r4
    7bfc:	47a8      	blx	r5
    7bfe:	4a0b      	ldr	r2, [pc, #44]	; (7c2c <spi_m_async_init+0x54>)
    7c00:	2102      	movs	r1, #2
    7c02:	4620      	mov	r0, r4
    7c04:	47a8      	blx	r5
    7c06:	4a0a      	ldr	r2, [pc, #40]	; (7c30 <spi_m_async_init+0x58>)
    7c08:	2103      	movs	r1, #3
    7c0a:	4620      	mov	r0, r4
    7c0c:	47a8      	blx	r5
    7c0e:	4b09      	ldr	r3, [pc, #36]	; (7c34 <spi_m_async_init+0x5c>)
    7c10:	62b3      	str	r3, [r6, #40]	; 0x28
    7c12:	4b09      	ldr	r3, [pc, #36]	; (7c38 <spi_m_async_init+0x60>)
    7c14:	6273      	str	r3, [r6, #36]	; 0x24
    7c16:	2000      	movs	r0, #0
    7c18:	bd70      	pop	{r4, r5, r6, pc}
    7c1a:	bf00      	nop
    7c1c:	00009a59 	.word	0x00009a59
    7c20:	00009b55 	.word	0x00009b55
    7c24:	00007b91 	.word	0x00007b91
    7c28:	00007b15 	.word	0x00007b15
    7c2c:	00007ae9 	.word	0x00007ae9
    7c30:	00007aa9 	.word	0x00007aa9
    7c34:	00007a75 	.word	0x00007a75
    7c38:	00007a55 	.word	0x00007a55

00007c3c <spi_m_async_enable>:
    7c3c:	3004      	adds	r0, #4
    7c3e:	4b01      	ldr	r3, [pc, #4]	; (7c44 <spi_m_async_enable+0x8>)
    7c40:	4718      	bx	r3
    7c42:	bf00      	nop
    7c44:	00009ae5 	.word	0x00009ae5

00007c48 <spi_m_async_set_baudrate>:
    7c48:	f890 302c 	ldrb.w	r3, [r0, #44]	; 0x2c
    7c4c:	06db      	lsls	r3, r3, #27
    7c4e:	d402      	bmi.n	7c56 <spi_m_async_set_baudrate+0xe>
    7c50:	3004      	adds	r0, #4
    7c52:	4b02      	ldr	r3, [pc, #8]	; (7c5c <spi_m_async_set_baudrate+0x14>)
    7c54:	4718      	bx	r3
    7c56:	f06f 0003 	mvn.w	r0, #3
    7c5a:	4770      	bx	lr
    7c5c:	00009b01 	.word	0x00009b01

00007c60 <spi_m_async_set_mode>:
    7c60:	f890 302c 	ldrb.w	r3, [r0, #44]	; 0x2c
    7c64:	06db      	lsls	r3, r3, #27
    7c66:	d402      	bmi.n	7c6e <spi_m_async_set_mode+0xe>
    7c68:	3004      	adds	r0, #4
    7c6a:	4b02      	ldr	r3, [pc, #8]	; (7c74 <spi_m_async_set_mode+0x14>)
    7c6c:	4718      	bx	r3
    7c6e:	f06f 0003 	mvn.w	r0, #3
    7c72:	4770      	bx	lr
    7c74:	00009af9 	.word	0x00009af9

00007c78 <spi_m_async_transfer>:
    7c78:	b570      	push	{r4, r5, r6, lr}
    7c7a:	4604      	mov	r4, r0
    7c7c:	63c2      	str	r2, [r0, #60]	; 0x3c
    7c7e:	63a1      	str	r1, [r4, #56]	; 0x38
    7c80:	6403      	str	r3, [r0, #64]	; 0x40
    7c82:	2300      	movs	r3, #0
    7c84:	6443      	str	r3, [r0, #68]	; 0x44
    7c86:	1d05      	adds	r5, r0, #4
    7c88:	2310      	movs	r3, #16
    7c8a:	f880 302c 	strb.w	r3, [r0, #44]	; 0x2c
    7c8e:	460e      	mov	r6, r1
    7c90:	4b09      	ldr	r3, [pc, #36]	; (7cb8 <spi_m_async_transfer+0x40>)
    7c92:	2101      	movs	r1, #1
    7c94:	4628      	mov	r0, r5
    7c96:	4798      	blx	r3
    7c98:	4b08      	ldr	r3, [pc, #32]	; (7cbc <spi_m_async_transfer+0x44>)
    7c9a:	b156      	cbz	r6, 7cb2 <spi_m_async_transfer+0x3a>
    7c9c:	7a22      	ldrb	r2, [r4, #8]
    7c9e:	2a01      	cmp	r2, #1
    7ca0:	6c62      	ldr	r2, [r4, #68]	; 0x44
    7ca2:	bf94      	ite	ls
    7ca4:	5cb1      	ldrbls	r1, [r6, r2]
    7ca6:	f836 1012 	ldrhhi.w	r1, [r6, r2, lsl #1]
    7caa:	4628      	mov	r0, r5
    7cac:	4798      	blx	r3
    7cae:	2000      	movs	r0, #0
    7cb0:	bd70      	pop	{r4, r5, r6, pc}
    7cb2:	8961      	ldrh	r1, [r4, #10]
    7cb4:	e7f9      	b.n	7caa <spi_m_async_transfer+0x32>
    7cb6:	bf00      	nop
    7cb8:	00009b25 	.word	0x00009b25
    7cbc:	00009b45 	.word	0x00009b45

00007cc0 <spi_m_async_register_callback>:
    7cc0:	b909      	cbnz	r1, 7cc6 <spi_m_async_register_callback+0x6>
    7cc2:	6302      	str	r2, [r0, #48]	; 0x30
    7cc4:	4770      	bx	lr
    7cc6:	6342      	str	r2, [r0, #52]	; 0x34
    7cc8:	3200      	adds	r2, #0
    7cca:	bf18      	it	ne
    7ccc:	2201      	movne	r2, #1
    7cce:	2103      	movs	r1, #3
    7cd0:	3004      	adds	r0, #4
    7cd2:	4b01      	ldr	r3, [pc, #4]	; (7cd8 <spi_m_async_register_callback+0x18>)
    7cd4:	4718      	bx	r3
    7cd6:	bf00      	nop
    7cd8:	00009b5f 	.word	0x00009b5f

00007cdc <spi_m_async_get_io_descriptor>:
    7cdc:	3024      	adds	r0, #36	; 0x24
    7cde:	6008      	str	r0, [r1, #0]
    7ce0:	2000      	movs	r0, #0
    7ce2:	4770      	bx	lr

00007ce4 <_spi_m_dma_io_write>:
    7ce4:	b410      	push	{r4}
    7ce6:	4c04      	ldr	r4, [pc, #16]	; (7cf8 <_spi_m_dma_io_write+0x14>)
    7ce8:	4613      	mov	r3, r2
    7cea:	46a4      	mov	ip, r4
    7cec:	2200      	movs	r2, #0
    7cee:	381c      	subs	r0, #28
    7cf0:	f85d 4b04 	ldr.w	r4, [sp], #4
    7cf4:	4760      	bx	ip
    7cf6:	bf00      	nop
    7cf8:	00009ca5 	.word	0x00009ca5

00007cfc <_spi_m_dma_io_read>:
    7cfc:	b410      	push	{r4}
    7cfe:	4c04      	ldr	r4, [pc, #16]	; (7d10 <_spi_m_dma_io_read+0x14>)
    7d00:	4613      	mov	r3, r2
    7d02:	46a4      	mov	ip, r4
    7d04:	460a      	mov	r2, r1
    7d06:	381c      	subs	r0, #28
    7d08:	2100      	movs	r1, #0
    7d0a:	f85d 4b04 	ldr.w	r4, [sp], #4
    7d0e:	4760      	bx	ip
    7d10:	00009ca5 	.word	0x00009ca5

00007d14 <spi_m_dma_init>:
    7d14:	b510      	push	{r4, lr}
    7d16:	4b05      	ldr	r3, [pc, #20]	; (7d2c <spi_m_dma_init+0x18>)
    7d18:	4604      	mov	r4, r0
    7d1a:	f840 1f04 	str.w	r1, [r0, #4]!
    7d1e:	4798      	blx	r3
    7d20:	b918      	cbnz	r0, 7d2a <spi_m_dma_init+0x16>
    7d22:	4b03      	ldr	r3, [pc, #12]	; (7d30 <spi_m_dma_init+0x1c>)
    7d24:	6263      	str	r3, [r4, #36]	; 0x24
    7d26:	4b03      	ldr	r3, [pc, #12]	; (7d34 <spi_m_dma_init+0x20>)
    7d28:	6223      	str	r3, [r4, #32]
    7d2a:	bd10      	pop	{r4, pc}
    7d2c:	00009b71 	.word	0x00009b71
    7d30:	00007cfd 	.word	0x00007cfd
    7d34:	00007ce5 	.word	0x00007ce5

00007d38 <spi_m_dma_enable>:
    7d38:	3004      	adds	r0, #4
    7d3a:	4b01      	ldr	r3, [pc, #4]	; (7d40 <spi_m_dma_enable+0x8>)
    7d3c:	4718      	bx	r3
    7d3e:	bf00      	nop
    7d40:	00009c35 	.word	0x00009c35

00007d44 <spi_m_dma_register_callback>:
    7d44:	3004      	adds	r0, #4
    7d46:	4b01      	ldr	r3, [pc, #4]	; (7d4c <spi_m_dma_register_callback+0x8>)
    7d48:	4718      	bx	r3
    7d4a:	bf00      	nop
    7d4c:	00009c41 	.word	0x00009c41

00007d50 <spi_m_dma_get_io_descriptor>:
    7d50:	3020      	adds	r0, #32
    7d52:	6008      	str	r0, [r1, #0]
    7d54:	2000      	movs	r0, #0
    7d56:	4770      	bx	lr

00007d58 <timer_add_timer_task>:
    7d58:	b5f0      	push	{r4, r5, r6, r7, lr}
    7d5a:	6805      	ldr	r5, [r0, #0]
    7d5c:	b91d      	cbnz	r5, 7d66 <timer_add_timer_task+0xe>
    7d5e:	4b0f      	ldr	r3, [pc, #60]	; (7d9c <timer_add_timer_task+0x44>)
    7d60:	e8bd 40f0 	ldmia.w	sp!, {r4, r5, r6, r7, lr}
    7d64:	4718      	bx	r3
    7d66:	f8d1 e008 	ldr.w	lr, [r1, #8]
    7d6a:	462c      	mov	r4, r5
    7d6c:	2600      	movs	r6, #0
    7d6e:	f1c2 0c01 	rsb	ip, r2, #1
    7d72:	6863      	ldr	r3, [r4, #4]
    7d74:	68a7      	ldr	r7, [r4, #8]
    7d76:	4293      	cmp	r3, r2
    7d78:	bf95      	itete	ls
    7d7a:	19db      	addls	r3, r3, r7
    7d7c:	4463      	addhi	r3, ip
    7d7e:	1a9b      	subls	r3, r3, r2
    7d80:	19db      	addhi	r3, r3, r7
    7d82:	4573      	cmp	r3, lr
    7d84:	d207      	bcs.n	7d96 <timer_add_timer_task+0x3e>
    7d86:	6823      	ldr	r3, [r4, #0]
    7d88:	4626      	mov	r6, r4
    7d8a:	b913      	cbnz	r3, 7d92 <timer_add_timer_task+0x3a>
    7d8c:	4630      	mov	r0, r6
    7d8e:	4b04      	ldr	r3, [pc, #16]	; (7da0 <timer_add_timer_task+0x48>)
    7d90:	e7e6      	b.n	7d60 <timer_add_timer_task+0x8>
    7d92:	461c      	mov	r4, r3
    7d94:	e7ed      	b.n	7d72 <timer_add_timer_task+0x1a>
    7d96:	42a5      	cmp	r5, r4
    7d98:	d1f8      	bne.n	7d8c <timer_add_timer_task+0x34>
    7d9a:	e7e0      	b.n	7d5e <timer_add_timer_task+0x6>
    7d9c:	00008583 	.word	0x00008583
    7da0:	0000858b 	.word	0x0000858b

00007da4 <timer_process_counted>:
    7da4:	e92d 47f0 	stmdb	sp!, {r4, r5, r6, r7, r8, r9, sl, lr}
    7da8:	6906      	ldr	r6, [r0, #16]
    7daa:	7e03      	ldrb	r3, [r0, #24]
    7dac:	6944      	ldr	r4, [r0, #20]
    7dae:	3601      	adds	r6, #1
    7db0:	07da      	lsls	r2, r3, #31
    7db2:	4605      	mov	r5, r0
    7db4:	6106      	str	r6, [r0, #16]
    7db6:	d410      	bmi.n	7dda <timer_process_counted+0x36>
    7db8:	7e03      	ldrb	r3, [r0, #24]
    7dba:	079b      	lsls	r3, r3, #30
    7dbc:	d40d      	bmi.n	7dda <timer_process_counted+0x36>
    7dbe:	f8df 8048 	ldr.w	r8, [pc, #72]	; 7e08 <timer_process_counted+0x64>
    7dc2:	f8df 9048 	ldr.w	r9, [pc, #72]	; 7e0c <timer_process_counted+0x68>
    7dc6:	f100 0714 	add.w	r7, r0, #20
    7dca:	b124      	cbz	r4, 7dd6 <timer_process_counted+0x32>
    7dcc:	6863      	ldr	r3, [r4, #4]
    7dce:	68a2      	ldr	r2, [r4, #8]
    7dd0:	1af3      	subs	r3, r6, r3
    7dd2:	4293      	cmp	r3, r2
    7dd4:	d207      	bcs.n	7de6 <timer_process_counted+0x42>
    7dd6:	e8bd 87f0 	ldmia.w	sp!, {r4, r5, r6, r7, r8, r9, sl, pc}
    7dda:	7e2b      	ldrb	r3, [r5, #24]
    7ddc:	f043 0302 	orr.w	r3, r3, #2
    7de0:	762b      	strb	r3, [r5, #24]
    7de2:	e8bd 87f0 	ldmia.w	sp!, {r4, r5, r6, r7, r8, r9, sl, pc}
    7de6:	4638      	mov	r0, r7
    7de8:	47c0      	blx	r8
    7dea:	7c23      	ldrb	r3, [r4, #16]
    7dec:	2b01      	cmp	r3, #1
    7dee:	d104      	bne.n	7dfa <timer_process_counted+0x56>
    7df0:	6066      	str	r6, [r4, #4]
    7df2:	4632      	mov	r2, r6
    7df4:	4621      	mov	r1, r4
    7df6:	4638      	mov	r0, r7
    7df8:	47c8      	blx	r9
    7dfa:	f8d5 a014 	ldr.w	sl, [r5, #20]
    7dfe:	68e3      	ldr	r3, [r4, #12]
    7e00:	4620      	mov	r0, r4
    7e02:	4798      	blx	r3
    7e04:	4654      	mov	r4, sl
    7e06:	e7e0      	b.n	7dca <timer_process_counted+0x26>
    7e08:	000085ab 	.word	0x000085ab
    7e0c:	00007d59 	.word	0x00007d59

00007e10 <timer_init>:
    7e10:	b510      	push	{r4, lr}
    7e12:	6813      	ldr	r3, [r2, #0]
    7e14:	4604      	mov	r4, r0
    7e16:	f840 2b04 	str.w	r2, [r0], #4
    7e1a:	4798      	blx	r3
    7e1c:	2000      	movs	r0, #0
    7e1e:	4b02      	ldr	r3, [pc, #8]	; (7e28 <timer_init+0x18>)
    7e20:	6160      	str	r0, [r4, #20]
    7e22:	6063      	str	r3, [r4, #4]
    7e24:	bd10      	pop	{r4, pc}
    7e26:	bf00      	nop
    7e28:	00007da5 	.word	0x00007da5

00007e2c <timer_start>:
    7e2c:	6803      	ldr	r3, [r0, #0]
    7e2e:	b570      	push	{r4, r5, r6, lr}
    7e30:	1d06      	adds	r6, r0, #4
    7e32:	4605      	mov	r5, r0
    7e34:	699b      	ldr	r3, [r3, #24]
    7e36:	4630      	mov	r0, r6
    7e38:	4798      	blx	r3
    7e3a:	4604      	mov	r4, r0
    7e3c:	b928      	cbnz	r0, 7e4a <timer_start+0x1e>
    7e3e:	682b      	ldr	r3, [r5, #0]
    7e40:	4630      	mov	r0, r6
    7e42:	689b      	ldr	r3, [r3, #8]
    7e44:	4798      	blx	r3
    7e46:	4620      	mov	r0, r4
    7e48:	bd70      	pop	{r4, r5, r6, pc}
    7e4a:	f06f 0010 	mvn.w	r0, #16
    7e4e:	bd70      	pop	{r4, r5, r6, pc}

00007e50 <timer_add_task>:
    7e50:	b5f7      	push	{r0, r1, r2, r4, r5, r6, r7, lr}
    7e52:	7f03      	ldrb	r3, [r0, #28]
    7e54:	f100 0618 	add.w	r6, r0, #24
    7e58:	f043 0301 	orr.w	r3, r3, #1
    7e5c:	7703      	strb	r3, [r0, #28]
    7e5e:	4604      	mov	r4, r0
    7e60:	4b15      	ldr	r3, [pc, #84]	; (7eb8 <timer_add_task+0x68>)
    7e62:	4630      	mov	r0, r6
    7e64:	460f      	mov	r7, r1
    7e66:	4798      	blx	r3
    7e68:	4605      	mov	r5, r0
    7e6a:	b138      	cbz	r0, 7e7c <timer_add_task+0x2c>
    7e6c:	7f23      	ldrb	r3, [r4, #28]
    7e6e:	f003 03fe 	and.w	r3, r3, #254	; 0xfe
    7e72:	7723      	strb	r3, [r4, #28]
    7e74:	f06f 0011 	mvn.w	r0, #17
    7e78:	b003      	add	sp, #12
    7e7a:	bdf0      	pop	{r4, r5, r6, r7, pc}
    7e7c:	6962      	ldr	r2, [r4, #20]
    7e7e:	4b0f      	ldr	r3, [pc, #60]	; (7ebc <timer_add_task+0x6c>)
    7e80:	607a      	str	r2, [r7, #4]
    7e82:	4630      	mov	r0, r6
    7e84:	4639      	mov	r1, r7
    7e86:	4798      	blx	r3
    7e88:	7f23      	ldrb	r3, [r4, #28]
    7e8a:	f003 03fe 	and.w	r3, r3, #254	; 0xfe
    7e8e:	7723      	strb	r3, [r4, #28]
    7e90:	7f20      	ldrb	r0, [r4, #28]
    7e92:	f010 0002 	ands.w	r0, r0, #2
    7e96:	d0ef      	beq.n	7e78 <timer_add_task+0x28>
    7e98:	a801      	add	r0, sp, #4
    7e9a:	4b09      	ldr	r3, [pc, #36]	; (7ec0 <timer_add_task+0x70>)
    7e9c:	4798      	blx	r3
    7e9e:	7f23      	ldrb	r3, [r4, #28]
    7ea0:	f003 03fd 	and.w	r3, r3, #253	; 0xfd
    7ea4:	7723      	strb	r3, [r4, #28]
    7ea6:	6823      	ldr	r3, [r4, #0]
    7ea8:	1d20      	adds	r0, r4, #4
    7eaa:	69db      	ldr	r3, [r3, #28]
    7eac:	4798      	blx	r3
    7eae:	a801      	add	r0, sp, #4
    7eb0:	4b04      	ldr	r3, [pc, #16]	; (7ec4 <timer_add_task+0x74>)
    7eb2:	4798      	blx	r3
    7eb4:	4628      	mov	r0, r5
    7eb6:	e7df      	b.n	7e78 <timer_add_task+0x28>
    7eb8:	00008575 	.word	0x00008575
    7ebc:	00007d59 	.word	0x00007d59
    7ec0:	000078ed 	.word	0x000078ed
    7ec4:	000078fb 	.word	0x000078fb

00007ec8 <usart_transmission_complete>:
    7ec8:	4603      	mov	r3, r0
    7eca:	2200      	movs	r2, #0
    7ecc:	629a      	str	r2, [r3, #40]	; 0x28
    7ece:	69db      	ldr	r3, [r3, #28]
    7ed0:	3808      	subs	r0, #8
    7ed2:	b103      	cbz	r3, 7ed6 <usart_transmission_complete+0xe>
    7ed4:	4718      	bx	r3
    7ed6:	4770      	bx	lr

00007ed8 <usart_error>:
    7ed8:	4603      	mov	r3, r0
    7eda:	2200      	movs	r2, #0
    7edc:	629a      	str	r2, [r3, #40]	; 0x28
    7ede:	6a5b      	ldr	r3, [r3, #36]	; 0x24
    7ee0:	3808      	subs	r0, #8
    7ee2:	b103      	cbz	r3, 7ee6 <usart_error+0xe>
    7ee4:	4718      	bx	r3
    7ee6:	4770      	bx	lr

00007ee8 <usart_fill_rx_buffer>:
    7ee8:	b570      	push	{r4, r5, r6, lr}
    7eea:	4604      	mov	r4, r0
    7eec:	4b05      	ldr	r3, [pc, #20]	; (7f04 <usart_fill_rx_buffer+0x1c>)
    7eee:	f1a0 0508 	sub.w	r5, r0, #8
    7ef2:	302c      	adds	r0, #44	; 0x2c
    7ef4:	4798      	blx	r3
    7ef6:	6a23      	ldr	r3, [r4, #32]
    7ef8:	b11b      	cbz	r3, 7f02 <usart_fill_rx_buffer+0x1a>
    7efa:	4628      	mov	r0, r5
    7efc:	e8bd 4070 	ldmia.w	sp!, {r4, r5, r6, lr}
    7f00:	4718      	bx	r3
    7f02:	bd70      	pop	{r4, r5, r6, pc}
    7f04:	000085f1 	.word	0x000085f1

00007f08 <usart_async_write>:
    7f08:	b510      	push	{r4, lr}
    7f0a:	f8b0 304c 	ldrh.w	r3, [r0, #76]	; 0x4c
    7f0e:	4614      	mov	r4, r2
    7f10:	f8b0 2044 	ldrh.w	r2, [r0, #68]	; 0x44
    7f14:	429a      	cmp	r2, r3
    7f16:	d10c      	bne.n	7f32 <usart_async_write+0x2a>
    7f18:	2300      	movs	r3, #0
    7f1a:	f8a0 3044 	strh.w	r3, [r0, #68]	; 0x44
    7f1e:	2301      	movs	r3, #1
    7f20:	6481      	str	r1, [r0, #72]	; 0x48
    7f22:	f8a0 404c 	strh.w	r4, [r0, #76]	; 0x4c
    7f26:	6303      	str	r3, [r0, #48]	; 0x30
    7f28:	3008      	adds	r0, #8
    7f2a:	4b03      	ldr	r3, [pc, #12]	; (7f38 <usart_async_write+0x30>)
    7f2c:	4798      	blx	r3
    7f2e:	4620      	mov	r0, r4
    7f30:	bd10      	pop	{r4, pc}
    7f32:	f06f 001b 	mvn.w	r0, #27
    7f36:	bd10      	pop	{r4, pc}
    7f38:	00009667 	.word	0x00009667

00007f3c <usart_process_byte_sent>:
    7f3c:	8f83      	ldrh	r3, [r0, #60]	; 0x3c
    7f3e:	f8b0 2044 	ldrh.w	r2, [r0, #68]	; 0x44
    7f42:	429a      	cmp	r2, r3
    7f44:	b510      	push	{r4, lr}
    7f46:	4604      	mov	r4, r0
    7f48:	d00a      	beq.n	7f60 <usart_process_byte_sent+0x24>
    7f4a:	6c02      	ldr	r2, [r0, #64]	; 0x40
    7f4c:	1c59      	adds	r1, r3, #1
    7f4e:	8781      	strh	r1, [r0, #60]	; 0x3c
    7f50:	5cd1      	ldrb	r1, [r2, r3]
    7f52:	4b04      	ldr	r3, [pc, #16]	; (7f64 <usart_process_byte_sent+0x28>)
    7f54:	4798      	blx	r3
    7f56:	4b04      	ldr	r3, [pc, #16]	; (7f68 <usart_process_byte_sent+0x2c>)
    7f58:	4620      	mov	r0, r4
    7f5a:	e8bd 4010 	ldmia.w	sp!, {r4, lr}
    7f5e:	4718      	bx	r3
    7f60:	4b02      	ldr	r3, [pc, #8]	; (7f6c <usart_process_byte_sent+0x30>)
    7f62:	e7fa      	b.n	7f5a <usart_process_byte_sent+0x1e>
    7f64:	00009661 	.word	0x00009661
    7f68:	00009667 	.word	0x00009667
    7f6c:	0000966f 	.word	0x0000966f

00007f70 <usart_async_read>:
    7f70:	e92d 43f7 	stmdb	sp!, {r0, r1, r2, r4, r5, r6, r7, r8, r9, lr}
    7f74:	4605      	mov	r5, r0
    7f76:	4b0f      	ldr	r3, [pc, #60]	; (7fb4 <usart_async_read+0x44>)
    7f78:	f8df 9044 	ldr.w	r9, [pc, #68]	; 7fc0 <usart_async_read+0x50>
    7f7c:	a801      	add	r0, sp, #4
    7f7e:	3534      	adds	r5, #52	; 0x34
    7f80:	4688      	mov	r8, r1
    7f82:	4616      	mov	r6, r2
    7f84:	4798      	blx	r3
    7f86:	4b0c      	ldr	r3, [pc, #48]	; (7fb8 <usart_async_read+0x48>)
    7f88:	4628      	mov	r0, r5
    7f8a:	4798      	blx	r3
    7f8c:	4b0b      	ldr	r3, [pc, #44]	; (7fbc <usart_async_read+0x4c>)
    7f8e:	4607      	mov	r7, r0
    7f90:	a801      	add	r0, sp, #4
    7f92:	4798      	blx	r3
    7f94:	2400      	movs	r4, #0
    7f96:	42a7      	cmp	r7, r4
    7f98:	d001      	beq.n	7f9e <usart_async_read+0x2e>
    7f9a:	42b4      	cmp	r4, r6
    7f9c:	d103      	bne.n	7fa6 <usart_async_read+0x36>
    7f9e:	b2a0      	uxth	r0, r4
    7fa0:	b003      	add	sp, #12
    7fa2:	e8bd 83f0 	ldmia.w	sp!, {r4, r5, r6, r7, r8, r9, pc}
    7fa6:	eb08 0104 	add.w	r1, r8, r4
    7faa:	4628      	mov	r0, r5
    7fac:	47c8      	blx	r9
    7fae:	3401      	adds	r4, #1
    7fb0:	e7f1      	b.n	7f96 <usart_async_read+0x26>
    7fb2:	bf00      	nop
    7fb4:	000078ed 	.word	0x000078ed
    7fb8:	00008617 	.word	0x00008617
    7fbc:	000078fb 	.word	0x000078fb
    7fc0:	000085cf 	.word	0x000085cf

00007fc4 <usart_async_init>:
    7fc4:	b538      	push	{r3, r4, r5, lr}
    7fc6:	4604      	mov	r4, r0
    7fc8:	460d      	mov	r5, r1
    7fca:	3034      	adds	r0, #52	; 0x34
    7fcc:	4611      	mov	r1, r2
    7fce:	461a      	mov	r2, r3
    7fd0:	4b0c      	ldr	r3, [pc, #48]	; (8004 <usart_async_init+0x40>)
    7fd2:	4798      	blx	r3
    7fd4:	b990      	cbnz	r0, 7ffc <usart_async_init+0x38>
    7fd6:	4629      	mov	r1, r5
    7fd8:	f104 0008 	add.w	r0, r4, #8
    7fdc:	4b0a      	ldr	r3, [pc, #40]	; (8008 <usart_async_init+0x44>)
    7fde:	4798      	blx	r3
    7fe0:	b970      	cbnz	r0, 8000 <usart_async_init+0x3c>
    7fe2:	4b0a      	ldr	r3, [pc, #40]	; (800c <usart_async_init+0x48>)
    7fe4:	6063      	str	r3, [r4, #4]
    7fe6:	4b0a      	ldr	r3, [pc, #40]	; (8010 <usart_async_init+0x4c>)
    7fe8:	6023      	str	r3, [r4, #0]
    7fea:	4b0a      	ldr	r3, [pc, #40]	; (8014 <usart_async_init+0x50>)
    7fec:	60a3      	str	r3, [r4, #8]
    7fee:	4b0a      	ldr	r3, [pc, #40]	; (8018 <usart_async_init+0x54>)
    7ff0:	60e3      	str	r3, [r4, #12]
    7ff2:	4b0a      	ldr	r3, [pc, #40]	; (801c <usart_async_init+0x58>)
    7ff4:	6123      	str	r3, [r4, #16]
    7ff6:	4b0a      	ldr	r3, [pc, #40]	; (8020 <usart_async_init+0x5c>)
    7ff8:	6163      	str	r3, [r4, #20]
    7ffa:	bd38      	pop	{r3, r4, r5, pc}
    7ffc:	f06f 000c 	mvn.w	r0, #12
    8000:	bd38      	pop	{r3, r4, r5, pc}
    8002:	bf00      	nop
    8004:	000085b7 	.word	0x000085b7
    8008:	000095e9 	.word	0x000095e9
    800c:	00007f71 	.word	0x00007f71
    8010:	00007f09 	.word	0x00007f09
    8014:	00007f3d 	.word	0x00007f3d
    8018:	00007ee9 	.word	0x00007ee9
    801c:	00007ec9 	.word	0x00007ec9
    8020:	00007ed9 	.word	0x00007ed9

00008024 <usart_async_enable>:
    8024:	b508      	push	{r3, lr}
    8026:	3008      	adds	r0, #8
    8028:	4b01      	ldr	r3, [pc, #4]	; (8030 <usart_async_enable+0xc>)
    802a:	4798      	blx	r3
    802c:	2000      	movs	r0, #0
    802e:	bd08      	pop	{r3, pc}
    8030:	0000964d 	.word	0x0000964d

00008034 <usart_async_get_io_descriptor>:
    8034:	6008      	str	r0, [r1, #0]
    8036:	2000      	movs	r0, #0
    8038:	4770      	bx	lr
	...

0000803c <usart_async_register_callback>:
    803c:	2901      	cmp	r1, #1
    803e:	b508      	push	{r3, lr}
    8040:	d00f      	beq.n	8062 <usart_async_register_callback+0x26>
    8042:	d304      	bcc.n	804e <usart_async_register_callback+0x12>
    8044:	2902      	cmp	r1, #2
    8046:	d012      	beq.n	806e <usart_async_register_callback+0x32>
    8048:	f06f 000c 	mvn.w	r0, #12
    804c:	bd08      	pop	{r3, pc}
    804e:	6282      	str	r2, [r0, #40]	; 0x28
    8050:	3200      	adds	r2, #0
    8052:	bf18      	it	ne
    8054:	2201      	movne	r2, #1
    8056:	2101      	movs	r1, #1
    8058:	3008      	adds	r0, #8
    805a:	4b08      	ldr	r3, [pc, #32]	; (807c <usart_async_register_callback+0x40>)
    805c:	4798      	blx	r3
    805e:	2000      	movs	r0, #0
    8060:	bd08      	pop	{r3, pc}
    8062:	6242      	str	r2, [r0, #36]	; 0x24
    8064:	3200      	adds	r2, #0
    8066:	bf18      	it	ne
    8068:	2201      	movne	r2, #1
    806a:	2102      	movs	r1, #2
    806c:	e7f4      	b.n	8058 <usart_async_register_callback+0x1c>
    806e:	62c2      	str	r2, [r0, #44]	; 0x2c
    8070:	3200      	adds	r2, #0
    8072:	bf18      	it	ne
    8074:	2201      	movne	r2, #1
    8076:	2103      	movs	r1, #3
    8078:	e7ee      	b.n	8058 <usart_async_register_callback+0x1c>
    807a:	bf00      	nop
    807c:	00009677 	.word	0x00009677

00008080 <_usb_d_find_ep>:
    8080:	490a      	ldr	r1, [pc, #40]	; (80ac <_usb_d_find_ep+0x2c>)
    8082:	b570      	push	{r4, r5, r6, lr}
    8084:	2300      	movs	r3, #0
    8086:	f000 060f 	and.w	r6, r0, #15
    808a:	015d      	lsls	r5, r3, #5
    808c:	194c      	adds	r4, r1, r5
    808e:	b25a      	sxtb	r2, r3
    8090:	7864      	ldrb	r4, [r4, #1]
    8092:	4284      	cmp	r4, r0
    8094:	d008      	beq.n	80a8 <_usb_d_find_ep+0x28>
    8096:	5c6d      	ldrb	r5, [r5, r1]
    8098:	b90d      	cbnz	r5, 809e <_usb_d_find_ep+0x1e>
    809a:	42a6      	cmp	r6, r4
    809c:	d004      	beq.n	80a8 <_usb_d_find_ep+0x28>
    809e:	3301      	adds	r3, #1
    80a0:	2b0d      	cmp	r3, #13
    80a2:	d1f2      	bne.n	808a <_usb_d_find_ep+0xa>
    80a4:	f04f 32ff 	mov.w	r2, #4294967295
    80a8:	4610      	mov	r0, r2
    80aa:	bd70      	pop	{r4, r5, r6, pc}
    80ac:	20000658 	.word	0x20000658

000080b0 <usb_d_dummy_cb_false>:
    80b0:	2000      	movs	r0, #0
    80b2:	4770      	bx	lr

000080b4 <usb_d_cb_trans_more>:
    80b4:	b570      	push	{r4, r5, r6, lr}
    80b6:	4b09      	ldr	r3, [pc, #36]	; (80dc <usb_d_cb_trans_more+0x28>)
    80b8:	4604      	mov	r4, r0
    80ba:	460d      	mov	r5, r1
    80bc:	4798      	blx	r3
    80be:	4b08      	ldr	r3, [pc, #32]	; (80e0 <usb_d_cb_trans_more+0x2c>)
    80c0:	eb03 1040 	add.w	r0, r3, r0, lsl #5
    80c4:	7883      	ldrb	r3, [r0, #2]
    80c6:	2b03      	cmp	r3, #3
    80c8:	d105      	bne.n	80d6 <usb_d_cb_trans_more+0x22>
    80ca:	6983      	ldr	r3, [r0, #24]
    80cc:	4629      	mov	r1, r5
    80ce:	4620      	mov	r0, r4
    80d0:	e8bd 4070 	ldmia.w	sp!, {r4, r5, r6, lr}
    80d4:	4718      	bx	r3
    80d6:	2000      	movs	r0, #0
    80d8:	bd70      	pop	{r4, r5, r6, pc}
    80da:	bf00      	nop
    80dc:	00008081 	.word	0x00008081
    80e0:	20000658 	.word	0x20000658

000080e4 <_usb_d_cb_trans_done>:
    80e4:	e92d 43f0 	stmdb	sp!, {r4, r5, r6, r7, r8, r9, lr}
    80e8:	4b3c      	ldr	r3, [pc, #240]	; (81dc <_usb_d_cb_trans_done+0xf8>)
    80ea:	4c3d      	ldr	r4, [pc, #244]	; (81e0 <_usb_d_cb_trans_done+0xfc>)
    80ec:	b085      	sub	sp, #20
    80ee:	4680      	mov	r8, r0
    80f0:	460f      	mov	r7, r1
    80f2:	4691      	mov	r9, r2
    80f4:	4798      	blx	r3
    80f6:	4603      	mov	r3, r0
    80f8:	0146      	lsls	r6, r0, #5
    80fa:	2f00      	cmp	r7, #0
    80fc:	d149      	bne.n	8192 <_usb_d_cb_trans_done+0xae>
    80fe:	19a5      	adds	r5, r4, r6
    8100:	5da1      	ldrb	r1, [r4, r6]
    8102:	70ef      	strb	r7, [r5, #3]
    8104:	2900      	cmp	r1, #0
    8106:	d13b      	bne.n	8180 <_usb_d_cb_trans_done+0x9c>
    8108:	78aa      	ldrb	r2, [r5, #2]
    810a:	7868      	ldrb	r0, [r5, #1]
    810c:	69ee      	ldr	r6, [r5, #28]
    810e:	2a03      	cmp	r2, #3
    8110:	f04f 0e0c 	mov.w	lr, #12
    8114:	f04f 0220 	mov.w	r2, #32
    8118:	d12b      	bne.n	8172 <_usb_d_cb_trans_done+0x8e>
    811a:	fb12 e203 	smlabb	r2, r2, r3, lr
    811e:	4422      	add	r2, r4
    8120:	2101      	movs	r1, #1
    8122:	f995 700c 	ldrsb.w	r7, [r5, #12]
    8126:	47b0      	blx	r6
    8128:	786b      	ldrb	r3, [r5, #1]
    812a:	b178      	cbz	r0, 814c <_usb_d_cb_trans_done+0x68>
    812c:	2205      	movs	r2, #5
    812e:	2f00      	cmp	r7, #0
    8130:	70aa      	strb	r2, [r5, #2]
    8132:	f04f 0202 	mov.w	r2, #2
    8136:	bfb4      	ite	lt
    8138:	4618      	movlt	r0, r3
    813a:	f043 0080 	orrge.w	r0, r3, #128	; 0x80
    813e:	70ea      	strb	r2, [r5, #3]
    8140:	2101      	movs	r1, #1
    8142:	4b28      	ldr	r3, [pc, #160]	; (81e4 <_usb_d_cb_trans_done+0x100>)
    8144:	4798      	blx	r3
    8146:	b005      	add	sp, #20
    8148:	e8bd 83f0 	ldmia.w	sp!, {r4, r5, r6, r7, r8, r9, pc}
    814c:	2f00      	cmp	r7, #0
    814e:	bfac      	ite	ge
    8150:	f043 0380 	orrge.w	r3, r3, #128	; 0x80
    8154:	f003 030f 	andlt.w	r3, r3, #15
    8158:	2204      	movs	r2, #4
    815a:	f88d 300c 	strb.w	r3, [sp, #12]
    815e:	2301      	movs	r3, #1
    8160:	9001      	str	r0, [sp, #4]
    8162:	9002      	str	r0, [sp, #8]
    8164:	f88d 300d 	strb.w	r3, [sp, #13]
    8168:	70aa      	strb	r2, [r5, #2]
    816a:	a801      	add	r0, sp, #4
    816c:	4b1e      	ldr	r3, [pc, #120]	; (81e8 <_usb_d_cb_trans_done+0x104>)
    816e:	4798      	blx	r3
    8170:	e7e9      	b.n	8146 <_usb_d_cb_trans_done+0x62>
    8172:	fb12 e203 	smlabb	r2, r2, r3, lr
    8176:	4422      	add	r2, r4
    8178:	47b0      	blx	r6
    817a:	2302      	movs	r3, #2
    817c:	70ab      	strb	r3, [r5, #2]
    817e:	e7e2      	b.n	8146 <_usb_d_cb_trans_done+0x62>
    8180:	2301      	movs	r3, #1
    8182:	70ab      	strb	r3, [r5, #2]
    8184:	4434      	add	r4, r6
    8186:	464a      	mov	r2, r9
    8188:	69e3      	ldr	r3, [r4, #28]
    818a:	78e1      	ldrb	r1, [r4, #3]
    818c:	4640      	mov	r0, r8
    818e:	4798      	blx	r3
    8190:	e7d9      	b.n	8146 <_usb_d_cb_trans_done+0x62>
    8192:	2f01      	cmp	r7, #1
    8194:	eb04 0306 	add.w	r3, r4, r6
    8198:	d10b      	bne.n	81b2 <_usb_d_cb_trans_done+0xce>
    819a:	5da1      	ldrb	r1, [r4, r6]
    819c:	2202      	movs	r2, #2
    819e:	70da      	strb	r2, [r3, #3]
    81a0:	b921      	cbnz	r1, 81ac <_usb_d_cb_trans_done+0xc8>
    81a2:	709a      	strb	r2, [r3, #2]
    81a4:	4640      	mov	r0, r8
    81a6:	4b0f      	ldr	r3, [pc, #60]	; (81e4 <_usb_d_cb_trans_done+0x100>)
    81a8:	4798      	blx	r3
    81aa:	e7eb      	b.n	8184 <_usb_d_cb_trans_done+0xa0>
    81ac:	2205      	movs	r2, #5
    81ae:	709a      	strb	r2, [r3, #2]
    81b0:	e7e8      	b.n	8184 <_usb_d_cb_trans_done+0xa0>
    81b2:	2f02      	cmp	r7, #2
    81b4:	d107      	bne.n	81c6 <_usb_d_cb_trans_done+0xe2>
    81b6:	2204      	movs	r2, #4
    81b8:	70da      	strb	r2, [r3, #3]
    81ba:	5da2      	ldrb	r2, [r4, r6]
    81bc:	b90a      	cbnz	r2, 81c2 <_usb_d_cb_trans_done+0xde>
    81be:	709f      	strb	r7, [r3, #2]
    81c0:	e7c1      	b.n	8146 <_usb_d_cb_trans_done+0x62>
    81c2:	2201      	movs	r2, #1
    81c4:	e7f3      	b.n	81ae <_usb_d_cb_trans_done+0xca>
    81c6:	2f03      	cmp	r7, #3
    81c8:	bf09      	itett	eq
    81ca:	2200      	moveq	r2, #0
    81cc:	2206      	movne	r2, #6
    81ce:	709a      	strbeq	r2, [r3, #2]
    81d0:	2205      	moveq	r2, #5
    81d2:	bf18      	it	ne
    81d4:	709a      	strbne	r2, [r3, #2]
    81d6:	70da      	strb	r2, [r3, #3]
    81d8:	e7d4      	b.n	8184 <_usb_d_cb_trans_done+0xa0>
    81da:	bf00      	nop
    81dc:	00008081 	.word	0x00008081
    81e0:	20000658 	.word	0x20000658
    81e4:	0000ad35 	.word	0x0000ad35
    81e8:	0000ae6d 	.word	0x0000ae6d

000081ec <usb_d_cb_trans_setup>:
    81ec:	e92d 47f0 	stmdb	sp!, {r4, r5, r6, r7, r8, r9, sl, lr}
    81f0:	4b1d      	ldr	r3, [pc, #116]	; (8268 <usb_d_cb_trans_setup+0x7c>)
    81f2:	4e1e      	ldr	r6, [pc, #120]	; (826c <usb_d_cb_trans_setup+0x80>)
    81f4:	4c1e      	ldr	r4, [pc, #120]	; (8270 <usb_d_cb_trans_setup+0x84>)
    81f6:	4605      	mov	r5, r0
    81f8:	4798      	blx	r3
    81fa:	2720      	movs	r7, #32
    81fc:	230c      	movs	r3, #12
    81fe:	fb17 3700 	smlabb	r7, r7, r0, r3
    8202:	4437      	add	r7, r6
    8204:	4681      	mov	r9, r0
    8206:	4639      	mov	r1, r7
    8208:	4628      	mov	r0, r5
    820a:	4b1a      	ldr	r3, [pc, #104]	; (8274 <usb_d_cb_trans_setup+0x88>)
    820c:	4798      	blx	r3
    820e:	b2c0      	uxtb	r0, r0
    8210:	2808      	cmp	r0, #8
    8212:	f065 087f 	orn	r8, r5, #127	; 0x7f
    8216:	d009      	beq.n	822c <usb_d_cb_trans_setup+0x40>
    8218:	2101      	movs	r1, #1
    821a:	4628      	mov	r0, r5
    821c:	47a0      	blx	r4
    821e:	2101      	movs	r1, #1
    8220:	fa5f f088 	uxtb.w	r0, r8
    8224:	4623      	mov	r3, r4
    8226:	e8bd 47f0 	ldmia.w	sp!, {r4, r5, r6, r7, r8, r9, sl, lr}
    822a:	4718      	bx	r3
    822c:	eb06 1649 	add.w	r6, r6, r9, lsl #5
    8230:	2100      	movs	r1, #0
    8232:	4628      	mov	r0, r5
    8234:	fa5f f888 	uxtb.w	r8, r8
    8238:	47a0      	blx	r4
    823a:	f04f 0901 	mov.w	r9, #1
    823e:	2100      	movs	r1, #0
    8240:	4640      	mov	r0, r8
    8242:	47a0      	blx	r4
    8244:	f886 9002 	strb.w	r9, [r6, #2]
    8248:	6973      	ldr	r3, [r6, #20]
    824a:	4639      	mov	r1, r7
    824c:	4628      	mov	r0, r5
    824e:	4798      	blx	r3
    8250:	b938      	cbnz	r0, 8262 <usb_d_cb_trans_setup+0x76>
    8252:	2305      	movs	r3, #5
    8254:	4649      	mov	r1, r9
    8256:	70b3      	strb	r3, [r6, #2]
    8258:	4628      	mov	r0, r5
    825a:	47a0      	blx	r4
    825c:	4649      	mov	r1, r9
    825e:	4640      	mov	r0, r8
    8260:	e7e0      	b.n	8224 <usb_d_cb_trans_setup+0x38>
    8262:	e8bd 87f0 	ldmia.w	sp!, {r4, r5, r6, r7, r8, r9, sl, pc}
    8266:	bf00      	nop
    8268:	00008081 	.word	0x00008081
    826c:	20000658 	.word	0x20000658
    8270:	0000ad35 	.word	0x0000ad35
    8274:	0000ae19 	.word	0x0000ae19

00008278 <usb_d_init>:
    8278:	b510      	push	{r4, lr}
    827a:	4b11      	ldr	r3, [pc, #68]	; (82c0 <usb_d_init+0x48>)
    827c:	4798      	blx	r3
    827e:	2800      	cmp	r0, #0
    8280:	db1c      	blt.n	82bc <usb_d_init+0x44>
    8282:	f44f 72d0 	mov.w	r2, #416	; 0x1a0
    8286:	2100      	movs	r1, #0
    8288:	4b0e      	ldr	r3, [pc, #56]	; (82c4 <usb_d_init+0x4c>)
    828a:	480f      	ldr	r0, [pc, #60]	; (82c8 <usb_d_init+0x50>)
    828c:	4798      	blx	r3
    828e:	4b0e      	ldr	r3, [pc, #56]	; (82c8 <usb_d_init+0x50>)
    8290:	4a0e      	ldr	r2, [pc, #56]	; (82cc <usb_d_init+0x54>)
    8292:	f503 71d0 	add.w	r1, r3, #416	; 0x1a0
    8296:	20ff      	movs	r0, #255	; 0xff
    8298:	7058      	strb	r0, [r3, #1]
    829a:	615a      	str	r2, [r3, #20]
    829c:	619a      	str	r2, [r3, #24]
    829e:	61da      	str	r2, [r3, #28]
    82a0:	3320      	adds	r3, #32
    82a2:	428b      	cmp	r3, r1
    82a4:	d1f8      	bne.n	8298 <usb_d_init+0x20>
    82a6:	4c0a      	ldr	r4, [pc, #40]	; (82d0 <usb_d_init+0x58>)
    82a8:	490a      	ldr	r1, [pc, #40]	; (82d4 <usb_d_init+0x5c>)
    82aa:	2000      	movs	r0, #0
    82ac:	47a0      	blx	r4
    82ae:	490a      	ldr	r1, [pc, #40]	; (82d8 <usb_d_init+0x60>)
    82b0:	2001      	movs	r0, #1
    82b2:	47a0      	blx	r4
    82b4:	2002      	movs	r0, #2
    82b6:	4909      	ldr	r1, [pc, #36]	; (82dc <usb_d_init+0x64>)
    82b8:	47a0      	blx	r4
    82ba:	2000      	movs	r0, #0
    82bc:	bd10      	pop	{r4, pc}
    82be:	bf00      	nop
    82c0:	0000a911 	.word	0x0000a911
    82c4:	0000d28b 	.word	0x0000d28b
    82c8:	20000658 	.word	0x20000658
    82cc:	000080b1 	.word	0x000080b1
    82d0:	0000af99 	.word	0x0000af99
    82d4:	000081ed 	.word	0x000081ed
    82d8:	000080b5 	.word	0x000080b5
    82dc:	000080e5 	.word	0x000080e5

000082e0 <usb_d_register_callback>:
    82e0:	4b00      	ldr	r3, [pc, #0]	; (82e4 <usb_d_register_callback+0x4>)
    82e2:	4718      	bx	r3
    82e4:	0000af75 	.word	0x0000af75

000082e8 <usb_d_enable>:
    82e8:	4b00      	ldr	r3, [pc, #0]	; (82ec <usb_d_enable+0x4>)
    82ea:	4718      	bx	r3
    82ec:	0000a9f9 	.word	0x0000a9f9

000082f0 <usb_d_attach>:
    82f0:	4b00      	ldr	r3, [pc, #0]	; (82f4 <usb_d_attach+0x4>)
    82f2:	4718      	bx	r3
    82f4:	0000aa55 	.word	0x0000aa55

000082f8 <usb_d_set_address>:
    82f8:	4b00      	ldr	r3, [pc, #0]	; (82fc <usb_d_set_address+0x4>)
    82fa:	4718      	bx	r3
    82fc:	0000aa67 	.word	0x0000aa67

00008300 <usb_d_ep_init>:
    8300:	b5f8      	push	{r3, r4, r5, r6, r7, lr}
    8302:	4c10      	ldr	r4, [pc, #64]	; (8344 <usb_d_ep_init+0x44>)
    8304:	4606      	mov	r6, r0
    8306:	460d      	mov	r5, r1
    8308:	4617      	mov	r7, r2
    830a:	47a0      	blx	r4
    830c:	2800      	cmp	r0, #0
    830e:	da13      	bge.n	8338 <usb_d_ep_init+0x38>
    8310:	20ff      	movs	r0, #255	; 0xff
    8312:	47a0      	blx	r4
    8314:	1e04      	subs	r4, r0, #0
    8316:	db12      	blt.n	833e <usb_d_ep_init+0x3e>
    8318:	463a      	mov	r2, r7
    831a:	4629      	mov	r1, r5
    831c:	4630      	mov	r0, r6
    831e:	4b0a      	ldr	r3, [pc, #40]	; (8348 <usb_d_ep_init+0x48>)
    8320:	4798      	blx	r3
    8322:	2800      	cmp	r0, #0
    8324:	db0d      	blt.n	8342 <usb_d_ep_init+0x42>
    8326:	4b09      	ldr	r3, [pc, #36]	; (834c <usb_d_ep_init+0x4c>)
    8328:	0160      	lsls	r0, r4, #5
    832a:	181a      	adds	r2, r3, r0
    832c:	f005 0503 	and.w	r5, r5, #3
    8330:	541d      	strb	r5, [r3, r0]
    8332:	7056      	strb	r6, [r2, #1]
    8334:	2000      	movs	r0, #0
    8336:	bdf8      	pop	{r3, r4, r5, r6, r7, pc}
    8338:	f06f 0013 	mvn.w	r0, #19
    833c:	bdf8      	pop	{r3, r4, r5, r6, r7, pc}
    833e:	f06f 0014 	mvn.w	r0, #20
    8342:	bdf8      	pop	{r3, r4, r5, r6, r7, pc}
    8344:	00008081 	.word	0x00008081
    8348:	0000aa75 	.word	0x0000aa75
    834c:	20000658 	.word	0x20000658

00008350 <usb_d_ep0_init>:
    8350:	2100      	movs	r1, #0
    8352:	4602      	mov	r2, r0
    8354:	4b01      	ldr	r3, [pc, #4]	; (835c <usb_d_ep0_init+0xc>)
    8356:	4608      	mov	r0, r1
    8358:	4718      	bx	r3
    835a:	bf00      	nop
    835c:	00008301 	.word	0x00008301

00008360 <usb_d_ep_deinit>:
    8360:	b538      	push	{r3, r4, r5, lr}
    8362:	4b07      	ldr	r3, [pc, #28]	; (8380 <usb_d_ep_deinit+0x20>)
    8364:	4605      	mov	r5, r0
    8366:	4798      	blx	r3
    8368:	1e04      	subs	r4, r0, #0
    836a:	db07      	blt.n	837c <usb_d_ep_deinit+0x1c>
    836c:	4628      	mov	r0, r5
    836e:	4b05      	ldr	r3, [pc, #20]	; (8384 <usb_d_ep_deinit+0x24>)
    8370:	4798      	blx	r3
    8372:	4805      	ldr	r0, [pc, #20]	; (8388 <usb_d_ep_deinit+0x28>)
    8374:	eb00 1044 	add.w	r0, r0, r4, lsl #5
    8378:	23ff      	movs	r3, #255	; 0xff
    837a:	7043      	strb	r3, [r0, #1]
    837c:	bd38      	pop	{r3, r4, r5, pc}
    837e:	bf00      	nop
    8380:	00008081 	.word	0x00008081
    8384:	0000ab35 	.word	0x0000ab35
    8388:	20000658 	.word	0x20000658

0000838c <usb_d_ep_enable>:
    838c:	b538      	push	{r3, r4, r5, lr}
    838e:	4b0c      	ldr	r3, [pc, #48]	; (83c0 <usb_d_ep_enable+0x34>)
    8390:	4605      	mov	r5, r0
    8392:	4798      	blx	r3
    8394:	2800      	cmp	r0, #0
    8396:	db10      	blt.n	83ba <usb_d_ep_enable+0x2e>
    8398:	0140      	lsls	r0, r0, #5
    839a:	4c0a      	ldr	r4, [pc, #40]	; (83c4 <usb_d_ep_enable+0x38>)
    839c:	5c23      	ldrb	r3, [r4, r0]
    839e:	4404      	add	r4, r0
    83a0:	2b00      	cmp	r3, #0
    83a2:	bf0c      	ite	eq
    83a4:	2302      	moveq	r3, #2
    83a6:	2301      	movne	r3, #1
    83a8:	70a3      	strb	r3, [r4, #2]
    83aa:	4628      	mov	r0, r5
    83ac:	4b06      	ldr	r3, [pc, #24]	; (83c8 <usb_d_ep_enable+0x3c>)
    83ae:	4798      	blx	r3
    83b0:	2800      	cmp	r0, #0
    83b2:	da04      	bge.n	83be <usb_d_ep_enable+0x32>
    83b4:	2300      	movs	r3, #0
    83b6:	70a3      	strb	r3, [r4, #2]
    83b8:	bd38      	pop	{r3, r4, r5, pc}
    83ba:	f06f 0011 	mvn.w	r0, #17
    83be:	bd38      	pop	{r3, r4, r5, pc}
    83c0:	00008081 	.word	0x00008081
    83c4:	20000658 	.word	0x20000658
    83c8:	0000abb9 	.word	0x0000abb9

000083cc <usb_d_ep_transfer>:
    83cc:	e92d 4ff0 	stmdb	sp!, {r4, r5, r6, r7, r8, r9, sl, fp, lr}
    83d0:	f890 a008 	ldrb.w	sl, [r0, #8]
    83d4:	4b36      	ldr	r3, [pc, #216]	; (84b0 <usb_d_ep_transfer+0xe4>)
    83d6:	4607      	mov	r7, r0
    83d8:	b087      	sub	sp, #28
    83da:	4650      	mov	r0, sl
    83dc:	4798      	blx	r3
    83de:	f1b0 0800 	subs.w	r8, r0, #0
    83e2:	f897 9009 	ldrb.w	r9, [r7, #9]
    83e6:	687e      	ldr	r6, [r7, #4]
    83e8:	db5d      	blt.n	84a6 <usb_d_ep_transfer+0xda>
    83ea:	f8df b0d4 	ldr.w	fp, [pc, #212]	; 84c0 <usb_d_ep_transfer+0xf4>
    83ee:	4b31      	ldr	r3, [pc, #196]	; (84b4 <usb_d_ep_transfer+0xe8>)
    83f0:	ea4f 1848 	mov.w	r8, r8, lsl #5
    83f4:	eb0b 0508 	add.w	r5, fp, r8
    83f8:	a802      	add	r0, sp, #8
    83fa:	4798      	blx	r3
    83fc:	78ab      	ldrb	r3, [r5, #2]
    83fe:	f88d 3007 	strb.w	r3, [sp, #7]
    8402:	f89d 0007 	ldrb.w	r0, [sp, #7]
    8406:	4b2c      	ldr	r3, [pc, #176]	; (84b8 <usb_d_ep_transfer+0xec>)
    8408:	b2c4      	uxtb	r4, r0
    840a:	2c01      	cmp	r4, #1
    840c:	d11c      	bne.n	8448 <usb_d_ep_transfer+0x7c>
    840e:	2203      	movs	r2, #3
    8410:	70aa      	strb	r2, [r5, #2]
    8412:	a802      	add	r0, sp, #8
    8414:	4798      	blx	r3
    8416:	f81b 3008 	ldrb.w	r3, [fp, r8]
    841a:	b34b      	cbz	r3, 8470 <usb_d_ep_transfer+0xa4>
    841c:	f119 0300 	adds.w	r3, r9, #0
    8420:	ea4f 14da 	mov.w	r4, sl, lsr #7
    8424:	bf18      	it	ne
    8426:	2301      	movne	r3, #1
    8428:	6839      	ldr	r1, [r7, #0]
    842a:	7a3a      	ldrb	r2, [r7, #8]
    842c:	9103      	str	r1, [sp, #12]
    842e:	9604      	str	r6, [sp, #16]
    8430:	2c00      	cmp	r4, #0
    8432:	d035      	beq.n	84a0 <usb_d_ep_transfer+0xd4>
    8434:	f042 0280 	orr.w	r2, r2, #128	; 0x80
    8438:	f88d 3015 	strb.w	r3, [sp, #21]
    843c:	a803      	add	r0, sp, #12
    843e:	4b1f      	ldr	r3, [pc, #124]	; (84bc <usb_d_ep_transfer+0xf0>)
    8440:	f88d 2014 	strb.w	r2, [sp, #20]
    8444:	4798      	blx	r3
    8446:	e00d      	b.n	8464 <usb_d_ep_transfer+0x98>
    8448:	a802      	add	r0, sp, #8
    844a:	4798      	blx	r3
    844c:	f89d 3007 	ldrb.w	r3, [sp, #7]
    8450:	b2db      	uxtb	r3, r3
    8452:	2b05      	cmp	r3, #5
    8454:	d02a      	beq.n	84ac <usb_d_ep_transfer+0xe0>
    8456:	2b06      	cmp	r3, #6
    8458:	d007      	beq.n	846a <usb_d_ep_transfer+0x9e>
    845a:	2b00      	cmp	r3, #0
    845c:	bf0c      	ite	eq
    845e:	f06f 0012 	mvneq.w	r0, #18
    8462:	2001      	movne	r0, #1
    8464:	b007      	add	sp, #28
    8466:	e8bd 8ff0 	ldmia.w	sp!, {r4, r5, r6, r7, r8, r9, sl, fp, pc}
    846a:	f06f 000f 	mvn.w	r0, #15
    846e:	e7f9      	b.n	8464 <usb_d_ep_transfer+0x98>
    8470:	7ce9      	ldrb	r1, [r5, #19]
    8472:	7caa      	ldrb	r2, [r5, #18]
    8474:	eb02 2201 	add.w	r2, r2, r1, lsl #8
    8478:	b292      	uxth	r2, r2
    847a:	b92a      	cbnz	r2, 8488 <usb_d_ep_transfer+0xbc>
    847c:	2304      	movs	r3, #4
    847e:	70ab      	strb	r3, [r5, #2]
    8480:	4616      	mov	r6, r2
    8482:	4623      	mov	r3, r4
    8484:	461c      	mov	r4, r3
    8486:	e7cf      	b.n	8428 <usb_d_ep_transfer+0x5c>
    8488:	f995 100c 	ldrsb.w	r1, [r5, #12]
    848c:	4296      	cmp	r6, r2
    848e:	bf28      	it	cs
    8490:	4616      	movcs	r6, r2
    8492:	2900      	cmp	r1, #0
    8494:	daf6      	bge.n	8484 <usb_d_ep_transfer+0xb8>
    8496:	42b2      	cmp	r2, r6
    8498:	bf94      	ite	ls
    849a:	2300      	movls	r3, #0
    849c:	2301      	movhi	r3, #1
    849e:	e7c3      	b.n	8428 <usb_d_ep_transfer+0x5c>
    84a0:	f002 020f 	and.w	r2, r2, #15
    84a4:	e7c8      	b.n	8438 <usb_d_ep_transfer+0x6c>
    84a6:	f06f 0011 	mvn.w	r0, #17
    84aa:	e7db      	b.n	8464 <usb_d_ep_transfer+0x98>
    84ac:	2002      	movs	r0, #2
    84ae:	e7d9      	b.n	8464 <usb_d_ep_transfer+0x98>
    84b0:	00008081 	.word	0x00008081
    84b4:	000078ed 	.word	0x000078ed
    84b8:	000078fb 	.word	0x000078fb
    84bc:	0000ae6d 	.word	0x0000ae6d
    84c0:	20000658 	.word	0x20000658

000084c4 <usb_d_ep_halt>:
    84c4:	e92d 41f0 	stmdb	sp!, {r4, r5, r6, r7, r8, lr}
    84c8:	4605      	mov	r5, r0
    84ca:	460c      	mov	r4, r1
    84cc:	b9d9      	cbnz	r1, 8506 <usb_d_ep_halt+0x42>
    84ce:	4b13      	ldr	r3, [pc, #76]	; (851c <usb_d_ep_halt+0x58>)
    84d0:	4798      	blx	r3
    84d2:	1e07      	subs	r7, r0, #0
    84d4:	db1e      	blt.n	8514 <usb_d_ep_halt+0x50>
    84d6:	2102      	movs	r1, #2
    84d8:	4628      	mov	r0, r5
    84da:	4e11      	ldr	r6, [pc, #68]	; (8520 <usb_d_ep_halt+0x5c>)
    84dc:	47b0      	blx	r6
    84de:	b1d8      	cbz	r0, 8518 <usb_d_ep_halt+0x54>
    84e0:	4621      	mov	r1, r4
    84e2:	4628      	mov	r0, r5
    84e4:	47b0      	blx	r6
    84e6:	2800      	cmp	r0, #0
    84e8:	db16      	blt.n	8518 <usb_d_ep_halt+0x54>
    84ea:	480e      	ldr	r0, [pc, #56]	; (8524 <usb_d_ep_halt+0x60>)
    84ec:	eb00 1047 	add.w	r0, r0, r7, lsl #5
    84f0:	2103      	movs	r1, #3
    84f2:	2301      	movs	r3, #1
    84f4:	7083      	strb	r3, [r0, #2]
    84f6:	70c1      	strb	r1, [r0, #3]
    84f8:	69c3      	ldr	r3, [r0, #28]
    84fa:	4622      	mov	r2, r4
    84fc:	4628      	mov	r0, r5
    84fe:	4798      	blx	r3
    8500:	4620      	mov	r0, r4
    8502:	e8bd 81f0 	ldmia.w	sp!, {r4, r5, r6, r7, r8, pc}
    8506:	2901      	cmp	r1, #1
    8508:	4b05      	ldr	r3, [pc, #20]	; (8520 <usb_d_ep_halt+0x5c>)
    850a:	bf18      	it	ne
    850c:	2102      	movne	r1, #2
    850e:	e8bd 41f0 	ldmia.w	sp!, {r4, r5, r6, r7, r8, lr}
    8512:	4718      	bx	r3
    8514:	f06f 0011 	mvn.w	r0, #17
    8518:	e8bd 81f0 	ldmia.w	sp!, {r4, r5, r6, r7, r8, pc}
    851c:	00008081 	.word	0x00008081
    8520:	0000ad35 	.word	0x0000ad35
    8524:	20000658 	.word	0x20000658

00008528 <usb_d_ep_register_callback>:
    8528:	b538      	push	{r3, r4, r5, lr}
    852a:	4b0f      	ldr	r3, [pc, #60]	; (8568 <usb_d_ep_register_callback+0x40>)
    852c:	4614      	mov	r4, r2
    852e:	460d      	mov	r5, r1
    8530:	4798      	blx	r3
    8532:	4a0e      	ldr	r2, [pc, #56]	; (856c <usb_d_ep_register_callback+0x44>)
    8534:	2c00      	cmp	r4, #0
    8536:	bf08      	it	eq
    8538:	4614      	moveq	r4, r2
    853a:	2800      	cmp	r0, #0
    853c:	db13      	blt.n	8566 <usb_d_ep_register_callback+0x3e>
    853e:	2d01      	cmp	r5, #1
    8540:	d008      	beq.n	8554 <usb_d_ep_register_callback+0x2c>
    8542:	d302      	bcc.n	854a <usb_d_ep_register_callback+0x22>
    8544:	2d02      	cmp	r5, #2
    8546:	d00a      	beq.n	855e <usb_d_ep_register_callback+0x36>
    8548:	bd38      	pop	{r3, r4, r5, pc}
    854a:	4b09      	ldr	r3, [pc, #36]	; (8570 <usb_d_ep_register_callback+0x48>)
    854c:	eb03 1040 	add.w	r0, r3, r0, lsl #5
    8550:	6144      	str	r4, [r0, #20]
    8552:	bd38      	pop	{r3, r4, r5, pc}
    8554:	4b06      	ldr	r3, [pc, #24]	; (8570 <usb_d_ep_register_callback+0x48>)
    8556:	eb03 1040 	add.w	r0, r3, r0, lsl #5
    855a:	6184      	str	r4, [r0, #24]
    855c:	bd38      	pop	{r3, r4, r5, pc}
    855e:	4b04      	ldr	r3, [pc, #16]	; (8570 <usb_d_ep_register_callback+0x48>)
    8560:	eb03 1040 	add.w	r0, r3, r0, lsl #5
    8564:	61c4      	str	r4, [r0, #28]
    8566:	bd38      	pop	{r3, r4, r5, pc}
    8568:	00008081 	.word	0x00008081
    856c:	000080b1 	.word	0x000080b1
    8570:	20000658 	.word	0x20000658

00008574 <is_list_element>:
    8574:	6800      	ldr	r0, [r0, #0]
    8576:	b900      	cbnz	r0, 857a <is_list_element+0x6>
    8578:	4770      	bx	lr
    857a:	4288      	cmp	r0, r1
    857c:	d1fa      	bne.n	8574 <is_list_element>
    857e:	2001      	movs	r0, #1
    8580:	4770      	bx	lr

00008582 <list_insert_as_head>:
    8582:	6803      	ldr	r3, [r0, #0]
    8584:	600b      	str	r3, [r1, #0]
    8586:	6001      	str	r1, [r0, #0]
    8588:	4770      	bx	lr

0000858a <list_insert_after>:
    858a:	6803      	ldr	r3, [r0, #0]
    858c:	600b      	str	r3, [r1, #0]
    858e:	6001      	str	r1, [r0, #0]
    8590:	4770      	bx	lr

00008592 <list_insert_at_end>:
    8592:	6803      	ldr	r3, [r0, #0]
    8594:	b91b      	cbnz	r3, 859e <list_insert_at_end+0xc>
    8596:	6001      	str	r1, [r0, #0]
    8598:	600b      	str	r3, [r1, #0]
    859a:	4770      	bx	lr
    859c:	4613      	mov	r3, r2
    859e:	681a      	ldr	r2, [r3, #0]
    85a0:	2a00      	cmp	r2, #0
    85a2:	d1fb      	bne.n	859c <list_insert_at_end+0xa>
    85a4:	6019      	str	r1, [r3, #0]
    85a6:	600a      	str	r2, [r1, #0]
    85a8:	4770      	bx	lr

000085aa <list_remove_head>:
    85aa:	6803      	ldr	r3, [r0, #0]
    85ac:	b10b      	cbz	r3, 85b2 <list_remove_head+0x8>
    85ae:	681a      	ldr	r2, [r3, #0]
    85b0:	6002      	str	r2, [r0, #0]
    85b2:	4618      	mov	r0, r3
    85b4:	4770      	bx	lr

000085b6 <ringbuffer_init>:
    85b6:	1e53      	subs	r3, r2, #1
    85b8:	401a      	ands	r2, r3
    85ba:	bf01      	itttt	eq
    85bc:	6043      	streq	r3, [r0, #4]
    85be:	6082      	streq	r2, [r0, #8]
    85c0:	60c2      	streq	r2, [r0, #12]
    85c2:	6001      	streq	r1, [r0, #0]
    85c4:	bf0c      	ite	eq
    85c6:	4610      	moveq	r0, r2
    85c8:	f06f 000c 	mvnne.w	r0, #12
    85cc:	4770      	bx	lr

000085ce <ringbuffer_get>:
    85ce:	6883      	ldr	r3, [r0, #8]
    85d0:	68c2      	ldr	r2, [r0, #12]
    85d2:	429a      	cmp	r2, r3
    85d4:	d009      	beq.n	85ea <ringbuffer_get+0x1c>
    85d6:	6842      	ldr	r2, [r0, #4]
    85d8:	4013      	ands	r3, r2
    85da:	6802      	ldr	r2, [r0, #0]
    85dc:	5cd3      	ldrb	r3, [r2, r3]
    85de:	700b      	strb	r3, [r1, #0]
    85e0:	6883      	ldr	r3, [r0, #8]
    85e2:	3301      	adds	r3, #1
    85e4:	6083      	str	r3, [r0, #8]
    85e6:	2000      	movs	r0, #0
    85e8:	4770      	bx	lr
    85ea:	f06f 0009 	mvn.w	r0, #9
    85ee:	4770      	bx	lr

000085f0 <ringbuffer_put>:
    85f0:	68c3      	ldr	r3, [r0, #12]
    85f2:	6842      	ldr	r2, [r0, #4]
    85f4:	4013      	ands	r3, r2
    85f6:	6802      	ldr	r2, [r0, #0]
    85f8:	54d1      	strb	r1, [r2, r3]
    85fa:	68c3      	ldr	r3, [r0, #12]
    85fc:	6881      	ldr	r1, [r0, #8]
    85fe:	6842      	ldr	r2, [r0, #4]
    8600:	1a59      	subs	r1, r3, r1
    8602:	4291      	cmp	r1, r2
    8604:	bf88      	it	hi
    8606:	1a9a      	subhi	r2, r3, r2
    8608:	f103 0301 	add.w	r3, r3, #1
    860c:	bf88      	it	hi
    860e:	6082      	strhi	r2, [r0, #8]
    8610:	60c3      	str	r3, [r0, #12]
    8612:	2000      	movs	r0, #0
    8614:	4770      	bx	lr

00008616 <ringbuffer_num>:
    8616:	68c2      	ldr	r2, [r0, #12]
    8618:	6880      	ldr	r0, [r0, #8]
    861a:	1a10      	subs	r0, r2, r0
    861c:	4770      	bx	lr
	...

00008620 <_sbrk>:
    8620:	4b04      	ldr	r3, [pc, #16]	; (8634 <_sbrk+0x14>)
    8622:	6819      	ldr	r1, [r3, #0]
    8624:	4602      	mov	r2, r0
    8626:	b909      	cbnz	r1, 862c <_sbrk+0xc>
    8628:	4903      	ldr	r1, [pc, #12]	; (8638 <_sbrk+0x18>)
    862a:	6019      	str	r1, [r3, #0]
    862c:	6818      	ldr	r0, [r3, #0]
    862e:	4402      	add	r2, r0
    8630:	601a      	str	r2, [r3, #0]
    8632:	4770      	bx	lr
    8634:	200007f8 	.word	0x200007f8
    8638:	20013e60 	.word	0x20013e60

0000863c <__NVIC_DisableIRQ>:
    863c:	2800      	cmp	r0, #0
    863e:	db0d      	blt.n	865c <__NVIC_DisableIRQ+0x20>
    8640:	0943      	lsrs	r3, r0, #5
    8642:	2201      	movs	r2, #1
    8644:	f000 001f 	and.w	r0, r0, #31
    8648:	fa02 f000 	lsl.w	r0, r2, r0
    864c:	3320      	adds	r3, #32
    864e:	4a04      	ldr	r2, [pc, #16]	; (8660 <__NVIC_DisableIRQ+0x24>)
    8650:	f842 0023 	str.w	r0, [r2, r3, lsl #2]
    8654:	f3bf 8f4f 	dsb	sy
    8658:	f3bf 8f6f 	isb	sy
    865c:	4770      	bx	lr
    865e:	bf00      	nop
    8660:	e000e100 	.word	0xe000e100

00008664 <__NVIC_ClearPendingIRQ>:
    8664:	2800      	cmp	r0, #0
    8666:	db09      	blt.n	867c <__NVIC_ClearPendingIRQ+0x18>
    8668:	0943      	lsrs	r3, r0, #5
    866a:	2201      	movs	r2, #1
    866c:	f000 001f 	and.w	r0, r0, #31
    8670:	fa02 f000 	lsl.w	r0, r2, r0
    8674:	3360      	adds	r3, #96	; 0x60
    8676:	4a02      	ldr	r2, [pc, #8]	; (8680 <__NVIC_ClearPendingIRQ+0x1c>)
    8678:	f842 0023 	str.w	r0, [r2, r3, lsl #2]
    867c:	4770      	bx	lr
    867e:	bf00      	nop
    8680:	e000e100 	.word	0xe000e100

00008684 <hri_adc_wait_for_sync>:
    8684:	6b03      	ldr	r3, [r0, #48]	; 0x30
    8686:	420b      	tst	r3, r1
    8688:	d1fc      	bne.n	8684 <hri_adc_wait_for_sync>
    868a:	4770      	bx	lr

0000868c <hri_adc_set_CTRLA_ENABLE_bit>:
    868c:	8803      	ldrh	r3, [r0, #0]
    868e:	b29b      	uxth	r3, r3
    8690:	f043 0302 	orr.w	r3, r3, #2
    8694:	8003      	strh	r3, [r0, #0]
    8696:	2103      	movs	r1, #3
    8698:	4b00      	ldr	r3, [pc, #0]	; (869c <hri_adc_set_CTRLA_ENABLE_bit+0x10>)
    869a:	4718      	bx	r3
    869c:	00008685 	.word	0x00008685

000086a0 <hri_adc_clear_CTRLA_ENABLE_bit>:
    86a0:	8803      	ldrh	r3, [r0, #0]
    86a2:	f023 0302 	bic.w	r3, r3, #2
    86a6:	041b      	lsls	r3, r3, #16
    86a8:	0c1b      	lsrs	r3, r3, #16
    86aa:	8003      	strh	r3, [r0, #0]
    86ac:	2103      	movs	r1, #3
    86ae:	4b01      	ldr	r3, [pc, #4]	; (86b4 <hri_adc_clear_CTRLA_ENABLE_bit+0x14>)
    86b0:	4718      	bx	r3
    86b2:	bf00      	nop
    86b4:	00008685 	.word	0x00008685

000086b8 <_adc_get_regs>:
    86b8:	f100 403d 	add.w	r0, r0, #3170893824	; 0xbd000000
    86bc:	f5a0 50e0 	sub.w	r0, r0, #7168	; 0x1c00
    86c0:	f3c0 2087 	ubfx	r0, r0, #10, #8
    86c4:	1e43      	subs	r3, r0, #1
    86c6:	4258      	negs	r0, r3
    86c8:	4158      	adcs	r0, r3
    86ca:	4770      	bx	lr

000086cc <_adc_interrupt_handler>:
    86cc:	b430      	push	{r4, r5}
    86ce:	6942      	ldr	r2, [r0, #20]
    86d0:	f892 102e 	ldrb.w	r1, [r2, #46]	; 0x2e
    86d4:	f892 302d 	ldrb.w	r3, [r2, #45]	; 0x2d
    86d8:	400b      	ands	r3, r1
    86da:	f013 0501 	ands.w	r5, r3, #1
    86de:	d009      	beq.n	86f4 <_adc_interrupt_handler+0x28>
    86e0:	2301      	movs	r3, #1
    86e2:	f882 302e 	strb.w	r3, [r2, #46]	; 0x2e
    86e6:	f8b2 2040 	ldrh.w	r2, [r2, #64]	; 0x40
    86ea:	6883      	ldr	r3, [r0, #8]
    86ec:	b292      	uxth	r2, r2
    86ee:	2100      	movs	r1, #0
    86f0:	bc30      	pop	{r4, r5}
    86f2:	4718      	bx	r3
    86f4:	f013 0102 	ands.w	r1, r3, #2
    86f8:	d006      	beq.n	8708 <_adc_interrupt_handler+0x3c>
    86fa:	2302      	movs	r3, #2
    86fc:	f882 302e 	strb.w	r3, [r2, #46]	; 0x2e
    8700:	6843      	ldr	r3, [r0, #4]
    8702:	4629      	mov	r1, r5
    8704:	bc30      	pop	{r4, r5}
    8706:	4718      	bx	r3
    8708:	075b      	lsls	r3, r3, #29
    870a:	d504      	bpl.n	8716 <_adc_interrupt_handler+0x4a>
    870c:	2304      	movs	r3, #4
    870e:	f882 302e 	strb.w	r3, [r2, #46]	; 0x2e
    8712:	6803      	ldr	r3, [r0, #0]
    8714:	e7f6      	b.n	8704 <_adc_interrupt_handler+0x38>
    8716:	bc30      	pop	{r4, r5}
    8718:	4770      	bx	lr

0000871a <_adc_get_irq_num.isra.0>:
    871a:	f100 403d 	add.w	r0, r0, #3170893824	; 0xbd000000
    871e:	f5a0 50e0 	sub.w	r0, r0, #7168	; 0x1c00
    8722:	0a80      	lsrs	r0, r0, #10
    8724:	0040      	lsls	r0, r0, #1
    8726:	3076      	adds	r0, #118	; 0x76
    8728:	f000 00fe 	and.w	r0, r0, #254	; 0xfe
    872c:	4770      	bx	lr
	...

00008730 <_adc_init>:
    8730:	b538      	push	{r3, r4, r5, lr}
    8732:	6b03      	ldr	r3, [r0, #48]	; 0x30
    8734:	4c2d      	ldr	r4, [pc, #180]	; (87ec <_adc_init+0xbc>)
    8736:	f013 0f01 	tst.w	r3, #1
    873a:	4602      	mov	r2, r0
    873c:	460d      	mov	r5, r1
    873e:	d10d      	bne.n	875c <_adc_init+0x2c>
    8740:	2103      	movs	r1, #3
    8742:	47a0      	blx	r4
    8744:	8803      	ldrh	r3, [r0, #0]
    8746:	079b      	lsls	r3, r3, #30
    8748:	d503      	bpl.n	8752 <_adc_init+0x22>
    874a:	4b29      	ldr	r3, [pc, #164]	; (87f0 <_adc_init+0xc0>)
    874c:	4798      	blx	r3
    874e:	2102      	movs	r1, #2
    8750:	47a0      	blx	r4
    8752:	2301      	movs	r3, #1
    8754:	8013      	strh	r3, [r2, #0]
    8756:	2103      	movs	r1, #3
    8758:	4610      	mov	r0, r2
    875a:	47a0      	blx	r4
    875c:	4610      	mov	r0, r2
    875e:	2101      	movs	r1, #1
    8760:	47a0      	blx	r4
    8762:	4b24      	ldr	r3, [pc, #144]	; (87f4 <_adc_init+0xc4>)
    8764:	2116      	movs	r1, #22
    8766:	fb01 3505 	mla	r5, r1, r5, r3
    876a:	4610      	mov	r0, r2
    876c:	88ab      	ldrh	r3, [r5, #4]
    876e:	80d3      	strh	r3, [r2, #6]
    8770:	f640 71ff 	movw	r1, #4095	; 0xfff
    8774:	47a0      	blx	r4
    8776:	79ab      	ldrb	r3, [r5, #6]
    8778:	7213      	strb	r3, [r2, #8]
    877a:	4610      	mov	r0, r2
    877c:	f640 71ff 	movw	r1, #4095	; 0xfff
    8780:	47a0      	blx	r4
    8782:	79eb      	ldrb	r3, [r5, #7]
    8784:	7093      	strb	r3, [r2, #2]
    8786:	892b      	ldrh	r3, [r5, #8]
    8788:	8093      	strh	r3, [r2, #4]
    878a:	4610      	mov	r0, r2
    878c:	f640 71ff 	movw	r1, #4095	; 0xfff
    8790:	47a0      	blx	r4
    8792:	7aab      	ldrb	r3, [r5, #10]
    8794:	7293      	strb	r3, [r2, #10]
    8796:	4610      	mov	r0, r2
    8798:	f640 71ff 	movw	r1, #4095	; 0xfff
    879c:	47a0      	blx	r4
    879e:	7aeb      	ldrb	r3, [r5, #11]
    87a0:	72d3      	strb	r3, [r2, #11]
    87a2:	4610      	mov	r0, r2
    87a4:	f640 71ff 	movw	r1, #4095	; 0xfff
    87a8:	47a0      	blx	r4
    87aa:	89ab      	ldrh	r3, [r5, #12]
    87ac:	8193      	strh	r3, [r2, #12]
    87ae:	4610      	mov	r0, r2
    87b0:	2180      	movs	r1, #128	; 0x80
    87b2:	47a0      	blx	r4
    87b4:	89eb      	ldrh	r3, [r5, #14]
    87b6:	81d3      	strh	r3, [r2, #14]
    87b8:	4610      	mov	r0, r2
    87ba:	f44f 7180 	mov.w	r1, #256	; 0x100
    87be:	47a0      	blx	r4
    87c0:	8a2b      	ldrh	r3, [r5, #16]
    87c2:	8213      	strh	r3, [r2, #16]
    87c4:	4610      	mov	r0, r2
    87c6:	f44f 7100 	mov.w	r1, #512	; 0x200
    87ca:	47a0      	blx	r4
    87cc:	8a6b      	ldrh	r3, [r5, #18]
    87ce:	8253      	strh	r3, [r2, #18]
    87d0:	4610      	mov	r0, r2
    87d2:	f44f 6180 	mov.w	r1, #1024	; 0x400
    87d6:	47a0      	blx	r4
    87d8:	7d2b      	ldrb	r3, [r5, #20]
    87da:	70d3      	strb	r3, [r2, #3]
    87dc:	886b      	ldrh	r3, [r5, #2]
    87de:	8013      	strh	r3, [r2, #0]
    87e0:	4610      	mov	r0, r2
    87e2:	2103      	movs	r1, #3
    87e4:	47a0      	blx	r4
    87e6:	2000      	movs	r0, #0
    87e8:	bd38      	pop	{r3, r4, r5, pc}
    87ea:	bf00      	nop
    87ec:	00008685 	.word	0x00008685
    87f0:	000086a1 	.word	0x000086a1
    87f4:	0000dd06 	.word	0x0000dd06

000087f8 <_adc_async_init>:
    87f8:	e92d 43f8 	stmdb	sp!, {r3, r4, r5, r6, r7, r8, r9, lr}
    87fc:	4b22      	ldr	r3, [pc, #136]	; (8888 <_adc_async_init+0x90>)
    87fe:	4604      	mov	r4, r0
    8800:	4608      	mov	r0, r1
    8802:	460d      	mov	r5, r1
    8804:	4798      	blx	r3
    8806:	4b21      	ldr	r3, [pc, #132]	; (888c <_adc_async_init+0x94>)
    8808:	4601      	mov	r1, r0
    880a:	4628      	mov	r0, r5
    880c:	4798      	blx	r3
    880e:	4606      	mov	r6, r0
    8810:	2800      	cmp	r0, #0
    8812:	d130      	bne.n	8876 <_adc_async_init+0x7e>
    8814:	4b1e      	ldr	r3, [pc, #120]	; (8890 <_adc_async_init+0x98>)
    8816:	6165      	str	r5, [r4, #20]
    8818:	429d      	cmp	r5, r3
    881a:	d12f      	bne.n	887c <_adc_async_init+0x84>
    881c:	4b1d      	ldr	r3, [pc, #116]	; (8894 <_adc_async_init+0x9c>)
    881e:	601c      	str	r4, [r3, #0]
    8820:	491d      	ldr	r1, [pc, #116]	; (8898 <_adc_async_init+0xa0>)
    8822:	f8df 9080 	ldr.w	r9, [pc, #128]	; 88a4 <_adc_async_init+0xac>
    8826:	f8df 8080 	ldr.w	r8, [pc, #128]	; 88a8 <_adc_async_init+0xb0>
    882a:	4f1c      	ldr	r7, [pc, #112]	; (889c <_adc_async_init+0xa4>)
    882c:	4628      	mov	r0, r5
    882e:	4788      	blx	r1
    8830:	b200      	sxth	r0, r0
    8832:	47c8      	blx	r9
    8834:	6960      	ldr	r0, [r4, #20]
    8836:	4788      	blx	r1
    8838:	b200      	sxth	r0, r0
    883a:	47c0      	blx	r8
    883c:	6960      	ldr	r0, [r4, #20]
    883e:	4788      	blx	r1
    8840:	2501      	movs	r5, #1
    8842:	0942      	lsrs	r2, r0, #5
    8844:	f000 031f 	and.w	r3, r0, #31
    8848:	fa05 f303 	lsl.w	r3, r5, r3
    884c:	4428      	add	r0, r5
    884e:	f847 3022 	str.w	r3, [r7, r2, lsl #2]
    8852:	b200      	sxth	r0, r0
    8854:	47c8      	blx	r9
    8856:	6960      	ldr	r0, [r4, #20]
    8858:	4788      	blx	r1
    885a:	4428      	add	r0, r5
    885c:	b200      	sxth	r0, r0
    885e:	47c0      	blx	r8
    8860:	6960      	ldr	r0, [r4, #20]
    8862:	4788      	blx	r1
    8864:	4428      	add	r0, r5
    8866:	b280      	uxth	r0, r0
    8868:	0943      	lsrs	r3, r0, #5
    886a:	f000 001f 	and.w	r0, r0, #31
    886e:	fa05 f000 	lsl.w	r0, r5, r0
    8872:	f847 0023 	str.w	r0, [r7, r3, lsl #2]
    8876:	4630      	mov	r0, r6
    8878:	e8bd 83f8 	ldmia.w	sp!, {r3, r4, r5, r6, r7, r8, r9, pc}
    887c:	4b08      	ldr	r3, [pc, #32]	; (88a0 <_adc_async_init+0xa8>)
    887e:	429d      	cmp	r5, r3
    8880:	bf04      	itt	eq
    8882:	4b04      	ldreq	r3, [pc, #16]	; (8894 <_adc_async_init+0x9c>)
    8884:	605c      	streq	r4, [r3, #4]
    8886:	e7cb      	b.n	8820 <_adc_async_init+0x28>
    8888:	000086b9 	.word	0x000086b9
    888c:	00008731 	.word	0x00008731
    8890:	43001c00 	.word	0x43001c00
    8894:	200007fc 	.word	0x200007fc
    8898:	0000871b 	.word	0x0000871b
    889c:	e000e100 	.word	0xe000e100
    88a0:	43002000 	.word	0x43002000
    88a4:	0000863d 	.word	0x0000863d
    88a8:	00008665 	.word	0x00008665

000088ac <_adc_async_enable_channel>:
    88ac:	6940      	ldr	r0, [r0, #20]
    88ae:	4b01      	ldr	r3, [pc, #4]	; (88b4 <_adc_async_enable_channel+0x8>)
    88b0:	4718      	bx	r3
    88b2:	bf00      	nop
    88b4:	0000868d 	.word	0x0000868d

000088b8 <_adc_async_get_data_size>:
    88b8:	6943      	ldr	r3, [r0, #20]
    88ba:	88db      	ldrh	r3, [r3, #6]
    88bc:	f3c3 03c1 	ubfx	r3, r3, #3, #2
    88c0:	2b03      	cmp	r3, #3
    88c2:	bf0c      	ite	eq
    88c4:	2001      	moveq	r0, #1
    88c6:	2002      	movne	r0, #2
    88c8:	4770      	bx	lr
	...

000088cc <_adc_async_convert>:
    88cc:	6940      	ldr	r0, [r0, #20]
    88ce:	7d03      	ldrb	r3, [r0, #20]
    88d0:	f043 0302 	orr.w	r3, r3, #2
    88d4:	7503      	strb	r3, [r0, #20]
    88d6:	f640 71ff 	movw	r1, #4095	; 0xfff
    88da:	4b01      	ldr	r3, [pc, #4]	; (88e0 <_adc_async_convert+0x14>)
    88dc:	4718      	bx	r3
    88de:	bf00      	nop
    88e0:	00008685 	.word	0x00008685

000088e4 <_adc_async_set_irq_state>:
    88e4:	2a01      	cmp	r2, #1
    88e6:	6941      	ldr	r1, [r0, #20]
    88e8:	d104      	bne.n	88f4 <_adc_async_set_irq_state+0x10>
    88ea:	2204      	movs	r2, #4
    88ec:	b93b      	cbnz	r3, 88fe <_adc_async_set_irq_state+0x1a>
    88ee:	f881 202c 	strb.w	r2, [r1, #44]	; 0x2c
    88f2:	4770      	bx	lr
    88f4:	2a02      	cmp	r2, #2
    88f6:	d0f9      	beq.n	88ec <_adc_async_set_irq_state+0x8>
    88f8:	b91a      	cbnz	r2, 8902 <_adc_async_set_irq_state+0x1e>
    88fa:	2201      	movs	r2, #1
    88fc:	e7f6      	b.n	88ec <_adc_async_set_irq_state+0x8>
    88fe:	f881 202d 	strb.w	r2, [r1, #45]	; 0x2d
    8902:	4770      	bx	lr

00008904 <ADC0_1_Handler>:
    8904:	4b01      	ldr	r3, [pc, #4]	; (890c <ADC0_1_Handler+0x8>)
    8906:	6818      	ldr	r0, [r3, #0]
    8908:	4b01      	ldr	r3, [pc, #4]	; (8910 <ADC0_1_Handler+0xc>)
    890a:	4718      	bx	r3
    890c:	200007fc 	.word	0x200007fc
    8910:	000086cd 	.word	0x000086cd

00008914 <ADC0_0_Handler>:
    8914:	4b00      	ldr	r3, [pc, #0]	; (8918 <ADC0_0_Handler+0x4>)
    8916:	4718      	bx	r3
    8918:	00008905 	.word	0x00008905

0000891c <ADC1_1_Handler>:
    891c:	4b01      	ldr	r3, [pc, #4]	; (8924 <ADC1_1_Handler+0x8>)
    891e:	6858      	ldr	r0, [r3, #4]
    8920:	4b01      	ldr	r3, [pc, #4]	; (8928 <ADC1_1_Handler+0xc>)
    8922:	4718      	bx	r3
    8924:	200007fc 	.word	0x200007fc
    8928:	000086cd 	.word	0x000086cd

0000892c <ADC1_0_Handler>:
    892c:	4b00      	ldr	r3, [pc, #0]	; (8930 <ADC1_0_Handler+0x4>)
    892e:	4718      	bx	r3
    8930:	0000891d 	.word	0x0000891d

00008934 <_irq_set>:
    8934:	0943      	lsrs	r3, r0, #5
    8936:	2201      	movs	r2, #1
    8938:	f000 001f 	and.w	r0, r0, #31
    893c:	fa02 f000 	lsl.w	r0, r2, r0
    8940:	3340      	adds	r3, #64	; 0x40
    8942:	4a02      	ldr	r2, [pc, #8]	; (894c <_irq_set+0x18>)
    8944:	f842 0023 	str.w	r0, [r2, r3, lsl #2]
    8948:	4770      	bx	lr
    894a:	bf00      	nop
    894c:	e000e100 	.word	0xe000e100

00008950 <_get_cycles_for_ms>:
    8950:	4b01      	ldr	r3, [pc, #4]	; (8958 <_get_cycles_for_ms+0x8>)
    8952:	4358      	muls	r0, r3
    8954:	4770      	bx	lr
    8956:	bf00      	nop
    8958:	0001d4c0 	.word	0x0001d4c0

0000895c <_init_chip>:
    895c:	b510      	push	{r4, lr}
    895e:	4a0e      	ldr	r2, [pc, #56]	; (8998 <_init_chip+0x3c>)
    8960:	4c0e      	ldr	r4, [pc, #56]	; (899c <_init_chip+0x40>)
    8962:	8813      	ldrh	r3, [r2, #0]
    8964:	b29b      	uxth	r3, r3
    8966:	f443 63a0 	orr.w	r3, r3, #1280	; 0x500
    896a:	8013      	strh	r3, [r2, #0]
    896c:	4b0c      	ldr	r3, [pc, #48]	; (89a0 <_init_chip+0x44>)
    896e:	4798      	blx	r3
    8970:	4b0c      	ldr	r3, [pc, #48]	; (89a4 <_init_chip+0x48>)
    8972:	4798      	blx	r3
    8974:	4b0c      	ldr	r3, [pc, #48]	; (89a8 <_init_chip+0x4c>)
    8976:	4798      	blx	r3
    8978:	2004      	movs	r0, #4
    897a:	47a0      	blx	r4
    897c:	4b0b      	ldr	r3, [pc, #44]	; (89ac <_init_chip+0x50>)
    897e:	4798      	blx	r3
    8980:	f640 70fb 	movw	r0, #4091	; 0xffb
    8984:	47a0      	blx	r4
    8986:	4a0a      	ldr	r2, [pc, #40]	; (89b0 <_init_chip+0x54>)
    8988:	6913      	ldr	r3, [r2, #16]
    898a:	f443 7300 	orr.w	r3, r3, #512	; 0x200
    898e:	6113      	str	r3, [r2, #16]
    8990:	e8bd 4010 	ldmia.w	sp!, {r4, lr}
    8994:	4b07      	ldr	r3, [pc, #28]	; (89b4 <_init_chip+0x58>)
    8996:	4718      	bx	r3
    8998:	41004000 	.word	0x41004000
    899c:	00008c6d 	.word	0x00008c6d
    89a0:	00008d51 	.word	0x00008d51
    89a4:	00008d65 	.word	0x00008d65
    89a8:	00008cc5 	.word	0x00008cc5
    89ac:	00008d69 	.word	0x00008d69
    89b0:	40000800 	.word	0x40000800
    89b4:	00008a09 	.word	0x00008a09

000089b8 <_dmac_handler>:
    89b8:	b410      	push	{r4}
    89ba:	4b11      	ldr	r3, [pc, #68]	; (8a00 <_dmac_handler+0x48>)
    89bc:	4c11      	ldr	r4, [pc, #68]	; (8a04 <_dmac_handler+0x4c>)
    89be:	8c19      	ldrh	r1, [r3, #32]
    89c0:	f001 011f 	and.w	r1, r1, #31
    89c4:	eb03 1301 	add.w	r3, r3, r1, lsl #4
    89c8:	220c      	movs	r2, #12
    89ca:	434a      	muls	r2, r1
    89cc:	f893 104e 	ldrb.w	r1, [r3, #78]	; 0x4e
    89d0:	07c9      	lsls	r1, r1, #31
    89d2:	eb04 0002 	add.w	r0, r4, r2
    89d6:	d506      	bpl.n	89e6 <_dmac_handler+0x2e>
    89d8:	2201      	movs	r2, #1
    89da:	f883 204e 	strb.w	r2, [r3, #78]	; 0x4e
    89de:	6843      	ldr	r3, [r0, #4]
    89e0:	f85d 4b04 	ldr.w	r4, [sp], #4
    89e4:	4718      	bx	r3
    89e6:	f893 104e 	ldrb.w	r1, [r3, #78]	; 0x4e
    89ea:	0789      	lsls	r1, r1, #30
    89ec:	d504      	bpl.n	89f8 <_dmac_handler+0x40>
    89ee:	2102      	movs	r1, #2
    89f0:	f883 104e 	strb.w	r1, [r3, #78]	; 0x4e
    89f4:	58a3      	ldr	r3, [r4, r2]
    89f6:	e7f3      	b.n	89e0 <_dmac_handler+0x28>
    89f8:	f85d 4b04 	ldr.w	r4, [sp], #4
    89fc:	4770      	bx	lr
    89fe:	bf00      	nop
    8a00:	4100a000 	.word	0x4100a000
    8a04:	20000804 	.word	0x20000804

00008a08 <_dma_init>:
    8a08:	b570      	push	{r4, r5, r6, lr}
    8a0a:	4b2f      	ldr	r3, [pc, #188]	; (8ac8 <_dma_init+0xc0>)
    8a0c:	881a      	ldrh	r2, [r3, #0]
    8a0e:	f022 0202 	bic.w	r2, r2, #2
    8a12:	0412      	lsls	r2, r2, #16
    8a14:	0c12      	lsrs	r2, r2, #16
    8a16:	801a      	strh	r2, [r3, #0]
    8a18:	885a      	ldrh	r2, [r3, #2]
    8a1a:	f422 527c 	bic.w	r2, r2, #16128	; 0x3f00
    8a1e:	0412      	lsls	r2, r2, #16
    8a20:	0c12      	lsrs	r2, r2, #16
    8a22:	805a      	strh	r2, [r3, #2]
    8a24:	881a      	ldrh	r2, [r3, #0]
    8a26:	b292      	uxth	r2, r2
    8a28:	f042 0201 	orr.w	r2, r2, #1
    8a2c:	801a      	strh	r2, [r3, #0]
    8a2e:	881a      	ldrh	r2, [r3, #0]
    8a30:	f012 0201 	ands.w	r2, r2, #1
    8a34:	d1fb      	bne.n	8a2e <_dma_init+0x26>
    8a36:	f44f 6170 	mov.w	r1, #3840	; 0xf00
    8a3a:	8019      	strh	r1, [r3, #0]
    8a3c:	7b59      	ldrb	r1, [r3, #13]
    8a3e:	4823      	ldr	r0, [pc, #140]	; (8acc <_dma_init+0xc4>)
    8a40:	f001 01fe 	and.w	r1, r1, #254	; 0xfe
    8a44:	f041 0101 	orr.w	r1, r1, #1
    8a48:	7359      	strb	r1, [r3, #13]
    8a4a:	4921      	ldr	r1, [pc, #132]	; (8ad0 <_dma_init+0xc8>)
    8a4c:	615a      	str	r2, [r3, #20]
    8a4e:	6358      	str	r0, [r3, #52]	; 0x34
    8a50:	6399      	str	r1, [r3, #56]	; 0x38
    8a52:	4613      	mov	r3, r2
    8a54:	491f      	ldr	r1, [pc, #124]	; (8ad4 <_dma_init+0xcc>)
    8a56:	4602      	mov	r2, r0
    8a58:	461d      	mov	r5, r3
    8a5a:	011c      	lsls	r4, r3, #4
    8a5c:	f104 4082 	add.w	r0, r4, #1090519040	; 0x41000000
    8a60:	f500 4020 	add.w	r0, r0, #40960	; 0xa000
    8a64:	680e      	ldr	r6, [r1, #0]
    8a66:	6406      	str	r6, [r0, #64]	; 0x40
    8a68:	790e      	ldrb	r6, [r1, #4]
    8a6a:	f880 6045 	strb.w	r6, [r0, #69]	; 0x45
    8a6e:	794e      	ldrb	r6, [r1, #5]
    8a70:	f880 6046 	strb.w	r6, [r0, #70]	; 0x46
    8a74:	3301      	adds	r3, #1
    8a76:	1910      	adds	r0, r2, r4
    8a78:	88ce      	ldrh	r6, [r1, #6]
    8a7a:	5316      	strh	r6, [r2, r4]
    8a7c:	2b20      	cmp	r3, #32
    8a7e:	60c5      	str	r5, [r0, #12]
    8a80:	f101 0108 	add.w	r1, r1, #8
    8a84:	d1e9      	bne.n	8a5a <_dma_init+0x52>
    8a86:	221f      	movs	r2, #31
    8a88:	2001      	movs	r0, #1
    8a8a:	0953      	lsrs	r3, r2, #5
    8a8c:	009b      	lsls	r3, r3, #2
    8a8e:	f103 4360 	add.w	r3, r3, #3758096384	; 0xe0000000
    8a92:	f002 011f 	and.w	r1, r2, #31
    8a96:	f503 4361 	add.w	r3, r3, #57600	; 0xe100
    8a9a:	fa00 f101 	lsl.w	r1, r0, r1
    8a9e:	f8c3 1080 	str.w	r1, [r3, #128]	; 0x80
    8aa2:	f3bf 8f4f 	dsb	sy
    8aa6:	f3bf 8f6f 	isb	sy
    8aaa:	3201      	adds	r2, #1
    8aac:	2a24      	cmp	r2, #36	; 0x24
    8aae:	f8c3 1180 	str.w	r1, [r3, #384]	; 0x180
    8ab2:	6019      	str	r1, [r3, #0]
    8ab4:	d1e9      	bne.n	8a8a <_dma_init+0x82>
    8ab6:	4a04      	ldr	r2, [pc, #16]	; (8ac8 <_dma_init+0xc0>)
    8ab8:	8813      	ldrh	r3, [r2, #0]
    8aba:	b29b      	uxth	r3, r3
    8abc:	f043 0302 	orr.w	r3, r3, #2
    8ac0:	8013      	strh	r3, [r2, #0]
    8ac2:	2000      	movs	r0, #0
    8ac4:	bd70      	pop	{r4, r5, r6, pc}
    8ac6:	bf00      	nop
    8ac8:	4100a000 	.word	0x4100a000
    8acc:	20003a40 	.word	0x20003a40
    8ad0:	20003c40 	.word	0x20003c40
    8ad4:	0000dd34 	.word	0x0000dd34

00008ad8 <_dma_set_irq_state>:
    8ad8:	b939      	cbnz	r1, 8aea <_dma_set_irq_state+0x12>
    8ada:	4b08      	ldr	r3, [pc, #32]	; (8afc <_dma_set_irq_state+0x24>)
    8adc:	0100      	lsls	r0, r0, #4
    8ade:	2102      	movs	r1, #2
    8ae0:	4418      	add	r0, r3
    8ae2:	b93a      	cbnz	r2, 8af4 <_dma_set_irq_state+0x1c>
    8ae4:	f880 104c 	strb.w	r1, [r0, #76]	; 0x4c
    8ae8:	4770      	bx	lr
    8aea:	2901      	cmp	r1, #1
    8aec:	d104      	bne.n	8af8 <_dma_set_irq_state+0x20>
    8aee:	4b03      	ldr	r3, [pc, #12]	; (8afc <_dma_set_irq_state+0x24>)
    8af0:	0100      	lsls	r0, r0, #4
    8af2:	e7f5      	b.n	8ae0 <_dma_set_irq_state+0x8>
    8af4:	f880 104d 	strb.w	r1, [r0, #77]	; 0x4d
    8af8:	4770      	bx	lr
    8afa:	bf00      	nop
    8afc:	4100a000 	.word	0x4100a000

00008b00 <_dma_set_destination_address>:
    8b00:	4b02      	ldr	r3, [pc, #8]	; (8b0c <_dma_set_destination_address+0xc>)
    8b02:	eb03 1000 	add.w	r0, r3, r0, lsl #4
    8b06:	6081      	str	r1, [r0, #8]
    8b08:	2000      	movs	r0, #0
    8b0a:	4770      	bx	lr
    8b0c:	20003a40 	.word	0x20003a40

00008b10 <_dma_set_source_address>:
    8b10:	4b02      	ldr	r3, [pc, #8]	; (8b1c <_dma_set_source_address+0xc>)
    8b12:	eb03 1000 	add.w	r0, r3, r0, lsl #4
    8b16:	6041      	str	r1, [r0, #4]
    8b18:	2000      	movs	r0, #0
    8b1a:	4770      	bx	lr
    8b1c:	20003a40 	.word	0x20003a40

00008b20 <_dma_srcinc_enable>:
    8b20:	4a05      	ldr	r2, [pc, #20]	; (8b38 <_dma_srcinc_enable+0x18>)
    8b22:	0100      	lsls	r0, r0, #4
    8b24:	5a13      	ldrh	r3, [r2, r0]
    8b26:	b29b      	uxth	r3, r3
    8b28:	f423 6380 	bic.w	r3, r3, #1024	; 0x400
    8b2c:	ea43 2181 	orr.w	r1, r3, r1, lsl #10
    8b30:	b289      	uxth	r1, r1
    8b32:	5211      	strh	r1, [r2, r0]
    8b34:	2000      	movs	r0, #0
    8b36:	4770      	bx	lr
    8b38:	20003a40 	.word	0x20003a40

00008b3c <_dma_set_data_amount>:
    8b3c:	b570      	push	{r4, r5, r6, lr}
    8b3e:	4b0f      	ldr	r3, [pc, #60]	; (8b7c <_dma_set_data_amount+0x40>)
    8b40:	0100      	lsls	r0, r0, #4
    8b42:	181d      	adds	r5, r3, r0
    8b44:	68ae      	ldr	r6, [r5, #8]
    8b46:	5a1a      	ldrh	r2, [r3, r0]
    8b48:	5a1c      	ldrh	r4, [r3, r0]
    8b4a:	f3c2 2201 	ubfx	r2, r2, #8, #2
    8b4e:	0524      	lsls	r4, r4, #20
    8b50:	bf42      	ittt	mi
    8b52:	fa01 f402 	lslmi.w	r4, r1, r2
    8b56:	19a4      	addmi	r4, r4, r6
    8b58:	60ac      	strmi	r4, [r5, #8]
    8b5a:	181c      	adds	r4, r3, r0
    8b5c:	6865      	ldr	r5, [r4, #4]
    8b5e:	5a1e      	ldrh	r6, [r3, r0]
    8b60:	0576      	lsls	r6, r6, #21
    8b62:	bf48      	it	mi
    8b64:	fa01 f202 	lslmi.w	r2, r1, r2
    8b68:	4403      	add	r3, r0
    8b6a:	bf48      	it	mi
    8b6c:	1952      	addmi	r2, r2, r5
    8b6e:	b289      	uxth	r1, r1
    8b70:	bf48      	it	mi
    8b72:	6062      	strmi	r2, [r4, #4]
    8b74:	8059      	strh	r1, [r3, #2]
    8b76:	2000      	movs	r0, #0
    8b78:	bd70      	pop	{r4, r5, r6, pc}
    8b7a:	bf00      	nop
    8b7c:	20003a40 	.word	0x20003a40

00008b80 <_dma_enable_transaction>:
    8b80:	b510      	push	{r4, lr}
    8b82:	0102      	lsls	r2, r0, #4
    8b84:	4c0b      	ldr	r4, [pc, #44]	; (8bb4 <_dma_enable_transaction+0x34>)
    8b86:	5aa3      	ldrh	r3, [r4, r2]
    8b88:	b29b      	uxth	r3, r3
    8b8a:	f043 0301 	orr.w	r3, r3, #1
    8b8e:	52a3      	strh	r3, [r4, r2]
    8b90:	f102 4382 	add.w	r3, r2, #1090519040	; 0x41000000
    8b94:	f503 4320 	add.w	r3, r3, #40960	; 0xa000
    8b98:	6c1a      	ldr	r2, [r3, #64]	; 0x40
    8b9a:	f042 0202 	orr.w	r2, r2, #2
    8b9e:	641a      	str	r2, [r3, #64]	; 0x40
    8ba0:	b131      	cbz	r1, 8bb0 <_dma_enable_transaction+0x30>
    8ba2:	4a05      	ldr	r2, [pc, #20]	; (8bb8 <_dma_enable_transaction+0x38>)
    8ba4:	2301      	movs	r3, #1
    8ba6:	6911      	ldr	r1, [r2, #16]
    8ba8:	fa03 f000 	lsl.w	r0, r3, r0
    8bac:	4308      	orrs	r0, r1
    8bae:	6110      	str	r0, [r2, #16]
    8bb0:	2000      	movs	r0, #0
    8bb2:	bd10      	pop	{r4, pc}
    8bb4:	20003a40 	.word	0x20003a40
    8bb8:	4100a000 	.word	0x4100a000

00008bbc <_dma_get_channel_resource>:
    8bbc:	4b03      	ldr	r3, [pc, #12]	; (8bcc <_dma_get_channel_resource+0x10>)
    8bbe:	eb01 0141 	add.w	r1, r1, r1, lsl #1
    8bc2:	eb03 0181 	add.w	r1, r3, r1, lsl #2
    8bc6:	6001      	str	r1, [r0, #0]
    8bc8:	2000      	movs	r0, #0
    8bca:	4770      	bx	lr
    8bcc:	20000804 	.word	0x20000804

00008bd0 <DMAC_0_Handler>:
    8bd0:	4b00      	ldr	r3, [pc, #0]	; (8bd4 <DMAC_0_Handler+0x4>)
    8bd2:	4718      	bx	r3
    8bd4:	000089b9 	.word	0x000089b9

00008bd8 <DMAC_1_Handler>:
    8bd8:	4b00      	ldr	r3, [pc, #0]	; (8bdc <DMAC_1_Handler+0x4>)
    8bda:	4718      	bx	r3
    8bdc:	000089b9 	.word	0x000089b9

00008be0 <DMAC_2_Handler>:
    8be0:	4b00      	ldr	r3, [pc, #0]	; (8be4 <DMAC_2_Handler+0x4>)
    8be2:	4718      	bx	r3
    8be4:	000089b9 	.word	0x000089b9

00008be8 <DMAC_3_Handler>:
    8be8:	4b00      	ldr	r3, [pc, #0]	; (8bec <DMAC_3_Handler+0x4>)
    8bea:	4718      	bx	r3
    8bec:	000089b9 	.word	0x000089b9

00008bf0 <DMAC_4_Handler>:
    8bf0:	4b00      	ldr	r3, [pc, #0]	; (8bf4 <DMAC_4_Handler+0x4>)
    8bf2:	4718      	bx	r3
    8bf4:	000089b9 	.word	0x000089b9

00008bf8 <_crc_sync_init>:
    8bf8:	6001      	str	r1, [r0, #0]
    8bfa:	2000      	movs	r0, #0
    8bfc:	4770      	bx	lr
	...

00008c00 <_event_system_init>:
    8c00:	b510      	push	{r4, lr}
    8c02:	4a12      	ldr	r2, [pc, #72]	; (8c4c <_event_system_init+0x4c>)
    8c04:	4c12      	ldr	r4, [pc, #72]	; (8c50 <_event_system_init+0x50>)
    8c06:	2300      	movs	r3, #0
    8c08:	5d18      	ldrb	r0, [r3, r4]
    8c0a:	f103 0148 	add.w	r1, r3, #72	; 0x48
    8c0e:	3301      	adds	r3, #1
    8c10:	2b43      	cmp	r3, #67	; 0x43
    8c12:	f842 0021 	str.w	r0, [r2, r1, lsl #2]
    8c16:	d1f7      	bne.n	8c08 <_event_system_init+0x8>
    8c18:	480e      	ldr	r0, [pc, #56]	; (8c54 <_event_system_init+0x54>)
    8c1a:	2200      	movs	r2, #0
    8c1c:	f100 0440 	add.w	r4, r0, #64	; 0x40
    8c20:	00d3      	lsls	r3, r2, #3
    8c22:	f103 4382 	add.w	r3, r3, #1090519040	; 0x41000000
    8c26:	f503 4360 	add.w	r3, r3, #57344	; 0xe000
    8c2a:	f830 1012 	ldrh.w	r1, [r0, r2, lsl #1]
    8c2e:	6219      	str	r1, [r3, #32]
    8c30:	f814 1022 	ldrb.w	r1, [r4, r2, lsl #2]
    8c34:	f883 1025 	strb.w	r1, [r3, #37]	; 0x25
    8c38:	3201      	adds	r2, #1
    8c3a:	43c9      	mvns	r1, r1
    8c3c:	b2c9      	uxtb	r1, r1
    8c3e:	2a20      	cmp	r2, #32
    8c40:	f883 1024 	strb.w	r1, [r3, #36]	; 0x24
    8c44:	d1ec      	bne.n	8c20 <_event_system_init+0x20>
    8c46:	2000      	movs	r0, #0
    8c48:	bd10      	pop	{r4, pc}
    8c4a:	bf00      	nop
    8c4c:	4100e000 	.word	0x4100e000
    8c50:	0000de34 	.word	0x0000de34
    8c54:	0000de78 	.word	0x0000de78

00008c58 <hri_gclk_wait_for_sync.constprop.0>:
    8c58:	4903      	ldr	r1, [pc, #12]	; (8c68 <hri_gclk_wait_for_sync.constprop.0+0x10>)
    8c5a:	f643 73fd 	movw	r3, #16381	; 0x3ffd
    8c5e:	684a      	ldr	r2, [r1, #4]
    8c60:	421a      	tst	r2, r3
    8c62:	d1fc      	bne.n	8c5e <hri_gclk_wait_for_sync.constprop.0+0x6>
    8c64:	4770      	bx	lr
    8c66:	bf00      	nop
    8c68:	40001c00 	.word	0x40001c00

00008c6c <_gclk_init_generators_by_fref>:
    8c6c:	b510      	push	{r4, lr}
    8c6e:	07c4      	lsls	r4, r0, #31
    8c70:	d504      	bpl.n	8c7c <_gclk_init_generators_by_fref+0x10>
    8c72:	4b0e      	ldr	r3, [pc, #56]	; (8cac <_gclk_init_generators_by_fref+0x40>)
    8c74:	4a0e      	ldr	r2, [pc, #56]	; (8cb0 <_gclk_init_generators_by_fref+0x44>)
    8c76:	621a      	str	r2, [r3, #32]
    8c78:	4b0e      	ldr	r3, [pc, #56]	; (8cb4 <_gclk_init_generators_by_fref+0x48>)
    8c7a:	4798      	blx	r3
    8c7c:	0781      	lsls	r1, r0, #30
    8c7e:	d504      	bpl.n	8c8a <_gclk_init_generators_by_fref+0x1e>
    8c80:	4b0a      	ldr	r3, [pc, #40]	; (8cac <_gclk_init_generators_by_fref+0x40>)
    8c82:	4a0d      	ldr	r2, [pc, #52]	; (8cb8 <_gclk_init_generators_by_fref+0x4c>)
    8c84:	625a      	str	r2, [r3, #36]	; 0x24
    8c86:	4b0b      	ldr	r3, [pc, #44]	; (8cb4 <_gclk_init_generators_by_fref+0x48>)
    8c88:	4798      	blx	r3
    8c8a:	0742      	lsls	r2, r0, #29
    8c8c:	d504      	bpl.n	8c98 <_gclk_init_generators_by_fref+0x2c>
    8c8e:	4b07      	ldr	r3, [pc, #28]	; (8cac <_gclk_init_generators_by_fref+0x40>)
    8c90:	4a0a      	ldr	r2, [pc, #40]	; (8cbc <_gclk_init_generators_by_fref+0x50>)
    8c92:	629a      	str	r2, [r3, #40]	; 0x28
    8c94:	4b07      	ldr	r3, [pc, #28]	; (8cb4 <_gclk_init_generators_by_fref+0x48>)
    8c96:	4798      	blx	r3
    8c98:	0703      	lsls	r3, r0, #28
    8c9a:	d506      	bpl.n	8caa <_gclk_init_generators_by_fref+0x3e>
    8c9c:	4b03      	ldr	r3, [pc, #12]	; (8cac <_gclk_init_generators_by_fref+0x40>)
    8c9e:	4a08      	ldr	r2, [pc, #32]	; (8cc0 <_gclk_init_generators_by_fref+0x54>)
    8ca0:	62da      	str	r2, [r3, #44]	; 0x2c
    8ca2:	e8bd 4010 	ldmia.w	sp!, {r4, lr}
    8ca6:	4b03      	ldr	r3, [pc, #12]	; (8cb4 <_gclk_init_generators_by_fref+0x48>)
    8ca8:	4718      	bx	r3
    8caa:	bd10      	pop	{r4, pc}
    8cac:	40001c00 	.word	0x40001c00
    8cb0:	00010108 	.word	0x00010108
    8cb4:	00008c59 	.word	0x00008c59
    8cb8:	00010106 	.word	0x00010106
    8cbc:	00100106 	.word	0x00100106
    8cc0:	00010104 	.word	0x00010104

00008cc4 <_mclk_init>:
    8cc4:	4b01      	ldr	r3, [pc, #4]	; (8ccc <_mclk_init+0x8>)
    8cc6:	2201      	movs	r2, #1
    8cc8:	715a      	strb	r2, [r3, #5]
    8cca:	4770      	bx	lr
    8ccc:	40000800 	.word	0x40000800

00008cd0 <_flash_init>:
    8cd0:	6101      	str	r1, [r0, #16]
    8cd2:	880b      	ldrh	r3, [r1, #0]
    8cd4:	f023 03c0 	bic.w	r3, r3, #192	; 0xc0
    8cd8:	049b      	lsls	r3, r3, #18
    8cda:	0c9b      	lsrs	r3, r3, #18
    8cdc:	800b      	strh	r3, [r1, #0]
    8cde:	4b0d      	ldr	r3, [pc, #52]	; (8d14 <_flash_init+0x44>)
    8ce0:	6018      	str	r0, [r3, #0]
    8ce2:	4b0d      	ldr	r3, [pc, #52]	; (8d18 <_flash_init+0x48>)
    8ce4:	f04f 5100 	mov.w	r1, #536870912	; 0x20000000
    8ce8:	f8c3 1080 	str.w	r1, [r3, #128]	; 0x80
    8cec:	f3bf 8f4f 	dsb	sy
    8cf0:	f3bf 8f6f 	isb	sy
    8cf4:	f04f 4280 	mov.w	r2, #1073741824	; 0x40000000
    8cf8:	f8c3 2080 	str.w	r2, [r3, #128]	; 0x80
    8cfc:	f3bf 8f4f 	dsb	sy
    8d00:	f3bf 8f6f 	isb	sy
    8d04:	2000      	movs	r0, #0
    8d06:	f8c3 1180 	str.w	r1, [r3, #384]	; 0x180
    8d0a:	f8c3 2180 	str.w	r2, [r3, #384]	; 0x180
    8d0e:	6019      	str	r1, [r3, #0]
    8d10:	601a      	str	r2, [r3, #0]
    8d12:	4770      	bx	lr
    8d14:	20000984 	.word	0x20000984
    8d18:	e000e100 	.word	0xe000e100

00008d1c <NVMCTRL_1_Handler>:
    8d1c:	4b09      	ldr	r3, [pc, #36]	; (8d44 <NVMCTRL_1_Handler+0x28>)
    8d1e:	6818      	ldr	r0, [r3, #0]
    8d20:	6903      	ldr	r3, [r0, #16]
    8d22:	8a1a      	ldrh	r2, [r3, #16]
    8d24:	07d2      	lsls	r2, r2, #31
    8d26:	d504      	bpl.n	8d32 <NVMCTRL_1_Handler+0x16>
    8d28:	2201      	movs	r2, #1
    8d2a:	821a      	strh	r2, [r3, #16]
    8d2c:	6803      	ldr	r3, [r0, #0]
    8d2e:	b143      	cbz	r3, 8d42 <NVMCTRL_1_Handler+0x26>
    8d30:	4718      	bx	r3
    8d32:	8a1a      	ldrh	r2, [r3, #16]
    8d34:	b292      	uxth	r2, r2
    8d36:	b122      	cbz	r2, 8d42 <NVMCTRL_1_Handler+0x26>
    8d38:	f240 225e 	movw	r2, #606	; 0x25e
    8d3c:	821a      	strh	r2, [r3, #16]
    8d3e:	6843      	ldr	r3, [r0, #4]
    8d40:	e7f5      	b.n	8d2e <NVMCTRL_1_Handler+0x12>
    8d42:	4770      	bx	lr
    8d44:	20000984 	.word	0x20000984

00008d48 <NVMCTRL_0_Handler>:
    8d48:	4b00      	ldr	r3, [pc, #0]	; (8d4c <NVMCTRL_0_Handler+0x4>)
    8d4a:	4718      	bx	r3
    8d4c:	00008d1d 	.word	0x00008d1d

00008d50 <_osc32kctrl_init_sources>:
    8d50:	4b03      	ldr	r3, [pc, #12]	; (8d60 <_osc32kctrl_init_sources+0x10>)
    8d52:	69da      	ldr	r2, [r3, #28]
    8d54:	f402 527c 	and.w	r2, r2, #16128	; 0x3f00
    8d58:	61da      	str	r2, [r3, #28]
    8d5a:	2201      	movs	r2, #1
    8d5c:	741a      	strb	r2, [r3, #16]
    8d5e:	4770      	bx	lr
    8d60:	40001400 	.word	0x40001400

00008d64 <_oscctrl_init_sources>:
    8d64:	4770      	bx	lr
	...

00008d68 <_oscctrl_init_referenced_generators>:
    8d68:	4b3b      	ldr	r3, [pc, #236]	; (8e58 <_oscctrl_init_referenced_generators+0xf0>)
    8d6a:	6a1a      	ldr	r2, [r3, #32]
    8d6c:	f022 020f 	bic.w	r2, r2, #15
    8d70:	f042 0204 	orr.w	r2, r2, #4
    8d74:	621a      	str	r2, [r3, #32]
    8d76:	f643 72fd 	movw	r2, #16381	; 0x3ffd
    8d7a:	6859      	ldr	r1, [r3, #4]
    8d7c:	4211      	tst	r1, r2
    8d7e:	d1fc      	bne.n	8d7a <_oscctrl_init_referenced_generators+0x12>
    8d80:	685a      	ldr	r2, [r3, #4]
    8d82:	f012 0204 	ands.w	r2, r2, #4
    8d86:	d1fb      	bne.n	8d80 <_oscctrl_init_referenced_generators+0x18>
    8d88:	4b34      	ldr	r3, [pc, #208]	; (8e5c <_oscctrl_init_referenced_generators+0xf4>)
    8d8a:	771a      	strb	r2, [r3, #28]
    8d8c:	4a34      	ldr	r2, [pc, #208]	; (8e60 <_oscctrl_init_referenced_generators+0xf8>)
    8d8e:	629a      	str	r2, [r3, #40]	; 0x28
    8d90:	f893 202c 	ldrb.w	r2, [r3, #44]	; 0x2c
    8d94:	f012 0210 	ands.w	r2, r2, #16
    8d98:	d1fa      	bne.n	8d90 <_oscctrl_init_referenced_generators+0x28>
    8d9a:	f883 2020 	strb.w	r2, [r3, #32]
    8d9e:	4a2f      	ldr	r2, [pc, #188]	; (8e5c <_oscctrl_init_referenced_generators+0xf4>)
    8da0:	4613      	mov	r3, r2
    8da2:	f892 102c 	ldrb.w	r1, [r2, #44]	; 0x2c
    8da6:	0749      	lsls	r1, r1, #29
    8da8:	d4fb      	bmi.n	8da2 <_oscctrl_init_referenced_generators+0x3a>
    8daa:	2102      	movs	r1, #2
    8dac:	7711      	strb	r1, [r2, #28]
    8dae:	f893 202c 	ldrb.w	r2, [r3, #44]	; 0x2c
    8db2:	0792      	lsls	r2, r2, #30
    8db4:	d4fb      	bmi.n	8dae <_oscctrl_init_referenced_generators+0x46>
    8db6:	6a5a      	ldr	r2, [r3, #36]	; 0x24
    8db8:	625a      	str	r2, [r3, #36]	; 0x24
    8dba:	4b28      	ldr	r3, [pc, #160]	; (8e5c <_oscctrl_init_referenced_generators+0xf4>)
    8dbc:	461a      	mov	r2, r3
    8dbe:	f893 102c 	ldrb.w	r1, [r3, #44]	; 0x2c
    8dc2:	0708      	lsls	r0, r1, #28
    8dc4:	d4fb      	bmi.n	8dbe <_oscctrl_init_referenced_generators+0x56>
    8dc6:	2188      	movs	r1, #136	; 0x88
    8dc8:	f883 1020 	strb.w	r1, [r3, #32]
    8dcc:	f892 302c 	ldrb.w	r3, [r2, #44]	; 0x2c
    8dd0:	0759      	lsls	r1, r3, #29
    8dd2:	d4fb      	bmi.n	8dcc <_oscctrl_init_referenced_generators+0x64>
    8dd4:	4b20      	ldr	r3, [pc, #128]	; (8e58 <_oscctrl_init_referenced_generators+0xf0>)
    8dd6:	2142      	movs	r1, #66	; 0x42
    8dd8:	f8c3 1088 	str.w	r1, [r3, #136]	; 0x88
    8ddc:	2327      	movs	r3, #39	; 0x27
    8dde:	6493      	str	r3, [r2, #72]	; 0x48
    8de0:	4b1e      	ldr	r3, [pc, #120]	; (8e5c <_oscctrl_init_referenced_generators+0xf4>)
    8de2:	461a      	mov	r2, r3
    8de4:	6d19      	ldr	r1, [r3, #80]	; 0x50
    8de6:	f011 0f06 	tst.w	r1, #6
    8dea:	d1fb      	bne.n	8de4 <_oscctrl_init_referenced_generators+0x7c>
    8dec:	f44f 6100 	mov.w	r1, #2048	; 0x800
    8df0:	64d9      	str	r1, [r3, #76]	; 0x4c
    8df2:	2102      	movs	r1, #2
    8df4:	f883 1044 	strb.w	r1, [r3, #68]	; 0x44
    8df8:	6d13      	ldr	r3, [r2, #80]	; 0x50
    8dfa:	079b      	lsls	r3, r3, #30
    8dfc:	d4fc      	bmi.n	8df8 <_oscctrl_init_referenced_generators+0x90>
    8dfe:	f892 3020 	ldrb.w	r3, [r2, #32]
    8e02:	4a16      	ldr	r2, [pc, #88]	; (8e5c <_oscctrl_init_referenced_generators+0xf4>)
    8e04:	f013 0f01 	tst.w	r3, #1
    8e08:	d021      	beq.n	8e4e <_oscctrl_init_referenced_generators+0xe6>
    8e0a:	6913      	ldr	r3, [r2, #16]
    8e0c:	f403 6310 	and.w	r3, r3, #2304	; 0x900
    8e10:	f5b3 6f10 	cmp.w	r3, #2304	; 0x900
    8e14:	d1f9      	bne.n	8e0a <_oscctrl_init_referenced_generators+0xa2>
    8e16:	4b11      	ldr	r3, [pc, #68]	; (8e5c <_oscctrl_init_referenced_generators+0xf4>)
    8e18:	6d5a      	ldr	r2, [r3, #84]	; 0x54
    8e1a:	07d1      	lsls	r1, r2, #31
    8e1c:	d402      	bmi.n	8e24 <_oscctrl_init_referenced_generators+0xbc>
    8e1e:	6d5a      	ldr	r2, [r3, #84]	; 0x54
    8e20:	0792      	lsls	r2, r2, #30
    8e22:	d5f9      	bpl.n	8e18 <_oscctrl_init_referenced_generators+0xb0>
    8e24:	4a0c      	ldr	r2, [pc, #48]	; (8e58 <_oscctrl_init_referenced_generators+0xf0>)
    8e26:	4611      	mov	r1, r2
    8e28:	6853      	ldr	r3, [r2, #4]
    8e2a:	2b00      	cmp	r3, #0
    8e2c:	d1fc      	bne.n	8e28 <_oscctrl_init_referenced_generators+0xc0>
    8e2e:	6a13      	ldr	r3, [r2, #32]
    8e30:	f023 030f 	bic.w	r3, r3, #15
    8e34:	f043 0308 	orr.w	r3, r3, #8
    8e38:	6213      	str	r3, [r2, #32]
    8e3a:	f643 73fd 	movw	r3, #16381	; 0x3ffd
    8e3e:	684a      	ldr	r2, [r1, #4]
    8e40:	421a      	tst	r2, r3
    8e42:	d1fc      	bne.n	8e3e <_oscctrl_init_referenced_generators+0xd6>
    8e44:	4a04      	ldr	r2, [pc, #16]	; (8e58 <_oscctrl_init_referenced_generators+0xf0>)
    8e46:	6853      	ldr	r3, [r2, #4]
    8e48:	075b      	lsls	r3, r3, #29
    8e4a:	d4fc      	bmi.n	8e46 <_oscctrl_init_referenced_generators+0xde>
    8e4c:	4770      	bx	lr
    8e4e:	6913      	ldr	r3, [r2, #16]
    8e50:	05d8      	lsls	r0, r3, #23
    8e52:	d5fc      	bpl.n	8e4e <_oscctrl_init_referenced_generators+0xe6>
    8e54:	e7df      	b.n	8e16 <_oscctrl_init_referenced_generators+0xae>
    8e56:	bf00      	nop
    8e58:	40001c00 	.word	0x40001c00
    8e5c:	40001000 	.word	0x40001000
    8e60:	04010000 	.word	0x04010000

00008e64 <RAMECC_Handler>:
    8e64:	b507      	push	{r0, r1, r2, lr}
    8e66:	4a0c      	ldr	r2, [pc, #48]	; (8e98 <RAMECC_Handler+0x34>)
    8e68:	7893      	ldrb	r3, [r2, #2]
    8e6a:	b2db      	uxtb	r3, r3
    8e6c:	9301      	str	r3, [sp, #4]
    8e6e:	9b01      	ldr	r3, [sp, #4]
    8e70:	0799      	lsls	r1, r3, #30
    8e72:	d507      	bpl.n	8e84 <RAMECC_Handler+0x20>
    8e74:	4b09      	ldr	r3, [pc, #36]	; (8e9c <RAMECC_Handler+0x38>)
    8e76:	681b      	ldr	r3, [r3, #0]
    8e78:	b123      	cbz	r3, 8e84 <RAMECC_Handler+0x20>
    8e7a:	6850      	ldr	r0, [r2, #4]
    8e7c:	4798      	blx	r3
    8e7e:	b003      	add	sp, #12
    8e80:	f85d fb04 	ldr.w	pc, [sp], #4
    8e84:	9b01      	ldr	r3, [sp, #4]
    8e86:	07db      	lsls	r3, r3, #31
    8e88:	d5f9      	bpl.n	8e7e <RAMECC_Handler+0x1a>
    8e8a:	4b04      	ldr	r3, [pc, #16]	; (8e9c <RAMECC_Handler+0x38>)
    8e8c:	685b      	ldr	r3, [r3, #4]
    8e8e:	2b00      	cmp	r3, #0
    8e90:	d0f5      	beq.n	8e7e <RAMECC_Handler+0x1a>
    8e92:	4a01      	ldr	r2, [pc, #4]	; (8e98 <RAMECC_Handler+0x34>)
    8e94:	e7f1      	b.n	8e7a <RAMECC_Handler+0x16>
    8e96:	bf00      	nop
    8e98:	41020000 	.word	0x41020000
    8e9c:	20003e40 	.word	0x20003e40

00008ea0 <hri_rtcmode0_wait_for_sync>:
    8ea0:	6903      	ldr	r3, [r0, #16]
    8ea2:	420b      	tst	r3, r1
    8ea4:	d1fc      	bne.n	8ea0 <hri_rtcmode0_wait_for_sync>
    8ea6:	4770      	bx	lr

00008ea8 <_rtc_timer_stop>:
    8ea8:	68c0      	ldr	r0, [r0, #12]
    8eaa:	8803      	ldrh	r3, [r0, #0]
    8eac:	f023 0302 	bic.w	r3, r3, #2
    8eb0:	041b      	lsls	r3, r3, #16
    8eb2:	0c1b      	lsrs	r3, r3, #16
    8eb4:	8003      	strh	r3, [r0, #0]
    8eb6:	f248 0103 	movw	r1, #32771	; 0x8003
    8eba:	4b01      	ldr	r3, [pc, #4]	; (8ec0 <_rtc_timer_stop+0x18>)
    8ebc:	4718      	bx	r3
    8ebe:	bf00      	nop
    8ec0:	00008ea1 	.word	0x00008ea1

00008ec4 <_rtc_timer_set_period>:
    8ec4:	68c0      	ldr	r0, [r0, #12]
    8ec6:	4b02      	ldr	r3, [pc, #8]	; (8ed0 <_rtc_timer_set_period+0xc>)
    8ec8:	6201      	str	r1, [r0, #32]
    8eca:	2160      	movs	r1, #96	; 0x60
    8ecc:	4718      	bx	r3
    8ece:	bf00      	nop
    8ed0:	00008ea1 	.word	0x00008ea1

00008ed4 <_rtc_timer_get_period>:
    8ed4:	68c2      	ldr	r2, [r0, #12]
    8ed6:	b508      	push	{r3, lr}
    8ed8:	4610      	mov	r0, r2
    8eda:	2160      	movs	r1, #96	; 0x60
    8edc:	4b01      	ldr	r3, [pc, #4]	; (8ee4 <_rtc_timer_get_period+0x10>)
    8ede:	4798      	blx	r3
    8ee0:	6a10      	ldr	r0, [r2, #32]
    8ee2:	bd08      	pop	{r3, pc}
    8ee4:	00008ea1 	.word	0x00008ea1

00008ee8 <_rtc_timer_is_started>:
    8ee8:	68c2      	ldr	r2, [r0, #12]
    8eea:	b508      	push	{r3, lr}
    8eec:	4610      	mov	r0, r2
    8eee:	f248 0103 	movw	r1, #32771	; 0x8003
    8ef2:	4b03      	ldr	r3, [pc, #12]	; (8f00 <_rtc_timer_is_started+0x18>)
    8ef4:	4798      	blx	r3
    8ef6:	8810      	ldrh	r0, [r2, #0]
    8ef8:	f3c0 0040 	ubfx	r0, r0, #1, #1
    8efc:	bd08      	pop	{r3, pc}
    8efe:	bf00      	nop
    8f00:	00008ea1 	.word	0x00008ea1

00008f04 <_rtc_timer_set_irq>:
    8f04:	4770      	bx	lr
	...

00008f08 <_rtc_timer_start>:
    8f08:	4b0c      	ldr	r3, [pc, #48]	; (8f3c <_rtc_timer_start+0x34>)
    8f0a:	b510      	push	{r4, lr}
    8f0c:	f44f 6200 	mov.w	r2, #2048	; 0x800
    8f10:	4604      	mov	r4, r0
    8f12:	68c0      	ldr	r0, [r0, #12]
    8f14:	601a      	str	r2, [r3, #0]
    8f16:	2300      	movs	r3, #0
    8f18:	6183      	str	r3, [r0, #24]
    8f1a:	2108      	movs	r1, #8
    8f1c:	4a08      	ldr	r2, [pc, #32]	; (8f40 <_rtc_timer_start+0x38>)
    8f1e:	4790      	blx	r2
    8f20:	68e0      	ldr	r0, [r4, #12]
    8f22:	2108      	movs	r1, #8
    8f24:	4790      	blx	r2
    8f26:	68e0      	ldr	r0, [r4, #12]
    8f28:	8803      	ldrh	r3, [r0, #0]
    8f2a:	b29b      	uxth	r3, r3
    8f2c:	f043 0302 	orr.w	r3, r3, #2
    8f30:	8003      	strh	r3, [r0, #0]
    8f32:	f248 0103 	movw	r1, #32771	; 0x8003
    8f36:	e8bd 4010 	ldmia.w	sp!, {r4, lr}
    8f3a:	4710      	bx	r2
    8f3c:	e000e100 	.word	0xe000e100
    8f40:	00008ea1 	.word	0x00008ea1

00008f44 <_rtc_timer_deinit>:
    8f44:	4b07      	ldr	r3, [pc, #28]	; (8f64 <_rtc_timer_deinit+0x20>)
    8f46:	f44f 6200 	mov.w	r2, #2048	; 0x800
    8f4a:	f8c3 2080 	str.w	r2, [r3, #128]	; 0x80
    8f4e:	f3bf 8f4f 	dsb	sy
    8f52:	f3bf 8f6f 	isb	sy
    8f56:	68c0      	ldr	r0, [r0, #12]
    8f58:	2301      	movs	r3, #1
    8f5a:	8003      	strh	r3, [r0, #0]
    8f5c:	f248 0103 	movw	r1, #32771	; 0x8003
    8f60:	4b01      	ldr	r3, [pc, #4]	; (8f68 <_rtc_timer_deinit+0x24>)
    8f62:	4718      	bx	r3
    8f64:	e000e100 	.word	0xe000e100
    8f68:	00008ea1 	.word	0x00008ea1

00008f6c <_rtc_timer_init>:
    8f6c:	4602      	mov	r2, r0
    8f6e:	b538      	push	{r3, r4, r5, lr}
    8f70:	2501      	movs	r5, #1
    8f72:	60d1      	str	r1, [r2, #12]
    8f74:	4c0d      	ldr	r4, [pc, #52]	; (8fac <_rtc_timer_init+0x40>)
    8f76:	800d      	strh	r5, [r1, #0]
    8f78:	4608      	mov	r0, r1
    8f7a:	f248 0103 	movw	r1, #32771	; 0x8003
    8f7e:	47a0      	blx	r4
    8f80:	4629      	mov	r1, r5
    8f82:	68d0      	ldr	r0, [r2, #12]
    8f84:	47a0      	blx	r4
    8f86:	68d0      	ldr	r0, [r2, #12]
    8f88:	f248 0380 	movw	r3, #32896	; 0x8080
    8f8c:	8003      	strh	r3, [r0, #0]
    8f8e:	f248 0103 	movw	r1, #32771	; 0x8003
    8f92:	47a0      	blx	r4
    8f94:	68d0      	ldr	r0, [r2, #12]
    8f96:	2160      	movs	r1, #96	; 0x60
    8f98:	6205      	str	r5, [r0, #32]
    8f9a:	47a0      	blx	r4
    8f9c:	68d3      	ldr	r3, [r2, #12]
    8f9e:	f44f 7180 	mov.w	r1, #256	; 0x100
    8fa2:	8159      	strh	r1, [r3, #10]
    8fa4:	4b02      	ldr	r3, [pc, #8]	; (8fb0 <_rtc_timer_init+0x44>)
    8fa6:	2000      	movs	r0, #0
    8fa8:	601a      	str	r2, [r3, #0]
    8faa:	bd38      	pop	{r3, r4, r5, pc}
    8fac:	00008ea1 	.word	0x00008ea1
    8fb0:	20000988 	.word	0x20000988

00008fb4 <_rtc_get_timer>:
    8fb4:	4800      	ldr	r0, [pc, #0]	; (8fb8 <_rtc_get_timer+0x4>)
    8fb6:	4770      	bx	lr
    8fb8:	20000354 	.word	0x20000354

00008fbc <RTC_Handler>:
    8fbc:	4b07      	ldr	r3, [pc, #28]	; (8fdc <RTC_Handler+0x20>)
    8fbe:	b510      	push	{r4, lr}
    8fc0:	681c      	ldr	r4, [r3, #0]
    8fc2:	68e3      	ldr	r3, [r4, #12]
    8fc4:	899b      	ldrh	r3, [r3, #12]
    8fc6:	05db      	lsls	r3, r3, #23
    8fc8:	d507      	bpl.n	8fda <RTC_Handler+0x1e>
    8fca:	6823      	ldr	r3, [r4, #0]
    8fcc:	b10b      	cbz	r3, 8fd2 <RTC_Handler+0x16>
    8fce:	4620      	mov	r0, r4
    8fd0:	4798      	blx	r3
    8fd2:	68e3      	ldr	r3, [r4, #12]
    8fd4:	f44f 7280 	mov.w	r2, #256	; 0x100
    8fd8:	819a      	strh	r2, [r3, #12]
    8fda:	bd10      	pop	{r4, pc}
    8fdc:	20000988 	.word	0x20000988

00008fe0 <__NVIC_EnableIRQ>:
    8fe0:	2800      	cmp	r0, #0
    8fe2:	db08      	blt.n	8ff6 <__NVIC_EnableIRQ+0x16>
    8fe4:	0942      	lsrs	r2, r0, #5
    8fe6:	2301      	movs	r3, #1
    8fe8:	f000 001f 	and.w	r0, r0, #31
    8fec:	fa03 f000 	lsl.w	r0, r3, r0
    8ff0:	4b01      	ldr	r3, [pc, #4]	; (8ff8 <__NVIC_EnableIRQ+0x18>)
    8ff2:	f843 0022 	str.w	r0, [r3, r2, lsl #2]
    8ff6:	4770      	bx	lr
    8ff8:	e000e100 	.word	0xe000e100

00008ffc <__NVIC_DisableIRQ>:
    8ffc:	2800      	cmp	r0, #0
    8ffe:	db0d      	blt.n	901c <__NVIC_DisableIRQ+0x20>
    9000:	0943      	lsrs	r3, r0, #5
    9002:	2201      	movs	r2, #1
    9004:	f000 001f 	and.w	r0, r0, #31
    9008:	fa02 f000 	lsl.w	r0, r2, r0
    900c:	3320      	adds	r3, #32
    900e:	4a04      	ldr	r2, [pc, #16]	; (9020 <__NVIC_DisableIRQ+0x24>)
    9010:	f842 0023 	str.w	r0, [r2, r3, lsl #2]
    9014:	f3bf 8f4f 	dsb	sy
    9018:	f3bf 8f6f 	isb	sy
    901c:	4770      	bx	lr
    901e:	bf00      	nop
    9020:	e000e100 	.word	0xe000e100

00009024 <__NVIC_ClearPendingIRQ>:
    9024:	2800      	cmp	r0, #0
    9026:	db09      	blt.n	903c <__NVIC_ClearPendingIRQ+0x18>
    9028:	0943      	lsrs	r3, r0, #5
    902a:	2201      	movs	r2, #1
    902c:	f000 001f 	and.w	r0, r0, #31
    9030:	fa02 f000 	lsl.w	r0, r2, r0
    9034:	3360      	adds	r3, #96	; 0x60
    9036:	4a02      	ldr	r2, [pc, #8]	; (9040 <__NVIC_ClearPendingIRQ+0x1c>)
    9038:	f842 0023 	str.w	r0, [r2, r3, lsl #2]
    903c:	4770      	bx	lr
    903e:	bf00      	nop
    9040:	e000e100 	.word	0xe000e100

00009044 <hri_sercomi2cm_wait_for_sync>:
    9044:	69c3      	ldr	r3, [r0, #28]
    9046:	420b      	tst	r3, r1
    9048:	d1fc      	bne.n	9044 <hri_sercomi2cm_wait_for_sync>
    904a:	4770      	bx	lr

0000904c <hri_sercomspi_wait_for_sync>:
    904c:	69c3      	ldr	r3, [r0, #28]
    904e:	420b      	tst	r3, r1
    9050:	d1fc      	bne.n	904c <hri_sercomspi_wait_for_sync>
    9052:	4770      	bx	lr

00009054 <hri_sercomusart_wait_for_sync>:
    9054:	69c3      	ldr	r3, [r0, #28]
    9056:	420b      	tst	r3, r1
    9058:	d1fc      	bne.n	9054 <hri_sercomusart_wait_for_sync>
    905a:	4770      	bx	lr

0000905c <hri_sercomi2cm_clear_CTRLA_ENABLE_bit>:
    905c:	6803      	ldr	r3, [r0, #0]
    905e:	f023 0302 	bic.w	r3, r3, #2
    9062:	6003      	str	r3, [r0, #0]
    9064:	2103      	movs	r1, #3
    9066:	4b01      	ldr	r3, [pc, #4]	; (906c <hri_sercomi2cm_clear_CTRLA_ENABLE_bit+0x10>)
    9068:	4718      	bx	r3
    906a:	bf00      	nop
    906c:	00009045 	.word	0x00009045

00009070 <hri_sercomspi_clear_CTRLA_ENABLE_bit>:
    9070:	6803      	ldr	r3, [r0, #0]
    9072:	f023 0302 	bic.w	r3, r3, #2
    9076:	6003      	str	r3, [r0, #0]
    9078:	2103      	movs	r1, #3
    907a:	4b01      	ldr	r3, [pc, #4]	; (9080 <hri_sercomspi_clear_CTRLA_ENABLE_bit+0x10>)
    907c:	4718      	bx	r3
    907e:	bf00      	nop
    9080:	0000904d 	.word	0x0000904d

00009084 <hri_sercomusart_clear_CTRLA_ENABLE_bit>:
    9084:	6803      	ldr	r3, [r0, #0]
    9086:	f023 0302 	bic.w	r3, r3, #2
    908a:	6003      	str	r3, [r0, #0]
    908c:	2103      	movs	r1, #3
    908e:	4b01      	ldr	r3, [pc, #4]	; (9094 <hri_sercomusart_clear_CTRLA_ENABLE_bit+0x10>)
    9090:	4718      	bx	r3
    9092:	bf00      	nop
    9094:	00009055 	.word	0x00009055

00009098 <_sercom_get_hardware_index>:
    9098:	b570      	push	{r4, r5, r6, lr}
    909a:	4d0b      	ldr	r5, [pc, #44]	; (90c8 <_sercom_get_hardware_index+0x30>)
    909c:	4606      	mov	r6, r0
    909e:	cd0f      	ldmia	r5!, {r0, r1, r2, r3}
    90a0:	b088      	sub	sp, #32
    90a2:	466c      	mov	r4, sp
    90a4:	c40f      	stmia	r4!, {r0, r1, r2, r3}
    90a6:	e895 000f 	ldmia.w	r5, {r0, r1, r2, r3}
    90aa:	e884 000f 	stmia.w	r4, {r0, r1, r2, r3}
    90ae:	2000      	movs	r0, #0
    90b0:	f85d 3020 	ldr.w	r3, [sp, r0, lsl #2]
    90b4:	42b3      	cmp	r3, r6
    90b6:	d102      	bne.n	90be <_sercom_get_hardware_index+0x26>
    90b8:	b2c0      	uxtb	r0, r0
    90ba:	b008      	add	sp, #32
    90bc:	bd70      	pop	{r4, r5, r6, pc}
    90be:	3001      	adds	r0, #1
    90c0:	2808      	cmp	r0, #8
    90c2:	d1f5      	bne.n	90b0 <_sercom_get_hardware_index+0x18>
    90c4:	2000      	movs	r0, #0
    90c6:	e7f8      	b.n	90ba <_sercom_get_hardware_index+0x22>
    90c8:	0000df38 	.word	0x0000df38

000090cc <_sercom_usart_interrupt_handler>:
    90cc:	b510      	push	{r4, lr}
    90ce:	6984      	ldr	r4, [r0, #24]
    90d0:	7e22      	ldrb	r2, [r4, #24]
    90d2:	07d1      	lsls	r1, r2, #31
    90d4:	4603      	mov	r3, r0
    90d6:	d508      	bpl.n	90ea <_sercom_usart_interrupt_handler+0x1e>
    90d8:	7da2      	ldrb	r2, [r4, #22]
    90da:	07d2      	lsls	r2, r2, #31
    90dc:	d505      	bpl.n	90ea <_sercom_usart_interrupt_handler+0x1e>
    90de:	2201      	movs	r2, #1
    90e0:	7522      	strb	r2, [r4, #20]
    90e2:	6803      	ldr	r3, [r0, #0]
    90e4:	e8bd 4010 	ldmia.w	sp!, {r4, lr}
    90e8:	4718      	bx	r3
    90ea:	7e22      	ldrb	r2, [r4, #24]
    90ec:	0790      	lsls	r0, r2, #30
    90ee:	d509      	bpl.n	9104 <_sercom_usart_interrupt_handler+0x38>
    90f0:	7da2      	ldrb	r2, [r4, #22]
    90f2:	0791      	lsls	r1, r2, #30
    90f4:	d506      	bpl.n	9104 <_sercom_usart_interrupt_handler+0x38>
    90f6:	2202      	movs	r2, #2
    90f8:	7522      	strb	r2, [r4, #20]
    90fa:	689a      	ldr	r2, [r3, #8]
    90fc:	4618      	mov	r0, r3
    90fe:	e8bd 4010 	ldmia.w	sp!, {r4, lr}
    9102:	4710      	bx	r2
    9104:	7e22      	ldrb	r2, [r4, #24]
    9106:	0752      	lsls	r2, r2, #29
    9108:	d50d      	bpl.n	9126 <_sercom_usart_interrupt_handler+0x5a>
    910a:	8b62      	ldrh	r2, [r4, #26]
    910c:	f002 0237 	and.w	r2, r2, #55	; 0x37
    9110:	b112      	cbz	r2, 9118 <_sercom_usart_interrupt_handler+0x4c>
    9112:	23ff      	movs	r3, #255	; 0xff
    9114:	8363      	strh	r3, [r4, #26]
    9116:	bd10      	pop	{r4, pc}
    9118:	6aa1      	ldr	r1, [r4, #40]	; 0x28
    911a:	685a      	ldr	r2, [r3, #4]
    911c:	b2c9      	uxtb	r1, r1
    911e:	4618      	mov	r0, r3
    9120:	e8bd 4010 	ldmia.w	sp!, {r4, lr}
    9124:	4710      	bx	r2
    9126:	7e22      	ldrb	r2, [r4, #24]
    9128:	09d2      	lsrs	r2, r2, #7
    912a:	d0f4      	beq.n	9116 <_sercom_usart_interrupt_handler+0x4a>
    912c:	2280      	movs	r2, #128	; 0x80
    912e:	7622      	strb	r2, [r4, #24]
    9130:	68da      	ldr	r2, [r3, #12]
    9132:	4618      	mov	r0, r3
    9134:	4790      	blx	r2
    9136:	8b63      	ldrh	r3, [r4, #26]
    9138:	b29b      	uxth	r3, r3
    913a:	e7eb      	b.n	9114 <_sercom_usart_interrupt_handler+0x48>

0000913c <_sercom_init_irq_param>:
    913c:	4b13      	ldr	r3, [pc, #76]	; (918c <_sercom_init_irq_param+0x50>)
    913e:	4298      	cmp	r0, r3
    9140:	d107      	bne.n	9152 <_sercom_init_irq_param+0x16>
    9142:	4b13      	ldr	r3, [pc, #76]	; (9190 <_sercom_init_irq_param+0x54>)
    9144:	6019      	str	r1, [r3, #0]
    9146:	4b13      	ldr	r3, [pc, #76]	; (9194 <_sercom_init_irq_param+0x58>)
    9148:	4298      	cmp	r0, r3
    914a:	d10d      	bne.n	9168 <_sercom_init_irq_param+0x2c>
    914c:	4b10      	ldr	r3, [pc, #64]	; (9190 <_sercom_init_irq_param+0x54>)
    914e:	6159      	str	r1, [r3, #20]
    9150:	4770      	bx	lr
    9152:	4b11      	ldr	r3, [pc, #68]	; (9198 <_sercom_init_irq_param+0x5c>)
    9154:	4298      	cmp	r0, r3
    9156:	d102      	bne.n	915e <_sercom_init_irq_param+0x22>
    9158:	4b0d      	ldr	r3, [pc, #52]	; (9190 <_sercom_init_irq_param+0x54>)
    915a:	6059      	str	r1, [r3, #4]
    915c:	e7f3      	b.n	9146 <_sercom_init_irq_param+0xa>
    915e:	4b0f      	ldr	r3, [pc, #60]	; (919c <_sercom_init_irq_param+0x60>)
    9160:	4298      	cmp	r0, r3
    9162:	d107      	bne.n	9174 <_sercom_init_irq_param+0x38>
    9164:	4b0a      	ldr	r3, [pc, #40]	; (9190 <_sercom_init_irq_param+0x54>)
    9166:	6099      	str	r1, [r3, #8]
    9168:	4b0d      	ldr	r3, [pc, #52]	; (91a0 <_sercom_init_irq_param+0x64>)
    916a:	4298      	cmp	r0, r3
    916c:	bf04      	itt	eq
    916e:	4b08      	ldreq	r3, [pc, #32]	; (9190 <_sercom_init_irq_param+0x54>)
    9170:	6199      	streq	r1, [r3, #24]
    9172:	4770      	bx	lr
    9174:	4b0b      	ldr	r3, [pc, #44]	; (91a4 <_sercom_init_irq_param+0x68>)
    9176:	4298      	cmp	r0, r3
    9178:	d102      	bne.n	9180 <_sercom_init_irq_param+0x44>
    917a:	4b05      	ldr	r3, [pc, #20]	; (9190 <_sercom_init_irq_param+0x54>)
    917c:	60d9      	str	r1, [r3, #12]
    917e:	4770      	bx	lr
    9180:	f1b0 4f86 	cmp.w	r0, #1124073472	; 0x43000000
    9184:	d1df      	bne.n	9146 <_sercom_init_irq_param+0xa>
    9186:	4b02      	ldr	r3, [pc, #8]	; (9190 <_sercom_init_irq_param+0x54>)
    9188:	6119      	str	r1, [r3, #16]
    918a:	4770      	bx	lr
    918c:	40003000 	.word	0x40003000
    9190:	2000098c 	.word	0x2000098c
    9194:	43000400 	.word	0x43000400
    9198:	40003400 	.word	0x40003400
    919c:	41012000 	.word	0x41012000
    91a0:	43000800 	.word	0x43000800
    91a4:	41014000 	.word	0x41014000

000091a8 <_get_i2cm_index>:
    91a8:	b508      	push	{r3, lr}
    91aa:	4b03      	ldr	r3, [pc, #12]	; (91b8 <_get_i2cm_index+0x10>)
    91ac:	4798      	blx	r3
    91ae:	3805      	subs	r0, #5
    91b0:	bf18      	it	ne
    91b2:	f04f 30ff 	movne.w	r0, #4294967295
    91b6:	bd08      	pop	{r3, pc}
    91b8:	00009099 	.word	0x00009099

000091bc <_sercom_get_irq_num>:
    91bc:	b508      	push	{r3, lr}
    91be:	4b03      	ldr	r3, [pc, #12]	; (91cc <_sercom_get_irq_num+0x10>)
    91c0:	4798      	blx	r3
    91c2:	0080      	lsls	r0, r0, #2
    91c4:	302e      	adds	r0, #46	; 0x2e
    91c6:	f000 00fe 	and.w	r0, r0, #254	; 0xfe
    91ca:	bd08      	pop	{r3, pc}
    91cc:	00009099 	.word	0x00009099

000091d0 <_spi_sync_enable>:
    91d0:	b508      	push	{r3, lr}
    91d2:	69c2      	ldr	r2, [r0, #28]
    91d4:	f012 0201 	ands.w	r2, r2, #1
    91d8:	d108      	bne.n	91ec <_spi_sync_enable+0x1c>
    91da:	6803      	ldr	r3, [r0, #0]
    91dc:	f043 0302 	orr.w	r3, r3, #2
    91e0:	6003      	str	r3, [r0, #0]
    91e2:	2103      	movs	r1, #3
    91e4:	4b03      	ldr	r3, [pc, #12]	; (91f4 <_spi_sync_enable+0x24>)
    91e6:	4798      	blx	r3
    91e8:	4610      	mov	r0, r2
    91ea:	bd08      	pop	{r3, pc}
    91ec:	f06f 0003 	mvn.w	r0, #3
    91f0:	bd08      	pop	{r3, pc}
    91f2:	bf00      	nop
    91f4:	0000904d 	.word	0x0000904d

000091f8 <_spi_get_regs>:
    91f8:	b508      	push	{r3, lr}
    91fa:	4b08      	ldr	r3, [pc, #32]	; (921c <_spi_get_regs+0x24>)
    91fc:	4798      	blx	r3
    91fe:	2803      	cmp	r0, #3
    9200:	d007      	beq.n	9212 <_spi_get_regs+0x1a>
    9202:	2807      	cmp	r0, #7
    9204:	d107      	bne.n	9216 <_spi_get_regs+0x1e>
    9206:	2301      	movs	r3, #1
    9208:	4805      	ldr	r0, [pc, #20]	; (9220 <_spi_get_regs+0x28>)
    920a:	eb00 1003 	add.w	r0, r0, r3, lsl #4
    920e:	4418      	add	r0, r3
    9210:	bd08      	pop	{r3, pc}
    9212:	2300      	movs	r3, #0
    9214:	e7f8      	b.n	9208 <_spi_get_regs+0x10>
    9216:	2000      	movs	r0, #0
    9218:	bd08      	pop	{r3, pc}
    921a:	bf00      	nop
    921c:	00009099 	.word	0x00009099
    9220:	0000df58 	.word	0x0000df58

00009224 <_spi_get_tx_dma_channel>:
    9224:	b508      	push	{r3, lr}
    9226:	4b03      	ldr	r3, [pc, #12]	; (9234 <_spi_get_tx_dma_channel+0x10>)
    9228:	4798      	blx	r3
    922a:	2807      	cmp	r0, #7
    922c:	bf0c      	ite	eq
    922e:	2008      	moveq	r0, #8
    9230:	2000      	movne	r0, #0
    9232:	bd08      	pop	{r3, pc}
    9234:	00009099 	.word	0x00009099

00009238 <_spi_get_rx_dma_channel>:
    9238:	b508      	push	{r3, lr}
    923a:	4b03      	ldr	r3, [pc, #12]	; (9248 <_spi_get_rx_dma_channel+0x10>)
    923c:	4798      	blx	r3
    923e:	2807      	cmp	r0, #7
    9240:	bf8c      	ite	hi
    9242:	2000      	movhi	r0, #0
    9244:	2001      	movls	r0, #1
    9246:	bd08      	pop	{r3, pc}
    9248:	00009099 	.word	0x00009099

0000924c <_spi_dma_rx_complete>:
    924c:	6883      	ldr	r3, [r0, #8]
    924e:	689b      	ldr	r3, [r3, #8]
    9250:	b103      	cbz	r3, 9254 <_spi_dma_rx_complete+0x8>
    9252:	4718      	bx	r3
    9254:	4770      	bx	lr

00009256 <_spi_dma_tx_complete>:
    9256:	6883      	ldr	r3, [r0, #8]
    9258:	685b      	ldr	r3, [r3, #4]
    925a:	b103      	cbz	r3, 925e <_spi_dma_tx_complete+0x8>
    925c:	4718      	bx	r3
    925e:	4770      	bx	lr

00009260 <_spi_dma_error_occured>:
    9260:	6883      	ldr	r3, [r0, #8]
    9262:	68db      	ldr	r3, [r3, #12]
    9264:	b103      	cbz	r3, 9268 <_spi_dma_error_occured+0x8>
    9266:	4718      	bx	r3
    9268:	4770      	bx	lr
	...

0000926c <_sercom_i2c_send_stop>:
    926c:	6843      	ldr	r3, [r0, #4]
    926e:	f443 3340 	orr.w	r3, r3, #196608	; 0x30000
    9272:	6043      	str	r3, [r0, #4]
    9274:	2104      	movs	r1, #4
    9276:	4b01      	ldr	r3, [pc, #4]	; (927c <_sercom_i2c_send_stop+0x10>)
    9278:	4718      	bx	r3
    927a:	bf00      	nop
    927c:	00009045 	.word	0x00009045

00009280 <_sercom_i2c_sync_analyse_flags>:
    9280:	e92d 41f0 	stmdb	sp!, {r4, r5, r6, r7, r8, lr}
    9284:	460d      	mov	r5, r1
    9286:	4e57      	ldr	r6, [pc, #348]	; (93e4 <_sercom_i2c_sync_analyse_flags+0x164>)
    9288:	f8d0 8000 	ldr.w	r8, [r0]
    928c:	2104      	movs	r1, #4
    928e:	4604      	mov	r4, r0
    9290:	47b0      	blx	r6
    9292:	8b43      	ldrh	r3, [r0, #26]
    9294:	f015 0f01 	tst.w	r5, #1
    9298:	b29b      	uxth	r3, r3
    929a:	4637      	mov	r7, r6
    929c:	d064      	beq.n	9368 <_sercom_i2c_sync_analyse_flags+0xe8>
    929e:	0799      	lsls	r1, r3, #30
    92a0:	d517      	bpl.n	92d2 <_sercom_i2c_sync_analyse_flags+0x52>
    92a2:	2101      	movs	r1, #1
    92a4:	7601      	strb	r1, [r0, #24]
    92a6:	8851      	ldrh	r1, [r2, #2]
    92a8:	b289      	uxth	r1, r1
    92aa:	f441 5180 	orr.w	r1, r1, #4096	; 0x1000
    92ae:	8051      	strh	r1, [r2, #2]
    92b0:	8851      	ldrh	r1, [r2, #2]
    92b2:	f421 7180 	bic.w	r1, r1, #256	; 0x100
    92b6:	0409      	lsls	r1, r1, #16
    92b8:	f013 0f01 	tst.w	r3, #1
    92bc:	ea4f 4111 	mov.w	r1, r1, lsr #16
    92c0:	8051      	strh	r1, [r2, #2]
    92c2:	bf14      	ite	ne
    92c4:	f06f 0504 	mvnne.w	r5, #4
    92c8:	f06f 0503 	mvneq.w	r5, #3
    92cc:	4628      	mov	r0, r5
    92ce:	e8bd 81f0 	ldmia.w	sp!, {r4, r5, r6, r7, r8, pc}
    92d2:	f013 0504 	ands.w	r5, r3, #4
    92d6:	d015      	beq.n	9304 <_sercom_i2c_sync_analyse_flags+0x84>
    92d8:	6853      	ldr	r3, [r2, #4]
    92da:	2b00      	cmp	r3, #0
    92dc:	bfc1      	itttt	gt
    92de:	8853      	ldrhgt	r3, [r2, #2]
    92e0:	b29b      	uxthgt	r3, r3
    92e2:	f443 5380 	orrgt.w	r3, r3, #4096	; 0x1000
    92e6:	8053      	strhgt	r3, [r2, #2]
    92e8:	8853      	ldrh	r3, [r2, #2]
    92ea:	041f      	lsls	r7, r3, #16
    92ec:	d501      	bpl.n	92f2 <_sercom_i2c_sync_analyse_flags+0x72>
    92ee:	4b3e      	ldr	r3, [pc, #248]	; (93e8 <_sercom_i2c_sync_analyse_flags+0x168>)
    92f0:	4798      	blx	r3
    92f2:	8853      	ldrh	r3, [r2, #2]
    92f4:	f423 7380 	bic.w	r3, r3, #256	; 0x100
    92f8:	041b      	lsls	r3, r3, #16
    92fa:	0c1b      	lsrs	r3, r3, #16
    92fc:	8053      	strh	r3, [r2, #2]
    92fe:	f06f 0501 	mvn.w	r5, #1
    9302:	e7e3      	b.n	92cc <_sercom_i2c_sync_analyse_flags+0x4c>
    9304:	8853      	ldrh	r3, [r2, #2]
    9306:	f413 6780 	ands.w	r7, r3, #1024	; 0x400
    930a:	d015      	beq.n	9338 <_sercom_i2c_sync_analyse_flags+0xb8>
    930c:	8813      	ldrh	r3, [r2, #0]
    930e:	2104      	movs	r1, #4
    9310:	09db      	lsrs	r3, r3, #7
    9312:	f003 0706 	and.w	r7, r3, #6
    9316:	47b0      	blx	r6
    9318:	6a43      	ldr	r3, [r0, #36]	; 0x24
    931a:	f403 4380 	and.w	r3, r3, #16384	; 0x4000
    931e:	f043 03f1 	orr.w	r3, r3, #241	; 0xf1
    9322:	433b      	orrs	r3, r7
    9324:	6243      	str	r3, [r0, #36]	; 0x24
    9326:	2104      	movs	r1, #4
    9328:	47b0      	blx	r6
    932a:	8853      	ldrh	r3, [r2, #2]
    932c:	f423 6380 	bic.w	r3, r3, #1024	; 0x400
    9330:	041b      	lsls	r3, r3, #16
    9332:	0c1b      	lsrs	r3, r3, #16
    9334:	8053      	strh	r3, [r2, #2]
    9336:	e7c9      	b.n	92cc <_sercom_i2c_sync_analyse_flags+0x4c>
    9338:	6855      	ldr	r5, [r2, #4]
    933a:	b945      	cbnz	r5, 934e <_sercom_i2c_sync_analyse_flags+0xce>
    933c:	8853      	ldrh	r3, [r2, #2]
    933e:	041e      	lsls	r6, r3, #16
    9340:	d501      	bpl.n	9346 <_sercom_i2c_sync_analyse_flags+0xc6>
    9342:	4b29      	ldr	r3, [pc, #164]	; (93e8 <_sercom_i2c_sync_analyse_flags+0x168>)
    9344:	4798      	blx	r3
    9346:	8853      	ldrh	r3, [r2, #2]
    9348:	f423 7380 	bic.w	r3, r3, #256	; 0x100
    934c:	e7f0      	b.n	9330 <_sercom_i2c_sync_analyse_flags+0xb0>
    934e:	6893      	ldr	r3, [r2, #8]
    9350:	781b      	ldrb	r3, [r3, #0]
    9352:	6283      	str	r3, [r0, #40]	; 0x28
    9354:	2104      	movs	r1, #4
    9356:	47b0      	blx	r6
    9358:	6893      	ldr	r3, [r2, #8]
    935a:	3301      	adds	r3, #1
    935c:	6093      	str	r3, [r2, #8]
    935e:	6853      	ldr	r3, [r2, #4]
    9360:	3b01      	subs	r3, #1
    9362:	6053      	str	r3, [r2, #4]
    9364:	2500      	movs	r5, #0
    9366:	e7b1      	b.n	92cc <_sercom_i2c_sync_analyse_flags+0x4c>
    9368:	f015 0502 	ands.w	r5, r5, #2
    936c:	d0ae      	beq.n	92cc <_sercom_i2c_sync_analyse_flags+0x4c>
    936e:	6851      	ldr	r1, [r2, #4]
    9370:	2900      	cmp	r1, #0
    9372:	d033      	beq.n	93dc <_sercom_i2c_sync_analyse_flags+0x15c>
    9374:	0758      	lsls	r0, r3, #29
    9376:	d431      	bmi.n	93dc <_sercom_i2c_sync_analyse_flags+0x15c>
    9378:	3901      	subs	r1, #1
    937a:	f3c8 60c0 	ubfx	r0, r8, #27, #1
    937e:	6051      	str	r1, [r2, #4]
    9380:	b941      	cbnz	r1, 9394 <_sercom_i2c_sync_analyse_flags+0x114>
    9382:	b958      	cbnz	r0, 939c <_sercom_i2c_sync_analyse_flags+0x11c>
    9384:	6863      	ldr	r3, [r4, #4]
    9386:	f443 2380 	orr.w	r3, r3, #262144	; 0x40000
    938a:	6063      	str	r3, [r4, #4]
    938c:	2104      	movs	r1, #4
    938e:	4620      	mov	r0, r4
    9390:	47b8      	blx	r7
    9392:	e003      	b.n	939c <_sercom_i2c_sync_analyse_flags+0x11c>
    9394:	2901      	cmp	r1, #1
    9396:	d101      	bne.n	939c <_sercom_i2c_sync_analyse_flags+0x11c>
    9398:	2800      	cmp	r0, #0
    939a:	d1f3      	bne.n	9384 <_sercom_i2c_sync_analyse_flags+0x104>
    939c:	6853      	ldr	r3, [r2, #4]
    939e:	b993      	cbnz	r3, 93c6 <_sercom_i2c_sync_analyse_flags+0x146>
    93a0:	8853      	ldrh	r3, [r2, #2]
    93a2:	041b      	lsls	r3, r3, #16
    93a4:	d509      	bpl.n	93ba <_sercom_i2c_sync_analyse_flags+0x13a>
    93a6:	6863      	ldr	r3, [r4, #4]
    93a8:	f423 7380 	bic.w	r3, r3, #256	; 0x100
    93ac:	6063      	str	r3, [r4, #4]
    93ae:	4620      	mov	r0, r4
    93b0:	2104      	movs	r1, #4
    93b2:	47b8      	blx	r7
    93b4:	4620      	mov	r0, r4
    93b6:	4b0c      	ldr	r3, [pc, #48]	; (93e8 <_sercom_i2c_sync_analyse_flags+0x168>)
    93b8:	4798      	blx	r3
    93ba:	8853      	ldrh	r3, [r2, #2]
    93bc:	f423 7380 	bic.w	r3, r3, #256	; 0x100
    93c0:	041b      	lsls	r3, r3, #16
    93c2:	0c1b      	lsrs	r3, r3, #16
    93c4:	8053      	strh	r3, [r2, #2]
    93c6:	6895      	ldr	r5, [r2, #8]
    93c8:	1c6b      	adds	r3, r5, #1
    93ca:	6093      	str	r3, [r2, #8]
    93cc:	2104      	movs	r1, #4
    93ce:	4620      	mov	r0, r4
    93d0:	47b8      	blx	r7
    93d2:	6aa3      	ldr	r3, [r4, #40]	; 0x28
    93d4:	702b      	strb	r3, [r5, #0]
    93d6:	2302      	movs	r3, #2
    93d8:	7623      	strb	r3, [r4, #24]
    93da:	e7c3      	b.n	9364 <_sercom_i2c_sync_analyse_flags+0xe4>
    93dc:	2302      	movs	r3, #2
    93de:	7623      	strb	r3, [r4, #24]
    93e0:	e78d      	b.n	92fe <_sercom_i2c_sync_analyse_flags+0x7e>
    93e2:	bf00      	nop
    93e4:	00009045 	.word	0x00009045
    93e8:	0000926d 	.word	0x0000926d

000093ec <_spi_load_regs_master>:
    93ec:	b538      	push	{r3, r4, r5, lr}
    93ee:	680b      	ldr	r3, [r1, #0]
    93f0:	4d0c      	ldr	r5, [pc, #48]	; (9424 <_spi_load_regs_master+0x38>)
    93f2:	f423 7381 	bic.w	r3, r3, #258	; 0x102
    93f6:	460c      	mov	r4, r1
    93f8:	f023 0301 	bic.w	r3, r3, #1
    93fc:	6003      	str	r3, [r0, #0]
    93fe:	2103      	movs	r1, #3
    9400:	47a8      	blx	r5
    9402:	6863      	ldr	r3, [r4, #4]
    9404:	f423 3338 	bic.w	r3, r3, #188416	; 0x2e000
    9408:	f423 7310 	bic.w	r3, r3, #576	; 0x240
    940c:	f443 3300 	orr.w	r3, r3, #131072	; 0x20000
    9410:	6043      	str	r3, [r0, #4]
    9412:	2117      	movs	r1, #23
    9414:	47a8      	blx	r5
    9416:	7b23      	ldrb	r3, [r4, #12]
    9418:	7303      	strb	r3, [r0, #12]
    941a:	7b63      	ldrb	r3, [r4, #13]
    941c:	f880 3030 	strb.w	r3, [r0, #48]	; 0x30
    9420:	bd38      	pop	{r3, r4, r5, pc}
    9422:	bf00      	nop
    9424:	0000904d 	.word	0x0000904d

00009428 <_spi_set_mode>:
    9428:	b570      	push	{r4, r5, r6, lr}
    942a:	69c2      	ldr	r2, [r0, #28]
    942c:	f012 0203 	ands.w	r2, r2, #3
    9430:	460c      	mov	r4, r1
    9432:	d10e      	bne.n	9452 <_spi_set_mode+0x2a>
    9434:	4e08      	ldr	r6, [pc, #32]	; (9458 <_spi_set_mode+0x30>)
    9436:	2103      	movs	r1, #3
    9438:	47b0      	blx	r6
    943a:	6803      	ldr	r3, [r0, #0]
    943c:	0724      	lsls	r4, r4, #28
    943e:	f023 5340 	bic.w	r3, r3, #805306368	; 0x30000000
    9442:	f004 5440 	and.w	r4, r4, #805306368	; 0x30000000
    9446:	431c      	orrs	r4, r3
    9448:	6004      	str	r4, [r0, #0]
    944a:	2103      	movs	r1, #3
    944c:	47b0      	blx	r6
    944e:	4610      	mov	r0, r2
    9450:	bd70      	pop	{r4, r5, r6, pc}
    9452:	f06f 0003 	mvn.w	r0, #3
    9456:	bd70      	pop	{r4, r5, r6, pc}
    9458:	0000904d 	.word	0x0000904d

0000945c <_i2c_m_sync_init_impl>:
    945c:	e92d 41f0 	stmdb	sp!, {r4, r5, r6, r7, r8, lr}
    9460:	460c      	mov	r4, r1
    9462:	4b26      	ldr	r3, [pc, #152]	; (94fc <_i2c_m_sync_init_impl+0xa0>)
    9464:	4e26      	ldr	r6, [pc, #152]	; (9500 <_i2c_m_sync_init_impl+0xa4>)
    9466:	4607      	mov	r7, r0
    9468:	4608      	mov	r0, r1
    946a:	4798      	blx	r3
    946c:	69e3      	ldr	r3, [r4, #28]
    946e:	4a25      	ldr	r2, [pc, #148]	; (9504 <_i2c_m_sync_init_impl+0xa8>)
    9470:	f013 0f01 	tst.w	r3, #1
    9474:	fa5f f880 	uxtb.w	r8, r0
    9478:	d117      	bne.n	94aa <_i2c_m_sync_init_impl+0x4e>
    947a:	2318      	movs	r3, #24
    947c:	fb03 6308 	mla	r3, r3, r8, r6
    9480:	2103      	movs	r1, #3
    9482:	4620      	mov	r0, r4
    9484:	6c9d      	ldr	r5, [r3, #72]	; 0x48
    9486:	4790      	blx	r2
    9488:	6823      	ldr	r3, [r4, #0]
    948a:	079b      	lsls	r3, r3, #30
    948c:	f005 051c 	and.w	r5, r5, #28
    9490:	d505      	bpl.n	949e <_i2c_m_sync_init_impl+0x42>
    9492:	4620      	mov	r0, r4
    9494:	4b1c      	ldr	r3, [pc, #112]	; (9508 <_i2c_m_sync_init_impl+0xac>)
    9496:	4798      	blx	r3
    9498:	2102      	movs	r1, #2
    949a:	4620      	mov	r0, r4
    949c:	4790      	blx	r2
    949e:	f045 0501 	orr.w	r5, r5, #1
    94a2:	6025      	str	r5, [r4, #0]
    94a4:	2103      	movs	r1, #3
    94a6:	4620      	mov	r0, r4
    94a8:	4790      	blx	r2
    94aa:	4620      	mov	r0, r4
    94ac:	2101      	movs	r1, #1
    94ae:	4790      	blx	r2
    94b0:	2318      	movs	r3, #24
    94b2:	fb03 6608 	mla	r6, r3, r8, r6
    94b6:	4620      	mov	r0, r4
    94b8:	6cb5      	ldr	r5, [r6, #72]	; 0x48
    94ba:	6025      	str	r5, [r4, #0]
    94bc:	2103      	movs	r1, #3
    94be:	4790      	blx	r2
    94c0:	6cf3      	ldr	r3, [r6, #76]	; 0x4c
    94c2:	6063      	str	r3, [r4, #4]
    94c4:	4620      	mov	r0, r4
    94c6:	2104      	movs	r1, #4
    94c8:	4790      	blx	r2
    94ca:	f3c5 6501 	ubfx	r5, r5, #24, #2
    94ce:	6d33      	ldr	r3, [r6, #80]	; 0x50
    94d0:	60e3      	str	r3, [r4, #12]
    94d2:	81bd      	strh	r5, [r7, #12]
    94d4:	6a63      	ldr	r3, [r4, #36]	; 0x24
    94d6:	2d01      	cmp	r5, #1
    94d8:	f423 4380 	bic.w	r3, r3, #16384	; 0x4000
    94dc:	bf94      	ite	ls
    94de:	2500      	movls	r5, #0
    94e0:	2501      	movhi	r5, #1
    94e2:	ea43 3585 	orr.w	r5, r3, r5, lsl #14
    94e6:	4620      	mov	r0, r4
    94e8:	6265      	str	r5, [r4, #36]	; 0x24
    94ea:	2104      	movs	r1, #4
    94ec:	4790      	blx	r2
    94ee:	f8b6 3056 	ldrh.w	r3, [r6, #86]	; 0x56
    94f2:	81fb      	strh	r3, [r7, #14]
    94f4:	2000      	movs	r0, #0
    94f6:	e8bd 81f0 	ldmia.w	sp!, {r4, r5, r6, r7, r8, pc}
    94fa:	bf00      	nop
    94fc:	000091a9 	.word	0x000091a9
    9500:	0000df38 	.word	0x0000df38
    9504:	00009045 	.word	0x00009045
    9508:	0000905d 	.word	0x0000905d

0000950c <_usart_init>:
    950c:	e92d 41f0 	stmdb	sp!, {r4, r5, r6, r7, r8, lr}
    9510:	4b31      	ldr	r3, [pc, #196]	; (95d8 <_usart_init+0xcc>)
    9512:	4604      	mov	r4, r0
    9514:	4798      	blx	r3
    9516:	4605      	mov	r5, r0
    9518:	b148      	cbz	r0, 952e <_usart_init+0x22>
    951a:	2801      	cmp	r0, #1
    951c:	d007      	beq.n	952e <_usart_init+0x22>
    951e:	2802      	cmp	r0, #2
    9520:	d005      	beq.n	952e <_usart_init+0x22>
    9522:	2804      	cmp	r0, #4
    9524:	d056      	beq.n	95d4 <_usart_init+0xc8>
    9526:	2806      	cmp	r0, #6
    9528:	bf14      	ite	ne
    952a:	2500      	movne	r5, #0
    952c:	2504      	moveq	r5, #4
    952e:	69e3      	ldr	r3, [r4, #28]
    9530:	4f2a      	ldr	r7, [pc, #168]	; (95dc <_usart_init+0xd0>)
    9532:	4e2b      	ldr	r6, [pc, #172]	; (95e0 <_usart_init+0xd4>)
    9534:	f013 0f01 	tst.w	r3, #1
    9538:	d117      	bne.n	956a <_usart_init+0x5e>
    953a:	2318      	movs	r3, #24
    953c:	fb03 7305 	mla	r3, r3, r5, r7
    9540:	2103      	movs	r1, #3
    9542:	6e1a      	ldr	r2, [r3, #96]	; 0x60
    9544:	4620      	mov	r0, r4
    9546:	f002 021c 	and.w	r2, r2, #28
    954a:	47b0      	blx	r6
    954c:	6823      	ldr	r3, [r4, #0]
    954e:	079b      	lsls	r3, r3, #30
    9550:	d505      	bpl.n	955e <_usart_init+0x52>
    9552:	4620      	mov	r0, r4
    9554:	4b23      	ldr	r3, [pc, #140]	; (95e4 <_usart_init+0xd8>)
    9556:	4798      	blx	r3
    9558:	2102      	movs	r1, #2
    955a:	4620      	mov	r0, r4
    955c:	47b0      	blx	r6
    955e:	f042 0201 	orr.w	r2, r2, #1
    9562:	6022      	str	r2, [r4, #0]
    9564:	2103      	movs	r1, #3
    9566:	4620      	mov	r0, r4
    9568:	47b0      	blx	r6
    956a:	4620      	mov	r0, r4
    956c:	2101      	movs	r1, #1
    956e:	47b0      	blx	r6
    9570:	2218      	movs	r2, #24
    9572:	fb02 7205 	mla	r2, r2, r5, r7
    9576:	4620      	mov	r0, r4
    9578:	f8d2 8060 	ldr.w	r8, [r2, #96]	; 0x60
    957c:	f8c4 8000 	str.w	r8, [r4]
    9580:	2103      	movs	r1, #3
    9582:	47b0      	blx	r6
    9584:	6e53      	ldr	r3, [r2, #100]	; 0x64
    9586:	6063      	str	r3, [r4, #4]
    9588:	211f      	movs	r1, #31
    958a:	4620      	mov	r0, r4
    958c:	47b0      	blx	r6
    958e:	6e93      	ldr	r3, [r2, #104]	; 0x68
    9590:	60a3      	str	r3, [r4, #8]
    9592:	f418 4fc0 	tst.w	r8, #24576	; 0x6000
    9596:	bf1d      	ittte	ne
    9598:	89a3      	ldrhne	r3, [r4, #12]
    959a:	f8b2 106c 	ldrhne.w	r1, [r2, #108]	; 0x6c
    959e:	f892 206e 	ldrbne.w	r2, [r2, #110]	; 0x6e
    95a2:	f8b2 306c 	ldrheq.w	r3, [r2, #108]	; 0x6c
    95a6:	bf1e      	ittt	ne
    95a8:	f361 030c 	bfine	r3, r1, #0, #13
    95ac:	81a3      	strhne	r3, [r4, #12]
    95ae:	89a3      	ldrhne	r3, [r4, #12]
    95b0:	f04f 0018 	mov.w	r0, #24
    95b4:	fb00 7005 	mla	r0, r0, r5, r7
    95b8:	bf18      	it	ne
    95ba:	f362 334f 	bfine	r3, r2, #13, #3
    95be:	81a3      	strh	r3, [r4, #12]
    95c0:	f890 306f 	ldrb.w	r3, [r0, #111]	; 0x6f
    95c4:	73a3      	strb	r3, [r4, #14]
    95c6:	f890 3070 	ldrb.w	r3, [r0, #112]	; 0x70
    95ca:	f884 3030 	strb.w	r3, [r4, #48]	; 0x30
    95ce:	2000      	movs	r0, #0
    95d0:	e8bd 81f0 	ldmia.w	sp!, {r4, r5, r6, r7, r8, pc}
    95d4:	2503      	movs	r5, #3
    95d6:	e7aa      	b.n	952e <_usart_init+0x22>
    95d8:	00009099 	.word	0x00009099
    95dc:	0000df38 	.word	0x0000df38
    95e0:	00009055 	.word	0x00009055
    95e4:	00009085 	.word	0x00009085

000095e8 <_usart_async_init>:
    95e8:	e92d 43f8 	stmdb	sp!, {r3, r4, r5, r6, r7, r8, r9, lr}
    95ec:	4606      	mov	r6, r0
    95ee:	4b11      	ldr	r3, [pc, #68]	; (9634 <_usart_async_init+0x4c>)
    95f0:	4608      	mov	r0, r1
    95f2:	460c      	mov	r4, r1
    95f4:	4798      	blx	r3
    95f6:	4605      	mov	r5, r0
    95f8:	b9c8      	cbnz	r0, 962e <_usart_async_init+0x46>
    95fa:	61b4      	str	r4, [r6, #24]
    95fc:	4631      	mov	r1, r6
    95fe:	4620      	mov	r0, r4
    9600:	4b0d      	ldr	r3, [pc, #52]	; (9638 <_usart_async_init+0x50>)
    9602:	f8df 8044 	ldr.w	r8, [pc, #68]	; 9648 <_usart_async_init+0x60>
    9606:	4f0d      	ldr	r7, [pc, #52]	; (963c <_usart_async_init+0x54>)
    9608:	4e0d      	ldr	r6, [pc, #52]	; (9640 <_usart_async_init+0x58>)
    960a:	4798      	blx	r3
    960c:	4620      	mov	r0, r4
    960e:	4b0d      	ldr	r3, [pc, #52]	; (9644 <_usart_async_init+0x5c>)
    9610:	4798      	blx	r3
    9612:	462c      	mov	r4, r5
    9614:	4681      	mov	r9, r0
    9616:	eb09 0104 	add.w	r1, r9, r4
    961a:	b2c9      	uxtb	r1, r1
    961c:	4608      	mov	r0, r1
    961e:	47c0      	blx	r8
    9620:	4608      	mov	r0, r1
    9622:	47b8      	blx	r7
    9624:	3401      	adds	r4, #1
    9626:	4608      	mov	r0, r1
    9628:	47b0      	blx	r6
    962a:	2c04      	cmp	r4, #4
    962c:	d1f3      	bne.n	9616 <_usart_async_init+0x2e>
    962e:	4628      	mov	r0, r5
    9630:	e8bd 83f8 	ldmia.w	sp!, {r3, r4, r5, r6, r7, r8, r9, pc}
    9634:	0000950d 	.word	0x0000950d
    9638:	0000913d 	.word	0x0000913d
    963c:	00009025 	.word	0x00009025
    9640:	00008fe1 	.word	0x00008fe1
    9644:	000091bd 	.word	0x000091bd
    9648:	00008ffd 	.word	0x00008ffd

0000964c <_usart_async_enable>:
    964c:	6980      	ldr	r0, [r0, #24]
    964e:	6803      	ldr	r3, [r0, #0]
    9650:	f043 0302 	orr.w	r3, r3, #2
    9654:	6003      	str	r3, [r0, #0]
    9656:	2103      	movs	r1, #3
    9658:	4b00      	ldr	r3, [pc, #0]	; (965c <_usart_async_enable+0x10>)
    965a:	4718      	bx	r3
    965c:	00009055 	.word	0x00009055

00009660 <_usart_async_write_byte>:
    9660:	6983      	ldr	r3, [r0, #24]
    9662:	6299      	str	r1, [r3, #40]	; 0x28
    9664:	4770      	bx	lr

00009666 <_usart_async_enable_byte_sent_irq>:
    9666:	6983      	ldr	r3, [r0, #24]
    9668:	2201      	movs	r2, #1
    966a:	759a      	strb	r2, [r3, #22]
    966c:	4770      	bx	lr

0000966e <_usart_async_enable_tx_done_irq>:
    966e:	6983      	ldr	r3, [r0, #24]
    9670:	2202      	movs	r2, #2
    9672:	759a      	strb	r2, [r3, #22]
    9674:	4770      	bx	lr

00009676 <_usart_async_set_irq_state>:
    9676:	f011 0ffd 	tst.w	r1, #253	; 0xfd
    967a:	d109      	bne.n	9690 <_usart_async_set_irq_state+0x1a>
    967c:	6983      	ldr	r3, [r0, #24]
    967e:	2102      	movs	r1, #2
    9680:	2001      	movs	r0, #1
    9682:	b912      	cbnz	r2, 968a <_usart_async_set_irq_state+0x14>
    9684:	7518      	strb	r0, [r3, #20]
    9686:	7519      	strb	r1, [r3, #20]
    9688:	4770      	bx	lr
    968a:	7598      	strb	r0, [r3, #22]
    968c:	7599      	strb	r1, [r3, #22]
    968e:	4770      	bx	lr
    9690:	2901      	cmp	r1, #1
    9692:	d104      	bne.n	969e <_usart_async_set_irq_state+0x28>
    9694:	6983      	ldr	r3, [r0, #24]
    9696:	2104      	movs	r1, #4
    9698:	2a00      	cmp	r2, #0
    969a:	d1f7      	bne.n	968c <_usart_async_set_irq_state+0x16>
    969c:	e7f3      	b.n	9686 <_usart_async_set_irq_state+0x10>
    969e:	2903      	cmp	r1, #3
    96a0:	d1f5      	bne.n	968e <_usart_async_set_irq_state+0x18>
    96a2:	6983      	ldr	r3, [r0, #24]
    96a4:	2180      	movs	r1, #128	; 0x80
    96a6:	e7f7      	b.n	9698 <_usart_async_set_irq_state+0x22>

000096a8 <_i2c_m_async_init>:
    96a8:	e92d 43f8 	stmdb	sp!, {r3, r4, r5, r6, r7, r8, r9, lr}
    96ac:	4606      	mov	r6, r0
    96ae:	4b11      	ldr	r3, [pc, #68]	; (96f4 <_i2c_m_async_init+0x4c>)
    96b0:	6131      	str	r1, [r6, #16]
    96b2:	460c      	mov	r4, r1
    96b4:	4798      	blx	r3
    96b6:	4605      	mov	r5, r0
    96b8:	b9c0      	cbnz	r0, 96ec <_i2c_m_async_init+0x44>
    96ba:	4631      	mov	r1, r6
    96bc:	4620      	mov	r0, r4
    96be:	4b0e      	ldr	r3, [pc, #56]	; (96f8 <_i2c_m_async_init+0x50>)
    96c0:	f8df 8044 	ldr.w	r8, [pc, #68]	; 9708 <_i2c_m_async_init+0x60>
    96c4:	4f0d      	ldr	r7, [pc, #52]	; (96fc <_i2c_m_async_init+0x54>)
    96c6:	4e0e      	ldr	r6, [pc, #56]	; (9700 <_i2c_m_async_init+0x58>)
    96c8:	4798      	blx	r3
    96ca:	4620      	mov	r0, r4
    96cc:	4b0d      	ldr	r3, [pc, #52]	; (9704 <_i2c_m_async_init+0x5c>)
    96ce:	4798      	blx	r3
    96d0:	462c      	mov	r4, r5
    96d2:	4681      	mov	r9, r0
    96d4:	eb09 0104 	add.w	r1, r9, r4
    96d8:	b2c9      	uxtb	r1, r1
    96da:	4608      	mov	r0, r1
    96dc:	47c0      	blx	r8
    96de:	4608      	mov	r0, r1
    96e0:	47b8      	blx	r7
    96e2:	3401      	adds	r4, #1
    96e4:	4608      	mov	r0, r1
    96e6:	47b0      	blx	r6
    96e8:	2c04      	cmp	r4, #4
    96ea:	d1f3      	bne.n	96d4 <_i2c_m_async_init+0x2c>
    96ec:	4628      	mov	r0, r5
    96ee:	e8bd 83f8 	ldmia.w	sp!, {r3, r4, r5, r6, r7, r8, r9, pc}
    96f2:	bf00      	nop
    96f4:	0000945d 	.word	0x0000945d
    96f8:	0000913d 	.word	0x0000913d
    96fc:	00009025 	.word	0x00009025
    9700:	00008fe1 	.word	0x00008fe1
    9704:	000091bd 	.word	0x000091bd
    9708:	00008ffd 	.word	0x00008ffd

0000970c <_i2c_m_async_transfer>:
    970c:	b5f8      	push	{r3, r4, r5, r6, r7, lr}
    970e:	4604      	mov	r4, r0
    9710:	6848      	ldr	r0, [r1, #4]
    9712:	2800      	cmp	r0, #0
    9714:	d056      	beq.n	97c4 <_i2c_m_async_transfer+0xb8>
    9716:	8863      	ldrh	r3, [r4, #2]
    9718:	05d8      	lsls	r0, r3, #23
    971a:	d451      	bmi.n	97c0 <_i2c_m_async_transfer+0xb4>
    971c:	884b      	ldrh	r3, [r1, #2]
    971e:	4e2a      	ldr	r6, [pc, #168]	; (97c8 <_i2c_m_async_transfer+0xbc>)
    9720:	b29b      	uxth	r3, r3
    9722:	f443 7380 	orr.w	r3, r3, #256	; 0x100
    9726:	804b      	strh	r3, [r1, #2]
    9728:	c907      	ldmia	r1, {r0, r1, r2}
    972a:	e884 0007 	stmia.w	r4, {r0, r1, r2}
    972e:	6920      	ldr	r0, [r4, #16]
    9730:	6843      	ldr	r3, [r0, #4]
    9732:	f443 7380 	orr.w	r3, r3, #256	; 0x100
    9736:	6043      	str	r3, [r0, #4]
    9738:	2104      	movs	r1, #4
    973a:	47b0      	blx	r6
    973c:	6862      	ldr	r2, [r4, #4]
    973e:	6925      	ldr	r5, [r4, #16]
    9740:	2a01      	cmp	r2, #1
    9742:	682b      	ldr	r3, [r5, #0]
    9744:	d129      	bne.n	979a <_i2c_m_async_transfer+0x8e>
    9746:	011a      	lsls	r2, r3, #4
    9748:	d527      	bpl.n	979a <_i2c_m_async_transfer+0x8e>
    974a:	686b      	ldr	r3, [r5, #4]
    974c:	f443 2380 	orr.w	r3, r3, #262144	; 0x40000
    9750:	606b      	str	r3, [r5, #4]
    9752:	2104      	movs	r1, #4
    9754:	4628      	mov	r0, r5
    9756:	47b0      	blx	r6
    9758:	8822      	ldrh	r2, [r4, #0]
    975a:	f412 6780 	ands.w	r7, r2, #1024	; 0x400
    975e:	ea4f 0242 	mov.w	r2, r2, lsl #1
    9762:	d01e      	beq.n	97a2 <_i2c_m_async_transfer+0x96>
    9764:	8863      	ldrh	r3, [r4, #2]
    9766:	07db      	lsls	r3, r3, #31
    9768:	bf41      	itttt	mi
    976a:	8863      	ldrhmi	r3, [r4, #2]
    976c:	b29b      	uxthmi	r3, r3
    976e:	f443 6380 	orrmi.w	r3, r3, #1024	; 0x400
    9772:	8063      	strhmi	r3, [r4, #2]
    9774:	2104      	movs	r1, #4
    9776:	4628      	mov	r0, r5
    9778:	47b0      	blx	r6
    977a:	6a6b      	ldr	r3, [r5, #36]	; 0x24
    977c:	f022 0201 	bic.w	r2, r2, #1
    9780:	0552      	lsls	r2, r2, #21
    9782:	f403 4380 	and.w	r3, r3, #16384	; 0x4000
    9786:	0d52      	lsrs	r2, r2, #21
    9788:	f443 4300 	orr.w	r3, r3, #32768	; 0x8000
    978c:	4313      	orrs	r3, r2
    978e:	626b      	str	r3, [r5, #36]	; 0x24
    9790:	4628      	mov	r0, r5
    9792:	2104      	movs	r1, #4
    9794:	47b0      	blx	r6
    9796:	2000      	movs	r0, #0
    9798:	bdf8      	pop	{r3, r4, r5, r6, r7, pc}
    979a:	686b      	ldr	r3, [r5, #4]
    979c:	f423 2380 	bic.w	r3, r3, #262144	; 0x40000
    97a0:	e7d6      	b.n	9750 <_i2c_m_async_transfer+0x44>
    97a2:	2104      	movs	r1, #4
    97a4:	4628      	mov	r0, r5
    97a6:	8864      	ldrh	r4, [r4, #2]
    97a8:	47b0      	blx	r6
    97aa:	b2a4      	uxth	r4, r4
    97ac:	6a6b      	ldr	r3, [r5, #36]	; 0x24
    97ae:	b2d2      	uxtb	r2, r2
    97b0:	f004 0401 	and.w	r4, r4, #1
    97b4:	4322      	orrs	r2, r4
    97b6:	f403 4380 	and.w	r3, r3, #16384	; 0x4000
    97ba:	431a      	orrs	r2, r3
    97bc:	626a      	str	r2, [r5, #36]	; 0x24
    97be:	e7e7      	b.n	9790 <_i2c_m_async_transfer+0x84>
    97c0:	f06f 0003 	mvn.w	r0, #3
    97c4:	bdf8      	pop	{r3, r4, r5, r6, r7, pc}
    97c6:	bf00      	nop
    97c8:	00009045 	.word	0x00009045

000097cc <_i2c_m_async_register_callback>:
    97cc:	2901      	cmp	r1, #1
    97ce:	d006      	beq.n	97de <_i2c_m_async_register_callback+0x12>
    97d0:	d303      	bcc.n	97da <_i2c_m_async_register_callback+0xe>
    97d2:	2902      	cmp	r1, #2
    97d4:	d005      	beq.n	97e2 <_i2c_m_async_register_callback+0x16>
    97d6:	2000      	movs	r0, #0
    97d8:	4770      	bx	lr
    97da:	6142      	str	r2, [r0, #20]
    97dc:	e7fb      	b.n	97d6 <_i2c_m_async_register_callback+0xa>
    97de:	6182      	str	r2, [r0, #24]
    97e0:	e7f9      	b.n	97d6 <_i2c_m_async_register_callback+0xa>
    97e2:	61c2      	str	r2, [r0, #28]
    97e4:	e7f7      	b.n	97d6 <_i2c_m_async_register_callback+0xa>
	...

000097e8 <SERCOM0_3_Handler>:
    97e8:	4b01      	ldr	r3, [pc, #4]	; (97f0 <SERCOM0_3_Handler+0x8>)
    97ea:	6818      	ldr	r0, [r3, #0]
    97ec:	4b01      	ldr	r3, [pc, #4]	; (97f4 <SERCOM0_3_Handler+0xc>)
    97ee:	4718      	bx	r3
    97f0:	2000098c 	.word	0x2000098c
    97f4:	000090cd 	.word	0x000090cd

000097f8 <SERCOM0_2_Handler>:
    97f8:	4b00      	ldr	r3, [pc, #0]	; (97fc <SERCOM0_2_Handler+0x4>)
    97fa:	4718      	bx	r3
    97fc:	000097e9 	.word	0x000097e9

00009800 <SERCOM0_1_Handler>:
    9800:	4b00      	ldr	r3, [pc, #0]	; (9804 <SERCOM0_1_Handler+0x4>)
    9802:	4718      	bx	r3
    9804:	000097e9 	.word	0x000097e9

00009808 <SERCOM0_0_Handler>:
    9808:	4b00      	ldr	r3, [pc, #0]	; (980c <SERCOM0_0_Handler+0x4>)
    980a:	4718      	bx	r3
    980c:	000097e9 	.word	0x000097e9

00009810 <SERCOM1_3_Handler>:
    9810:	4b01      	ldr	r3, [pc, #4]	; (9818 <SERCOM1_3_Handler+0x8>)
    9812:	6858      	ldr	r0, [r3, #4]
    9814:	4b01      	ldr	r3, [pc, #4]	; (981c <SERCOM1_3_Handler+0xc>)
    9816:	4718      	bx	r3
    9818:	2000098c 	.word	0x2000098c
    981c:	000090cd 	.word	0x000090cd

00009820 <SERCOM1_2_Handler>:
    9820:	4b00      	ldr	r3, [pc, #0]	; (9824 <SERCOM1_2_Handler+0x4>)
    9822:	4718      	bx	r3
    9824:	00009811 	.word	0x00009811

00009828 <SERCOM1_1_Handler>:
    9828:	4b00      	ldr	r3, [pc, #0]	; (982c <SERCOM1_1_Handler+0x4>)
    982a:	4718      	bx	r3
    982c:	00009811 	.word	0x00009811

00009830 <SERCOM1_0_Handler>:
    9830:	4b00      	ldr	r3, [pc, #0]	; (9834 <SERCOM1_0_Handler+0x4>)
    9832:	4718      	bx	r3
    9834:	00009811 	.word	0x00009811

00009838 <SERCOM2_3_Handler>:
    9838:	4b01      	ldr	r3, [pc, #4]	; (9840 <SERCOM2_3_Handler+0x8>)
    983a:	6898      	ldr	r0, [r3, #8]
    983c:	4b01      	ldr	r3, [pc, #4]	; (9844 <SERCOM2_3_Handler+0xc>)
    983e:	4718      	bx	r3
    9840:	2000098c 	.word	0x2000098c
    9844:	000090cd 	.word	0x000090cd

00009848 <SERCOM2_2_Handler>:
    9848:	4b00      	ldr	r3, [pc, #0]	; (984c <SERCOM2_2_Handler+0x4>)
    984a:	4718      	bx	r3
    984c:	00009839 	.word	0x00009839

00009850 <SERCOM2_1_Handler>:
    9850:	4b00      	ldr	r3, [pc, #0]	; (9854 <SERCOM2_1_Handler+0x4>)
    9852:	4718      	bx	r3
    9854:	00009839 	.word	0x00009839

00009858 <SERCOM2_0_Handler>:
    9858:	4b00      	ldr	r3, [pc, #0]	; (985c <SERCOM2_0_Handler+0x4>)
    985a:	4718      	bx	r3
    985c:	00009839 	.word	0x00009839

00009860 <SERCOM3_3_Handler>:
    9860:	4b0f      	ldr	r3, [pc, #60]	; (98a0 <SERCOM3_3_Handler+0x40>)
    9862:	68d8      	ldr	r0, [r3, #12]
    9864:	6802      	ldr	r2, [r0, #0]
    9866:	7e13      	ldrb	r3, [r2, #24]
    9868:	7d91      	ldrb	r1, [r2, #22]
    986a:	400b      	ands	r3, r1
    986c:	07d9      	lsls	r1, r3, #31
    986e:	d501      	bpl.n	9874 <SERCOM3_3_Handler+0x14>
    9870:	6883      	ldr	r3, [r0, #8]
    9872:	4718      	bx	r3
    9874:	0759      	lsls	r1, r3, #29
    9876:	d501      	bpl.n	987c <SERCOM3_3_Handler+0x1c>
    9878:	68c3      	ldr	r3, [r0, #12]
    987a:	e7fa      	b.n	9872 <SERCOM3_3_Handler+0x12>
    987c:	0799      	lsls	r1, r3, #30
    987e:	d503      	bpl.n	9888 <SERCOM3_3_Handler+0x28>
    9880:	2302      	movs	r3, #2
    9882:	7613      	strb	r3, [r2, #24]
    9884:	6903      	ldr	r3, [r0, #16]
    9886:	e7f4      	b.n	9872 <SERCOM3_3_Handler+0x12>
    9888:	061b      	lsls	r3, r3, #24
    988a:	d507      	bpl.n	989c <SERCOM3_3_Handler+0x3c>
    988c:	2304      	movs	r3, #4
    988e:	8353      	strh	r3, [r2, #26]
    9890:	2380      	movs	r3, #128	; 0x80
    9892:	7613      	strb	r3, [r2, #24]
    9894:	6943      	ldr	r3, [r0, #20]
    9896:	f06f 0112 	mvn.w	r1, #18
    989a:	4718      	bx	r3
    989c:	4770      	bx	lr
    989e:	bf00      	nop
    98a0:	2000098c 	.word	0x2000098c

000098a4 <SERCOM3_2_Handler>:
    98a4:	4b00      	ldr	r3, [pc, #0]	; (98a8 <SERCOM3_2_Handler+0x4>)
    98a6:	4718      	bx	r3
    98a8:	00009861 	.word	0x00009861

000098ac <SERCOM3_1_Handler>:
    98ac:	4b00      	ldr	r3, [pc, #0]	; (98b0 <SERCOM3_1_Handler+0x4>)
    98ae:	4718      	bx	r3
    98b0:	00009861 	.word	0x00009861

000098b4 <SERCOM3_0_Handler>:
    98b4:	4b00      	ldr	r3, [pc, #0]	; (98b8 <SERCOM3_0_Handler+0x4>)
    98b6:	4718      	bx	r3
    98b8:	00009861 	.word	0x00009861

000098bc <SERCOM4_3_Handler>:
    98bc:	4b01      	ldr	r3, [pc, #4]	; (98c4 <SERCOM4_3_Handler+0x8>)
    98be:	6918      	ldr	r0, [r3, #16]
    98c0:	4b01      	ldr	r3, [pc, #4]	; (98c8 <SERCOM4_3_Handler+0xc>)
    98c2:	4718      	bx	r3
    98c4:	2000098c 	.word	0x2000098c
    98c8:	000090cd 	.word	0x000090cd

000098cc <SERCOM4_2_Handler>:
    98cc:	4b00      	ldr	r3, [pc, #0]	; (98d0 <SERCOM4_2_Handler+0x4>)
    98ce:	4718      	bx	r3
    98d0:	000098bd 	.word	0x000098bd

000098d4 <SERCOM4_1_Handler>:
    98d4:	4b00      	ldr	r3, [pc, #0]	; (98d8 <SERCOM4_1_Handler+0x4>)
    98d6:	4718      	bx	r3
    98d8:	000098bd 	.word	0x000098bd

000098dc <SERCOM4_0_Handler>:
    98dc:	4b00      	ldr	r3, [pc, #0]	; (98e0 <SERCOM4_0_Handler+0x4>)
    98de:	4718      	bx	r3
    98e0:	000098bd 	.word	0x000098bd

000098e4 <SERCOM5_3_Handler>:
    98e4:	4b16      	ldr	r3, [pc, #88]	; (9940 <SERCOM5_3_Handler+0x5c>)
    98e6:	b570      	push	{r4, r5, r6, lr}
    98e8:	695c      	ldr	r4, [r3, #20]
    98ea:	6920      	ldr	r0, [r4, #16]
    98ec:	7e05      	ldrb	r5, [r0, #24]
    98ee:	b2ed      	uxtb	r5, r5
    98f0:	0629      	lsls	r1, r5, #24
    98f2:	d413      	bmi.n	991c <SERCOM5_3_Handler+0x38>
    98f4:	4629      	mov	r1, r5
    98f6:	4622      	mov	r2, r4
    98f8:	4b12      	ldr	r3, [pc, #72]	; (9944 <SERCOM5_3_Handler+0x60>)
    98fa:	4798      	blx	r3
    98fc:	4601      	mov	r1, r0
    98fe:	b970      	cbnz	r0, 991e <SERCOM5_3_Handler+0x3a>
    9900:	07ea      	lsls	r2, r5, #31
    9902:	d505      	bpl.n	9910 <SERCOM5_3_Handler+0x2c>
    9904:	69a3      	ldr	r3, [r4, #24]
    9906:	b11b      	cbz	r3, 9910 <SERCOM5_3_Handler+0x2c>
    9908:	4620      	mov	r0, r4
    990a:	e8bd 4070 	ldmia.w	sp!, {r4, r5, r6, lr}
    990e:	4718      	bx	r3
    9910:	07ab      	lsls	r3, r5, #30
    9912:	d502      	bpl.n	991a <SERCOM5_3_Handler+0x36>
    9914:	69e3      	ldr	r3, [r4, #28]
    9916:	2b00      	cmp	r3, #0
    9918:	d1f6      	bne.n	9908 <SERCOM5_3_Handler+0x24>
    991a:	bd70      	pop	{r4, r5, r6, pc}
    991c:	2100      	movs	r1, #0
    991e:	8863      	ldrh	r3, [r4, #2]
    9920:	f423 7380 	bic.w	r3, r3, #256	; 0x100
    9924:	041b      	lsls	r3, r3, #16
    9926:	0c1b      	lsrs	r3, r3, #16
    9928:	8063      	strh	r3, [r4, #2]
    992a:	6963      	ldr	r3, [r4, #20]
    992c:	2b00      	cmp	r3, #0
    992e:	d0f4      	beq.n	991a <SERCOM5_3_Handler+0x36>
    9930:	b119      	cbz	r1, 993a <SERCOM5_3_Handler+0x56>
    9932:	4620      	mov	r0, r4
    9934:	e8bd 4070 	ldmia.w	sp!, {r4, r5, r6, lr}
    9938:	4718      	bx	r3
    993a:	f06f 0104 	mvn.w	r1, #4
    993e:	e7f8      	b.n	9932 <SERCOM5_3_Handler+0x4e>
    9940:	2000098c 	.word	0x2000098c
    9944:	00009281 	.word	0x00009281

00009948 <SERCOM5_2_Handler>:
    9948:	4b00      	ldr	r3, [pc, #0]	; (994c <SERCOM5_2_Handler+0x4>)
    994a:	4718      	bx	r3
    994c:	000098e5 	.word	0x000098e5

00009950 <SERCOM5_1_Handler>:
    9950:	4b00      	ldr	r3, [pc, #0]	; (9954 <SERCOM5_1_Handler+0x4>)
    9952:	4718      	bx	r3
    9954:	000098e5 	.word	0x000098e5

00009958 <SERCOM5_0_Handler>:
    9958:	4b00      	ldr	r3, [pc, #0]	; (995c <SERCOM5_0_Handler+0x4>)
    995a:	4718      	bx	r3
    995c:	000098e5 	.word	0x000098e5

00009960 <SERCOM6_3_Handler>:
    9960:	4b01      	ldr	r3, [pc, #4]	; (9968 <SERCOM6_3_Handler+0x8>)
    9962:	6998      	ldr	r0, [r3, #24]
    9964:	4b01      	ldr	r3, [pc, #4]	; (996c <SERCOM6_3_Handler+0xc>)
    9966:	4718      	bx	r3
    9968:	2000098c 	.word	0x2000098c
    996c:	000090cd 	.word	0x000090cd

00009970 <SERCOM6_2_Handler>:
    9970:	4b00      	ldr	r3, [pc, #0]	; (9974 <SERCOM6_2_Handler+0x4>)
    9972:	4718      	bx	r3
    9974:	00009961 	.word	0x00009961

00009978 <SERCOM6_1_Handler>:
    9978:	4b00      	ldr	r3, [pc, #0]	; (997c <SERCOM6_1_Handler+0x4>)
    997a:	4718      	bx	r3
    997c:	00009961 	.word	0x00009961

00009980 <SERCOM6_0_Handler>:
    9980:	4b00      	ldr	r3, [pc, #0]	; (9984 <SERCOM6_0_Handler+0x4>)
    9982:	4718      	bx	r3
    9984:	00009961 	.word	0x00009961

00009988 <_spi_m_sync_init>:
    9988:	b5f8      	push	{r3, r4, r5, r6, r7, lr}
    998a:	4606      	mov	r6, r0
    998c:	4b2e      	ldr	r3, [pc, #184]	; (9a48 <_spi_m_sync_init+0xc0>)
    998e:	4608      	mov	r0, r1
    9990:	460c      	mov	r4, r1
    9992:	4798      	blx	r3
    9994:	4602      	mov	r2, r0
    9996:	2800      	cmp	r0, #0
    9998:	d052      	beq.n	9a40 <_spi_m_sync_init+0xb8>
    999a:	69e3      	ldr	r3, [r4, #28]
    999c:	4d2b      	ldr	r5, [pc, #172]	; (9a4c <_spi_m_sync_init+0xc4>)
    999e:	f013 0f01 	tst.w	r3, #1
    99a2:	d114      	bne.n	99ce <_spi_m_sync_init+0x46>
    99a4:	6807      	ldr	r7, [r0, #0]
    99a6:	2103      	movs	r1, #3
    99a8:	4620      	mov	r0, r4
    99aa:	47a8      	blx	r5
    99ac:	6823      	ldr	r3, [r4, #0]
    99ae:	079b      	lsls	r3, r3, #30
    99b0:	f007 071c 	and.w	r7, r7, #28
    99b4:	d505      	bpl.n	99c2 <_spi_m_sync_init+0x3a>
    99b6:	4620      	mov	r0, r4
    99b8:	4b25      	ldr	r3, [pc, #148]	; (9a50 <_spi_m_sync_init+0xc8>)
    99ba:	4798      	blx	r3
    99bc:	2102      	movs	r1, #2
    99be:	4620      	mov	r0, r4
    99c0:	47a8      	blx	r5
    99c2:	f047 0701 	orr.w	r7, r7, #1
    99c6:	6027      	str	r7, [r4, #0]
    99c8:	2103      	movs	r1, #3
    99ca:	4620      	mov	r0, r4
    99cc:	47a8      	blx	r5
    99ce:	2101      	movs	r1, #1
    99d0:	4620      	mov	r0, r4
    99d2:	47a8      	blx	r5
    99d4:	6813      	ldr	r3, [r2, #0]
    99d6:	6034      	str	r4, [r6, #0]
    99d8:	f003 011c 	and.w	r1, r3, #28
    99dc:	2908      	cmp	r1, #8
    99de:	d12a      	bne.n	9a36 <_spi_m_sync_init+0xae>
    99e0:	f423 7381 	bic.w	r3, r3, #258	; 0x102
    99e4:	f023 0301 	bic.w	r3, r3, #1
    99e8:	6023      	str	r3, [r4, #0]
    99ea:	2103      	movs	r1, #3
    99ec:	4620      	mov	r0, r4
    99ee:	47a8      	blx	r5
    99f0:	6853      	ldr	r3, [r2, #4]
    99f2:	f423 3308 	bic.w	r3, r3, #139264	; 0x22000
    99f6:	f423 7310 	bic.w	r3, r3, #576	; 0x240
    99fa:	f443 3300 	orr.w	r3, r3, #131072	; 0x20000
    99fe:	f443 7310 	orr.w	r3, r3, #576	; 0x240
    9a02:	6063      	str	r3, [r4, #4]
    9a04:	2117      	movs	r1, #23
    9a06:	4620      	mov	r0, r4
    9a08:	47a8      	blx	r5
    9a0a:	6893      	ldr	r3, [r2, #8]
    9a0c:	6263      	str	r3, [r4, #36]	; 0x24
    9a0e:	7b53      	ldrb	r3, [r2, #13]
    9a10:	f884 3030 	strb.w	r3, [r4, #48]	; 0x30
    9a14:	69e3      	ldr	r3, [r4, #28]
    9a16:	2b00      	cmp	r3, #0
    9a18:	d1fc      	bne.n	9a14 <_spi_m_sync_init+0x8c>
    9a1a:	6853      	ldr	r3, [r2, #4]
    9a1c:	f013 0f07 	tst.w	r3, #7
    9a20:	bf0c      	ite	eq
    9a22:	2301      	moveq	r3, #1
    9a24:	2302      	movne	r3, #2
    9a26:	7133      	strb	r3, [r6, #4]
    9a28:	7b93      	ldrb	r3, [r2, #14]
    9a2a:	7bd2      	ldrb	r2, [r2, #15]
    9a2c:	ea43 2302 	orr.w	r3, r3, r2, lsl #8
    9a30:	80f3      	strh	r3, [r6, #6]
    9a32:	2000      	movs	r0, #0
    9a34:	bdf8      	pop	{r3, r4, r5, r6, r7, pc}
    9a36:	4611      	mov	r1, r2
    9a38:	4620      	mov	r0, r4
    9a3a:	4b06      	ldr	r3, [pc, #24]	; (9a54 <_spi_m_sync_init+0xcc>)
    9a3c:	4798      	blx	r3
    9a3e:	e7ec      	b.n	9a1a <_spi_m_sync_init+0x92>
    9a40:	f06f 000c 	mvn.w	r0, #12
    9a44:	bdf8      	pop	{r3, r4, r5, r6, r7, pc}
    9a46:	bf00      	nop
    9a48:	000091f9 	.word	0x000091f9
    9a4c:	0000904d 	.word	0x0000904d
    9a50:	00009071 	.word	0x00009071
    9a54:	000093ed 	.word	0x000093ed

00009a58 <_spi_m_async_init>:
    9a58:	b5f8      	push	{r3, r4, r5, r6, r7, lr}
    9a5a:	4b10      	ldr	r3, [pc, #64]	; (9a9c <_spi_m_async_init+0x44>)
    9a5c:	4605      	mov	r5, r0
    9a5e:	460e      	mov	r6, r1
    9a60:	4798      	blx	r3
    9a62:	2800      	cmp	r0, #0
    9a64:	db18      	blt.n	9a98 <_spi_m_async_init+0x40>
    9a66:	4629      	mov	r1, r5
    9a68:	2400      	movs	r4, #0
    9a6a:	4630      	mov	r0, r6
    9a6c:	4b0c      	ldr	r3, [pc, #48]	; (9aa0 <_spi_m_async_init+0x48>)
    9a6e:	4798      	blx	r3
    9a70:	612c      	str	r4, [r5, #16]
    9a72:	60ec      	str	r4, [r5, #12]
    9a74:	60ac      	str	r4, [r5, #8]
    9a76:	4630      	mov	r0, r6
    9a78:	4b0a      	ldr	r3, [pc, #40]	; (9aa4 <_spi_m_async_init+0x4c>)
    9a7a:	4e0b      	ldr	r6, [pc, #44]	; (9aa8 <_spi_m_async_init+0x50>)
    9a7c:	4d0b      	ldr	r5, [pc, #44]	; (9aac <_spi_m_async_init+0x54>)
    9a7e:	4798      	blx	r3
    9a80:	4621      	mov	r1, r4
    9a82:	4607      	mov	r7, r0
    9a84:	187c      	adds	r4, r7, r1
    9a86:	b2e4      	uxtb	r4, r4
    9a88:	4620      	mov	r0, r4
    9a8a:	47b0      	blx	r6
    9a8c:	4620      	mov	r0, r4
    9a8e:	47a8      	blx	r5
    9a90:	3101      	adds	r1, #1
    9a92:	2904      	cmp	r1, #4
    9a94:	d1f6      	bne.n	9a84 <_spi_m_async_init+0x2c>
    9a96:	2000      	movs	r0, #0
    9a98:	bdf8      	pop	{r3, r4, r5, r6, r7, pc}
    9a9a:	bf00      	nop
    9a9c:	00009989 	.word	0x00009989
    9aa0:	0000913d 	.word	0x0000913d
    9aa4:	000091bd 	.word	0x000091bd
    9aa8:	00008ffd 	.word	0x00008ffd
    9aac:	00009025 	.word	0x00009025

00009ab0 <_spi_s_async_enable>:
    9ab0:	b538      	push	{r3, r4, r5, lr}
    9ab2:	6804      	ldr	r4, [r0, #0]
    9ab4:	4b08      	ldr	r3, [pc, #32]	; (9ad8 <_spi_s_async_enable+0x28>)
    9ab6:	4620      	mov	r0, r4
    9ab8:	4798      	blx	r3
    9aba:	4620      	mov	r0, r4
    9abc:	4b07      	ldr	r3, [pc, #28]	; (9adc <_spi_s_async_enable+0x2c>)
    9abe:	4c08      	ldr	r4, [pc, #32]	; (9ae0 <_spi_s_async_enable+0x30>)
    9ac0:	4798      	blx	r3
    9ac2:	2100      	movs	r1, #0
    9ac4:	4605      	mov	r5, r0
    9ac6:	1868      	adds	r0, r5, r1
    9ac8:	b2c0      	uxtb	r0, r0
    9aca:	47a0      	blx	r4
    9acc:	3101      	adds	r1, #1
    9ace:	2904      	cmp	r1, #4
    9ad0:	d1f9      	bne.n	9ac6 <_spi_s_async_enable+0x16>
    9ad2:	2000      	movs	r0, #0
    9ad4:	bd38      	pop	{r3, r4, r5, pc}
    9ad6:	bf00      	nop
    9ad8:	000091d1 	.word	0x000091d1
    9adc:	000091bd 	.word	0x000091bd
    9ae0:	00008fe1 	.word	0x00008fe1

00009ae4 <_spi_m_async_enable>:
    9ae4:	4b00      	ldr	r3, [pc, #0]	; (9ae8 <_spi_m_async_enable+0x4>)
    9ae6:	4718      	bx	r3
    9ae8:	00009ab1 	.word	0x00009ab1

00009aec <_spi_s_async_set_mode>:
    9aec:	6800      	ldr	r0, [r0, #0]
    9aee:	4b01      	ldr	r3, [pc, #4]	; (9af4 <_spi_s_async_set_mode+0x8>)
    9af0:	4718      	bx	r3
    9af2:	bf00      	nop
    9af4:	00009429 	.word	0x00009429

00009af8 <_spi_m_async_set_mode>:
    9af8:	4b00      	ldr	r3, [pc, #0]	; (9afc <_spi_m_async_set_mode+0x4>)
    9afa:	4718      	bx	r3
    9afc:	00009aed 	.word	0x00009aed

00009b00 <_spi_m_async_set_baudrate>:
    9b00:	6803      	ldr	r3, [r0, #0]
    9b02:	69d8      	ldr	r0, [r3, #28]
    9b04:	f010 0001 	ands.w	r0, r0, #1
    9b08:	bf06      	itte	eq
    9b0a:	b2c9      	uxtbeq	r1, r1
    9b0c:	7319      	strbeq	r1, [r3, #12]
    9b0e:	f06f 0003 	mvnne.w	r0, #3
    9b12:	4770      	bx	lr

00009b14 <_spi_m_async_enable_tx>:
    9b14:	6803      	ldr	r3, [r0, #0]
    9b16:	2201      	movs	r2, #1
    9b18:	b111      	cbz	r1, 9b20 <_spi_m_async_enable_tx+0xc>
    9b1a:	759a      	strb	r2, [r3, #22]
    9b1c:	2000      	movs	r0, #0
    9b1e:	4770      	bx	lr
    9b20:	751a      	strb	r2, [r3, #20]
    9b22:	e7fb      	b.n	9b1c <_spi_m_async_enable_tx+0x8>

00009b24 <_spi_m_async_enable_rx>:
    9b24:	6803      	ldr	r3, [r0, #0]
    9b26:	2204      	movs	r2, #4
    9b28:	b111      	cbz	r1, 9b30 <_spi_m_async_enable_rx+0xc>
    9b2a:	759a      	strb	r2, [r3, #22]
    9b2c:	2000      	movs	r0, #0
    9b2e:	4770      	bx	lr
    9b30:	751a      	strb	r2, [r3, #20]
    9b32:	e7fb      	b.n	9b2c <_spi_m_async_enable_rx+0x8>

00009b34 <_spi_m_async_enable_tx_complete>:
    9b34:	6803      	ldr	r3, [r0, #0]
    9b36:	2202      	movs	r2, #2
    9b38:	b111      	cbz	r1, 9b40 <_spi_m_async_enable_tx_complete+0xc>
    9b3a:	759a      	strb	r2, [r3, #22]
    9b3c:	2000      	movs	r0, #0
    9b3e:	4770      	bx	lr
    9b40:	751a      	strb	r2, [r3, #20]
    9b42:	e7fb      	b.n	9b3c <_spi_m_async_enable_tx_complete+0x8>

00009b44 <_spi_m_async_write_one>:
    9b44:	6803      	ldr	r3, [r0, #0]
    9b46:	2000      	movs	r0, #0
    9b48:	6299      	str	r1, [r3, #40]	; 0x28
    9b4a:	4770      	bx	lr

00009b4c <_spi_m_async_read_one>:
    9b4c:	6803      	ldr	r3, [r0, #0]
    9b4e:	6a98      	ldr	r0, [r3, #40]	; 0x28
    9b50:	b280      	uxth	r0, r0
    9b52:	4770      	bx	lr

00009b54 <_spi_m_async_register_callback>:
    9b54:	eb00 0181 	add.w	r1, r0, r1, lsl #2
    9b58:	2000      	movs	r0, #0
    9b5a:	608a      	str	r2, [r1, #8]
    9b5c:	4770      	bx	lr

00009b5e <_spi_m_async_set_irq_state>:
    9b5e:	2903      	cmp	r1, #3
    9b60:	d105      	bne.n	9b6e <_spi_m_async_set_irq_state+0x10>
    9b62:	6803      	ldr	r3, [r0, #0]
    9b64:	2180      	movs	r1, #128	; 0x80
    9b66:	b90a      	cbnz	r2, 9b6c <_spi_m_async_set_irq_state+0xe>
    9b68:	7519      	strb	r1, [r3, #20]
    9b6a:	4770      	bx	lr
    9b6c:	7599      	strb	r1, [r3, #22]
    9b6e:	4770      	bx	lr

00009b70 <_spi_m_dma_init>:
    9b70:	e92d 41f0 	stmdb	sp!, {r4, r5, r6, r7, r8, lr}
    9b74:	4b25      	ldr	r3, [pc, #148]	; (9c0c <_spi_m_dma_init+0x9c>)
    9b76:	4605      	mov	r5, r0
    9b78:	4608      	mov	r0, r1
    9b7a:	460c      	mov	r4, r1
    9b7c:	4798      	blx	r3
    9b7e:	4607      	mov	r7, r0
    9b80:	2800      	cmp	r0, #0
    9b82:	d03f      	beq.n	9c04 <_spi_m_dma_init+0x94>
    9b84:	69e3      	ldr	r3, [r4, #28]
    9b86:	4e22      	ldr	r6, [pc, #136]	; (9c10 <_spi_m_dma_init+0xa0>)
    9b88:	f013 0f01 	tst.w	r3, #1
    9b8c:	d114      	bne.n	9bb8 <_spi_m_dma_init+0x48>
    9b8e:	6802      	ldr	r2, [r0, #0]
    9b90:	2103      	movs	r1, #3
    9b92:	4620      	mov	r0, r4
    9b94:	f002 021c 	and.w	r2, r2, #28
    9b98:	47b0      	blx	r6
    9b9a:	6823      	ldr	r3, [r4, #0]
    9b9c:	079b      	lsls	r3, r3, #30
    9b9e:	d505      	bpl.n	9bac <_spi_m_dma_init+0x3c>
    9ba0:	4620      	mov	r0, r4
    9ba2:	4b1c      	ldr	r3, [pc, #112]	; (9c14 <_spi_m_dma_init+0xa4>)
    9ba4:	4798      	blx	r3
    9ba6:	2102      	movs	r1, #2
    9ba8:	4620      	mov	r0, r4
    9baa:	47b0      	blx	r6
    9bac:	f042 0201 	orr.w	r2, r2, #1
    9bb0:	6022      	str	r2, [r4, #0]
    9bb2:	2103      	movs	r1, #3
    9bb4:	4620      	mov	r0, r4
    9bb6:	47b0      	blx	r6
    9bb8:	4620      	mov	r0, r4
    9bba:	2101      	movs	r1, #1
    9bbc:	47b0      	blx	r6
    9bbe:	462e      	mov	r6, r5
    9bc0:	4639      	mov	r1, r7
    9bc2:	f846 4b18 	str.w	r4, [r6], #24
    9bc6:	4620      	mov	r0, r4
    9bc8:	4b13      	ldr	r3, [pc, #76]	; (9c18 <_spi_m_dma_init+0xa8>)
    9bca:	f8df 8064 	ldr.w	r8, [pc, #100]	; 9c30 <_spi_m_dma_init+0xc0>
    9bce:	4f13      	ldr	r7, [pc, #76]	; (9c1c <_spi_m_dma_init+0xac>)
    9bd0:	4798      	blx	r3
    9bd2:	4b13      	ldr	r3, [pc, #76]	; (9c20 <_spi_m_dma_init+0xb0>)
    9bd4:	4620      	mov	r0, r4
    9bd6:	4798      	blx	r3
    9bd8:	4601      	mov	r1, r0
    9bda:	4630      	mov	r0, r6
    9bdc:	47c0      	blx	r8
    9bde:	69ab      	ldr	r3, [r5, #24]
    9be0:	4a10      	ldr	r2, [pc, #64]	; (9c24 <_spi_m_dma_init+0xb4>)
    9be2:	601a      	str	r2, [r3, #0]
    9be4:	609d      	str	r5, [r3, #8]
    9be6:	605f      	str	r7, [r3, #4]
    9be8:	4620      	mov	r0, r4
    9bea:	4b0f      	ldr	r3, [pc, #60]	; (9c28 <_spi_m_dma_init+0xb8>)
    9bec:	4798      	blx	r3
    9bee:	4601      	mov	r1, r0
    9bf0:	4630      	mov	r0, r6
    9bf2:	47c0      	blx	r8
    9bf4:	69ab      	ldr	r3, [r5, #24]
    9bf6:	4a0d      	ldr	r2, [pc, #52]	; (9c2c <_spi_m_dma_init+0xbc>)
    9bf8:	609d      	str	r5, [r3, #8]
    9bfa:	e883 0084 	stmia.w	r3, {r2, r7}
    9bfe:	2000      	movs	r0, #0
    9c00:	e8bd 81f0 	ldmia.w	sp!, {r4, r5, r6, r7, r8, pc}
    9c04:	f06f 000c 	mvn.w	r0, #12
    9c08:	e8bd 81f0 	ldmia.w	sp!, {r4, r5, r6, r7, r8, pc}
    9c0c:	000091f9 	.word	0x000091f9
    9c10:	0000904d 	.word	0x0000904d
    9c14:	00009071 	.word	0x00009071
    9c18:	000093ed 	.word	0x000093ed
    9c1c:	00009261 	.word	0x00009261
    9c20:	00009239 	.word	0x00009239
    9c24:	0000924d 	.word	0x0000924d
    9c28:	00009225 	.word	0x00009225
    9c2c:	00009257 	.word	0x00009257
    9c30:	00008bbd 	.word	0x00008bbd

00009c34 <_spi_m_dma_enable>:
    9c34:	6800      	ldr	r0, [r0, #0]
    9c36:	4b01      	ldr	r3, [pc, #4]	; (9c3c <_spi_m_dma_enable+0x8>)
    9c38:	4718      	bx	r3
    9c3a:	bf00      	nop
    9c3c:	000091d1 	.word	0x000091d1

00009c40 <_spi_m_dma_register_callback>:
    9c40:	2901      	cmp	r1, #1
    9c42:	b570      	push	{r4, r5, r6, lr}
    9c44:	4605      	mov	r5, r0
    9c46:	4614      	mov	r4, r2
    9c48:	d00f      	beq.n	9c6a <_spi_m_dma_register_callback+0x2a>
    9c4a:	d302      	bcc.n	9c52 <_spi_m_dma_register_callback+0x12>
    9c4c:	2902      	cmp	r1, #2
    9c4e:	d010      	beq.n	9c72 <_spi_m_dma_register_callback+0x32>
    9c50:	bd70      	pop	{r4, r5, r6, pc}
    9c52:	6800      	ldr	r0, [r0, #0]
    9c54:	4b10      	ldr	r3, [pc, #64]	; (9c98 <_spi_m_dma_register_callback+0x58>)
    9c56:	606a      	str	r2, [r5, #4]
    9c58:	4798      	blx	r3
    9c5a:	1c22      	adds	r2, r4, #0
    9c5c:	4b0f      	ldr	r3, [pc, #60]	; (9c9c <_spi_m_dma_register_callback+0x5c>)
    9c5e:	bf18      	it	ne
    9c60:	2201      	movne	r2, #1
    9c62:	2100      	movs	r1, #0
    9c64:	e8bd 4070 	ldmia.w	sp!, {r4, r5, r6, lr}
    9c68:	4718      	bx	r3
    9c6a:	60aa      	str	r2, [r5, #8]
    9c6c:	6800      	ldr	r0, [r0, #0]
    9c6e:	4b0c      	ldr	r3, [pc, #48]	; (9ca0 <_spi_m_dma_register_callback+0x60>)
    9c70:	e7f2      	b.n	9c58 <_spi_m_dma_register_callback+0x18>
    9c72:	4b0b      	ldr	r3, [pc, #44]	; (9ca0 <_spi_m_dma_register_callback+0x60>)
    9c74:	60ea      	str	r2, [r5, #12]
    9c76:	6800      	ldr	r0, [r0, #0]
    9c78:	4e08      	ldr	r6, [pc, #32]	; (9c9c <_spi_m_dma_register_callback+0x5c>)
    9c7a:	4798      	blx	r3
    9c7c:	3400      	adds	r4, #0
    9c7e:	bf18      	it	ne
    9c80:	2401      	movne	r4, #1
    9c82:	4622      	mov	r2, r4
    9c84:	2101      	movs	r1, #1
    9c86:	47b0      	blx	r6
    9c88:	4b03      	ldr	r3, [pc, #12]	; (9c98 <_spi_m_dma_register_callback+0x58>)
    9c8a:	6828      	ldr	r0, [r5, #0]
    9c8c:	4798      	blx	r3
    9c8e:	4622      	mov	r2, r4
    9c90:	2101      	movs	r1, #1
    9c92:	4633      	mov	r3, r6
    9c94:	e7e6      	b.n	9c64 <_spi_m_dma_register_callback+0x24>
    9c96:	bf00      	nop
    9c98:	00009225 	.word	0x00009225
    9c9c:	00008ad9 	.word	0x00008ad9
    9ca0:	00009239 	.word	0x00009239

00009ca4 <_spi_m_dma_transfer>:
    9ca4:	e92d 4ff7 	stmdb	sp!, {r0, r1, r2, r4, r5, r6, r7, r8, r9, sl, fp, lr}
    9ca8:	f8d0 a000 	ldr.w	sl, [r0]
    9cac:	9200      	str	r2, [sp, #0]
    9cae:	4605      	mov	r5, r0
    9cb0:	4a31      	ldr	r2, [pc, #196]	; (9d78 <_spi_m_dma_transfer+0xd4>)
    9cb2:	f8df b0e4 	ldr.w	fp, [pc, #228]	; 9d98 <_spi_m_dma_transfer+0xf4>
    9cb6:	4f31      	ldr	r7, [pc, #196]	; (9d7c <_spi_m_dma_transfer+0xd8>)
    9cb8:	4650      	mov	r0, sl
    9cba:	4698      	mov	r8, r3
    9cbc:	4689      	mov	r9, r1
    9cbe:	4790      	blx	r2
    9cc0:	4a2f      	ldr	r2, [pc, #188]	; (9d80 <_spi_m_dma_transfer+0xdc>)
    9cc2:	9001      	str	r0, [sp, #4]
    9cc4:	4650      	mov	r0, sl
    9cc6:	4790      	blx	r2
    9cc8:	4a2e      	ldr	r2, [pc, #184]	; (9d84 <_spi_m_dma_transfer+0xe0>)
    9cca:	4606      	mov	r6, r0
    9ccc:	4650      	mov	r0, sl
    9cce:	4790      	blx	r2
    9cd0:	9b00      	ldr	r3, [sp, #0]
    9cd2:	f8da 201c 	ldr.w	r2, [sl, #28]
    9cd6:	4604      	mov	r4, r0
    9cd8:	2b00      	cmp	r3, #0
    9cda:	d034      	beq.n	9d46 <_spi_m_dma_transfer+0xa2>
    9cdc:	0752      	lsls	r2, r2, #29
    9cde:	d409      	bmi.n	9cf4 <_spi_m_dma_transfer+0x50>
    9ce0:	f8da 2004 	ldr.w	r2, [sl, #4]
    9ce4:	4b28      	ldr	r3, [pc, #160]	; (9d88 <_spi_m_dma_transfer+0xe4>)
    9ce6:	f442 3200 	orr.w	r2, r2, #131072	; 0x20000
    9cea:	f8ca 2004 	str.w	r2, [sl, #4]
    9cee:	2117      	movs	r1, #23
    9cf0:	4650      	mov	r0, sl
    9cf2:	4798      	blx	r3
    9cf4:	6829      	ldr	r1, [r5, #0]
    9cf6:	4630      	mov	r0, r6
    9cf8:	3128      	adds	r1, #40	; 0x28
    9cfa:	47d8      	blx	fp
    9cfc:	4b23      	ldr	r3, [pc, #140]	; (9d8c <_spi_m_dma_transfer+0xe8>)
    9cfe:	9900      	ldr	r1, [sp, #0]
    9d00:	4630      	mov	r0, r6
    9d02:	4798      	blx	r3
    9d04:	4641      	mov	r1, r8
    9d06:	4630      	mov	r0, r6
    9d08:	47b8      	blx	r7
    9d0a:	2100      	movs	r1, #0
    9d0c:	4630      	mov	r0, r6
    9d0e:	4b20      	ldr	r3, [pc, #128]	; (9d90 <_spi_m_dma_transfer+0xec>)
    9d10:	4798      	blx	r3
    9d12:	4e20      	ldr	r6, [pc, #128]	; (9d94 <_spi_m_dma_transfer+0xf0>)
    9d14:	f1b9 0f00 	cmp.w	r9, #0
    9d18:	d022      	beq.n	9d60 <_spi_m_dma_transfer+0xbc>
    9d1a:	4649      	mov	r1, r9
    9d1c:	4620      	mov	r0, r4
    9d1e:	47d8      	blx	fp
    9d20:	6829      	ldr	r1, [r5, #0]
    9d22:	4b1a      	ldr	r3, [pc, #104]	; (9d8c <_spi_m_dma_transfer+0xe8>)
    9d24:	3128      	adds	r1, #40	; 0x28
    9d26:	4620      	mov	r0, r4
    9d28:	4798      	blx	r3
    9d2a:	2101      	movs	r1, #1
    9d2c:	4620      	mov	r0, r4
    9d2e:	47b0      	blx	r6
    9d30:	4641      	mov	r1, r8
    9d32:	4620      	mov	r0, r4
    9d34:	47b8      	blx	r7
    9d36:	2100      	movs	r1, #0
    9d38:	4620      	mov	r0, r4
    9d3a:	4b15      	ldr	r3, [pc, #84]	; (9d90 <_spi_m_dma_transfer+0xec>)
    9d3c:	4798      	blx	r3
    9d3e:	2000      	movs	r0, #0
    9d40:	b003      	add	sp, #12
    9d42:	e8bd 8ff0 	ldmia.w	sp!, {r4, r5, r6, r7, r8, r9, sl, fp, pc}
    9d46:	0753      	lsls	r3, r2, #29
    9d48:	d4e3      	bmi.n	9d12 <_spi_m_dma_transfer+0x6e>
    9d4a:	f8da 2004 	ldr.w	r2, [sl, #4]
    9d4e:	4b0e      	ldr	r3, [pc, #56]	; (9d88 <_spi_m_dma_transfer+0xe4>)
    9d50:	f422 3200 	bic.w	r2, r2, #131072	; 0x20000
    9d54:	f8ca 2004 	str.w	r2, [sl, #4]
    9d58:	2117      	movs	r1, #23
    9d5a:	4650      	mov	r0, sl
    9d5c:	4798      	blx	r3
    9d5e:	e7d8      	b.n	9d12 <_spi_m_dma_transfer+0x6e>
    9d60:	9901      	ldr	r1, [sp, #4]
    9d62:	4620      	mov	r0, r4
    9d64:	310e      	adds	r1, #14
    9d66:	47d8      	blx	fp
    9d68:	6829      	ldr	r1, [r5, #0]
    9d6a:	4b08      	ldr	r3, [pc, #32]	; (9d8c <_spi_m_dma_transfer+0xe8>)
    9d6c:	3128      	adds	r1, #40	; 0x28
    9d6e:	4620      	mov	r0, r4
    9d70:	4798      	blx	r3
    9d72:	4649      	mov	r1, r9
    9d74:	e7da      	b.n	9d2c <_spi_m_dma_transfer+0x88>
    9d76:	bf00      	nop
    9d78:	000091f9 	.word	0x000091f9
    9d7c:	00008b3d 	.word	0x00008b3d
    9d80:	00009239 	.word	0x00009239
    9d84:	00009225 	.word	0x00009225
    9d88:	0000904d 	.word	0x0000904d
    9d8c:	00008b01 	.word	0x00008b01
    9d90:	00008b81 	.word	0x00008b81
    9d94:	00008b21 	.word	0x00008b21
    9d98:	00008b11 	.word	0x00008b11

00009d9c <_delay_init>:
    9d9c:	4b03      	ldr	r3, [pc, #12]	; (9dac <_delay_init+0x10>)
    9d9e:	f06f 427f 	mvn.w	r2, #4278190080	; 0xff000000
    9da2:	605a      	str	r2, [r3, #4]
    9da4:	2205      	movs	r2, #5
    9da6:	601a      	str	r2, [r3, #0]
    9da8:	4770      	bx	lr
    9daa:	bf00      	nop
    9dac:	e000e010 	.word	0xe000e010

00009db0 <_delay_cycles>:
    9db0:	0e0b      	lsrs	r3, r1, #24
    9db2:	4a0c      	ldr	r2, [pc, #48]	; (9de4 <_delay_cycles+0x34>)
    9db4:	b530      	push	{r4, r5, lr}
    9db6:	b2d8      	uxtb	r0, r3
    9db8:	f06f 447f 	mvn.w	r4, #4278190080	; 0xff000000
    9dbc:	3801      	subs	r0, #1
    9dbe:	b2c0      	uxtb	r0, r0
    9dc0:	28ff      	cmp	r0, #255	; 0xff
    9dc2:	d108      	bne.n	9dd6 <_delay_cycles+0x26>
    9dc4:	eba3 6303 	sub.w	r3, r3, r3, lsl #24
    9dc8:	4419      	add	r1, r3
    9dca:	6051      	str	r1, [r2, #4]
    9dcc:	6091      	str	r1, [r2, #8]
    9dce:	6813      	ldr	r3, [r2, #0]
    9dd0:	03db      	lsls	r3, r3, #15
    9dd2:	d5fc      	bpl.n	9dce <_delay_cycles+0x1e>
    9dd4:	bd30      	pop	{r4, r5, pc}
    9dd6:	6054      	str	r4, [r2, #4]
    9dd8:	6094      	str	r4, [r2, #8]
    9dda:	6815      	ldr	r5, [r2, #0]
    9ddc:	03ed      	lsls	r5, r5, #15
    9dde:	d5fc      	bpl.n	9dda <_delay_cycles+0x2a>
    9de0:	e7ec      	b.n	9dbc <_delay_cycles+0xc>
    9de2:	bf00      	nop
    9de4:	e000e010 	.word	0xe000e010

00009de8 <__NVIC_DisableIRQ>:
    9de8:	2800      	cmp	r0, #0
    9dea:	db0d      	blt.n	9e08 <__NVIC_DisableIRQ+0x20>
    9dec:	0943      	lsrs	r3, r0, #5
    9dee:	2201      	movs	r2, #1
    9df0:	f000 001f 	and.w	r0, r0, #31
    9df4:	fa02 f000 	lsl.w	r0, r2, r0
    9df8:	3320      	adds	r3, #32
    9dfa:	4a04      	ldr	r2, [pc, #16]	; (9e0c <__NVIC_DisableIRQ+0x24>)
    9dfc:	f842 0023 	str.w	r0, [r2, r3, lsl #2]
    9e00:	f3bf 8f4f 	dsb	sy
    9e04:	f3bf 8f6f 	isb	sy
    9e08:	4770      	bx	lr
    9e0a:	bf00      	nop
    9e0c:	e000e100 	.word	0xe000e100

00009e10 <hri_tc_wait_for_sync>:
    9e10:	6903      	ldr	r3, [r0, #16]
    9e12:	420b      	tst	r3, r1
    9e14:	d1fc      	bne.n	9e10 <hri_tc_wait_for_sync>
    9e16:	4770      	bx	lr

00009e18 <_tc_timer_start>:
    9e18:	68c0      	ldr	r0, [r0, #12]
    9e1a:	6803      	ldr	r3, [r0, #0]
    9e1c:	f043 0302 	orr.w	r3, r3, #2
    9e20:	6003      	str	r3, [r0, #0]
    9e22:	2103      	movs	r1, #3
    9e24:	4b00      	ldr	r3, [pc, #0]	; (9e28 <_tc_timer_start+0x10>)
    9e26:	4718      	bx	r3
    9e28:	00009e11 	.word	0x00009e11

00009e2c <_tc_timer_get_period>:
    9e2c:	b508      	push	{r3, lr}
    9e2e:	68c2      	ldr	r2, [r0, #12]
    9e30:	6813      	ldr	r3, [r2, #0]
    9e32:	f3c3 0381 	ubfx	r3, r3, #2, #2
    9e36:	2b02      	cmp	r3, #2
    9e38:	d105      	bne.n	9e46 <_tc_timer_get_period+0x1a>
    9e3a:	4610      	mov	r0, r2
    9e3c:	21c0      	movs	r1, #192	; 0xc0
    9e3e:	4b0e      	ldr	r3, [pc, #56]	; (9e78 <_tc_timer_get_period+0x4c>)
    9e40:	4798      	blx	r3
    9e42:	69d0      	ldr	r0, [r2, #28]
    9e44:	bd08      	pop	{r3, pc}
    9e46:	6813      	ldr	r3, [r2, #0]
    9e48:	f013 0f0c 	tst.w	r3, #12
    9e4c:	d106      	bne.n	9e5c <_tc_timer_get_period+0x30>
    9e4e:	4610      	mov	r0, r2
    9e50:	21c0      	movs	r1, #192	; 0xc0
    9e52:	4b09      	ldr	r3, [pc, #36]	; (9e78 <_tc_timer_get_period+0x4c>)
    9e54:	4798      	blx	r3
    9e56:	8b90      	ldrh	r0, [r2, #28]
    9e58:	b280      	uxth	r0, r0
    9e5a:	bd08      	pop	{r3, pc}
    9e5c:	6813      	ldr	r3, [r2, #0]
    9e5e:	f3c3 0381 	ubfx	r3, r3, #2, #2
    9e62:	2b01      	cmp	r3, #1
    9e64:	d106      	bne.n	9e74 <_tc_timer_get_period+0x48>
    9e66:	4610      	mov	r0, r2
    9e68:	2120      	movs	r1, #32
    9e6a:	4b03      	ldr	r3, [pc, #12]	; (9e78 <_tc_timer_get_period+0x4c>)
    9e6c:	4798      	blx	r3
    9e6e:	7ed0      	ldrb	r0, [r2, #27]
    9e70:	b2c0      	uxtb	r0, r0
    9e72:	bd08      	pop	{r3, pc}
    9e74:	2000      	movs	r0, #0
    9e76:	bd08      	pop	{r3, pc}
    9e78:	00009e11 	.word	0x00009e11

00009e7c <_tc_timer_is_started>:
    9e7c:	68c2      	ldr	r2, [r0, #12]
    9e7e:	b508      	push	{r3, lr}
    9e80:	4610      	mov	r0, r2
    9e82:	2103      	movs	r1, #3
    9e84:	4b02      	ldr	r3, [pc, #8]	; (9e90 <_tc_timer_is_started+0x14>)
    9e86:	4798      	blx	r3
    9e88:	6810      	ldr	r0, [r2, #0]
    9e8a:	f3c0 0040 	ubfx	r0, r0, #1, #1
    9e8e:	bd08      	pop	{r3, pc}
    9e90:	00009e11 	.word	0x00009e11

00009e94 <tc_interrupt_handler>:
    9e94:	68c2      	ldr	r2, [r0, #12]
    9e96:	7a91      	ldrb	r1, [r2, #10]
    9e98:	07c9      	lsls	r1, r1, #31
    9e9a:	d503      	bpl.n	9ea4 <tc_interrupt_handler+0x10>
    9e9c:	2101      	movs	r1, #1
    9e9e:	7291      	strb	r1, [r2, #10]
    9ea0:	6803      	ldr	r3, [r0, #0]
    9ea2:	4718      	bx	r3
    9ea4:	4770      	bx	lr
	...

00009ea8 <get_tc_index>:
    9ea8:	b570      	push	{r4, r5, r6, lr}
    9eaa:	4d12      	ldr	r5, [pc, #72]	; (9ef4 <get_tc_index+0x4c>)
    9eac:	4606      	mov	r6, r0
    9eae:	cd0f      	ldmia	r5!, {r0, r1, r2, r3}
    9eb0:	b088      	sub	sp, #32
    9eb2:	466c      	mov	r4, sp
    9eb4:	c40f      	stmia	r4!, {r0, r1, r2, r3}
    9eb6:	e895 000f 	ldmia.w	r5, {r0, r1, r2, r3}
    9eba:	e884 000f 	stmia.w	r4, {r0, r1, r2, r3}
    9ebe:	2300      	movs	r3, #0
    9ec0:	f85d 2023 	ldr.w	r2, [sp, r3, lsl #2]
    9ec4:	42b2      	cmp	r2, r6
    9ec6:	d103      	bne.n	9ed0 <get_tc_index+0x28>
    9ec8:	b2d8      	uxtb	r0, r3
    9eca:	b933      	cbnz	r3, 9eda <get_tc_index+0x32>
    9ecc:	4618      	mov	r0, r3
    9ece:	e00a      	b.n	9ee6 <get_tc_index+0x3e>
    9ed0:	3301      	adds	r3, #1
    9ed2:	2b08      	cmp	r3, #8
    9ed4:	d1f4      	bne.n	9ec0 <get_tc_index+0x18>
    9ed6:	2000      	movs	r0, #0
    9ed8:	e005      	b.n	9ee6 <get_tc_index+0x3e>
    9eda:	2801      	cmp	r0, #1
    9edc:	d003      	beq.n	9ee6 <get_tc_index+0x3e>
    9ede:	2802      	cmp	r0, #2
    9ee0:	d001      	beq.n	9ee6 <get_tc_index+0x3e>
    9ee2:	2803      	cmp	r0, #3
    9ee4:	d102      	bne.n	9eec <get_tc_index+0x44>
    9ee6:	b240      	sxtb	r0, r0
    9ee8:	b008      	add	sp, #32
    9eea:	bd70      	pop	{r4, r5, r6, pc}
    9eec:	f04f 30ff 	mov.w	r0, #4294967295
    9ef0:	e7fa      	b.n	9ee8 <get_tc_index+0x40>
    9ef2:	bf00      	nop
    9ef4:	0000e00c 	.word	0x0000e00c

00009ef8 <_tc_timer_set_irq>:
    9ef8:	b510      	push	{r4, lr}
    9efa:	4b06      	ldr	r3, [pc, #24]	; (9f14 <_tc_timer_set_irq+0x1c>)
    9efc:	68c0      	ldr	r0, [r0, #12]
    9efe:	4798      	blx	r3
    9f00:	4a05      	ldr	r2, [pc, #20]	; (9f18 <_tc_timer_set_irq+0x20>)
    9f02:	2314      	movs	r3, #20
    9f04:	fb03 2000 	mla	r0, r3, r0, r2
    9f08:	e8bd 4010 	ldmia.w	sp!, {r4, lr}
    9f0c:	f890 0022 	ldrb.w	r0, [r0, #34]	; 0x22
    9f10:	4b02      	ldr	r3, [pc, #8]	; (9f1c <_tc_timer_set_irq+0x24>)
    9f12:	4718      	bx	r3
    9f14:	00009ea9 	.word	0x00009ea9
    9f18:	0000e00c 	.word	0x0000e00c
    9f1c:	00008935 	.word	0x00008935

00009f20 <_tc_timer_stop>:
    9f20:	68c0      	ldr	r0, [r0, #12]
    9f22:	6803      	ldr	r3, [r0, #0]
    9f24:	f023 0302 	bic.w	r3, r3, #2
    9f28:	6003      	str	r3, [r0, #0]
    9f2a:	2103      	movs	r1, #3
    9f2c:	4b00      	ldr	r3, [pc, #0]	; (9f30 <_tc_timer_stop+0x10>)
    9f2e:	4718      	bx	r3
    9f30:	00009e11 	.word	0x00009e11

00009f34 <_tc_timer_deinit>:
    9f34:	b510      	push	{r4, lr}
    9f36:	68c4      	ldr	r4, [r0, #12]
    9f38:	4b0d      	ldr	r3, [pc, #52]	; (9f70 <_tc_timer_deinit+0x3c>)
    9f3a:	4620      	mov	r0, r4
    9f3c:	4798      	blx	r3
    9f3e:	4a0d      	ldr	r2, [pc, #52]	; (9f74 <_tc_timer_deinit+0x40>)
    9f40:	2314      	movs	r3, #20
    9f42:	fb03 2000 	mla	r0, r3, r0, r2
    9f46:	4b0c      	ldr	r3, [pc, #48]	; (9f78 <_tc_timer_deinit+0x44>)
    9f48:	f9b0 0022 	ldrsh.w	r0, [r0, #34]	; 0x22
    9f4c:	4798      	blx	r3
    9f4e:	6823      	ldr	r3, [r4, #0]
    9f50:	4a0a      	ldr	r2, [pc, #40]	; (9f7c <_tc_timer_deinit+0x48>)
    9f52:	f023 0302 	bic.w	r3, r3, #2
    9f56:	6023      	str	r3, [r4, #0]
    9f58:	4620      	mov	r0, r4
    9f5a:	2103      	movs	r1, #3
    9f5c:	4790      	blx	r2
    9f5e:	6823      	ldr	r3, [r4, #0]
    9f60:	f043 0301 	orr.w	r3, r3, #1
    9f64:	6023      	str	r3, [r4, #0]
    9f66:	4620      	mov	r0, r4
    9f68:	2101      	movs	r1, #1
    9f6a:	e8bd 4010 	ldmia.w	sp!, {r4, lr}
    9f6e:	4710      	bx	r2
    9f70:	00009ea9 	.word	0x00009ea9
    9f74:	0000e00c 	.word	0x0000e00c
    9f78:	00009de9 	.word	0x00009de9
    9f7c:	00009e11 	.word	0x00009e11

00009f80 <_tc_timer_init>:
    9f80:	e92d 43f8 	stmdb	sp!, {r3, r4, r5, r6, r7, r8, r9, lr}
    9f84:	4607      	mov	r7, r0
    9f86:	460c      	mov	r4, r1
    9f88:	4b48      	ldr	r3, [pc, #288]	; (a0ac <_tc_timer_init+0x12c>)
    9f8a:	4608      	mov	r0, r1
    9f8c:	4798      	blx	r3
    9f8e:	60fc      	str	r4, [r7, #12]
    9f90:	6923      	ldr	r3, [r4, #16]
    9f92:	4a47      	ldr	r2, [pc, #284]	; (a0b0 <_tc_timer_init+0x130>)
    9f94:	f013 0f01 	tst.w	r3, #1
    9f98:	4680      	mov	r8, r0
    9f9a:	d114      	bne.n	9fc6 <_tc_timer_init+0x46>
    9f9c:	2103      	movs	r1, #3
    9f9e:	4620      	mov	r0, r4
    9fa0:	4790      	blx	r2
    9fa2:	6823      	ldr	r3, [r4, #0]
    9fa4:	079b      	lsls	r3, r3, #30
    9fa6:	d509      	bpl.n	9fbc <_tc_timer_init+0x3c>
    9fa8:	6823      	ldr	r3, [r4, #0]
    9faa:	f023 0302 	bic.w	r3, r3, #2
    9fae:	2103      	movs	r1, #3
    9fb0:	4620      	mov	r0, r4
    9fb2:	6023      	str	r3, [r4, #0]
    9fb4:	4790      	blx	r2
    9fb6:	2102      	movs	r1, #2
    9fb8:	4620      	mov	r0, r4
    9fba:	4790      	blx	r2
    9fbc:	2301      	movs	r3, #1
    9fbe:	6023      	str	r3, [r4, #0]
    9fc0:	2103      	movs	r1, #3
    9fc2:	4620      	mov	r0, r4
    9fc4:	4790      	blx	r2
    9fc6:	f8df 9104 	ldr.w	r9, [pc, #260]	; a0cc <_tc_timer_init+0x14c>
    9fca:	2514      	movs	r5, #20
    9fcc:	fb05 9508 	mla	r5, r5, r8, r9
    9fd0:	2101      	movs	r1, #1
    9fd2:	4620      	mov	r0, r4
    9fd4:	4790      	blx	r2
    9fd6:	6a6e      	ldr	r6, [r5, #36]	; 0x24
    9fd8:	6026      	str	r6, [r4, #0]
    9fda:	2103      	movs	r1, #3
    9fdc:	4620      	mov	r0, r4
    9fde:	4790      	blx	r2
    9fe0:	f895 302a 	ldrb.w	r3, [r5, #42]	; 0x2a
    9fe4:	73e3      	strb	r3, [r4, #15]
    9fe6:	f006 060c 	and.w	r6, r6, #12
    9fea:	8d2b      	ldrh	r3, [r5, #40]	; 0x28
    9fec:	80e3      	strh	r3, [r4, #6]
    9fee:	2e08      	cmp	r6, #8
    9ff0:	f04f 0301 	mov.w	r3, #1
    9ff4:	7323      	strb	r3, [r4, #12]
    9ff6:	d12a      	bne.n	a04e <_tc_timer_init+0xce>
    9ff8:	6aeb      	ldr	r3, [r5, #44]	; 0x2c
    9ffa:	61e3      	str	r3, [r4, #28]
    9ffc:	21c0      	movs	r1, #192	; 0xc0
    9ffe:	4620      	mov	r0, r4
    a000:	4790      	blx	r2
    a002:	6b2b      	ldr	r3, [r5, #48]	; 0x30
    a004:	6223      	str	r3, [r4, #32]
    a006:	21c0      	movs	r1, #192	; 0xc0
    a008:	4620      	mov	r0, r4
    a00a:	4790      	blx	r2
    a00c:	2301      	movs	r3, #1
    a00e:	7263      	strb	r3, [r4, #9]
    a010:	4b28      	ldr	r3, [pc, #160]	; (a0b4 <_tc_timer_init+0x134>)
    a012:	429c      	cmp	r4, r3
    a014:	d137      	bne.n	a086 <_tc_timer_init+0x106>
    a016:	4b28      	ldr	r3, [pc, #160]	; (a0b8 <_tc_timer_init+0x138>)
    a018:	601f      	str	r7, [r3, #0]
    a01a:	2314      	movs	r3, #20
    a01c:	fb03 9808 	mla	r8, r3, r8, r9
    a020:	4b26      	ldr	r3, [pc, #152]	; (a0bc <_tc_timer_init+0x13c>)
    a022:	f9b8 1022 	ldrsh.w	r1, [r8, #34]	; 0x22
    a026:	4608      	mov	r0, r1
    a028:	4798      	blx	r3
    a02a:	2900      	cmp	r1, #0
    a02c:	db0c      	blt.n	a048 <_tc_timer_init+0xc8>
    a02e:	f001 021f 	and.w	r2, r1, #31
    a032:	0949      	lsrs	r1, r1, #5
    a034:	0089      	lsls	r1, r1, #2
    a036:	f101 4160 	add.w	r1, r1, #3758096384	; 0xe0000000
    a03a:	f501 4161 	add.w	r1, r1, #57600	; 0xe100
    a03e:	2301      	movs	r3, #1
    a040:	4093      	lsls	r3, r2
    a042:	f8c1 3180 	str.w	r3, [r1, #384]	; 0x180
    a046:	600b      	str	r3, [r1, #0]
    a048:	2000      	movs	r0, #0
    a04a:	e8bd 83f8 	ldmia.w	sp!, {r3, r4, r5, r6, r7, r8, r9, pc}
    a04e:	b93e      	cbnz	r6, a060 <_tc_timer_init+0xe0>
    a050:	8dab      	ldrh	r3, [r5, #44]	; 0x2c
    a052:	83a3      	strh	r3, [r4, #28]
    a054:	21c0      	movs	r1, #192	; 0xc0
    a056:	4620      	mov	r0, r4
    a058:	4790      	blx	r2
    a05a:	8e2b      	ldrh	r3, [r5, #48]	; 0x30
    a05c:	83e3      	strh	r3, [r4, #30]
    a05e:	e7d2      	b.n	a006 <_tc_timer_init+0x86>
    a060:	2e04      	cmp	r6, #4
    a062:	d1d3      	bne.n	a00c <_tc_timer_init+0x8c>
    a064:	f895 302c 	ldrb.w	r3, [r5, #44]	; 0x2c
    a068:	7723      	strb	r3, [r4, #28]
    a06a:	21c0      	movs	r1, #192	; 0xc0
    a06c:	4620      	mov	r0, r4
    a06e:	4790      	blx	r2
    a070:	f895 3030 	ldrb.w	r3, [r5, #48]	; 0x30
    a074:	7763      	strb	r3, [r4, #29]
    a076:	21c0      	movs	r1, #192	; 0xc0
    a078:	4620      	mov	r0, r4
    a07a:	4790      	blx	r2
    a07c:	f895 302b 	ldrb.w	r3, [r5, #43]	; 0x2b
    a080:	76e3      	strb	r3, [r4, #27]
    a082:	2120      	movs	r1, #32
    a084:	e7c0      	b.n	a008 <_tc_timer_init+0x88>
    a086:	4b0e      	ldr	r3, [pc, #56]	; (a0c0 <_tc_timer_init+0x140>)
    a088:	429c      	cmp	r4, r3
    a08a:	d102      	bne.n	a092 <_tc_timer_init+0x112>
    a08c:	4b0a      	ldr	r3, [pc, #40]	; (a0b8 <_tc_timer_init+0x138>)
    a08e:	605f      	str	r7, [r3, #4]
    a090:	e7c3      	b.n	a01a <_tc_timer_init+0x9a>
    a092:	4b0c      	ldr	r3, [pc, #48]	; (a0c4 <_tc_timer_init+0x144>)
    a094:	429c      	cmp	r4, r3
    a096:	d102      	bne.n	a09e <_tc_timer_init+0x11e>
    a098:	4b07      	ldr	r3, [pc, #28]	; (a0b8 <_tc_timer_init+0x138>)
    a09a:	609f      	str	r7, [r3, #8]
    a09c:	e7bd      	b.n	a01a <_tc_timer_init+0x9a>
    a09e:	4b0a      	ldr	r3, [pc, #40]	; (a0c8 <_tc_timer_init+0x148>)
    a0a0:	429c      	cmp	r4, r3
    a0a2:	bf04      	itt	eq
    a0a4:	4b04      	ldreq	r3, [pc, #16]	; (a0b8 <_tc_timer_init+0x138>)
    a0a6:	60df      	streq	r7, [r3, #12]
    a0a8:	e7b7      	b.n	a01a <_tc_timer_init+0x9a>
    a0aa:	bf00      	nop
    a0ac:	00009ea9 	.word	0x00009ea9
    a0b0:	00009e11 	.word	0x00009e11
    a0b4:	40003800 	.word	0x40003800
    a0b8:	200009a8 	.word	0x200009a8
    a0bc:	00009de9 	.word	0x00009de9
    a0c0:	40003c00 	.word	0x40003c00
    a0c4:	4101a000 	.word	0x4101a000
    a0c8:	4101c000 	.word	0x4101c000
    a0cc:	0000e00c 	.word	0x0000e00c

0000a0d0 <_tc_timer_set_period>:
    a0d0:	68c0      	ldr	r0, [r0, #12]
    a0d2:	6803      	ldr	r3, [r0, #0]
    a0d4:	f3c3 0381 	ubfx	r3, r3, #2, #2
    a0d8:	2b02      	cmp	r3, #2
    a0da:	d103      	bne.n	a0e4 <_tc_timer_set_period+0x14>
    a0dc:	61c1      	str	r1, [r0, #28]
    a0de:	21c0      	movs	r1, #192	; 0xc0
    a0e0:	4b09      	ldr	r3, [pc, #36]	; (a108 <_tc_timer_set_period+0x38>)
    a0e2:	4718      	bx	r3
    a0e4:	6803      	ldr	r3, [r0, #0]
    a0e6:	f013 0f0c 	tst.w	r3, #12
    a0ea:	d102      	bne.n	a0f2 <_tc_timer_set_period+0x22>
    a0ec:	b289      	uxth	r1, r1
    a0ee:	8381      	strh	r1, [r0, #28]
    a0f0:	e7f5      	b.n	a0de <_tc_timer_set_period+0xe>
    a0f2:	6803      	ldr	r3, [r0, #0]
    a0f4:	f3c3 0381 	ubfx	r3, r3, #2, #2
    a0f8:	2b01      	cmp	r3, #1
    a0fa:	d103      	bne.n	a104 <_tc_timer_set_period+0x34>
    a0fc:	b2c9      	uxtb	r1, r1
    a0fe:	76c1      	strb	r1, [r0, #27]
    a100:	2120      	movs	r1, #32
    a102:	e7ed      	b.n	a0e0 <_tc_timer_set_period+0x10>
    a104:	4770      	bx	lr
    a106:	bf00      	nop
    a108:	00009e11 	.word	0x00009e11

0000a10c <_tc_get_timer>:
    a10c:	4800      	ldr	r0, [pc, #0]	; (a110 <_tc_get_timer+0x4>)
    a10e:	4770      	bx	lr
    a110:	20000374 	.word	0x20000374

0000a114 <TC0_Handler>:
    a114:	4b01      	ldr	r3, [pc, #4]	; (a11c <TC0_Handler+0x8>)
    a116:	6818      	ldr	r0, [r3, #0]
    a118:	4b01      	ldr	r3, [pc, #4]	; (a120 <TC0_Handler+0xc>)
    a11a:	4718      	bx	r3
    a11c:	200009a8 	.word	0x200009a8
    a120:	00009e95 	.word	0x00009e95

0000a124 <TC1_Handler>:
    a124:	4b01      	ldr	r3, [pc, #4]	; (a12c <TC1_Handler+0x8>)
    a126:	6858      	ldr	r0, [r3, #4]
    a128:	4b01      	ldr	r3, [pc, #4]	; (a130 <TC1_Handler+0xc>)
    a12a:	4718      	bx	r3
    a12c:	200009a8 	.word	0x200009a8
    a130:	00009e95 	.word	0x00009e95

0000a134 <TC2_Handler>:
    a134:	4b01      	ldr	r3, [pc, #4]	; (a13c <TC2_Handler+0x8>)
    a136:	6898      	ldr	r0, [r3, #8]
    a138:	4b01      	ldr	r3, [pc, #4]	; (a140 <TC2_Handler+0xc>)
    a13a:	4718      	bx	r3
    a13c:	200009a8 	.word	0x200009a8
    a140:	00009e95 	.word	0x00009e95

0000a144 <TC3_Handler>:
    a144:	4b01      	ldr	r3, [pc, #4]	; (a14c <TC3_Handler+0x8>)
    a146:	68d8      	ldr	r0, [r3, #12]
    a148:	4b01      	ldr	r3, [pc, #4]	; (a150 <TC3_Handler+0xc>)
    a14a:	4718      	bx	r3
    a14c:	200009a8 	.word	0x200009a8
    a150:	00009e95 	.word	0x00009e95

0000a154 <_dummy_func_no_return>:
    a154:	2000      	movs	r0, #0
    a156:	4770      	bx	lr

0000a158 <_usb_d_dev_wait_dfll_rdy>:
    a158:	4b07      	ldr	r3, [pc, #28]	; (a178 <_usb_d_dev_wait_dfll_rdy+0x20>)
    a15a:	f893 2020 	ldrb.w	r2, [r3, #32]
    a15e:	07d1      	lsls	r1, r2, #31
    a160:	d506      	bpl.n	a170 <_usb_d_dev_wait_dfll_rdy+0x18>
    a162:	691a      	ldr	r2, [r3, #16]
    a164:	f402 6210 	and.w	r2, r2, #2304	; 0x900
    a168:	f5b2 6f10 	cmp.w	r2, #2304	; 0x900
    a16c:	d1f9      	bne.n	a162 <_usb_d_dev_wait_dfll_rdy+0xa>
    a16e:	4770      	bx	lr
    a170:	691a      	ldr	r2, [r3, #16]
    a172:	05d2      	lsls	r2, r2, #23
    a174:	d5fc      	bpl.n	a170 <_usb_d_dev_wait_dfll_rdy+0x18>
    a176:	4770      	bx	lr
    a178:	40001000 	.word	0x40001000

0000a17c <_usb_d_dev_ept>:
    a17c:	b110      	cbz	r0, a184 <_usb_d_dev_ept+0x8>
    a17e:	b109      	cbz	r1, a184 <_usb_d_dev_ept+0x8>
    a180:	3005      	adds	r0, #5
    a182:	b2c0      	uxtb	r0, r0
    a184:	2314      	movs	r3, #20
    a186:	fb00 3003 	mla	r0, r0, r3, r3
    a18a:	4b01      	ldr	r3, [pc, #4]	; (a190 <_usb_d_dev_ept+0x14>)
    a18c:	4418      	add	r0, r3
    a18e:	4770      	bx	lr
    a190:	200009b8 	.word	0x200009b8

0000a194 <_usb_d_dev_handle_setup>:
    a194:	b430      	push	{r4, r5}
    a196:	7cc1      	ldrb	r1, [r0, #19]
    a198:	7c85      	ldrb	r5, [r0, #18]
    a19a:	f001 0307 	and.w	r3, r1, #7
    a19e:	f005 020f 	and.w	r2, r5, #15
    a1a2:	2b01      	cmp	r3, #1
    a1a4:	ea4f 1442 	mov.w	r4, r2, lsl #5
    a1a8:	f102 0308 	add.w	r3, r2, #8
    a1ac:	d00a      	beq.n	a1c4 <_usb_d_dev_handle_setup+0x30>
    a1ae:	015a      	lsls	r2, r3, #5
    a1b0:	f102 4282 	add.w	r2, r2, #1090519040	; 0x41000000
    a1b4:	f104 4382 	add.w	r3, r4, #1090519040	; 0x41000000
    a1b8:	2110      	movs	r1, #16
    a1ba:	71d1      	strb	r1, [r2, #7]
    a1bc:	f883 1108 	strb.w	r1, [r3, #264]	; 0x108
    a1c0:	bc30      	pop	{r4, r5}
    a1c2:	4770      	bx	lr
    a1c4:	f011 0f40 	tst.w	r1, #64	; 0x40
    a1c8:	d00b      	beq.n	a1e2 <_usb_d_dev_handle_setup+0x4e>
    a1ca:	0152      	lsls	r2, r2, #5
    a1cc:	f36f 1186 	bfc	r1, #6, #1
    a1d0:	f102 4282 	add.w	r2, r2, #1090519040	; 0x41000000
    a1d4:	74c1      	strb	r1, [r0, #19]
    a1d6:	2180      	movs	r1, #128	; 0x80
    a1d8:	f882 1104 	strb.w	r1, [r2, #260]	; 0x104
    a1dc:	2140      	movs	r1, #64	; 0x40
    a1de:	f882 1105 	strb.w	r1, [r2, #261]	; 0x105
    a1e2:	7cc2      	ldrb	r2, [r0, #19]
    a1e4:	f36f 02c3 	bfc	r2, #3, #1
    a1e8:	74c2      	strb	r2, [r0, #19]
    a1ea:	4a0a      	ldr	r2, [pc, #40]	; (a214 <_usb_d_dev_handle_setup+0x80>)
    a1ec:	015b      	lsls	r3, r3, #5
    a1ee:	1911      	adds	r1, r2, r4
    a1f0:	2000      	movs	r0, #0
    a1f2:	f103 4382 	add.w	r3, r3, #1090519040	; 0x41000000
    a1f6:	f881 023a 	strb.w	r0, [r1, #570]	; 0x23a
    a1fa:	f881 024a 	strb.w	r0, [r1, #586]	; 0x24a
    a1fe:	216f      	movs	r1, #111	; 0x6f
    a200:	71d9      	strb	r1, [r3, #7]
    a202:	f104 4382 	add.w	r3, r4, #1090519040	; 0x41000000
    a206:	4628      	mov	r0, r5
    a208:	f883 1108 	strb.w	r1, [r3, #264]	; 0x108
    a20c:	6893      	ldr	r3, [r2, #8]
    a20e:	bc30      	pop	{r4, r5}
    a210:	4718      	bx	r3
    a212:	bf00      	nop
    a214:	200009b8 	.word	0x200009b8

0000a218 <_usb_d_dev_handle_stall>:
    a218:	4602      	mov	r2, r0
    a21a:	7c80      	ldrb	r0, [r0, #18]
    a21c:	2320      	movs	r3, #32
    a21e:	fa03 f101 	lsl.w	r1, r3, r1
    a222:	f000 030f 	and.w	r3, r0, #15
    a226:	015b      	lsls	r3, r3, #5
    a228:	f103 4382 	add.w	r3, r3, #1090519040	; 0x41000000
    a22c:	b2c9      	uxtb	r1, r1
    a22e:	f883 1108 	strb.w	r1, [r3, #264]	; 0x108
    a232:	4b02      	ldr	r3, [pc, #8]	; (a23c <_usb_d_dev_handle_stall+0x24>)
    a234:	6892      	ldr	r2, [r2, #8]
    a236:	691b      	ldr	r3, [r3, #16]
    a238:	2101      	movs	r1, #1
    a23a:	4718      	bx	r3
    a23c:	200009b8 	.word	0x200009b8

0000a240 <_usb_d_dev_trans_done>:
    a240:	4602      	mov	r2, r0
    a242:	7c80      	ldrb	r0, [r0, #18]
    a244:	28ff      	cmp	r0, #255	; 0xff
    a246:	d00a      	beq.n	a25e <_usb_d_dev_trans_done+0x1e>
    a248:	7cd3      	ldrb	r3, [r2, #19]
    a24a:	f013 0f40 	tst.w	r3, #64	; 0x40
    a24e:	d006      	beq.n	a25e <_usb_d_dev_trans_done+0x1e>
    a250:	f36f 1386 	bfc	r3, #6, #1
    a254:	74d3      	strb	r3, [r2, #19]
    a256:	4b02      	ldr	r3, [pc, #8]	; (a260 <_usb_d_dev_trans_done+0x20>)
    a258:	6892      	ldr	r2, [r2, #8]
    a25a:	691b      	ldr	r3, [r3, #16]
    a25c:	4718      	bx	r3
    a25e:	4770      	bx	lr
    a260:	200009b8 	.word	0x200009b8

0000a264 <_usb_d_dev_trans_stop>:
    a264:	b477      	push	{r0, r1, r2, r4, r5, r6}
    a266:	7c83      	ldrb	r3, [r0, #18]
    a268:	2425      	movs	r4, #37	; 0x25
    a26a:	f88d 4004 	strb.w	r4, [sp, #4]
    a26e:	2bff      	cmp	r3, #255	; 0xff
    a270:	f04f 044a 	mov.w	r4, #74	; 0x4a
    a274:	f88d 4005 	strb.w	r4, [sp, #5]
    a278:	d021      	beq.n	a2be <_usb_d_dev_trans_stop+0x5a>
    a27a:	7cc4      	ldrb	r4, [r0, #19]
    a27c:	0664      	lsls	r4, r4, #25
    a27e:	d51e      	bpl.n	a2be <_usb_d_dev_trans_stop+0x5a>
    a280:	f003 030f 	and.w	r3, r3, #15
    a284:	f103 0408 	add.w	r4, r3, #8
    a288:	0165      	lsls	r5, r4, #5
    a28a:	f105 4582 	add.w	r5, r5, #1090519040	; 0x41000000
    a28e:	b199      	cbz	r1, a2b8 <_usb_d_dev_trans_stop+0x54>
    a290:	2680      	movs	r6, #128	; 0x80
    a292:	712e      	strb	r6, [r5, #4]
    a294:	ad02      	add	r5, sp, #8
    a296:	440d      	add	r5, r1
    a298:	0164      	lsls	r4, r4, #5
    a29a:	015b      	lsls	r3, r3, #5
    a29c:	f104 4482 	add.w	r4, r4, #1090519040	; 0x41000000
    a2a0:	f103 4382 	add.w	r3, r3, #1090519040	; 0x41000000
    a2a4:	f815 1c04 	ldrb.w	r1, [r5, #-4]
    a2a8:	71e1      	strb	r1, [r4, #7]
    a2aa:	f883 1108 	strb.w	r1, [r3, #264]	; 0x108
    a2ae:	4b05      	ldr	r3, [pc, #20]	; (a2c4 <_usb_d_dev_trans_stop+0x60>)
    a2b0:	4611      	mov	r1, r2
    a2b2:	b003      	add	sp, #12
    a2b4:	bc70      	pop	{r4, r5, r6}
    a2b6:	4718      	bx	r3
    a2b8:	2640      	movs	r6, #64	; 0x40
    a2ba:	716e      	strb	r6, [r5, #5]
    a2bc:	e7ea      	b.n	a294 <_usb_d_dev_trans_stop+0x30>
    a2be:	b003      	add	sp, #12
    a2c0:	bc70      	pop	{r4, r5, r6}
    a2c2:	4770      	bx	lr
    a2c4:	0000a241 	.word	0x0000a241

0000a2c8 <_usb_d_dev_handle_trfail>:
    a2c8:	b4f3      	push	{r0, r1, r4, r5, r6, r7}
    a2ca:	7c86      	ldrb	r6, [r0, #18]
    a2cc:	2304      	movs	r3, #4
    a2ce:	f006 060f 	and.w	r6, r6, #15
    a2d2:	f88d 3004 	strb.w	r3, [sp, #4]
    a2d6:	2308      	movs	r3, #8
    a2d8:	f88d 3005 	strb.w	r3, [sp, #5]
    a2dc:	18f3      	adds	r3, r6, r3
    a2de:	015a      	lsls	r2, r3, #5
    a2e0:	f102 4282 	add.w	r2, r2, #1090519040	; 0x41000000
    a2e4:	0175      	lsls	r5, r6, #5
    a2e6:	7812      	ldrb	r2, [r2, #0]
    a2e8:	b339      	cbz	r1, a33a <_usb_d_dev_handle_trfail+0x72>
    a2ea:	f3c2 1202 	ubfx	r2, r2, #4, #3
    a2ee:	4c2e      	ldr	r4, [pc, #184]	; (a3a8 <_usb_d_dev_handle_trfail+0xe0>)
    a2f0:	eb05 1501 	add.w	r5, r5, r1, lsl #4
    a2f4:	4425      	add	r5, r4
    a2f6:	2a02      	cmp	r2, #2
    a2f8:	7aac      	ldrb	r4, [r5, #10]
    a2fa:	aa02      	add	r2, sp, #8
    a2fc:	eb02 0701 	add.w	r7, r2, r1
    a300:	b2e4      	uxtb	r4, r4
    a302:	ea4f 1246 	mov.w	r2, r6, lsl #5
    a306:	d11b      	bne.n	a340 <_usb_d_dev_handle_trfail+0x78>
    a308:	f014 0f01 	tst.w	r4, #1
    a30c:	d018      	beq.n	a340 <_usb_d_dev_handle_trfail+0x78>
    a30e:	7aac      	ldrb	r4, [r5, #10]
    a310:	015b      	lsls	r3, r3, #5
    a312:	f36f 0400 	bfc	r4, #0, #1
    a316:	f102 4282 	add.w	r2, r2, #1090519040	; 0x41000000
    a31a:	f103 4382 	add.w	r3, r3, #1090519040	; 0x41000000
    a31e:	72ac      	strb	r4, [r5, #10]
    a320:	3100      	adds	r1, #0
    a322:	f817 4c04 	ldrb.w	r4, [r7, #-4]
    a326:	71dc      	strb	r4, [r3, #7]
    a328:	bf18      	it	ne
    a32a:	2101      	movne	r1, #1
    a32c:	f882 4108 	strb.w	r4, [r2, #264]	; 0x108
    a330:	2204      	movs	r2, #4
    a332:	4b1e      	ldr	r3, [pc, #120]	; (a3ac <_usb_d_dev_handle_trfail+0xe4>)
    a334:	b002      	add	sp, #8
    a336:	bcf0      	pop	{r4, r5, r6, r7}
    a338:	4718      	bx	r3
    a33a:	f002 0207 	and.w	r2, r2, #7
    a33e:	e7d6      	b.n	a2ee <_usb_d_dev_handle_trfail+0x26>
    a340:	f014 0402 	ands.w	r4, r4, #2
    a344:	d01b      	beq.n	a37e <_usb_d_dev_handle_trfail+0xb6>
    a346:	7aac      	ldrb	r4, [r5, #10]
    a348:	7cc6      	ldrb	r6, [r0, #19]
    a34a:	015b      	lsls	r3, r3, #5
    a34c:	f36f 0441 	bfc	r4, #1, #1
    a350:	f103 4382 	add.w	r3, r3, #1090519040	; 0x41000000
    a354:	72ac      	strb	r4, [r5, #10]
    a356:	f817 4c04 	ldrb.w	r4, [r7, #-4]
    a35a:	71dc      	strb	r4, [r3, #7]
    a35c:	f102 4282 	add.w	r2, r2, #1090519040	; 0x41000000
    a360:	f006 0307 	and.w	r3, r6, #7
    a364:	2b01      	cmp	r3, #1
    a366:	f882 4108 	strb.w	r4, [r2, #264]	; 0x108
    a36a:	d119      	bne.n	a3a0 <_usb_d_dev_handle_trfail+0xd8>
    a36c:	0673      	lsls	r3, r6, #25
    a36e:	d517      	bpl.n	a3a0 <_usb_d_dev_handle_trfail+0xd8>
    a370:	7cc3      	ldrb	r3, [r0, #19]
    a372:	09db      	lsrs	r3, r3, #7
    a374:	4299      	cmp	r1, r3
    a376:	d013      	beq.n	a3a0 <_usb_d_dev_handle_trfail+0xd8>
    a378:	2200      	movs	r2, #0
    a37a:	4619      	mov	r1, r3
    a37c:	e7d9      	b.n	a332 <_usb_d_dev_handle_trfail+0x6a>
    a37e:	480c      	ldr	r0, [pc, #48]	; (a3b0 <_usb_d_dev_handle_trfail+0xe8>)
    a380:	eb01 0146 	add.w	r1, r1, r6, lsl #1
    a384:	eb00 1101 	add.w	r1, r0, r1, lsl #4
    a388:	015b      	lsls	r3, r3, #5
    a38a:	f103 4382 	add.w	r3, r3, #1090519040	; 0x41000000
    a38e:	f102 4282 	add.w	r2, r2, #1090519040	; 0x41000000
    a392:	f881 423a 	strb.w	r4, [r1, #570]	; 0x23a
    a396:	f817 1c04 	ldrb.w	r1, [r7, #-4]
    a39a:	71d9      	strb	r1, [r3, #7]
    a39c:	f882 1108 	strb.w	r1, [r2, #264]	; 0x108
    a3a0:	b002      	add	sp, #8
    a3a2:	bcf0      	pop	{r4, r5, r6, r7}
    a3a4:	4770      	bx	lr
    a3a6:	bf00      	nop
    a3a8:	20000be8 	.word	0x20000be8
    a3ac:	0000a265 	.word	0x0000a265
    a3b0:	200009b8 	.word	0x200009b8

0000a3b4 <_usb_d_dev_reset_epts>:
    a3b4:	e92d 41f0 	stmdb	sp!, {r4, r5, r6, r7, r8, lr}
    a3b8:	4c09      	ldr	r4, [pc, #36]	; (a3e0 <_usb_d_dev_reset_epts+0x2c>)
    a3ba:	4f0a      	ldr	r7, [pc, #40]	; (a3e4 <_usb_d_dev_reset_epts+0x30>)
    a3bc:	f504 7507 	add.w	r5, r4, #540	; 0x21c
    a3c0:	26ff      	movs	r6, #255	; 0xff
    a3c2:	2103      	movs	r1, #3
    a3c4:	4620      	mov	r0, r4
    a3c6:	47b8      	blx	r7
    a3c8:	2100      	movs	r1, #0
    a3ca:	74a6      	strb	r6, [r4, #18]
    a3cc:	74e1      	strb	r1, [r4, #19]
    a3ce:	3414      	adds	r4, #20
    a3d0:	42ac      	cmp	r4, r5
    a3d2:	d1f6      	bne.n	a3c2 <_usb_d_dev_reset_epts+0xe>
    a3d4:	22c0      	movs	r2, #192	; 0xc0
    a3d6:	4804      	ldr	r0, [pc, #16]	; (a3e8 <_usb_d_dev_reset_epts+0x34>)
    a3d8:	4b04      	ldr	r3, [pc, #16]	; (a3ec <_usb_d_dev_reset_epts+0x38>)
    a3da:	e8bd 41f0 	ldmia.w	sp!, {r4, r5, r6, r7, r8, lr}
    a3de:	4718      	bx	r3
    a3e0:	200009cc 	.word	0x200009cc
    a3e4:	0000a241 	.word	0x0000a241
    a3e8:	20000be8 	.word	0x20000be8
    a3ec:	0000d28b 	.word	0x0000d28b

0000a3f0 <_usb_d_dev_in_next>:
    a3f0:	e92d 47f0 	stmdb	sp!, {r4, r5, r6, r7, r8, r9, sl, lr}
    a3f4:	4604      	mov	r4, r0
    a3f6:	7c80      	ldrb	r0, [r0, #18]
    a3f8:	4689      	mov	r9, r1
    a3fa:	f000 080f 	and.w	r8, r0, #15
    a3fe:	2900      	cmp	r1, #0
    a400:	d05a      	beq.n	a4b8 <_usb_d_dev_in_next+0xc8>
    a402:	4b4c      	ldr	r3, [pc, #304]	; (a534 <_usb_d_dev_in_next+0x144>)
    a404:	eb03 1348 	add.w	r3, r3, r8, lsl #5
    a408:	695e      	ldr	r6, [r3, #20]
    a40a:	f3c6 060d 	ubfx	r6, r6, #0, #14
    a40e:	f8b4 e010 	ldrh.w	lr, [r4, #16]
    a412:	f894 c013 	ldrb.w	ip, [r4, #19]
    a416:	f240 33ff 	movw	r3, #1023	; 0x3ff
    a41a:	459e      	cmp	lr, r3
    a41c:	bf1a      	itte	ne
    a41e:	f10e 32ff 	addne.w	r2, lr, #4294967295
    a422:	b292      	uxthne	r2, r2
    a424:	4672      	moveq	r2, lr
    a426:	f00c 0a07 	and.w	sl, ip, #7
    a42a:	f1b9 0f00 	cmp.w	r9, #0
    a42e:	d006      	beq.n	a43e <_usb_d_dev_in_next+0x4e>
    a430:	ea4f 1348 	mov.w	r3, r8, lsl #5
    a434:	f103 4382 	add.w	r3, r3, #1090519040	; 0x41000000
    a438:	2102      	movs	r1, #2
    a43a:	f883 1107 	strb.w	r1, [r3, #263]	; 0x107
    a43e:	68a1      	ldr	r1, [r4, #8]
    a440:	6863      	ldr	r3, [r4, #4]
    a442:	4431      	add	r1, r6
    a444:	4299      	cmp	r1, r3
    a446:	60a1      	str	r1, [r4, #8]
    a448:	ea4f 1548 	mov.w	r5, r8, lsl #5
    a44c:	d240      	bcs.n	a4d0 <_usb_d_dev_in_next+0xe0>
    a44e:	1a5b      	subs	r3, r3, r1
    a450:	f01c 0f20 	tst.w	ip, #32
    a454:	b29f      	uxth	r7, r3
    a456:	4e38      	ldr	r6, [pc, #224]	; (a538 <_usb_d_dev_in_next+0x148>)
    a458:	6823      	ldr	r3, [r4, #0]
    a45a:	d02f      	beq.n	a4bc <_usb_d_dev_in_next+0xcc>
    a45c:	4577      	cmp	r7, lr
    a45e:	bf28      	it	cs
    a460:	4677      	movcs	r7, lr
    a462:	463a      	mov	r2, r7
    a464:	4419      	add	r1, r3
    a466:	68e0      	ldr	r0, [r4, #12]
    a468:	4b34      	ldr	r3, [pc, #208]	; (a53c <_usb_d_dev_in_next+0x14c>)
    a46a:	4798      	blx	r3
    a46c:	1973      	adds	r3, r6, r5
    a46e:	68e2      	ldr	r2, [r4, #12]
    a470:	f8c3 2240 	str.w	r2, [r3, #576]	; 0x240
    a474:	1972      	adds	r2, r6, r5
    a476:	f8d2 3244 	ldr.w	r3, [r2, #580]	; 0x244
    a47a:	f367 030d 	bfi	r3, r7, #0, #14
    a47e:	f8c2 3244 	str.w	r3, [r2, #580]	; 0x244
    a482:	f8d2 3244 	ldr.w	r3, [r2, #580]	; 0x244
    a486:	f36f 339b 	bfc	r3, #14, #14
    a48a:	f8c2 3244 	str.w	r3, [r2, #580]	; 0x244
    a48e:	f1b9 0f00 	cmp.w	r9, #0
    a492:	d108      	bne.n	a4a6 <_usb_d_dev_in_next+0xb6>
    a494:	f1ba 0f01 	cmp.w	sl, #1
    a498:	f105 4582 	add.w	r5, r5, #1090519040	; 0x41000000
    a49c:	bf0c      	ite	eq
    a49e:	234e      	moveq	r3, #78	; 0x4e
    a4a0:	234a      	movne	r3, #74	; 0x4a
    a4a2:	f885 3109 	strb.w	r3, [r5, #265]	; 0x109
    a4a6:	ea4f 1348 	mov.w	r3, r8, lsl #5
    a4aa:	f103 4382 	add.w	r3, r3, #1090519040	; 0x41000000
    a4ae:	2280      	movs	r2, #128	; 0x80
    a4b0:	f883 2105 	strb.w	r2, [r3, #261]	; 0x105
    a4b4:	e8bd 87f0 	ldmia.w	sp!, {r4, r5, r6, r7, r8, r9, sl, pc}
    a4b8:	460e      	mov	r6, r1
    a4ba:	e7a8      	b.n	a40e <_usb_d_dev_in_next+0x1e>
    a4bc:	4419      	add	r1, r3
    a4be:	1973      	adds	r3, r6, r5
    a4c0:	f5b7 5f00 	cmp.w	r7, #8192	; 0x2000
    a4c4:	bf28      	it	cs
    a4c6:	f44f 5700 	movcs.w	r7, #8192	; 0x2000
    a4ca:	f8c3 1240 	str.w	r1, [r3, #576]	; 0x240
    a4ce:	e7d1      	b.n	a474 <_usb_d_dev_in_next+0x84>
    a4d0:	f01c 0f10 	tst.w	ip, #16
    a4d4:	d00e      	beq.n	a4f4 <_usb_d_dev_in_next+0x104>
    a4d6:	7ce3      	ldrb	r3, [r4, #19]
    a4d8:	f36f 1304 	bfc	r3, #4, #1
    a4dc:	74e3      	strb	r3, [r4, #19]
    a4de:	4b18      	ldr	r3, [pc, #96]	; (a540 <_usb_d_dev_in_next+0x150>)
    a4e0:	442b      	add	r3, r5
    a4e2:	685a      	ldr	r2, [r3, #4]
    a4e4:	f36f 020d 	bfc	r2, #0, #14
    a4e8:	605a      	str	r2, [r3, #4]
    a4ea:	685a      	ldr	r2, [r3, #4]
    a4ec:	f36f 329b 	bfc	r2, #14, #14
    a4f0:	605a      	str	r2, [r3, #4]
    a4f2:	e7cc      	b.n	a48e <_usb_d_dev_in_next+0x9e>
    a4f4:	f1ba 0f01 	cmp.w	sl, #1
    a4f8:	f105 4582 	add.w	r5, r5, #1090519040	; 0x41000000
    a4fc:	ea02 0206 	and.w	r2, r2, r6
    a500:	bf0c      	ite	eq
    a502:	234b      	moveq	r3, #75	; 0x4b
    a504:	234a      	movne	r3, #74	; 0x4a
    a506:	4596      	cmp	lr, r2
    a508:	f885 3108 	strb.w	r3, [r5, #264]	; 0x108
    a50c:	d10c      	bne.n	a528 <_usb_d_dev_in_next+0x138>
    a50e:	7ce3      	ldrb	r3, [r4, #19]
    a510:	f36f 1386 	bfc	r3, #6, #1
    a514:	74e3      	strb	r3, [r4, #19]
    a516:	4b08      	ldr	r3, [pc, #32]	; (a538 <_usb_d_dev_in_next+0x148>)
    a518:	68db      	ldr	r3, [r3, #12]
    a51a:	4798      	blx	r3
    a51c:	2800      	cmp	r0, #0
    a51e:	d1c9      	bne.n	a4b4 <_usb_d_dev_in_next+0xc4>
    a520:	7ce3      	ldrb	r3, [r4, #19]
    a522:	f043 0340 	orr.w	r3, r3, #64	; 0x40
    a526:	74e3      	strb	r3, [r4, #19]
    a528:	4620      	mov	r0, r4
    a52a:	2100      	movs	r1, #0
    a52c:	4b05      	ldr	r3, [pc, #20]	; (a544 <_usb_d_dev_in_next+0x154>)
    a52e:	e8bd 47f0 	ldmia.w	sp!, {r4, r5, r6, r7, r8, r9, sl, lr}
    a532:	4718      	bx	r3
    a534:	20000be8 	.word	0x20000be8
    a538:	200009b8 	.word	0x200009b8
    a53c:	0000d275 	.word	0x0000d275
    a540:	20000bf8 	.word	0x20000bf8
    a544:	0000a241 	.word	0x0000a241

0000a548 <_usb_d_dev_out_next>:
    a548:	e92d 4ff7 	stmdb	sp!, {r0, r1, r2, r4, r5, r6, r7, r8, r9, sl, fp, lr}
    a54c:	7c86      	ldrb	r6, [r0, #18]
    a54e:	f006 060f 	and.w	r6, r6, #15
    a552:	4604      	mov	r4, r0
    a554:	460f      	mov	r7, r1
    a556:	0175      	lsls	r5, r6, #5
    a558:	2900      	cmp	r1, #0
    a55a:	d062      	beq.n	a622 <_usb_d_dev_out_next+0xda>
    a55c:	4b61      	ldr	r3, [pc, #388]	; (a6e4 <_usb_d_dev_out_next+0x19c>)
    a55e:	442b      	add	r3, r5
    a560:	685a      	ldr	r2, [r3, #4]
    a562:	685b      	ldr	r3, [r3, #4]
    a564:	f3c2 398d 	ubfx	r9, r2, #14, #14
    a568:	f3c3 0a0d 	ubfx	sl, r3, #0, #14
    a56c:	f8b4 8010 	ldrh.w	r8, [r4, #16]
    a570:	7ce2      	ldrb	r2, [r4, #19]
    a572:	f240 33ff 	movw	r3, #1023	; 0x3ff
    a576:	4598      	cmp	r8, r3
    a578:	bf1c      	itt	ne
    a57a:	f108 38ff 	addne.w	r8, r8, #4294967295
    a57e:	fa1f f888 	uxthne.w	r8, r8
    a582:	f002 0307 	and.w	r3, r2, #7
    a586:	ea0a 0b08 	and.w	fp, sl, r8
    a58a:	9301      	str	r3, [sp, #4]
    a58c:	b12f      	cbz	r7, a59a <_usb_d_dev_out_next+0x52>
    a58e:	0173      	lsls	r3, r6, #5
    a590:	f103 4382 	add.w	r3, r3, #1090519040	; 0x41000000
    a594:	2101      	movs	r1, #1
    a596:	f883 1107 	strb.w	r1, [r3, #263]	; 0x107
    a59a:	0690      	lsls	r0, r2, #26
    a59c:	d50c      	bpl.n	a5b8 <_usb_d_dev_out_next+0x70>
    a59e:	6862      	ldr	r2, [r4, #4]
    a5a0:	b152      	cbz	r2, a5b8 <_usb_d_dev_out_next+0x70>
    a5a2:	68a0      	ldr	r0, [r4, #8]
    a5a4:	6823      	ldr	r3, [r4, #0]
    a5a6:	68e1      	ldr	r1, [r4, #12]
    a5a8:	1a12      	subs	r2, r2, r0
    a5aa:	b292      	uxth	r2, r2
    a5ac:	455a      	cmp	r2, fp
    a5ae:	4418      	add	r0, r3
    a5b0:	bf28      	it	cs
    a5b2:	465a      	movcs	r2, fp
    a5b4:	4b4c      	ldr	r3, [pc, #304]	; (a6e8 <_usb_d_dev_out_next+0x1a0>)
    a5b6:	4798      	blx	r3
    a5b8:	6862      	ldr	r2, [r4, #4]
    a5ba:	2a00      	cmp	r2, #0
    a5bc:	d134      	bne.n	a628 <_usb_d_dev_out_next+0xe0>
    a5be:	7ce3      	ldrb	r3, [r4, #19]
    a5c0:	06d9      	lsls	r1, r3, #27
    a5c2:	f140 8089 	bpl.w	a6d8 <_usb_d_dev_out_next+0x190>
    a5c6:	f362 1304 	bfi	r3, r2, #4, #1
    a5ca:	4848      	ldr	r0, [pc, #288]	; (a6ec <_usb_d_dev_out_next+0x1a4>)
    a5cc:	68e1      	ldr	r1, [r4, #12]
    a5ce:	b2db      	uxtb	r3, r3
    a5d0:	4428      	add	r0, r5
    a5d2:	f043 0320 	orr.w	r3, r3, #32
    a5d6:	74e3      	strb	r3, [r4, #19]
    a5d8:	f500 730c 	add.w	r3, r0, #560	; 0x230
    a5dc:	f8c0 1230 	str.w	r1, [r0, #560]	; 0x230
    a5e0:	6859      	ldr	r1, [r3, #4]
    a5e2:	8a20      	ldrh	r0, [r4, #16]
    a5e4:	f360 319b 	bfi	r1, r0, #14, #14
    a5e8:	6059      	str	r1, [r3, #4]
    a5ea:	6859      	ldr	r1, [r3, #4]
    a5ec:	f362 010d 	bfi	r1, r2, #0, #14
    a5f0:	6059      	str	r1, [r3, #4]
    a5f2:	b96f      	cbnz	r7, a610 <_usb_d_dev_out_next+0xc8>
    a5f4:	9b01      	ldr	r3, [sp, #4]
    a5f6:	2b01      	cmp	r3, #1
    a5f8:	bf04      	itt	eq
    a5fa:	4b3c      	ldreq	r3, [pc, #240]	; (a6ec <_usb_d_dev_out_next+0x1a4>)
    a5fc:	195b      	addeq	r3, r3, r5
    a5fe:	f105 4582 	add.w	r5, r5, #1090519040	; 0x41000000
    a602:	bf0a      	itet	eq
    a604:	f883 724a 	strbeq.w	r7, [r3, #586]	; 0x24a
    a608:	2325      	movne	r3, #37	; 0x25
    a60a:	232d      	moveq	r3, #45	; 0x2d
    a60c:	f885 3109 	strb.w	r3, [r5, #265]	; 0x109
    a610:	0176      	lsls	r6, r6, #5
    a612:	f106 4682 	add.w	r6, r6, #1090519040	; 0x41000000
    a616:	2340      	movs	r3, #64	; 0x40
    a618:	f886 3104 	strb.w	r3, [r6, #260]	; 0x104
    a61c:	b003      	add	sp, #12
    a61e:	e8bd 8ff0 	ldmia.w	sp!, {r4, r5, r6, r7, r8, r9, sl, fp, pc}
    a622:	4689      	mov	r9, r1
    a624:	468a      	mov	sl, r1
    a626:	e7a1      	b.n	a56c <_usb_d_dev_out_next+0x24>
    a628:	b1f7      	cbz	r7, a668 <_usb_d_dev_out_next+0x120>
    a62a:	8a23      	ldrh	r3, [r4, #16]
    a62c:	455b      	cmp	r3, fp
    a62e:	d91b      	bls.n	a668 <_usb_d_dev_out_next+0x120>
    a630:	7ce3      	ldrb	r3, [r4, #19]
    a632:	f36f 1304 	bfc	r3, #4, #1
    a636:	74e3      	strb	r3, [r4, #19]
    a638:	68a3      	ldr	r3, [r4, #8]
    a63a:	4453      	add	r3, sl
    a63c:	60a3      	str	r3, [r4, #8]
    a63e:	9b01      	ldr	r3, [sp, #4]
    a640:	f105 4582 	add.w	r5, r5, #1090519040	; 0x41000000
    a644:	2b01      	cmp	r3, #1
    a646:	bf0c      	ite	eq
    a648:	232d      	moveq	r3, #45	; 0x2d
    a64a:	2325      	movne	r3, #37	; 0x25
    a64c:	f885 3108 	strb.w	r3, [r5, #264]	; 0x108
    a650:	b91e      	cbnz	r6, a65a <_usb_d_dev_out_next+0x112>
    a652:	4b26      	ldr	r3, [pc, #152]	; (a6ec <_usb_d_dev_out_next+0x1a4>)
    a654:	68e2      	ldr	r2, [r4, #12]
    a656:	f8c3 2230 	str.w	r2, [r3, #560]	; 0x230
    a65a:	4b25      	ldr	r3, [pc, #148]	; (a6f0 <_usb_d_dev_out_next+0x1a8>)
    a65c:	2100      	movs	r1, #0
    a65e:	4620      	mov	r0, r4
    a660:	b003      	add	sp, #12
    a662:	e8bd 4ff0 	ldmia.w	sp!, {r4, r5, r6, r7, r8, r9, sl, fp, lr}
    a666:	4718      	bx	r3
    a668:	68a1      	ldr	r1, [r4, #8]
    a66a:	4449      	add	r1, r9
    a66c:	428a      	cmp	r2, r1
    a66e:	60a1      	str	r1, [r4, #8]
    a670:	d9e5      	bls.n	a63e <_usb_d_dev_out_next+0xf6>
    a672:	7ce0      	ldrb	r0, [r4, #19]
    a674:	4b1d      	ldr	r3, [pc, #116]	; (a6ec <_usb_d_dev_out_next+0x1a4>)
    a676:	f8b4 e010 	ldrh.w	lr, [r4, #16]
    a67a:	1a52      	subs	r2, r2, r1
    a67c:	f010 0f20 	tst.w	r0, #32
    a680:	b292      	uxth	r2, r2
    a682:	d014      	beq.n	a6ae <_usb_d_dev_out_next+0x166>
    a684:	1959      	adds	r1, r3, r5
    a686:	4572      	cmp	r2, lr
    a688:	68e0      	ldr	r0, [r4, #12]
    a68a:	f8c1 0230 	str.w	r0, [r1, #560]	; 0x230
    a68e:	bf28      	it	cs
    a690:	4672      	movcs	r2, lr
    a692:	442b      	add	r3, r5
    a694:	f8d3 1234 	ldr.w	r1, [r3, #564]	; 0x234
    a698:	f362 319b 	bfi	r1, r2, #14, #14
    a69c:	f8c3 1234 	str.w	r1, [r3, #564]	; 0x234
    a6a0:	f8d3 2234 	ldr.w	r2, [r3, #564]	; 0x234
    a6a4:	f36f 020d 	bfc	r2, #0, #14
    a6a8:	f8c3 2234 	str.w	r2, [r3, #564]	; 0x234
    a6ac:	e7a1      	b.n	a5f2 <_usb_d_dev_out_next+0xaa>
    a6ae:	4572      	cmp	r2, lr
    a6b0:	d90a      	bls.n	a6c8 <_usb_d_dev_out_next+0x180>
    a6b2:	f5b2 5f00 	cmp.w	r2, #8192	; 0x2000
    a6b6:	d80c      	bhi.n	a6d2 <_usb_d_dev_out_next+0x18a>
    a6b8:	ea22 0208 	bic.w	r2, r2, r8
    a6bc:	6820      	ldr	r0, [r4, #0]
    a6be:	4401      	add	r1, r0
    a6c0:	1958      	adds	r0, r3, r5
    a6c2:	f8c0 1230 	str.w	r1, [r0, #560]	; 0x230
    a6c6:	e7e4      	b.n	a692 <_usb_d_dev_out_next+0x14a>
    a6c8:	d2f8      	bcs.n	a6bc <_usb_d_dev_out_next+0x174>
    a6ca:	f040 0020 	orr.w	r0, r0, #32
    a6ce:	74e0      	strb	r0, [r4, #19]
    a6d0:	e7f4      	b.n	a6bc <_usb_d_dev_out_next+0x174>
    a6d2:	f44f 5200 	mov.w	r2, #8192	; 0x2000
    a6d6:	e7f1      	b.n	a6bc <_usb_d_dev_out_next+0x174>
    a6d8:	2f00      	cmp	r7, #0
    a6da:	d1a6      	bne.n	a62a <_usb_d_dev_out_next+0xe2>
    a6dc:	68a3      	ldr	r3, [r4, #8]
    a6de:	444b      	add	r3, r9
    a6e0:	e7ac      	b.n	a63c <_usb_d_dev_out_next+0xf4>
    a6e2:	bf00      	nop
    a6e4:	20000be8 	.word	0x20000be8
    a6e8:	0000d275 	.word	0x0000d275
    a6ec:	200009b8 	.word	0x200009b8
    a6f0:	0000a241 	.word	0x0000a241

0000a6f4 <_usb_d_dev_handler>:
    a6f4:	e92d 47f0 	stmdb	sp!, {r4, r5, r6, r7, r8, r9, sl, lr}
    a6f8:	f04f 4382 	mov.w	r3, #1090519040	; 0x41000000
    a6fc:	8c1d      	ldrh	r5, [r3, #32]
    a6fe:	b2ad      	uxth	r5, r5
    a700:	2d00      	cmp	r5, #0
    a702:	d16a      	bne.n	a7da <_usb_d_dev_handler+0xe6>
    a704:	8b99      	ldrh	r1, [r3, #28]
    a706:	8b1a      	ldrh	r2, [r3, #24]
    a708:	b292      	uxth	r2, r2
    a70a:	400a      	ands	r2, r1
    a70c:	f012 0004 	ands.w	r0, r2, #4
    a710:	d006      	beq.n	a720 <_usb_d_dev_handler+0x2c>
    a712:	2204      	movs	r2, #4
    a714:	839a      	strh	r2, [r3, #28]
    a716:	4b65      	ldr	r3, [pc, #404]	; (a8ac <_usb_d_dev_handler+0x1b8>)
    a718:	e8bd 47f0 	ldmia.w	sp!, {r4, r5, r6, r7, r8, r9, sl, lr}
    a71c:	681b      	ldr	r3, [r3, #0]
    a71e:	4718      	bx	r3
    a720:	f412 7100 	ands.w	r1, r2, #512	; 0x200
    a724:	d021      	beq.n	a76a <_usb_d_dev_handler+0x76>
    a726:	f240 2201 	movw	r2, #513	; 0x201
    a72a:	4960      	ldr	r1, [pc, #384]	; (a8ac <_usb_d_dev_handler+0x1b8>)
    a72c:	839a      	strh	r2, [r3, #28]
    a72e:	829a      	strh	r2, [r3, #20]
    a730:	2270      	movs	r2, #112	; 0x70
    a732:	831a      	strh	r2, [r3, #24]
    a734:	460c      	mov	r4, r1
    a736:	4603      	mov	r3, r0
    a738:	eb01 1243 	add.w	r2, r1, r3, lsl #5
    a73c:	f502 700e 	add.w	r0, r2, #568	; 0x238
    a740:	f8b2 2238 	ldrh.w	r2, [r2, #568]	; 0x238
    a744:	f002 020f 	and.w	r2, r2, #15
    a748:	2a03      	cmp	r2, #3
    a74a:	d109      	bne.n	a760 <_usb_d_dev_handler+0x6c>
    a74c:	8801      	ldrh	r1, [r0, #0]
    a74e:	2300      	movs	r3, #0
    a750:	f3c1 110a 	ubfx	r1, r1, #4, #11
    a754:	8003      	strh	r3, [r0, #0]
    a756:	6863      	ldr	r3, [r4, #4]
    a758:	2003      	movs	r0, #3
    a75a:	e8bd 47f0 	ldmia.w	sp!, {r4, r5, r6, r7, r8, r9, sl, lr}
    a75e:	4718      	bx	r3
    a760:	3301      	adds	r3, #1
    a762:	2b05      	cmp	r3, #5
    a764:	d1e8      	bne.n	a738 <_usb_d_dev_handler+0x44>
    a766:	2100      	movs	r1, #0
    a768:	e7f5      	b.n	a756 <_usb_d_dev_handler+0x62>
    a76a:	f012 0080 	ands.w	r0, r2, #128	; 0x80
    a76e:	d005      	beq.n	a77c <_usb_d_dev_handler+0x88>
    a770:	2280      	movs	r2, #128	; 0x80
    a772:	839a      	strh	r2, [r3, #28]
    a774:	4b4d      	ldr	r3, [pc, #308]	; (a8ac <_usb_d_dev_handler+0x1b8>)
    a776:	2005      	movs	r0, #5
    a778:	685b      	ldr	r3, [r3, #4]
    a77a:	e7ee      	b.n	a75a <_usb_d_dev_handler+0x66>
    a77c:	f012 0470 	ands.w	r4, r2, #112	; 0x70
    a780:	d00c      	beq.n	a79c <_usb_d_dev_handler+0xa8>
    a782:	2270      	movs	r2, #112	; 0x70
    a784:	839a      	strh	r2, [r3, #28]
    a786:	829a      	strh	r2, [r3, #20]
    a788:	f240 2201 	movw	r2, #513	; 0x201
    a78c:	831a      	strh	r2, [r3, #24]
    a78e:	4b48      	ldr	r3, [pc, #288]	; (a8b0 <_usb_d_dev_handler+0x1bc>)
    a790:	4798      	blx	r3
    a792:	4b46      	ldr	r3, [pc, #280]	; (a8ac <_usb_d_dev_handler+0x1b8>)
    a794:	4601      	mov	r1, r0
    a796:	685b      	ldr	r3, [r3, #4]
    a798:	2002      	movs	r0, #2
    a79a:	e7de      	b.n	a75a <_usb_d_dev_handler+0x66>
    a79c:	f012 0108 	ands.w	r1, r2, #8
    a7a0:	d00f      	beq.n	a7c2 <_usb_d_dev_handler+0xce>
    a7a2:	2208      	movs	r2, #8
    a7a4:	f883 4100 	strb.w	r4, [r3, #256]	; 0x100
    a7a8:	839a      	strh	r2, [r3, #28]
    a7aa:	2270      	movs	r2, #112	; 0x70
    a7ac:	829a      	strh	r2, [r3, #20]
    a7ae:	f240 2201 	movw	r2, #513	; 0x201
    a7b2:	831a      	strh	r2, [r3, #24]
    a7b4:	4b3f      	ldr	r3, [pc, #252]	; (a8b4 <_usb_d_dev_handler+0x1c0>)
    a7b6:	4798      	blx	r3
    a7b8:	4b3c      	ldr	r3, [pc, #240]	; (a8ac <_usb_d_dev_handler+0x1b8>)
    a7ba:	4621      	mov	r1, r4
    a7bc:	685b      	ldr	r3, [r3, #4]
    a7be:	2001      	movs	r0, #1
    a7c0:	e7cb      	b.n	a75a <_usb_d_dev_handler+0x66>
    a7c2:	07d0      	lsls	r0, r2, #31
    a7c4:	d509      	bpl.n	a7da <_usb_d_dev_handler+0xe6>
    a7c6:	f240 2201 	movw	r2, #513	; 0x201
    a7ca:	839a      	strh	r2, [r3, #28]
    a7cc:	829a      	strh	r2, [r3, #20]
    a7ce:	2270      	movs	r2, #112	; 0x70
    a7d0:	831a      	strh	r2, [r3, #24]
    a7d2:	4b36      	ldr	r3, [pc, #216]	; (a8ac <_usb_d_dev_handler+0x1b8>)
    a7d4:	2004      	movs	r0, #4
    a7d6:	685b      	ldr	r3, [r3, #4]
    a7d8:	e7bf      	b.n	a75a <_usb_d_dev_handler+0x66>
    a7da:	4c37      	ldr	r4, [pc, #220]	; (a8b8 <_usb_d_dev_handler+0x1c4>)
    a7dc:	f8df 80ec 	ldr.w	r8, [pc, #236]	; a8cc <_usb_d_dev_handler+0x1d8>
    a7e0:	4f36      	ldr	r7, [pc, #216]	; (a8bc <_usb_d_dev_handler+0x1c8>)
    a7e2:	2600      	movs	r6, #0
    a7e4:	f1a4 0914 	sub.w	r9, r4, #20
    a7e8:	7ca2      	ldrb	r2, [r4, #18]
    a7ea:	2aff      	cmp	r2, #255	; 0xff
    a7ec:	d029      	beq.n	a842 <_usb_d_dev_handler+0x14e>
    a7ee:	f002 020f 	and.w	r2, r2, #15
    a7f2:	2101      	movs	r1, #1
    a7f4:	fa01 f302 	lsl.w	r3, r1, r2
    a7f8:	422b      	tst	r3, r5
    a7fa:	d022      	beq.n	a842 <_usb_d_dev_handler+0x14e>
    a7fc:	0153      	lsls	r3, r2, #5
    a7fe:	0152      	lsls	r2, r2, #5
    a800:	f103 4382 	add.w	r3, r3, #1090519040	; 0x41000000
    a804:	f102 4282 	add.w	r2, r2, #1090519040	; 0x41000000
    a808:	f893 0107 	ldrb.w	r0, [r3, #263]	; 0x107
    a80c:	f892 3109 	ldrb.w	r3, [r2, #265]	; 0x109
    a810:	4003      	ands	r3, r0
    a812:	d016      	beq.n	a842 <_usb_d_dev_handler+0x14e>
    a814:	2214      	movs	r2, #20
    a816:	fb02 9206 	mla	r2, r2, r6, r9
    a81a:	f892 2027 	ldrb.w	r2, [r2, #39]	; 0x27
    a81e:	f002 0047 	and.w	r0, r2, #71	; 0x47
    a822:	4288      	cmp	r0, r1
    a824:	d114      	bne.n	a850 <_usb_d_dev_handler+0x15c>
    a826:	06da      	lsls	r2, r3, #27
    a828:	d502      	bpl.n	a830 <_usb_d_dev_handler+0x13c>
    a82a:	4620      	mov	r0, r4
    a82c:	47c0      	blx	r8
    a82e:	e008      	b.n	a842 <_usb_d_dev_handler+0x14e>
    a830:	f013 0140 	ands.w	r1, r3, #64	; 0x40
    a834:	d003      	beq.n	a83e <_usb_d_dev_handler+0x14a>
    a836:	4601      	mov	r1, r0
    a838:	4620      	mov	r0, r4
    a83a:	4b21      	ldr	r3, [pc, #132]	; (a8c0 <_usb_d_dev_handler+0x1cc>)
    a83c:	e015      	b.n	a86a <_usb_d_dev_handler+0x176>
    a83e:	069b      	lsls	r3, r3, #26
    a840:	d4fa      	bmi.n	a838 <_usb_d_dev_handler+0x144>
    a842:	3601      	adds	r6, #1
    a844:	2e1b      	cmp	r6, #27
    a846:	f104 0414 	add.w	r4, r4, #20
    a84a:	d1cd      	bne.n	a7e8 <_usb_d_dev_handler+0xf4>
    a84c:	e8bd 87f0 	ldmia.w	sp!, {r4, r5, r6, r7, r8, r9, sl, pc}
    a850:	0610      	lsls	r0, r2, #24
    a852:	d514      	bpl.n	a87e <_usb_d_dev_handler+0x18a>
    a854:	0658      	lsls	r0, r3, #25
    a856:	d4ef      	bmi.n	a838 <_usb_d_dev_handler+0x144>
    a858:	0718      	lsls	r0, r3, #28
    a85a:	d502      	bpl.n	a862 <_usb_d_dev_handler+0x16e>
    a85c:	4620      	mov	r0, r4
    a85e:	47b8      	blx	r7
    a860:	e7ef      	b.n	a842 <_usb_d_dev_handler+0x14e>
    a862:	0798      	lsls	r0, r3, #30
    a864:	d503      	bpl.n	a86e <_usb_d_dev_handler+0x17a>
    a866:	4b17      	ldr	r3, [pc, #92]	; (a8c4 <_usb_d_dev_handler+0x1d0>)
    a868:	4620      	mov	r0, r4
    a86a:	4798      	blx	r3
    a86c:	e7e9      	b.n	a842 <_usb_d_dev_handler+0x14e>
    a86e:	f002 0207 	and.w	r2, r2, #7
    a872:	2a01      	cmp	r2, #1
    a874:	d1e5      	bne.n	a842 <_usb_d_dev_handler+0x14e>
    a876:	075a      	lsls	r2, r3, #29
    a878:	d515      	bpl.n	a8a6 <_usb_d_dev_handler+0x1b2>
    a87a:	2100      	movs	r1, #0
    a87c:	e7ee      	b.n	a85c <_usb_d_dev_handler+0x168>
    a87e:	f013 0020 	ands.w	r0, r3, #32
    a882:	d001      	beq.n	a888 <_usb_d_dev_handler+0x194>
    a884:	2100      	movs	r1, #0
    a886:	e7d7      	b.n	a838 <_usb_d_dev_handler+0x144>
    a888:	0758      	lsls	r0, r3, #29
    a88a:	d4f6      	bmi.n	a87a <_usb_d_dev_handler+0x186>
    a88c:	07d8      	lsls	r0, r3, #31
    a88e:	d502      	bpl.n	a896 <_usb_d_dev_handler+0x1a2>
    a890:	4620      	mov	r0, r4
    a892:	4b0d      	ldr	r3, [pc, #52]	; (a8c8 <_usb_d_dev_handler+0x1d4>)
    a894:	e7e9      	b.n	a86a <_usb_d_dev_handler+0x176>
    a896:	f002 0207 	and.w	r2, r2, #7
    a89a:	2a01      	cmp	r2, #1
    a89c:	d1d1      	bne.n	a842 <_usb_d_dev_handler+0x14e>
    a89e:	071a      	lsls	r2, r3, #28
    a8a0:	d501      	bpl.n	a8a6 <_usb_d_dev_handler+0x1b2>
    a8a2:	2101      	movs	r1, #1
    a8a4:	e7da      	b.n	a85c <_usb_d_dev_handler+0x168>
    a8a6:	06db      	lsls	r3, r3, #27
    a8a8:	d5cb      	bpl.n	a842 <_usb_d_dev_handler+0x14e>
    a8aa:	e7be      	b.n	a82a <_usb_d_dev_handler+0x136>
    a8ac:	200009b8 	.word	0x200009b8
    a8b0:	0000a159 	.word	0x0000a159
    a8b4:	0000a3b5 	.word	0x0000a3b5
    a8b8:	200009cc 	.word	0x200009cc
    a8bc:	0000a2c9 	.word	0x0000a2c9
    a8c0:	0000a219 	.word	0x0000a219
    a8c4:	0000a3f1 	.word	0x0000a3f1
    a8c8:	0000a549 	.word	0x0000a549
    a8cc:	0000a195 	.word	0x0000a195

0000a8d0 <_usbd_ep_pcksize_size>:
    a8d0:	f5b0 7f00 	cmp.w	r0, #512	; 0x200
    a8d4:	d80f      	bhi.n	a8f6 <_usbd_ep_pcksize_size+0x26>
    a8d6:	f5b0 7f80 	cmp.w	r0, #256	; 0x100
    a8da:	d80e      	bhi.n	a8fa <_usbd_ep_pcksize_size+0x2a>
    a8dc:	2880      	cmp	r0, #128	; 0x80
    a8de:	d80e      	bhi.n	a8fe <_usbd_ep_pcksize_size+0x2e>
    a8e0:	2840      	cmp	r0, #64	; 0x40
    a8e2:	d80e      	bhi.n	a902 <_usbd_ep_pcksize_size+0x32>
    a8e4:	2820      	cmp	r0, #32
    a8e6:	d80e      	bhi.n	a906 <_usbd_ep_pcksize_size+0x36>
    a8e8:	2810      	cmp	r0, #16
    a8ea:	d80e      	bhi.n	a90a <_usbd_ep_pcksize_size+0x3a>
    a8ec:	2808      	cmp	r0, #8
    a8ee:	bf94      	ite	ls
    a8f0:	2000      	movls	r0, #0
    a8f2:	2001      	movhi	r0, #1
    a8f4:	4770      	bx	lr
    a8f6:	2007      	movs	r0, #7
    a8f8:	4770      	bx	lr
    a8fa:	2006      	movs	r0, #6
    a8fc:	4770      	bx	lr
    a8fe:	2005      	movs	r0, #5
    a900:	4770      	bx	lr
    a902:	2004      	movs	r0, #4
    a904:	4770      	bx	lr
    a906:	2003      	movs	r0, #3
    a908:	4770      	bx	lr
    a90a:	2002      	movs	r0, #2
    a90c:	4770      	bx	lr
	...

0000a910 <_usb_d_dev_init>:
    a910:	b508      	push	{r3, lr}
    a912:	f04f 4382 	mov.w	r3, #1090519040	; 0x41000000
    a916:	789a      	ldrb	r2, [r3, #2]
    a918:	07d0      	lsls	r0, r2, #31
    a91a:	d540      	bpl.n	a99e <_usb_d_dev_init+0x8e>
    a91c:	f04f 4282 	mov.w	r2, #1090519040	; 0x41000000
    a920:	7893      	ldrb	r3, [r2, #2]
    a922:	07db      	lsls	r3, r3, #31
    a924:	d4fc      	bmi.n	a920 <_usb_d_dev_init+0x10>
    a926:	4b2f      	ldr	r3, [pc, #188]	; (a9e4 <_usb_d_dev_init+0xd4>)
    a928:	4a2f      	ldr	r2, [pc, #188]	; (a9e8 <_usb_d_dev_init+0xd8>)
    a92a:	601a      	str	r2, [r3, #0]
    a92c:	605a      	str	r2, [r3, #4]
    a92e:	609a      	str	r2, [r3, #8]
    a930:	60da      	str	r2, [r3, #12]
    a932:	611a      	str	r2, [r3, #16]
    a934:	4b2d      	ldr	r3, [pc, #180]	; (a9ec <_usb_d_dev_init+0xdc>)
    a936:	4798      	blx	r3
    a938:	4b2d      	ldr	r3, [pc, #180]	; (a9f0 <_usb_d_dev_init+0xe0>)
    a93a:	6819      	ldr	r1, [r3, #0]
    a93c:	f3c1 1344 	ubfx	r3, r1, #5, #5
    a940:	f3c1 2282 	ubfx	r2, r1, #10, #3
    a944:	f011 011f 	ands.w	r1, r1, #31
    a948:	d046      	beq.n	a9d8 <_usb_d_dev_init+0xc8>
    a94a:	291f      	cmp	r1, #31
    a94c:	bf08      	it	eq
    a94e:	2109      	moveq	r1, #9
    a950:	2b00      	cmp	r3, #0
    a952:	d043      	beq.n	a9dc <_usb_d_dev_init+0xcc>
    a954:	2b1f      	cmp	r3, #31
    a956:	bf08      	it	eq
    a958:	2319      	moveq	r3, #25
    a95a:	2a00      	cmp	r2, #0
    a95c:	d040      	beq.n	a9e0 <_usb_d_dev_init+0xd0>
    a95e:	2a07      	cmp	r2, #7
    a960:	bf08      	it	eq
    a962:	2206      	moveq	r2, #6
    a964:	0312      	lsls	r2, r2, #12
    a966:	f402 42e0 	and.w	r2, r2, #28672	; 0x7000
    a96a:	ea43 1381 	orr.w	r3, r3, r1, lsl #6
    a96e:	4313      	orrs	r3, r2
    a970:	f04f 4282 	mov.w	r2, #1090519040	; 0x41000000
    a974:	b29b      	uxth	r3, r3
    a976:	8513      	strh	r3, [r2, #40]	; 0x28
    a978:	78d3      	ldrb	r3, [r2, #3]
    a97a:	f043 0303 	orr.w	r3, r3, #3
    a97e:	70d3      	strb	r3, [r2, #3]
    a980:	78d3      	ldrb	r3, [r2, #3]
    a982:	f043 030c 	orr.w	r3, r3, #12
    a986:	70d3      	strb	r3, [r2, #3]
    a988:	2304      	movs	r3, #4
    a98a:	7013      	strb	r3, [r2, #0]
    a98c:	7890      	ldrb	r0, [r2, #2]
    a98e:	f010 0003 	ands.w	r0, r0, #3
    a992:	d1fb      	bne.n	a98c <_usb_d_dev_init+0x7c>
    a994:	4b17      	ldr	r3, [pc, #92]	; (a9f4 <_usb_d_dev_init+0xe4>)
    a996:	6253      	str	r3, [r2, #36]	; 0x24
    a998:	2301      	movs	r3, #1
    a99a:	8113      	strh	r3, [r2, #8]
    a99c:	bd08      	pop	{r3, pc}
    a99e:	789a      	ldrb	r2, [r3, #2]
    a9a0:	0791      	lsls	r1, r2, #30
    a9a2:	d1fc      	bne.n	a99e <_usb_d_dev_init+0x8e>
    a9a4:	781a      	ldrb	r2, [r3, #0]
    a9a6:	0792      	lsls	r2, r2, #30
    a9a8:	d407      	bmi.n	a9ba <_usb_d_dev_init+0xaa>
    a9aa:	f04f 4382 	mov.w	r3, #1090519040	; 0x41000000
    a9ae:	2201      	movs	r2, #1
    a9b0:	701a      	strb	r2, [r3, #0]
    a9b2:	789a      	ldrb	r2, [r3, #2]
    a9b4:	0792      	lsls	r2, r2, #30
    a9b6:	d1fc      	bne.n	a9b2 <_usb_d_dev_init+0xa2>
    a9b8:	e7b0      	b.n	a91c <_usb_d_dev_init+0xc>
    a9ba:	781a      	ldrb	r2, [r3, #0]
    a9bc:	f002 02fd 	and.w	r2, r2, #253	; 0xfd
    a9c0:	701a      	strb	r2, [r3, #0]
    a9c2:	f04f 4282 	mov.w	r2, #1090519040	; 0x41000000
    a9c6:	7893      	ldrb	r3, [r2, #2]
    a9c8:	0798      	lsls	r0, r3, #30
    a9ca:	d1fc      	bne.n	a9c6 <_usb_d_dev_init+0xb6>
    a9cc:	f04f 4282 	mov.w	r2, #1090519040	; 0x41000000
    a9d0:	7893      	ldrb	r3, [r2, #2]
    a9d2:	0799      	lsls	r1, r3, #30
    a9d4:	d4fc      	bmi.n	a9d0 <_usb_d_dev_init+0xc0>
    a9d6:	e7e8      	b.n	a9aa <_usb_d_dev_init+0x9a>
    a9d8:	2109      	movs	r1, #9
    a9da:	e7b9      	b.n	a950 <_usb_d_dev_init+0x40>
    a9dc:	2319      	movs	r3, #25
    a9de:	e7bc      	b.n	a95a <_usb_d_dev_init+0x4a>
    a9e0:	2206      	movs	r2, #6
    a9e2:	e7bf      	b.n	a964 <_usb_d_dev_init+0x54>
    a9e4:	200009b8 	.word	0x200009b8
    a9e8:	0000a155 	.word	0x0000a155
    a9ec:	0000a3b5 	.word	0x0000a3b5
    a9f0:	00800084 	.word	0x00800084
    a9f4:	20000be8 	.word	0x20000be8

0000a9f8 <_usb_d_dev_enable>:
    a9f8:	f04f 4382 	mov.w	r3, #1090519040	; 0x41000000
    a9fc:	789a      	ldrb	r2, [r3, #2]
    a9fe:	0792      	lsls	r2, r2, #30
    aa00:	d123      	bne.n	aa4a <_usb_d_dev_enable+0x52>
    aa02:	789a      	ldrb	r2, [r3, #2]
    aa04:	0790      	lsls	r0, r2, #30
    aa06:	d1fc      	bne.n	aa02 <_usb_d_dev_enable+0xa>
    aa08:	781a      	ldrb	r2, [r3, #0]
    aa0a:	b2d2      	uxtb	r2, r2
    aa0c:	0791      	lsls	r1, r2, #30
    aa0e:	d513      	bpl.n	aa38 <_usb_d_dev_enable+0x40>
    aa10:	4b0f      	ldr	r3, [pc, #60]	; (aa50 <_usb_d_dev_enable+0x58>)
    aa12:	f44f 3280 	mov.w	r2, #65536	; 0x10000
    aa16:	609a      	str	r2, [r3, #8]
    aa18:	f44f 3200 	mov.w	r2, #131072	; 0x20000
    aa1c:	609a      	str	r2, [r3, #8]
    aa1e:	f44f 2280 	mov.w	r2, #262144	; 0x40000
    aa22:	609a      	str	r2, [r3, #8]
    aa24:	f44f 2200 	mov.w	r2, #524288	; 0x80000
    aa28:	609a      	str	r2, [r3, #8]
    aa2a:	f04f 4382 	mov.w	r3, #1090519040	; 0x41000000
    aa2e:	f240 228d 	movw	r2, #653	; 0x28d
    aa32:	831a      	strh	r2, [r3, #24]
    aa34:	2000      	movs	r0, #0
    aa36:	4770      	bx	lr
    aa38:	f042 0202 	orr.w	r2, r2, #2
    aa3c:	701a      	strb	r2, [r3, #0]
    aa3e:	f04f 4282 	mov.w	r2, #1090519040	; 0x41000000
    aa42:	7893      	ldrb	r3, [r2, #2]
    aa44:	079b      	lsls	r3, r3, #30
    aa46:	d1fc      	bne.n	aa42 <_usb_d_dev_enable+0x4a>
    aa48:	e7e2      	b.n	aa10 <_usb_d_dev_enable+0x18>
    aa4a:	f06f 0010 	mvn.w	r0, #16
    aa4e:	4770      	bx	lr
    aa50:	e000e100 	.word	0xe000e100

0000aa54 <_usb_d_dev_attach>:
    aa54:	f04f 4282 	mov.w	r2, #1090519040	; 0x41000000
    aa58:	8913      	ldrh	r3, [r2, #8]
    aa5a:	f023 0301 	bic.w	r3, r3, #1
    aa5e:	041b      	lsls	r3, r3, #16
    aa60:	0c1b      	lsrs	r3, r3, #16
    aa62:	8113      	strh	r3, [r2, #8]
    aa64:	4770      	bx	lr

0000aa66 <_usb_d_dev_set_address>:
    aa66:	f04f 4382 	mov.w	r3, #1090519040	; 0x41000000
    aa6a:	f040 0080 	orr.w	r0, r0, #128	; 0x80
    aa6e:	7298      	strb	r0, [r3, #10]
    aa70:	4770      	bx	lr
	...

0000aa74 <_usb_d_dev_ep_init>:
    aa74:	e92d 43f8 	stmdb	sp!, {r3, r4, r5, r6, r7, r8, r9, lr}
    aa78:	f000 040f 	and.w	r4, r0, #15
    aa7c:	b247      	sxtb	r7, r0
    aa7e:	460d      	mov	r5, r1
    aa80:	4680      	mov	r8, r0
    aa82:	0ff9      	lsrs	r1, r7, #31
    aa84:	4620      	mov	r0, r4
    aa86:	f8df 90a8 	ldr.w	r9, [pc, #168]	; ab30 <_usb_d_dev_ep_init+0xbc>
    aa8a:	47c8      	blx	r9
    aa8c:	2c05      	cmp	r4, #5
    aa8e:	4606      	mov	r6, r0
    aa90:	f005 0503 	and.w	r5, r5, #3
    aa94:	d83f      	bhi.n	ab16 <_usb_d_dev_ep_init+0xa2>
    aa96:	7c83      	ldrb	r3, [r0, #18]
    aa98:	2bff      	cmp	r3, #255	; 0xff
    aa9a:	d140      	bne.n	ab1e <_usb_d_dev_ep_init+0xaa>
    aa9c:	b985      	cbnz	r5, aac0 <_usb_d_dev_ep_init+0x4c>
    aa9e:	43f9      	mvns	r1, r7
    aaa0:	0fc9      	lsrs	r1, r1, #31
    aaa2:	4620      	mov	r0, r4
    aaa4:	47c8      	blx	r9
    aaa6:	7c83      	ldrb	r3, [r0, #18]
    aaa8:	2bff      	cmp	r3, #255	; 0xff
    aaaa:	d138      	bne.n	ab1e <_usb_d_dev_ep_init+0xaa>
    aaac:	230c      	movs	r3, #12
    aaae:	4363      	muls	r3, r4
    aab0:	491e      	ldr	r1, [pc, #120]	; (ab2c <_usb_d_dev_ep_init+0xb8>)
    aab2:	58cb      	ldr	r3, [r1, r3]
    aab4:	2b00      	cmp	r3, #0
    aab6:	d136      	bne.n	ab26 <_usb_d_dev_ep_init+0xb2>
    aab8:	f06f 0012 	mvn.w	r0, #18
    aabc:	e8bd 83f8 	ldmia.w	sp!, {r3, r4, r5, r6, r7, r8, r9, pc}
    aac0:	2f00      	cmp	r7, #0
    aac2:	da18      	bge.n	aaf6 <_usb_d_dev_ep_init+0x82>
    aac4:	4919      	ldr	r1, [pc, #100]	; (ab2c <_usb_d_dev_ep_init+0xb8>)
    aac6:	230c      	movs	r3, #12
    aac8:	fb03 1304 	mla	r3, r3, r4, r1
    aacc:	6859      	ldr	r1, [r3, #4]
    aace:	b9f1      	cbnz	r1, ab0e <_usb_d_dev_ep_init+0x9a>
    aad0:	4916      	ldr	r1, [pc, #88]	; (ab2c <_usb_d_dev_ep_init+0xb8>)
    aad2:	f886 8012 	strb.w	r8, [r6, #18]
    aad6:	230c      	movs	r3, #12
    aad8:	435c      	muls	r4, r3
    aada:	190b      	adds	r3, r1, r4
    aadc:	5909      	ldr	r1, [r1, r4]
    aade:	685b      	ldr	r3, [r3, #4]
    aae0:	8232      	strh	r2, [r6, #16]
    aae2:	3501      	adds	r5, #1
    aae4:	ea13 0327 	ands.w	r3, r3, r7, asr #32
    aae8:	bf38      	it	cc
    aaea:	460b      	movcc	r3, r1
    aaec:	74f5      	strb	r5, [r6, #19]
    aaee:	60f3      	str	r3, [r6, #12]
    aaf0:	2000      	movs	r0, #0
    aaf2:	e8bd 83f8 	ldmia.w	sp!, {r3, r4, r5, r6, r7, r8, r9, pc}
    aaf6:	230c      	movs	r3, #12
    aaf8:	4363      	muls	r3, r4
    aafa:	490c      	ldr	r1, [pc, #48]	; (ab2c <_usb_d_dev_ep_init+0xb8>)
    aafc:	58cb      	ldr	r3, [r1, r3]
    aafe:	2b00      	cmp	r3, #0
    ab00:	d0e6      	beq.n	aad0 <_usb_d_dev_ep_init+0x5c>
    ab02:	490a      	ldr	r1, [pc, #40]	; (ab2c <_usb_d_dev_ep_init+0xb8>)
    ab04:	230c      	movs	r3, #12
    ab06:	fb03 1304 	mla	r3, r3, r4, r1
    ab0a:	891b      	ldrh	r3, [r3, #8]
    ab0c:	e000      	b.n	ab10 <_usb_d_dev_ep_init+0x9c>
    ab0e:	895b      	ldrh	r3, [r3, #10]
    ab10:	4293      	cmp	r3, r2
    ab12:	dadd      	bge.n	aad0 <_usb_d_dev_ep_init+0x5c>
    ab14:	e7d0      	b.n	aab8 <_usb_d_dev_ep_init+0x44>
    ab16:	f06f 0011 	mvn.w	r0, #17
    ab1a:	e8bd 83f8 	ldmia.w	sp!, {r3, r4, r5, r6, r7, r8, r9, pc}
    ab1e:	f06f 0013 	mvn.w	r0, #19
    ab22:	e8bd 83f8 	ldmia.w	sp!, {r3, r4, r5, r6, r7, r8, r9, pc}
    ab26:	2f00      	cmp	r7, #0
    ab28:	daeb      	bge.n	ab02 <_usb_d_dev_ep_init+0x8e>
    ab2a:	e7cb      	b.n	aac4 <_usb_d_dev_ep_init+0x50>
    ab2c:	0000e07c 	.word	0x0000e07c
    ab30:	0000a17d 	.word	0x0000a17d

0000ab34 <_usb_d_dev_ep_deinit>:
    ab34:	e92d 41f0 	stmdb	sp!, {r4, r5, r6, r7, r8, lr}
    ab38:	b247      	sxtb	r7, r0
    ab3a:	f000 050f 	and.w	r5, r0, #15
    ab3e:	ea4f 78d7 	mov.w	r8, r7, lsr #31
    ab42:	4604      	mov	r4, r0
    ab44:	4641      	mov	r1, r8
    ab46:	4628      	mov	r0, r5
    ab48:	4b19      	ldr	r3, [pc, #100]	; (abb0 <_usb_d_dev_ep_deinit+0x7c>)
    ab4a:	4798      	blx	r3
    ab4c:	2d05      	cmp	r5, #5
    ab4e:	4606      	mov	r6, r0
    ab50:	d815      	bhi.n	ab7e <_usb_d_dev_ep_deinit+0x4a>
    ab52:	7c83      	ldrb	r3, [r0, #18]
    ab54:	2bff      	cmp	r3, #255	; 0xff
    ab56:	d012      	beq.n	ab7e <_usb_d_dev_ep_deinit+0x4a>
    ab58:	4b16      	ldr	r3, [pc, #88]	; (abb4 <_usb_d_dev_ep_deinit+0x80>)
    ab5a:	2203      	movs	r2, #3
    ab5c:	4641      	mov	r1, r8
    ab5e:	4798      	blx	r3
    ab60:	7cf3      	ldrb	r3, [r6, #19]
    ab62:	f003 0307 	and.w	r3, r3, #7
    ab66:	2b01      	cmp	r3, #1
    ab68:	d10b      	bne.n	ab82 <_usb_d_dev_ep_deinit+0x4e>
    ab6a:	0164      	lsls	r4, r4, #5
    ab6c:	f104 4482 	add.w	r4, r4, #1090519040	; 0x41000000
    ab70:	2300      	movs	r3, #0
    ab72:	f884 3100 	strb.w	r3, [r4, #256]	; 0x100
    ab76:	2300      	movs	r3, #0
    ab78:	74f3      	strb	r3, [r6, #19]
    ab7a:	23ff      	movs	r3, #255	; 0xff
    ab7c:	74b3      	strb	r3, [r6, #18]
    ab7e:	e8bd 81f0 	ldmia.w	sp!, {r4, r5, r6, r7, r8, pc}
    ab82:	2f00      	cmp	r7, #0
    ab84:	da09      	bge.n	ab9a <_usb_d_dev_ep_deinit+0x66>
    ab86:	0168      	lsls	r0, r5, #5
    ab88:	f100 4082 	add.w	r0, r0, #1090519040	; 0x41000000
    ab8c:	f890 3100 	ldrb.w	r3, [r0, #256]	; 0x100
    ab90:	f003 038f 	and.w	r3, r3, #143	; 0x8f
    ab94:	f880 3100 	strb.w	r3, [r0, #256]	; 0x100
    ab98:	e7ed      	b.n	ab76 <_usb_d_dev_ep_deinit+0x42>
    ab9a:	0164      	lsls	r4, r4, #5
    ab9c:	f104 4482 	add.w	r4, r4, #1090519040	; 0x41000000
    aba0:	f894 3100 	ldrb.w	r3, [r4, #256]	; 0x100
    aba4:	f003 03f8 	and.w	r3, r3, #248	; 0xf8
    aba8:	f884 3100 	strb.w	r3, [r4, #256]	; 0x100
    abac:	e7e3      	b.n	ab76 <_usb_d_dev_ep_deinit+0x42>
    abae:	bf00      	nop
    abb0:	0000a17d 	.word	0x0000a17d
    abb4:	0000a265 	.word	0x0000a265

0000abb8 <_usb_d_dev_ep_enable>:
    abb8:	e92d 43f8 	stmdb	sp!, {r3, r4, r5, r6, r7, r8, r9, lr}
    abbc:	f000 050f 	and.w	r5, r0, #15
    abc0:	fa4f f980 	sxtb.w	r9, r0
    abc4:	4b57      	ldr	r3, [pc, #348]	; (ad24 <_usb_d_dev_ep_enable+0x16c>)
    abc6:	ea4f 71d9 	mov.w	r1, r9, lsr #31
    abca:	4628      	mov	r0, r5
    abcc:	4798      	blx	r3
    abce:	016f      	lsls	r7, r5, #5
    abd0:	f107 4682 	add.w	r6, r7, #1090519040	; 0x41000000
    abd4:	4680      	mov	r8, r0
    abd6:	f896 0100 	ldrb.w	r0, [r6, #256]	; 0x100
    abda:	2d05      	cmp	r5, #5
    abdc:	b2c3      	uxtb	r3, r0
    abde:	f200 8098 	bhi.w	ad12 <_usb_d_dev_ep_enable+0x15a>
    abe2:	f898 2012 	ldrb.w	r2, [r8, #18]
    abe6:	2aff      	cmp	r2, #255	; 0xff
    abe8:	f000 8093 	beq.w	ad12 <_usb_d_dev_ep_enable+0x15a>
    abec:	4c4e      	ldr	r4, [pc, #312]	; (ad28 <_usb_d_dev_ep_enable+0x170>)
    abee:	f504 710c 	add.w	r1, r4, #560	; 0x230
    abf2:	440f      	add	r7, r1
    abf4:	f898 1013 	ldrb.w	r1, [r8, #19]
    abf8:	f001 0007 	and.w	r0, r1, #7
    abfc:	2801      	cmp	r0, #1
    abfe:	d148      	bne.n	ac92 <_usb_d_dev_ep_enable+0xda>
    ac00:	f013 0377 	ands.w	r3, r3, #119	; 0x77
    ac04:	f040 8089 	bne.w	ad1a <_usb_d_dev_ep_enable+0x162>
    ac08:	2111      	movs	r1, #17
    ac0a:	f886 1100 	strb.w	r1, [r6, #256]	; 0x100
    ac0e:	f8b8 1010 	ldrh.w	r1, [r8, #16]
    ac12:	f8df 9118 	ldr.w	r9, [pc, #280]	; ad2c <_usb_d_dev_ep_enable+0x174>
    ac16:	4608      	mov	r0, r1
    ac18:	47c8      	blx	r9
    ac1a:	f8df e114 	ldr.w	lr, [pc, #276]	; ad30 <_usb_d_dev_ep_enable+0x178>
    ac1e:	0700      	lsls	r0, r0, #28
    ac20:	f000 40e0 	and.w	r0, r0, #1879048192	; 0x70000000
    ac24:	ea0e 3e81 	and.w	lr, lr, r1, lsl #14
    ac28:	f3c1 010d 	ubfx	r1, r1, #0, #14
    ac2c:	ea4e 0e00 	orr.w	lr, lr, r0
    ac30:	4308      	orrs	r0, r1
    ac32:	f8c7 e004 	str.w	lr, [r7, #4]
    ac36:	eb04 1545 	add.w	r5, r4, r5, lsl #5
    ac3a:	6178      	str	r0, [r7, #20]
    ac3c:	f002 020f 	and.w	r2, r2, #15
    ac40:	2740      	movs	r7, #64	; 0x40
    ac42:	2080      	movs	r0, #128	; 0x80
    ac44:	f886 7105 	strb.w	r7, [r6, #261]	; 0x105
    ac48:	f886 0104 	strb.w	r0, [r6, #260]	; 0x104
    ac4c:	0150      	lsls	r0, r2, #5
    ac4e:	f885 323a 	strb.w	r3, [r5, #570]	; 0x23a
    ac52:	4404      	add	r4, r0
    ac54:	f885 324a 	strb.w	r3, [r5, #586]	; 0x24a
    ac58:	f8d8 600c 	ldr.w	r6, [r8, #12]
    ac5c:	f8c4 6230 	str.w	r6, [r4, #560]	; 0x230
    ac60:	f504 750c 	add.w	r5, r4, #560	; 0x230
    ac64:	f8d4 4234 	ldr.w	r4, [r4, #564]	; 0x234
    ac68:	f361 349b 	bfi	r4, r1, #14, #14
    ac6c:	606c      	str	r4, [r5, #4]
    ac6e:	6869      	ldr	r1, [r5, #4]
    ac70:	f100 4282 	add.w	r2, r0, #1090519040	; 0x41000000
    ac74:	f363 010d 	bfi	r1, r3, #0, #14
    ac78:	6069      	str	r1, [r5, #4]
    ac7a:	4610      	mov	r0, r2
    ac7c:	21b0      	movs	r1, #176	; 0xb0
    ac7e:	f882 1104 	strb.w	r1, [r2, #260]	; 0x104
    ac82:	f882 7105 	strb.w	r7, [r2, #261]	; 0x105
    ac86:	2210      	movs	r2, #16
    ac88:	f880 2109 	strb.w	r2, [r0, #265]	; 0x109
    ac8c:	4618      	mov	r0, r3
    ac8e:	e8bd 83f8 	ldmia.w	sp!, {r3, r4, r5, r6, r7, r8, r9, pc}
    ac92:	f1b9 0f00 	cmp.w	r9, #0
    ac96:	da1e      	bge.n	acd6 <_usb_d_dev_ep_enable+0x11e>
    ac98:	f013 0270 	ands.w	r2, r3, #112	; 0x70
    ac9c:	d13d      	bne.n	ad1a <_usb_d_dev_ep_enable+0x162>
    ac9e:	0108      	lsls	r0, r1, #4
    aca0:	f000 0070 	and.w	r0, r0, #112	; 0x70
    aca4:	4318      	orrs	r0, r3
    aca6:	f8b8 3010 	ldrh.w	r3, [r8, #16]
    acaa:	f886 0100 	strb.w	r0, [r6, #256]	; 0x100
    acae:	491f      	ldr	r1, [pc, #124]	; (ad2c <_usb_d_dev_ep_enable+0x174>)
    acb0:	4618      	mov	r0, r3
    acb2:	4788      	blx	r1
    acb4:	0700      	lsls	r0, r0, #28
    acb6:	f3c3 030d 	ubfx	r3, r3, #0, #14
    acba:	f000 40e0 	and.w	r0, r0, #1879048192	; 0x70000000
    acbe:	eb04 1445 	add.w	r4, r4, r5, lsl #5
    acc2:	4318      	orrs	r0, r3
    acc4:	2380      	movs	r3, #128	; 0x80
    acc6:	6178      	str	r0, [r7, #20]
    acc8:	f886 3104 	strb.w	r3, [r6, #260]	; 0x104
    accc:	f884 224a 	strb.w	r2, [r4, #586]	; 0x24a
    acd0:	4610      	mov	r0, r2
    acd2:	e8bd 83f8 	ldmia.w	sp!, {r3, r4, r5, r6, r7, r8, r9, pc}
    acd6:	f013 0207 	ands.w	r2, r3, #7
    acda:	d11e      	bne.n	ad1a <_usb_d_dev_ep_enable+0x162>
    acdc:	f001 0107 	and.w	r1, r1, #7
    ace0:	ea41 0003 	orr.w	r0, r1, r3
    ace4:	f8b8 1010 	ldrh.w	r1, [r8, #16]
    ace8:	f886 0100 	strb.w	r0, [r6, #256]	; 0x100
    acec:	4b0f      	ldr	r3, [pc, #60]	; (ad2c <_usb_d_dev_ep_enable+0x174>)
    acee:	4608      	mov	r0, r1
    acf0:	4798      	blx	r3
    acf2:	4b0f      	ldr	r3, [pc, #60]	; (ad30 <_usb_d_dev_ep_enable+0x178>)
    acf4:	0700      	lsls	r0, r0, #28
    acf6:	ea03 3381 	and.w	r3, r3, r1, lsl #14
    acfa:	f000 40e0 	and.w	r0, r0, #1879048192	; 0x70000000
    acfe:	4303      	orrs	r3, r0
    ad00:	eb04 1445 	add.w	r4, r4, r5, lsl #5
    ad04:	607b      	str	r3, [r7, #4]
    ad06:	2340      	movs	r3, #64	; 0x40
    ad08:	f886 3105 	strb.w	r3, [r6, #261]	; 0x105
    ad0c:	f884 223a 	strb.w	r2, [r4, #570]	; 0x23a
    ad10:	e7de      	b.n	acd0 <_usb_d_dev_ep_enable+0x118>
    ad12:	f06f 0011 	mvn.w	r0, #17
    ad16:	e8bd 83f8 	ldmia.w	sp!, {r3, r4, r5, r6, r7, r8, r9, pc}
    ad1a:	f06f 0013 	mvn.w	r0, #19
    ad1e:	e8bd 83f8 	ldmia.w	sp!, {r3, r4, r5, r6, r7, r8, r9, pc}
    ad22:	bf00      	nop
    ad24:	0000a17d 	.word	0x0000a17d
    ad28:	200009b8 	.word	0x200009b8
    ad2c:	0000a8d1 	.word	0x0000a8d1
    ad30:	0fffc000 	.word	0x0fffc000

0000ad34 <_usb_d_dev_ep_stall>:
    ad34:	b538      	push	{r3, r4, r5, lr}
    ad36:	09c2      	lsrs	r2, r0, #7
    ad38:	f000 050f 	and.w	r5, r0, #15
    ad3c:	460c      	mov	r4, r1
    ad3e:	4628      	mov	r0, r5
    ad40:	4611      	mov	r1, r2
    ad42:	4b34      	ldr	r3, [pc, #208]	; (ae14 <_usb_d_dev_ep_stall+0xe0>)
    ad44:	4798      	blx	r3
    ad46:	2d05      	cmp	r5, #5
    ad48:	d861      	bhi.n	ae0e <_usb_d_dev_ep_stall+0xda>
    ad4a:	2c01      	cmp	r4, #1
    ad4c:	d119      	bne.n	ad82 <_usb_d_dev_ep_stall+0x4e>
    ad4e:	7c83      	ldrb	r3, [r0, #18]
    ad50:	f003 030f 	and.w	r3, r3, #15
    ad54:	0159      	lsls	r1, r3, #5
    ad56:	2410      	movs	r4, #16
    ad58:	4094      	lsls	r4, r2
    ad5a:	f101 4182 	add.w	r1, r1, #1090519040	; 0x41000000
    ad5e:	b2e4      	uxtb	r4, r4
    ad60:	f881 4105 	strb.w	r4, [r1, #261]	; 0x105
    ad64:	015b      	lsls	r3, r3, #5
    ad66:	2120      	movs	r1, #32
    ad68:	f103 4382 	add.w	r3, r3, #1090519040	; 0x41000000
    ad6c:	fa01 f202 	lsl.w	r2, r1, r2
    ad70:	b2d2      	uxtb	r2, r2
    ad72:	f883 2109 	strb.w	r2, [r3, #265]	; 0x109
    ad76:	7cc3      	ldrb	r3, [r0, #19]
    ad78:	f043 0308 	orr.w	r3, r3, #8
    ad7c:	74c3      	strb	r3, [r0, #19]
    ad7e:	2000      	movs	r0, #0
    ad80:	bd38      	pop	{r3, r4, r5, pc}
    ad82:	bb9c      	cbnz	r4, adec <_usb_d_dev_ep_stall+0xb8>
    ad84:	7c81      	ldrb	r1, [r0, #18]
    ad86:	f001 010f 	and.w	r1, r1, #15
    ad8a:	014b      	lsls	r3, r1, #5
    ad8c:	f103 4382 	add.w	r3, r3, #1090519040	; 0x41000000
    ad90:	2410      	movs	r4, #16
    ad92:	f893 5106 	ldrb.w	r5, [r3, #262]	; 0x106
    ad96:	4094      	lsls	r4, r2
    ad98:	4225      	tst	r5, r4
    ad9a:	d0f0      	beq.n	ad7e <_usb_d_dev_ep_stall+0x4a>
    ad9c:	b2e4      	uxtb	r4, r4
    ad9e:	f883 4104 	strb.w	r4, [r3, #260]	; 0x104
    ada2:	0149      	lsls	r1, r1, #5
    ada4:	2420      	movs	r4, #32
    ada6:	4094      	lsls	r4, r2
    ada8:	f101 4182 	add.w	r1, r1, #1090519040	; 0x41000000
    adac:	b2e5      	uxtb	r5, r4
    adae:	f881 5108 	strb.w	r5, [r1, #264]	; 0x108
    adb2:	f893 1107 	ldrb.w	r1, [r3, #263]	; 0x107
    adb6:	4221      	tst	r1, r4
    adb8:	d007      	beq.n	adca <_usb_d_dev_ep_stall+0x96>
    adba:	2101      	movs	r1, #1
    adbc:	fa01 f202 	lsl.w	r2, r1, r2
    adc0:	b2d2      	uxtb	r2, r2
    adc2:	f883 5107 	strb.w	r5, [r3, #263]	; 0x107
    adc6:	f883 2104 	strb.w	r2, [r3, #260]	; 0x104
    adca:	7cc2      	ldrb	r2, [r0, #19]
    adcc:	f002 0107 	and.w	r1, r2, #7
    add0:	2901      	cmp	r1, #1
    add2:	d108      	bne.n	ade6 <_usb_d_dev_ep_stall+0xb2>
    add4:	f893 3106 	ldrb.w	r3, [r3, #262]	; 0x106
    add8:	f013 0330 	ands.w	r3, r3, #48	; 0x30
    addc:	d1cf      	bne.n	ad7e <_usb_d_dev_ep_stall+0x4a>
    adde:	f363 02c3 	bfi	r2, r3, #3, #1
    ade2:	74c2      	strb	r2, [r0, #19]
    ade4:	e7cb      	b.n	ad7e <_usb_d_dev_ep_stall+0x4a>
    ade6:	f36f 02c3 	bfc	r2, #3, #1
    adea:	e7fa      	b.n	ade2 <_usb_d_dev_ep_stall+0xae>
    adec:	7c83      	ldrb	r3, [r0, #18]
    adee:	f003 030f 	and.w	r3, r3, #15
    adf2:	015b      	lsls	r3, r3, #5
    adf4:	f103 4382 	add.w	r3, r3, #1090519040	; 0x41000000
    adf8:	f503 7380 	add.w	r3, r3, #256	; 0x100
    adfc:	2010      	movs	r0, #16
    adfe:	799b      	ldrb	r3, [r3, #6]
    ae00:	fa00 f202 	lsl.w	r2, r0, r2
    ae04:	421a      	tst	r2, r3
    ae06:	bf14      	ite	ne
    ae08:	2001      	movne	r0, #1
    ae0a:	2000      	moveq	r0, #0
    ae0c:	bd38      	pop	{r3, r4, r5, pc}
    ae0e:	f06f 0011 	mvn.w	r0, #17
    ae12:	bd38      	pop	{r3, r4, r5, pc}
    ae14:	0000a17d 	.word	0x0000a17d

0000ae18 <_usb_d_dev_ep_read_req>:
    ae18:	b530      	push	{r4, r5, lr}
    ae1a:	f000 000f 	and.w	r0, r0, #15
    ae1e:	4b12      	ldr	r3, [pc, #72]	; (ae68 <_usb_d_dev_ep_read_req+0x50>)
    ae20:	0142      	lsls	r2, r0, #5
    ae22:	189c      	adds	r4, r3, r2
    ae24:	589d      	ldr	r5, [r3, r2]
    ae26:	6864      	ldr	r4, [r4, #4]
    ae28:	2805      	cmp	r0, #5
    ae2a:	f3c4 040d 	ubfx	r4, r4, #0, #14
    ae2e:	d814      	bhi.n	ae5a <_usb_d_dev_ep_read_req+0x42>
    ae30:	b199      	cbz	r1, ae5a <_usb_d_dev_ep_read_req+0x42>
    ae32:	f102 4282 	add.w	r2, r2, #1090519040	; 0x41000000
    ae36:	f892 3100 	ldrb.w	r3, [r2, #256]	; 0x100
    ae3a:	2b11      	cmp	r3, #17
    ae3c:	d110      	bne.n	ae60 <_usb_d_dev_ep_read_req+0x48>
    ae3e:	f892 3107 	ldrb.w	r3, [r2, #263]	; 0x107
    ae42:	f013 0010 	ands.w	r0, r3, #16
    ae46:	d00d      	beq.n	ae64 <_usb_d_dev_ep_read_req+0x4c>
    ae48:	682b      	ldr	r3, [r5, #0]
    ae4a:	600b      	str	r3, [r1, #0]
    ae4c:	686b      	ldr	r3, [r5, #4]
    ae4e:	604b      	str	r3, [r1, #4]
    ae50:	2310      	movs	r3, #16
    ae52:	f882 3107 	strb.w	r3, [r2, #263]	; 0x107
    ae56:	4620      	mov	r0, r4
    ae58:	bd30      	pop	{r4, r5, pc}
    ae5a:	f06f 0011 	mvn.w	r0, #17
    ae5e:	bd30      	pop	{r4, r5, pc}
    ae60:	f06f 0012 	mvn.w	r0, #18
    ae64:	bd30      	pop	{r4, r5, pc}
    ae66:	bf00      	nop
    ae68:	20000be8 	.word	0x20000be8

0000ae6c <_usb_d_dev_ep_trans>:
    ae6c:	e92d 47f3 	stmdb	sp!, {r0, r1, r4, r5, r6, r7, r8, r9, sl, lr}
    ae70:	7a07      	ldrb	r7, [r0, #8]
    ae72:	4b3a      	ldr	r3, [pc, #232]	; (af5c <_usb_d_dev_ep_trans+0xf0>)
    ae74:	f007 050f 	and.w	r5, r7, #15
    ae78:	b27f      	sxtb	r7, r7
    ae7a:	ea4f 79d7 	mov.w	r9, r7, lsr #31
    ae7e:	4680      	mov	r8, r0
    ae80:	4649      	mov	r1, r9
    ae82:	4628      	mov	r0, r5
    ae84:	4798      	blx	r3
    ae86:	8a02      	ldrh	r2, [r0, #16]
    ae88:	f8d8 1004 	ldr.w	r1, [r8, #4]
    ae8c:	f240 33ff 	movw	r3, #1023	; 0x3ff
    ae90:	429a      	cmp	r2, r3
    ae92:	bf1a      	itte	ne
    ae94:	f102 33ff 	addne.w	r3, r2, #4294967295
    ae98:	b29b      	uxthne	r3, r3
    ae9a:	4613      	moveq	r3, r2
    ae9c:	2d05      	cmp	r5, #5
    ae9e:	4604      	mov	r4, r0
    aea0:	ea03 0601 	and.w	r6, r3, r1
    aea4:	d828      	bhi.n	aef8 <_usb_d_dev_ep_trans+0x8c>
    aea6:	f8d8 5000 	ldr.w	r5, [r8]
    aeaa:	f1b5 5f00 	cmp.w	r5, #536870912	; 0x20000000
    aeae:	d30a      	bcc.n	aec6 <_usb_d_dev_ep_trans+0x5a>
    aeb0:	4b2b      	ldr	r3, [pc, #172]	; (af60 <_usb_d_dev_ep_trans+0xf4>)
    aeb2:	1948      	adds	r0, r1, r5
    aeb4:	4298      	cmp	r0, r3
    aeb6:	d806      	bhi.n	aec6 <_usb_d_dev_ep_trans+0x5a>
    aeb8:	f015 0503 	ands.w	r5, r5, #3
    aebc:	d103      	bne.n	aec6 <_usb_d_dev_ep_trans+0x5a>
    aebe:	2f00      	cmp	r7, #0
    aec0:	db05      	blt.n	aece <_usb_d_dev_ep_trans+0x62>
    aec2:	4291      	cmp	r1, r2
    aec4:	d214      	bcs.n	aef0 <_usb_d_dev_ep_trans+0x84>
    aec6:	68e3      	ldr	r3, [r4, #12]
    aec8:	2b00      	cmp	r3, #0
    aeca:	d041      	beq.n	af50 <_usb_d_dev_ep_trans+0xe4>
    aecc:	2501      	movs	r5, #1
    aece:	7ce3      	ldrb	r3, [r4, #19]
    aed0:	071b      	lsls	r3, r3, #28
    aed2:	d440      	bmi.n	af56 <_usb_d_dev_ep_trans+0xea>
    aed4:	4b23      	ldr	r3, [pc, #140]	; (af64 <_usb_d_dev_ep_trans+0xf8>)
    aed6:	a801      	add	r0, sp, #4
    aed8:	4798      	blx	r3
    aeda:	7ce3      	ldrb	r3, [r4, #19]
    aedc:	4a22      	ldr	r2, [pc, #136]	; (af68 <_usb_d_dev_ep_trans+0xfc>)
    aede:	f013 0a40 	ands.w	sl, r3, #64	; 0x40
    aee2:	d00e      	beq.n	af02 <_usb_d_dev_ep_trans+0x96>
    aee4:	a801      	add	r0, sp, #4
    aee6:	4790      	blx	r2
    aee8:	2001      	movs	r0, #1
    aeea:	b002      	add	sp, #8
    aeec:	e8bd 87f0 	ldmia.w	sp!, {r4, r5, r6, r7, r8, r9, sl, pc}
    aef0:	b12e      	cbz	r6, aefe <_usb_d_dev_ep_trans+0x92>
    aef2:	68e3      	ldr	r3, [r4, #12]
    aef4:	2b00      	cmp	r3, #0
    aef6:	d1ea      	bne.n	aece <_usb_d_dev_ep_trans+0x62>
    aef8:	f06f 0011 	mvn.w	r0, #17
    aefc:	e7f5      	b.n	aeea <_usb_d_dev_ep_trans+0x7e>
    aefe:	4635      	mov	r5, r6
    af00:	e7e5      	b.n	aece <_usb_d_dev_ep_trans+0x62>
    af02:	f043 0340 	orr.w	r3, r3, #64	; 0x40
    af06:	74e3      	strb	r3, [r4, #19]
    af08:	a801      	add	r0, sp, #4
    af0a:	4790      	blx	r2
    af0c:	f8d8 3000 	ldr.w	r3, [r8]
    af10:	6023      	str	r3, [r4, #0]
    af12:	f8d8 3004 	ldr.w	r3, [r8, #4]
    af16:	6063      	str	r3, [r4, #4]
    af18:	7ce3      	ldrb	r3, [r4, #19]
    af1a:	f8c4 a008 	str.w	sl, [r4, #8]
    af1e:	f369 13c7 	bfi	r3, r9, #7, #1
    af22:	f365 1345 	bfi	r3, r5, #5, #1
    af26:	74e3      	strb	r3, [r4, #19]
    af28:	f898 3009 	ldrb.w	r3, [r8, #9]
    af2c:	b113      	cbz	r3, af34 <_usb_d_dev_ep_trans+0xc8>
    af2e:	fab6 f386 	clz	r3, r6
    af32:	095b      	lsrs	r3, r3, #5
    af34:	7ce2      	ldrb	r2, [r4, #19]
    af36:	2f00      	cmp	r7, #0
    af38:	f363 1204 	bfi	r2, r3, #4, #1
    af3c:	4620      	mov	r0, r4
    af3e:	74e2      	strb	r2, [r4, #19]
    af40:	f04f 0100 	mov.w	r1, #0
    af44:	bfb4      	ite	lt
    af46:	4b09      	ldrlt	r3, [pc, #36]	; (af6c <_usb_d_dev_ep_trans+0x100>)
    af48:	4b09      	ldrge	r3, [pc, #36]	; (af70 <_usb_d_dev_ep_trans+0x104>)
    af4a:	4798      	blx	r3
    af4c:	2000      	movs	r0, #0
    af4e:	e7cc      	b.n	aeea <_usb_d_dev_ep_trans+0x7e>
    af50:	f06f 0012 	mvn.w	r0, #18
    af54:	e7c9      	b.n	aeea <_usb_d_dev_ep_trans+0x7e>
    af56:	2002      	movs	r0, #2
    af58:	e7c7      	b.n	aeea <_usb_d_dev_ep_trans+0x7e>
    af5a:	bf00      	nop
    af5c:	0000a17d 	.word	0x0000a17d
    af60:	20041fff 	.word	0x20041fff
    af64:	000078ed 	.word	0x000078ed
    af68:	000078fb 	.word	0x000078fb
    af6c:	0000a3f1 	.word	0x0000a3f1
    af70:	0000a549 	.word	0x0000a549

0000af74 <_usb_d_dev_register_callback>:
    af74:	4b06      	ldr	r3, [pc, #24]	; (af90 <_usb_d_dev_register_callback+0x1c>)
    af76:	2900      	cmp	r1, #0
    af78:	bf08      	it	eq
    af7a:	4619      	moveq	r1, r3
    af7c:	2801      	cmp	r0, #1
    af7e:	d102      	bne.n	af86 <_usb_d_dev_register_callback+0x12>
    af80:	4b04      	ldr	r3, [pc, #16]	; (af94 <_usb_d_dev_register_callback+0x20>)
    af82:	6059      	str	r1, [r3, #4]
    af84:	4770      	bx	lr
    af86:	b908      	cbnz	r0, af8c <_usb_d_dev_register_callback+0x18>
    af88:	4b02      	ldr	r3, [pc, #8]	; (af94 <_usb_d_dev_register_callback+0x20>)
    af8a:	6019      	str	r1, [r3, #0]
    af8c:	4770      	bx	lr
    af8e:	bf00      	nop
    af90:	0000a155 	.word	0x0000a155
    af94:	200009b8 	.word	0x200009b8

0000af98 <_usb_d_dev_register_ep_callback>:
    af98:	4b08      	ldr	r3, [pc, #32]	; (afbc <_usb_d_dev_register_ep_callback+0x24>)
    af9a:	2900      	cmp	r1, #0
    af9c:	bf08      	it	eq
    af9e:	4619      	moveq	r1, r3
    afa0:	b910      	cbnz	r0, afa8 <_usb_d_dev_register_ep_callback+0x10>
    afa2:	4b07      	ldr	r3, [pc, #28]	; (afc0 <_usb_d_dev_register_ep_callback+0x28>)
    afa4:	6099      	str	r1, [r3, #8]
    afa6:	4770      	bx	lr
    afa8:	2801      	cmp	r0, #1
    afaa:	d102      	bne.n	afb2 <_usb_d_dev_register_ep_callback+0x1a>
    afac:	4b04      	ldr	r3, [pc, #16]	; (afc0 <_usb_d_dev_register_ep_callback+0x28>)
    afae:	60d9      	str	r1, [r3, #12]
    afb0:	4770      	bx	lr
    afb2:	2802      	cmp	r0, #2
    afb4:	bf04      	itt	eq
    afb6:	4b02      	ldreq	r3, [pc, #8]	; (afc0 <_usb_d_dev_register_ep_callback+0x28>)
    afb8:	6119      	streq	r1, [r3, #16]
    afba:	4770      	bx	lr
    afbc:	0000a155 	.word	0x0000a155
    afc0:	200009b8 	.word	0x200009b8

0000afc4 <USB_0_Handler>:
    afc4:	4b00      	ldr	r3, [pc, #0]	; (afc8 <USB_0_Handler+0x4>)
    afc6:	4718      	bx	r3
    afc8:	0000a6f5 	.word	0x0000a6f5

0000afcc <USB_1_Handler>:
    afcc:	4b00      	ldr	r3, [pc, #0]	; (afd0 <USB_1_Handler+0x4>)
    afce:	4718      	bx	r3
    afd0:	0000a6f5 	.word	0x0000a6f5

0000afd4 <USB_2_Handler>:
    afd4:	4b00      	ldr	r3, [pc, #0]	; (afd8 <USB_2_Handler+0x4>)
    afd6:	4718      	bx	r3
    afd8:	0000a6f5 	.word	0x0000a6f5

0000afdc <USB_3_Handler>:
    afdc:	4b00      	ldr	r3, [pc, #0]	; (afe0 <USB_3_Handler+0x4>)
    afde:	4718      	bx	r3
    afe0:	0000a6f5 	.word	0x0000a6f5

0000afe4 <_wdt_init>:
    afe4:	6803      	ldr	r3, [r0, #0]
    afe6:	689a      	ldr	r2, [r3, #8]
    afe8:	f012 0f0e 	tst.w	r2, #14
    afec:	d1fb      	bne.n	afe6 <_wdt_init+0x2>
    afee:	781a      	ldrb	r2, [r3, #0]
    aff0:	09d2      	lsrs	r2, r2, #7
    aff2:	d115      	bne.n	b020 <_wdt_init+0x3c>
    aff4:	689a      	ldr	r2, [r3, #8]
    aff6:	f012 0f0e 	tst.w	r2, #14
    affa:	d1fb      	bne.n	aff4 <_wdt_init+0x10>
    affc:	781a      	ldrb	r2, [r3, #0]
    affe:	0792      	lsls	r2, r2, #30
    b000:	d40e      	bmi.n	b020 <_wdt_init+0x3c>
    b002:	781a      	ldrb	r2, [r3, #0]
    b004:	f002 02fb 	and.w	r2, r2, #251	; 0xfb
    b008:	701a      	strb	r2, [r3, #0]
    b00a:	6898      	ldr	r0, [r3, #8]
    b00c:	f010 000e 	ands.w	r0, r0, #14
    b010:	d1fb      	bne.n	b00a <_wdt_init+0x26>
    b012:	785a      	ldrb	r2, [r3, #1]
    b014:	f002 02f0 	and.w	r2, r2, #240	; 0xf0
    b018:	f042 020b 	orr.w	r2, r2, #11
    b01c:	705a      	strb	r2, [r3, #1]
    b01e:	4770      	bx	lr
    b020:	f06f 0010 	mvn.w	r0, #16
    b024:	4770      	bx	lr

0000b026 <_wdt_disable>:
    b026:	6803      	ldr	r3, [r0, #0]
    b028:	689a      	ldr	r2, [r3, #8]
    b02a:	f012 0f0e 	tst.w	r2, #14
    b02e:	d1fb      	bne.n	b028 <_wdt_disable+0x2>
    b030:	781a      	ldrb	r2, [r3, #0]
    b032:	09d2      	lsrs	r2, r2, #7
    b034:	d108      	bne.n	b048 <_wdt_disable+0x22>
    b036:	781a      	ldrb	r2, [r3, #0]
    b038:	f002 02fd 	and.w	r2, r2, #253	; 0xfd
    b03c:	701a      	strb	r2, [r3, #0]
    b03e:	6898      	ldr	r0, [r3, #8]
    b040:	f010 000e 	ands.w	r0, r0, #14
    b044:	d1fb      	bne.n	b03e <_wdt_disable+0x18>
    b046:	4770      	bx	lr
    b048:	f06f 0010 	mvn.w	r0, #16
    b04c:	4770      	bx	lr
	...

0000b050 <RTC_Scheduler_ping_cb>:
    b050:	4a04      	ldr	r2, [pc, #16]	; (b064 <RTC_Scheduler_ping_cb+0x14>)
    b052:	7813      	ldrb	r3, [r2, #0]
    b054:	3301      	adds	r3, #1
    b056:	b2db      	uxtb	r3, r3
    b058:	7013      	strb	r3, [r2, #0]
    b05a:	7853      	ldrb	r3, [r2, #1]
    b05c:	3301      	adds	r3, #1
    b05e:	b2db      	uxtb	r3, r3
    b060:	7053      	strb	r3, [r2, #1]
    b062:	4770      	bx	lr
    b064:	20000d78 	.word	0x20000d78

0000b068 <grid_port_receive_task>:
    b068:	69c3      	ldr	r3, [r0, #28]
    b06a:	b537      	push	{r0, r1, r2, r4, r5, lr}
    b06c:	4604      	mov	r4, r0
    b06e:	bb3b      	cbnz	r3, b0c0 <grid_port_receive_task+0x58>
    b070:	6982      	ldr	r2, [r0, #24]
    b072:	f5b2 6ffa 	cmp.w	r2, #2000	; 0x7d0
    b076:	d927      	bls.n	b0c8 <grid_port_receive_task+0x60>
    b078:	f890 250f 	ldrb.w	r2, [r0, #1295]	; 0x50f
    b07c:	6203      	str	r3, [r0, #32]
    b07e:	2a01      	cmp	r2, #1
    b080:	6243      	str	r3, [r0, #36]	; 0x24
    b082:	4a18      	ldr	r2, [pc, #96]	; (b0e4 <grid_port_receive_task+0x7c>)
    b084:	d11e      	bne.n	b0c4 <grid_port_receive_task+0x5c>
    b086:	f880 350f 	strb.w	r3, [r0, #1295]	; 0x50f
    b08a:	6183      	str	r3, [r0, #24]
    b08c:	4790      	blx	r2
    b08e:	2202      	movs	r2, #2
    b090:	23c8      	movs	r3, #200	; 0xc8
    b092:	e88d 000c 	stmia.w	sp, {r2, r3}
    b096:	23ff      	movs	r3, #255	; 0xff
    b098:	461a      	mov	r2, r3
    b09a:	4619      	mov	r1, r3
    b09c:	4812      	ldr	r0, [pc, #72]	; (b0e8 <grid_port_receive_task+0x80>)
    b09e:	4d13      	ldr	r5, [pc, #76]	; (b0ec <grid_port_receive_task+0x84>)
    b0a0:	47a8      	blx	r5
    b0a2:	f44f 72f5 	mov.w	r2, #490	; 0x1ea
    b0a6:	f240 2056 	movw	r0, #598	; 0x256
    b0aa:	2500      	movs	r5, #0
    b0ac:	6a23      	ldr	r3, [r4, #32]
    b0ae:	18e1      	adds	r1, r4, r3
    b0b0:	f891 1280 	ldrb.w	r1, [r1, #640]	; 0x280
    b0b4:	290a      	cmp	r1, #10
    b0b6:	d10a      	bne.n	b0ce <grid_port_receive_task+0x66>
    b0b8:	2301      	movs	r3, #1
    b0ba:	61e3      	str	r3, [r4, #28]
    b0bc:	2300      	movs	r3, #0
    b0be:	61a3      	str	r3, [r4, #24]
    b0c0:	b003      	add	sp, #12
    b0c2:	bd30      	pop	{r4, r5, pc}
    b0c4:	4790      	blx	r2
    b0c6:	e7ec      	b.n	b0a2 <grid_port_receive_task+0x3a>
    b0c8:	3201      	adds	r2, #1
    b0ca:	6182      	str	r2, [r0, #24]
    b0cc:	e7e9      	b.n	b0a2 <grid_port_receive_task+0x3a>
    b0ce:	2900      	cmp	r1, #0
    b0d0:	d0f6      	beq.n	b0c0 <grid_port_receive_task+0x58>
    b0d2:	4283      	cmp	r3, r0
    b0d4:	bf9a      	itte	ls
    b0d6:	3301      	addls	r3, #1
    b0d8:	6223      	strls	r3, [r4, #32]
    b0da:	6225      	strhi	r5, [r4, #32]
    b0dc:	3a01      	subs	r2, #1
    b0de:	d1e5      	bne.n	b0ac <grid_port_receive_task+0x44>
    b0e0:	e7ee      	b.n	b0c0 <grid_port_receive_task+0x58>
    b0e2:	bf00      	nop
    b0e4:	00006ef5 	.word	0x00006ef5
    b0e8:	20001c88 	.word	0x20001c88
    b0ec:	00007137 	.word	0x00007137

0000b0f0 <grid_port_receive_decode>:
    b0f0:	e92d 4ff0 	stmdb	sp!, {r4, r5, r6, r7, r8, r9, sl, fp, lr}
    b0f4:	b08b      	sub	sp, #44	; 0x2c
    b0f6:	af02      	add	r7, sp, #8
    b0f8:	2301      	movs	r3, #1
    b0fa:	753b      	strb	r3, [r7, #20]
    b0fc:	230e      	movs	r3, #14
    b0fe:	757b      	strb	r3, [r7, #21]
    b100:	2315      	movs	r3, #21
    b102:	75bb      	strb	r3, [r7, #22]
    b104:	2304      	movs	r3, #4
    b106:	75fb      	strb	r3, [r7, #23]
    b108:	2330      	movs	r3, #48	; 0x30
    b10a:	763b      	strb	r3, [r7, #24]
    b10c:	767b      	strb	r3, [r7, #25]
    b10e:	230a      	movs	r3, #10
    b110:	76bb      	strb	r3, [r7, #26]
    b112:	1dd3      	adds	r3, r2, #7
    b114:	f023 0307 	bic.w	r3, r3, #7
    b118:	2400      	movs	r4, #0
    b11a:	ebad 0d03 	sub.w	sp, sp, r3
    b11e:	4605      	mov	r5, r0
    b120:	76fc      	strb	r4, [r7, #27]
    b122:	773c      	strb	r4, [r7, #28]
    b124:	777c      	strb	r4, [r7, #29]
    b126:	72fc      	strb	r4, [r7, #11]
    b128:	ae02      	add	r6, sp, #8
    b12a:	f44f 7016 	mov.w	r0, #600	; 0x258
    b12e:	4294      	cmp	r4, r2
    b130:	f040 80cf 	bne.w	b2d2 <grid_port_receive_decode+0x1e2>
    b134:	7833      	ldrb	r3, [r6, #0]
    b136:	2b01      	cmp	r3, #1
    b138:	f040 8187 	bne.w	b44a <grid_port_receive_decode+0x35a>
    b13c:	1933      	adds	r3, r6, r4
    b13e:	f813 3c01 	ldrb.w	r3, [r3, #-1]
    b142:	2b0a      	cmp	r3, #10
    b144:	f040 8181 	bne.w	b44a <grid_port_receive_decode+0x35a>
    b148:	1ee0      	subs	r0, r4, #3
    b14a:	f107 020b 	add.w	r2, r7, #11
    b14e:	2102      	movs	r1, #2
    b150:	4430      	add	r0, r6
    b152:	f8df 8360 	ldr.w	r8, [pc, #864]	; b4b4 <grid_port_receive_decode+0x3c4>
    b156:	f8df a360 	ldr.w	sl, [pc, #864]	; b4b8 <grid_port_receive_decode+0x3c8>
    b15a:	47c0      	blx	r8
    b15c:	4621      	mov	r1, r4
    b15e:	4681      	mov	r9, r0
    b160:	4630      	mov	r0, r6
    b162:	47d0      	blx	sl
    b164:	fa5f f989 	uxtb.w	r9, r9
    b168:	b2c0      	uxtb	r0, r0
    b16a:	4581      	cmp	r9, r0
    b16c:	f8c7 a004 	str.w	sl, [r7, #4]
    b170:	7afa      	ldrb	r2, [r7, #11]
    b172:	f040 815b 	bne.w	b42c <grid_port_receive_decode+0x33c>
    b176:	2a00      	cmp	r2, #0
    b178:	f040 8158 	bne.w	b42c <grid_port_receive_decode+0x33c>
    b17c:	7873      	ldrb	r3, [r6, #1]
    b17e:	2b0f      	cmp	r3, #15
    b180:	f040 80e4 	bne.w	b34c <grid_port_receive_decode+0x25c>
    b184:	4bba      	ldr	r3, [pc, #744]	; (b470 <grid_port_receive_decode+0x380>)
    b186:	4630      	mov	r0, r6
    b188:	4798      	blx	r3
    b18a:	4bba      	ldr	r3, [pc, #744]	; (b474 <grid_port_receive_decode+0x384>)
    b18c:	4683      	mov	fp, r0
    b18e:	4630      	mov	r0, r6
    b190:	4798      	blx	r3
    b192:	4bb9      	ldr	r3, [pc, #740]	; (b478 <grid_port_receive_decode+0x388>)
    b194:	4682      	mov	sl, r0
    b196:	4630      	mov	r0, r6
    b198:	4798      	blx	r3
    b19a:	4bb8      	ldr	r3, [pc, #736]	; (b47c <grid_port_receive_decode+0x38c>)
    b19c:	f1a0 097f 	sub.w	r9, r0, #127	; 0x7f
    b1a0:	4680      	mov	r8, r0
    b1a2:	4630      	mov	r0, r6
    b1a4:	4798      	blx	r3
    b1a6:	f895 250c 	ldrb.w	r2, [r5, #1292]	; 0x50c
    b1aa:	f1a0 037f 	sub.w	r3, r0, #127	; 0x7f
    b1ae:	fa4f f989 	sxtb.w	r9, r9
    b1b2:	b25b      	sxtb	r3, r3
    b1b4:	b13a      	cbz	r2, b1c6 <grid_port_receive_decode+0xd6>
    b1b6:	2a01      	cmp	r2, #1
    b1b8:	f040 8097 	bne.w	b2ea <grid_port_receive_decode+0x1fa>
    b1bc:	f1c0 007f 	rsb	r0, r0, #127	; 0x7f
    b1c0:	464b      	mov	r3, r9
    b1c2:	fa4f f980 	sxtb.w	r9, r0
    b1c6:	f895 850d 	ldrb.w	r8, [r5, #1293]	; 0x50d
    b1ca:	f108 087f 	add.w	r8, r8, #127	; 0x7f
    b1ce:	44c1      	add	r9, r8
    b1d0:	f895 850e 	ldrb.w	r8, [r5, #1294]	; 0x50e
    b1d4:	f108 087f 	add.w	r8, r8, #127	; 0x7f
    b1d8:	4659      	mov	r1, fp
    b1da:	fa5f f989 	uxtb.w	r9, r9
    b1de:	4498      	add	r8, r3
    b1e0:	4630      	mov	r0, r6
    b1e2:	4ba7      	ldr	r3, [pc, #668]	; (b480 <grid_port_receive_decode+0x390>)
    b1e4:	4798      	blx	r3
    b1e6:	fa5f f888 	uxtb.w	r8, r8
    b1ea:	4649      	mov	r1, r9
    b1ec:	4630      	mov	r0, r6
    b1ee:	eb09 290b 	add.w	r9, r9, fp, lsl #8
    b1f2:	4ba4      	ldr	r3, [pc, #656]	; (b484 <grid_port_receive_decode+0x394>)
    b1f4:	f10a 0a01 	add.w	sl, sl, #1
    b1f8:	4798      	blx	r3
    b1fa:	fa5f fa8a 	uxtb.w	sl, sl
    b1fe:	4641      	mov	r1, r8
    b200:	4630      	mov	r0, r6
    b202:	4ba1      	ldr	r3, [pc, #644]	; (b488 <grid_port_receive_decode+0x398>)
    b204:	eb08 2809 	add.w	r8, r8, r9, lsl #8
    b208:	4798      	blx	r3
    b20a:	4651      	mov	r1, sl
    b20c:	4630      	mov	r0, r6
    b20e:	4b9f      	ldr	r3, [pc, #636]	; (b48c <grid_port_receive_decode+0x39c>)
    b210:	f8df 92a8 	ldr.w	r9, [pc, #680]	; b4bc <grid_port_receive_decode+0x3cc>
    b214:	eb0a 2a08 	add.w	sl, sl, r8, lsl #8
    b218:	4798      	blx	r3
    b21a:	4651      	mov	r1, sl
    b21c:	489c      	ldr	r0, [pc, #624]	; (b490 <grid_port_receive_decode+0x3a0>)
    b21e:	4b9d      	ldr	r3, [pc, #628]	; (b494 <grid_port_receive_decode+0x3a4>)
    b220:	4798      	blx	r3
    b222:	4683      	mov	fp, r0
    b224:	2800      	cmp	r0, #0
    b226:	d17c      	bne.n	b322 <grid_port_receive_decode+0x232>
    b228:	4621      	mov	r1, r4
    b22a:	687b      	ldr	r3, [r7, #4]
    b22c:	4630      	mov	r0, r6
    b22e:	4798      	blx	r3
    b230:	f505 689e 	add.w	r8, r5, #1264	; 0x4f0
    b234:	4602      	mov	r2, r0
    b236:	4621      	mov	r1, r4
    b238:	4630      	mov	r0, r6
    b23a:	4b97      	ldr	r3, [pc, #604]	; (b498 <grid_port_receive_decode+0x3a8>)
    b23c:	4798      	blx	r3
    b23e:	b2a1      	uxth	r1, r4
    b240:	4640      	mov	r0, r8
    b242:	47c8      	blx	r9
    b244:	b190      	cbz	r0, b26c <grid_port_receive_decode+0x17c>
    b246:	4b95      	ldr	r3, [pc, #596]	; (b49c <grid_port_receive_decode+0x3ac>)
    b248:	4658      	mov	r0, fp
    b24a:	f100 0b01 	add.w	fp, r0, #1
    b24e:	b2c0      	uxtb	r0, r0
    b250:	4284      	cmp	r4, r0
    b252:	d85f      	bhi.n	b314 <grid_port_receive_decode+0x224>
    b254:	4b92      	ldr	r3, [pc, #584]	; (b4a0 <grid_port_receive_decode+0x3b0>)
    b256:	4640      	mov	r0, r8
    b258:	4798      	blx	r3
    b25a:	4b92      	ldr	r3, [pc, #584]	; (b4a4 <grid_port_receive_decode+0x3b4>)
    b25c:	4628      	mov	r0, r5
    b25e:	4798      	blx	r3
    b260:	4b91      	ldr	r3, [pc, #580]	; (b4a8 <grid_port_receive_decode+0x3b8>)
    b262:	488b      	ldr	r0, [pc, #556]	; (b490 <grid_port_receive_decode+0x3a0>)
    b264:	4651      	mov	r1, sl
    b266:	4798      	blx	r3
    b268:	2306      	movs	r3, #6
    b26a:	75bb      	strb	r3, [r7, #22]
    b26c:	f107 0814 	add.w	r8, r7, #20
    b270:	4640      	mov	r0, r8
    b272:	4b8e      	ldr	r3, [pc, #568]	; (b4ac <grid_port_receive_decode+0x3bc>)
    b274:	4798      	blx	r3
    b276:	f505 6a9b 	add.w	sl, r5, #1240	; 0x4d8
    b27a:	4606      	mov	r6, r0
    b27c:	b281      	uxth	r1, r0
    b27e:	4650      	mov	r0, sl
    b280:	47c8      	blx	r9
    b282:	b188      	cbz	r0, b2a8 <grid_port_receive_decode+0x1b8>
    b284:	4631      	mov	r1, r6
    b286:	687b      	ldr	r3, [r7, #4]
    b288:	f8df b210 	ldr.w	fp, [pc, #528]	; b49c <grid_port_receive_decode+0x3ac>
    b28c:	4640      	mov	r0, r8
    b28e:	4798      	blx	r3
    b290:	4631      	mov	r1, r6
    b292:	b2c2      	uxtb	r2, r0
    b294:	4b80      	ldr	r3, [pc, #512]	; (b498 <grid_port_receive_decode+0x3a8>)
    b296:	4640      	mov	r0, r8
    b298:	4798      	blx	r3
    b29a:	f04f 0900 	mov.w	r9, #0
    b29e:	45b1      	cmp	r9, r6
    b2a0:	d14d      	bne.n	b33e <grid_port_receive_decode+0x24e>
    b2a2:	4650      	mov	r0, sl
    b2a4:	4b7e      	ldr	r3, [pc, #504]	; (b4a0 <grid_port_receive_decode+0x3b0>)
    b2a6:	4798      	blx	r3
    b2a8:	2200      	movs	r2, #0
    b2aa:	f44f 7016 	mov.w	r0, #600	; 0x258
    b2ae:	4616      	mov	r6, r2
    b2b0:	4294      	cmp	r4, r2
    b2b2:	6a6b      	ldr	r3, [r5, #36]	; 0x24
    b2b4:	f040 80d2 	bne.w	b45c <grid_port_receive_decode+0x36c>
    b2b8:	441c      	add	r4, r3
    b2ba:	3724      	adds	r7, #36	; 0x24
    b2bc:	fbb4 f3f0 	udiv	r3, r4, r0
    b2c0:	fb00 4413 	mls	r4, r0, r3, r4
    b2c4:	2300      	movs	r3, #0
    b2c6:	626c      	str	r4, [r5, #36]	; 0x24
    b2c8:	622c      	str	r4, [r5, #32]
    b2ca:	61eb      	str	r3, [r5, #28]
    b2cc:	46bd      	mov	sp, r7
    b2ce:	e8bd 8ff0 	ldmia.w	sp!, {r4, r5, r6, r7, r8, r9, sl, fp, pc}
    b2d2:	6a6b      	ldr	r3, [r5, #36]	; 0x24
    b2d4:	18e1      	adds	r1, r4, r3
    b2d6:	fbb1 f3f0 	udiv	r3, r1, r0
    b2da:	fb00 1313 	mls	r3, r0, r3, r1
    b2de:	442b      	add	r3, r5
    b2e0:	f893 3280 	ldrb.w	r3, [r3, #640]	; 0x280
    b2e4:	5533      	strb	r3, [r6, r4]
    b2e6:	3401      	adds	r4, #1
    b2e8:	e721      	b.n	b12e <grid_port_receive_decode+0x3e>
    b2ea:	2a02      	cmp	r2, #2
    b2ec:	d107      	bne.n	b2fe <grid_port_receive_decode+0x20e>
    b2ee:	f1c8 097f 	rsb	r9, r8, #127	; 0x7f
    b2f2:	f1c0 007f 	rsb	r0, r0, #127	; 0x7f
    b2f6:	fa4f f989 	sxtb.w	r9, r9
    b2fa:	b243      	sxtb	r3, r0
    b2fc:	e763      	b.n	b1c6 <grid_port_receive_decode+0xd6>
    b2fe:	2a03      	cmp	r2, #3
    b300:	bf0b      	itete	eq
    b302:	f1c8 087f 	rsbeq	r8, r8, #127	; 0x7f
    b306:	2300      	movne	r3, #0
    b308:	4699      	moveq	r9, r3
    b30a:	4699      	movne	r9, r3
    b30c:	bf08      	it	eq
    b30e:	fa4f f388 	sxtbeq.w	r3, r8
    b312:	e758      	b.n	b1c6 <grid_port_receive_decode+0xd6>
    b314:	5c31      	ldrb	r1, [r6, r0]
    b316:	603b      	str	r3, [r7, #0]
    b318:	4640      	mov	r0, r8
    b31a:	4798      	blx	r3
    b31c:	4658      	mov	r0, fp
    b31e:	683b      	ldr	r3, [r7, #0]
    b320:	e793      	b.n	b24a <grid_port_receive_decode+0x15a>
    b322:	2306      	movs	r3, #6
    b324:	75bb      	strb	r3, [r7, #22]
    b326:	f04f 08c8 	mov.w	r8, #200	; 0xc8
    b32a:	2302      	movs	r3, #2
    b32c:	e88d 0108 	stmia.w	sp, {r3, r8}
    b330:	2332      	movs	r3, #50	; 0x32
    b332:	461a      	mov	r2, r3
    b334:	4619      	mov	r1, r3
    b336:	4856      	ldr	r0, [pc, #344]	; (b490 <grid_port_receive_decode+0x3a0>)
    b338:	4e5d      	ldr	r6, [pc, #372]	; (b4b0 <grid_port_receive_decode+0x3c0>)
    b33a:	47b0      	blx	r6
    b33c:	e796      	b.n	b26c <grid_port_receive_decode+0x17c>
    b33e:	f818 1009 	ldrb.w	r1, [r8, r9]
    b342:	4650      	mov	r0, sl
    b344:	47d8      	blx	fp
    b346:	f109 0901 	add.w	r9, r9, #1
    b34a:	e7a8      	b.n	b29e <grid_port_receive_decode+0x1ae>
    b34c:	2b0e      	cmp	r3, #14
    b34e:	d167      	bne.n	b420 <grid_port_receive_decode+0x330>
    b350:	78b3      	ldrb	r3, [r6, #2]
    b352:	2b06      	cmp	r3, #6
    b354:	d106      	bne.n	b364 <grid_port_receive_decode+0x274>
    b356:	23fa      	movs	r3, #250	; 0xfa
    b358:	e88d 000c 	stmia.w	sp, {r2, r3}
    b35c:	231e      	movs	r3, #30
    b35e:	461a      	mov	r2, r3
    b360:	4619      	mov	r1, r3
    b362:	e006      	b.n	b372 <grid_port_receive_decode+0x282>
    b364:	2b15      	cmp	r3, #21
    b366:	d107      	bne.n	b378 <grid_port_receive_decode+0x288>
    b368:	23fa      	movs	r3, #250	; 0xfa
    b36a:	e88d 000c 	stmia.w	sp, {r2, r3}
    b36e:	2132      	movs	r1, #50	; 0x32
    b370:	4613      	mov	r3, r2
    b372:	4847      	ldr	r0, [pc, #284]	; (b490 <grid_port_receive_decode+0x3a0>)
    b374:	4e4e      	ldr	r6, [pc, #312]	; (b4b0 <grid_port_receive_decode+0x3c0>)
    b376:	e064      	b.n	b442 <grid_port_receive_decode+0x352>
    b378:	2b07      	cmp	r3, #7
    b37a:	d195      	bne.n	b2a8 <grid_port_receive_decode+0x1b8>
    b37c:	f895 950f 	ldrb.w	r9, [r5, #1295]	; 0x50f
    b380:	78f2      	ldrb	r2, [r6, #3]
    b382:	7a6b      	ldrb	r3, [r5, #9]
    b384:	f1a4 000c 	sub.w	r0, r4, #12
    b388:	f1b9 0f00 	cmp.w	r9, #0
    b38c:	d11b      	bne.n	b3c6 <grid_port_receive_decode+0x2d6>
    b38e:	1ad2      	subs	r2, r2, r3
    b390:	3206      	adds	r2, #6
    b392:	4253      	negs	r3, r2
    b394:	f003 0303 	and.w	r3, r3, #3
    b398:	f002 0203 	and.w	r2, r2, #3
    b39c:	bf58      	it	pl
    b39e:	425a      	negpl	r2, r3
    b3a0:	f885 250c 	strb.w	r2, [r5, #1292]	; 0x50c
    b3a4:	2108      	movs	r1, #8
    b3a6:	464a      	mov	r2, r9
    b3a8:	4430      	add	r0, r6
    b3aa:	47c0      	blx	r8
    b3ac:	2301      	movs	r3, #1
    b3ae:	f885 350f 	strb.w	r3, [r5, #1295]	; 0x50f
    b3b2:	f04f 0cc8 	mov.w	ip, #200	; 0xc8
    b3b6:	2302      	movs	r3, #2
    b3b8:	e88d 1008 	stmia.w	sp, {r3, ip}
    b3bc:	f8c5 0508 	str.w	r0, [r5, #1288]	; 0x508
    b3c0:	464b      	mov	r3, r9
    b3c2:	22ff      	movs	r2, #255	; 0xff
    b3c4:	e7cc      	b.n	b360 <grid_port_receive_decode+0x270>
    b3c6:	1ad3      	subs	r3, r2, r3
    b3c8:	3306      	adds	r3, #6
    b3ca:	425a      	negs	r2, r3
    b3cc:	f895 950c 	ldrb.w	r9, [r5, #1292]	; 0x50c
    b3d0:	f002 0203 	and.w	r2, r2, #3
    b3d4:	f003 0303 	and.w	r3, r3, #3
    b3d8:	bf58      	it	pl
    b3da:	4253      	negpl	r3, r2
    b3dc:	eba3 0e09 	sub.w	lr, r3, r9
    b3e0:	f1de 0900 	rsbs	r9, lr, #0
    b3e4:	f04f 0200 	mov.w	r2, #0
    b3e8:	f04f 0108 	mov.w	r1, #8
    b3ec:	4430      	add	r0, r6
    b3ee:	eb49 090e 	adc.w	r9, r9, lr
    b3f2:	47c0      	blx	r8
    b3f4:	f8d5 3508 	ldr.w	r3, [r5, #1288]	; 0x508
    b3f8:	60f8      	str	r0, [r7, #12]
    b3fa:	613b      	str	r3, [r7, #16]
    b3fc:	68fa      	ldr	r2, [r7, #12]
    b3fe:	4293      	cmp	r3, r2
    b400:	d103      	bne.n	b40a <grid_port_receive_decode+0x31a>
    b402:	f1b9 0f00 	cmp.w	r9, #0
    b406:	f47f af4f 	bne.w	b2a8 <grid_port_receive_decode+0x1b8>
    b40a:	2300      	movs	r3, #0
    b40c:	f885 350f 	strb.w	r3, [r5, #1295]	; 0x50f
    b410:	2002      	movs	r0, #2
    b412:	23c8      	movs	r3, #200	; 0xc8
    b414:	e88d 0009 	stmia.w	sp, {r0, r3}
    b418:	23ff      	movs	r3, #255	; 0xff
    b41a:	461a      	mov	r2, r3
    b41c:	21ff      	movs	r1, #255	; 0xff
    b41e:	e7a8      	b.n	b372 <grid_port_receive_decode+0x282>
    b420:	23c8      	movs	r3, #200	; 0xc8
    b422:	2102      	movs	r1, #2
    b424:	e88d 000a 	stmia.w	sp, {r1, r3}
    b428:	4613      	mov	r3, r2
    b42a:	e7f6      	b.n	b41a <grid_port_receive_decode+0x32a>
    b42c:	2301      	movs	r3, #1
    b42e:	f44f 61fa 	mov.w	r1, #2000	; 0x7d0
    b432:	4e1f      	ldr	r6, [pc, #124]	; (b4b0 <grid_port_receive_decode+0x3c0>)
    b434:	9101      	str	r1, [sp, #4]
    b436:	9300      	str	r3, [sp, #0]
    b438:	b12a      	cbz	r2, b446 <grid_port_receive_decode+0x356>
    b43a:	2300      	movs	r3, #0
    b43c:	461a      	mov	r2, r3
    b43e:	4814      	ldr	r0, [pc, #80]	; (b490 <grid_port_receive_decode+0x3a0>)
    b440:	21ff      	movs	r1, #255	; 0xff
    b442:	47b0      	blx	r6
    b444:	e730      	b.n	b2a8 <grid_port_receive_decode+0x1b8>
    b446:	23ff      	movs	r3, #255	; 0xff
    b448:	e7f9      	b.n	b43e <grid_port_receive_decode+0x34e>
    b44a:	2201      	movs	r2, #1
    b44c:	f44f 63fa 	mov.w	r3, #2000	; 0x7d0
    b450:	e88d 000c 	stmia.w	sp, {r2, r3}
    b454:	2200      	movs	r2, #0
    b456:	23ff      	movs	r3, #255	; 0xff
    b458:	4611      	mov	r1, r2
    b45a:	e78a      	b.n	b372 <grid_port_receive_decode+0x282>
    b45c:	4413      	add	r3, r2
    b45e:	fbb3 f1f0 	udiv	r1, r3, r0
    b462:	fb00 3311 	mls	r3, r0, r1, r3
    b466:	442b      	add	r3, r5
    b468:	3201      	adds	r2, #1
    b46a:	f883 6280 	strb.w	r6, [r3, #640]	; 0x280
    b46e:	e71f      	b.n	b2b0 <grid_port_receive_decode+0x1c0>
    b470:	000072f9 	.word	0x000072f9
    b474:	00007359 	.word	0x00007359
    b478:	00007319 	.word	0x00007319
    b47c:	00007339 	.word	0x00007339
    b480:	00007379 	.word	0x00007379
    b484:	00007389 	.word	0x00007389
    b488:	00007399 	.word	0x00007399
    b48c:	000073a9 	.word	0x000073a9
    b490:	20001c88 	.word	0x20001c88
    b494:	000073b9 	.word	0x000073b9
    b498:	000072e9 	.word	0x000072e9
    b49c:	00004fcd 	.word	0x00004fcd
    b4a0:	00004fe9 	.word	0x00004fe9
    b4a4:	00005265 	.word	0x00005265
    b4a8:	000073d5 	.word	0x000073d5
    b4ac:	0000d4e1 	.word	0x0000d4e1
    b4b0:	00007137 	.word	0x00007137
    b4b4:	00007185 	.word	0x00007185
    b4b8:	000072cd 	.word	0x000072cd
    b4bc:	00004fa1 	.word	0x00004fa1

0000b4c0 <grid_port_receive_complete_task>:
    b4c0:	b510      	push	{r4, lr}
    b4c2:	4604      	mov	r4, r0
    b4c4:	4b08      	ldr	r3, [pc, #32]	; (b4e8 <grid_port_receive_complete_task+0x28>)
    b4c6:	4798      	blx	r3
    b4c8:	69e3      	ldr	r3, [r4, #28]
    b4ca:	b163      	cbz	r3, b4e6 <grid_port_receive_complete_task+0x26>
    b4cc:	6a22      	ldr	r2, [r4, #32]
    b4ce:	6a61      	ldr	r1, [r4, #36]	; 0x24
    b4d0:	4b06      	ldr	r3, [pc, #24]	; (b4ec <grid_port_receive_complete_task+0x2c>)
    b4d2:	4291      	cmp	r1, r2
    b4d4:	bf34      	ite	cc
    b4d6:	3201      	addcc	r2, #1
    b4d8:	f202 2259 	addwcs	r2, r2, #601	; 0x259
    b4dc:	1a52      	subs	r2, r2, r1
    b4de:	4620      	mov	r0, r4
    b4e0:	4798      	blx	r3
    b4e2:	2300      	movs	r3, #0
    b4e4:	61e3      	str	r3, [r4, #28]
    b4e6:	bd10      	pop	{r4, pc}
    b4e8:	0000b069 	.word	0x0000b069
    b4ec:	0000b0f1 	.word	0x0000b0f1

0000b4f0 <init_timer>:
    b4f0:	b510      	push	{r4, lr}
    b4f2:	4909      	ldr	r1, [pc, #36]	; (b518 <init_timer+0x28>)
    b4f4:	4c09      	ldr	r4, [pc, #36]	; (b51c <init_timer+0x2c>)
    b4f6:	f640 43cc 	movw	r3, #3276	; 0xccc
    b4fa:	60cb      	str	r3, [r1, #12]
    b4fc:	4b08      	ldr	r3, [pc, #32]	; (b520 <init_timer+0x30>)
    b4fe:	610b      	str	r3, [r1, #16]
    b500:	2301      	movs	r3, #1
    b502:	750b      	strb	r3, [r1, #20]
    b504:	4620      	mov	r0, r4
    b506:	4b07      	ldr	r3, [pc, #28]	; (b524 <init_timer+0x34>)
    b508:	3104      	adds	r1, #4
    b50a:	4798      	blx	r3
    b50c:	4620      	mov	r0, r4
    b50e:	4b06      	ldr	r3, [pc, #24]	; (b528 <init_timer+0x38>)
    b510:	e8bd 4010 	ldmia.w	sp!, {r4, lr}
    b514:	4718      	bx	r3
    b516:	bf00      	nop
    b518:	20000d78 	.word	0x20000d78
    b51c:	20000ed4 	.word	0x20000ed4
    b520:	0000b051 	.word	0x0000b051
    b524:	00007e51 	.word	0x00007e51
    b528:	00007e2d 	.word	0x00007e2d

0000b52c <main>:
    b52c:	e92d 4ff0 	stmdb	sp!, {r4, r5, r6, r7, r8, r9, sl, fp, lr}
    b530:	4bab      	ldr	r3, [pc, #684]	; (b7e0 <main+0x2b4>)
    b532:	4dac      	ldr	r5, [pc, #688]	; (b7e4 <main+0x2b8>)
    b534:	f8df 9310 	ldr.w	r9, [pc, #784]	; b848 <main+0x31c>
    b538:	f8df a310 	ldr.w	sl, [pc, #784]	; b84c <main+0x320>
    b53c:	b08b      	sub	sp, #44	; 0x2c
    b53e:	4798      	blx	r3
    b540:	4ba9      	ldr	r3, [pc, #676]	; (b7e8 <main+0x2bc>)
    b542:	48aa      	ldr	r0, [pc, #680]	; (b7ec <main+0x2c0>)
    b544:	4798      	blx	r3
    b546:	4baa      	ldr	r3, [pc, #680]	; (b7f0 <main+0x2c4>)
    b548:	4798      	blx	r3
    b54a:	4baa      	ldr	r3, [pc, #680]	; (b7f4 <main+0x2c8>)
    b54c:	4798      	blx	r3
    b54e:	4baa      	ldr	r3, [pc, #680]	; (b7f8 <main+0x2cc>)
    b550:	4798      	blx	r3
    b552:	47a8      	blx	r5
    b554:	47a8      	blx	r5
    b556:	47a8      	blx	r5
    b558:	2403      	movs	r4, #3
    b55a:	fb90 f3f4 	sdiv	r3, r0, r4
    b55e:	eb03 0343 	add.w	r3, r3, r3, lsl #1
    b562:	1ac0      	subs	r0, r0, r3
    b564:	f88d 001c 	strb.w	r0, [sp, #28]
    b568:	47a8      	blx	r5
    b56a:	fb90 f3f4 	sdiv	r3, r0, r4
    b56e:	eb03 0343 	add.w	r3, r3, r3, lsl #1
    b572:	1ac0      	subs	r0, r0, r3
    b574:	f88d 001d 	strb.w	r0, [sp, #29]
    b578:	47a8      	blx	r5
    b57a:	fb90 f3f4 	sdiv	r3, r0, r4
    b57e:	eb03 0343 	add.w	r3, r3, r3, lsl #1
    b582:	1ac0      	subs	r0, r0, r3
    b584:	f88d 001e 	strb.w	r0, [sp, #30]
    b588:	47a8      	blx	r5
    b58a:	fb90 f3f4 	sdiv	r3, r0, r4
    b58e:	eb03 0343 	add.w	r3, r3, r3, lsl #1
    b592:	1ac0      	subs	r0, r0, r3
    b594:	f88d 001f 	strb.w	r0, [sp, #31]
    b598:	47a8      	blx	r5
    b59a:	fb90 f3f4 	sdiv	r3, r0, r4
    b59e:	eb03 0343 	add.w	r3, r3, r3, lsl #1
    b5a2:	1ac0      	subs	r0, r0, r3
    b5a4:	f88d 0020 	strb.w	r0, [sp, #32]
    b5a8:	47a8      	blx	r5
    b5aa:	fb90 f3f4 	sdiv	r3, r0, r4
    b5ae:	eb03 0343 	add.w	r3, r3, r3, lsl #1
    b5b2:	1ac0      	subs	r0, r0, r3
    b5b4:	f88d 0021 	strb.w	r0, [sp, #33]	; 0x21
    b5b8:	47a8      	blx	r5
    b5ba:	fb90 f3f4 	sdiv	r3, r0, r4
    b5be:	eb03 0343 	add.w	r3, r3, r3, lsl #1
    b5c2:	1ac0      	subs	r0, r0, r3
    b5c4:	f88d 0022 	strb.w	r0, [sp, #34]	; 0x22
    b5c8:	47a8      	blx	r5
    b5ca:	fb90 f3f4 	sdiv	r3, r0, r4
    b5ce:	eb03 0343 	add.w	r3, r3, r3, lsl #1
    b5d2:	1ac0      	subs	r0, r0, r3
    b5d4:	f88d 0023 	strb.w	r0, [sp, #35]	; 0x23
    b5d8:	47a8      	blx	r5
    b5da:	fb90 f3f4 	sdiv	r3, r0, r4
    b5de:	eb03 0343 	add.w	r3, r3, r3, lsl #1
    b5e2:	1ac0      	subs	r0, r0, r3
    b5e4:	f88d 0024 	strb.w	r0, [sp, #36]	; 0x24
    b5e8:	47a8      	blx	r5
    b5ea:	fb90 f3f4 	sdiv	r3, r0, r4
    b5ee:	eb03 0343 	add.w	r3, r3, r3, lsl #1
    b5f2:	1ac0      	subs	r0, r0, r3
    b5f4:	f88d 0025 	strb.w	r0, [sp, #37]	; 0x25
    b5f8:	47a8      	blx	r5
    b5fa:	fb90 f3f4 	sdiv	r3, r0, r4
    b5fe:	eb03 0343 	add.w	r3, r3, r3, lsl #1
    b602:	1ac0      	subs	r0, r0, r3
    b604:	f88d 0026 	strb.w	r0, [sp, #38]	; 0x26
    b608:	47a8      	blx	r5
    b60a:	fb90 f4f4 	sdiv	r4, r0, r4
    b60e:	eb04 0444 	add.w	r4, r4, r4, lsl #1
    b612:	1b04      	subs	r4, r0, r4
    b614:	f88d 4027 	strb.w	r4, [sp, #39]	; 0x27
    b618:	f04f 0800 	mov.w	r8, #0
    b61c:	4877      	ldr	r0, [pc, #476]	; (b7fc <main+0x2d0>)
    b61e:	47c8      	blx	r9
    b620:	fa5f f788 	uxtb.w	r7, r8
    b624:	42b8      	cmp	r0, r7
    b626:	f108 0801 	add.w	r8, r8, #1
    b62a:	f200 809a 	bhi.w	b762 <main+0x236>
    b62e:	4b74      	ldr	r3, [pc, #464]	; (b800 <main+0x2d4>)
    b630:	f8df b21c 	ldr.w	fp, [pc, #540]	; b850 <main+0x324>
    b634:	4e73      	ldr	r6, [pc, #460]	; (b804 <main+0x2d8>)
    b636:	4f74      	ldr	r7, [pc, #464]	; (b808 <main+0x2dc>)
    b638:	4c70      	ldr	r4, [pc, #448]	; (b7fc <main+0x2d0>)
    b63a:	f44f 2280 	mov.w	r2, #262144	; 0x40000
    b63e:	f04f 4180 	mov.w	r1, #1073741824	; 0x40000000
    b642:	f8c3 2108 	str.w	r2, [r3, #264]	; 0x108
    b646:	f8c3 1128 	str.w	r1, [r3, #296]	; 0x128
    b64a:	4970      	ldr	r1, [pc, #448]	; (b80c <main+0x2e0>)
    b64c:	f8c3 1128 	str.w	r1, [r3, #296]	; 0x128
    b650:	f8c3 2114 	str.w	r2, [r3, #276]	; 0x114
    b654:	4b6e      	ldr	r3, [pc, #440]	; (b810 <main+0x2e4>)
    b656:	4798      	blx	r3
    b658:	f8df 81f8 	ldr.w	r8, [pc, #504]	; b854 <main+0x328>
    b65c:	4b6d      	ldr	r3, [pc, #436]	; (b814 <main+0x2e8>)
    b65e:	486e      	ldr	r0, [pc, #440]	; (b818 <main+0x2ec>)
    b660:	4798      	blx	r3
    b662:	f898 3001 	ldrb.w	r3, [r8, #1]
    b666:	b323      	cbz	r3, b6b2 <main+0x186>
    b668:	f898 3000 	ldrb.w	r3, [r8]
    b66c:	079b      	lsls	r3, r3, #30
    b66e:	d102      	bne.n	b676 <main+0x14a>
    b670:	4638      	mov	r0, r7
    b672:	4b6a      	ldr	r3, [pc, #424]	; (b81c <main+0x2f0>)
    b674:	4798      	blx	r3
    b676:	f898 3000 	ldrb.w	r3, [r8]
    b67a:	f003 0303 	and.w	r3, r3, #3
    b67e:	2b01      	cmp	r3, #1
    b680:	d102      	bne.n	b688 <main+0x15c>
    b682:	4630      	mov	r0, r6
    b684:	4b65      	ldr	r3, [pc, #404]	; (b81c <main+0x2f0>)
    b686:	4798      	blx	r3
    b688:	f898 3000 	ldrb.w	r3, [r8]
    b68c:	f003 0303 	and.w	r3, r3, #3
    b690:	2b02      	cmp	r3, #2
    b692:	d102      	bne.n	b69a <main+0x16e>
    b694:	4862      	ldr	r0, [pc, #392]	; (b820 <main+0x2f4>)
    b696:	4b61      	ldr	r3, [pc, #388]	; (b81c <main+0x2f0>)
    b698:	4798      	blx	r3
    b69a:	f898 3000 	ldrb.w	r3, [r8]
    b69e:	f003 0303 	and.w	r3, r3, #3
    b6a2:	2b03      	cmp	r3, #3
    b6a4:	d102      	bne.n	b6ac <main+0x180>
    b6a6:	4658      	mov	r0, fp
    b6a8:	4b5c      	ldr	r3, [pc, #368]	; (b81c <main+0x2f0>)
    b6aa:	4798      	blx	r3
    b6ac:	2300      	movs	r3, #0
    b6ae:	f888 3001 	strb.w	r3, [r8, #1]
    b6b2:	f8df 81a4 	ldr.w	r8, [pc, #420]	; b858 <main+0x32c>
    b6b6:	4638      	mov	r0, r7
    b6b8:	47c0      	blx	r8
    b6ba:	4630      	mov	r0, r6
    b6bc:	47c0      	blx	r8
    b6be:	4858      	ldr	r0, [pc, #352]	; (b820 <main+0x2f4>)
    b6c0:	47c0      	blx	r8
    b6c2:	4658      	mov	r0, fp
    b6c4:	47c0      	blx	r8
    b6c6:	4638      	mov	r0, r7
    b6c8:	47c0      	blx	r8
    b6ca:	4630      	mov	r0, r6
    b6cc:	47c0      	blx	r8
    b6ce:	4854      	ldr	r0, [pc, #336]	; (b820 <main+0x2f4>)
    b6d0:	47c0      	blx	r8
    b6d2:	4658      	mov	r0, fp
    b6d4:	47c0      	blx	r8
    b6d6:	4b53      	ldr	r3, [pc, #332]	; (b824 <main+0x2f8>)
    b6d8:	4853      	ldr	r0, [pc, #332]	; (b828 <main+0x2fc>)
    b6da:	f8df 8180 	ldr.w	r8, [pc, #384]	; b85c <main+0x330>
    b6de:	4798      	blx	r3
    b6e0:	4851      	ldr	r0, [pc, #324]	; (b828 <main+0x2fc>)
    b6e2:	47c0      	blx	r8
    b6e4:	4638      	mov	r0, r7
    b6e6:	47c0      	blx	r8
    b6e8:	4630      	mov	r0, r6
    b6ea:	47c0      	blx	r8
    b6ec:	484c      	ldr	r0, [pc, #304]	; (b820 <main+0x2f4>)
    b6ee:	47c0      	blx	r8
    b6f0:	4658      	mov	r0, fp
    b6f2:	47c0      	blx	r8
    b6f4:	4638      	mov	r0, r7
    b6f6:	47c0      	blx	r8
    b6f8:	4630      	mov	r0, r6
    b6fa:	47c0      	blx	r8
    b6fc:	4848      	ldr	r0, [pc, #288]	; (b820 <main+0x2f4>)
    b6fe:	47c0      	blx	r8
    b700:	4658      	mov	r0, fp
    b702:	47c0      	blx	r8
    b704:	f8df 8158 	ldr.w	r8, [pc, #344]	; b860 <main+0x334>
    b708:	4638      	mov	r0, r7
    b70a:	47c0      	blx	r8
    b70c:	4630      	mov	r0, r6
    b70e:	47c0      	blx	r8
    b710:	4843      	ldr	r0, [pc, #268]	; (b820 <main+0x2f4>)
    b712:	47c0      	blx	r8
    b714:	4658      	mov	r0, fp
    b716:	47c0      	blx	r8
    b718:	4b44      	ldr	r3, [pc, #272]	; (b82c <main+0x300>)
    b71a:	4845      	ldr	r0, [pc, #276]	; (b830 <main+0x304>)
    b71c:	f8df 80f8 	ldr.w	r8, [pc, #248]	; b818 <main+0x2ec>
    b720:	4798      	blx	r3
    b722:	4b44      	ldr	r3, [pc, #272]	; (b834 <main+0x308>)
    b724:	4840      	ldr	r0, [pc, #256]	; (b828 <main+0x2fc>)
    b726:	4798      	blx	r3
    b728:	f8b8 3004 	ldrh.w	r3, [r8, #4]
    b72c:	2b00      	cmp	r3, #0
    b72e:	f040 809d 	bne.w	b86c <main+0x340>
    b732:	f8df 80cc 	ldr.w	r8, [pc, #204]	; b800 <main+0x2d4>
    b736:	4b40      	ldr	r3, [pc, #256]	; (b838 <main+0x30c>)
    b738:	f44f 2980 	mov.w	r9, #262144	; 0x40000
    b73c:	f8c8 9118 	str.w	r9, [r8, #280]	; 0x118
    b740:	4620      	mov	r0, r4
    b742:	4798      	blx	r3
    b744:	f8c8 9114 	str.w	r9, [r8, #276]	; 0x114
    b748:	f8df 8118 	ldr.w	r8, [pc, #280]	; b864 <main+0x338>
    b74c:	4620      	mov	r0, r4
    b74e:	47c0      	blx	r8
    b750:	2801      	cmp	r0, #1
    b752:	d1fb      	bne.n	b74c <main+0x220>
    b754:	4620      	mov	r0, r4
    b756:	4b39      	ldr	r3, [pc, #228]	; (b83c <main+0x310>)
    b758:	4798      	blx	r3
    b75a:	4620      	mov	r0, r4
    b75c:	4b38      	ldr	r3, [pc, #224]	; (b840 <main+0x314>)
    b75e:	4798      	blx	r3
    b760:	e77a      	b.n	b658 <main+0x12c>
    b762:	aa0a      	add	r2, sp, #40	; 0x28
    b764:	f007 0303 	and.w	r3, r7, #3
    b768:	4413      	add	r3, r2
    b76a:	4639      	mov	r1, r7
    b76c:	f813 5c04 	ldrb.w	r5, [r3, #-4]
    b770:	f813 4c08 	ldrb.w	r4, [r3, #-8]
    b774:	f813 6c0c 	ldrb.w	r6, [r3, #-12]
    b778:	4820      	ldr	r0, [pc, #128]	; (b7fc <main+0x2d0>)
    b77a:	f8df b0ec 	ldr.w	fp, [pc, #236]	; b868 <main+0x33c>
    b77e:	eb05 0245 	add.w	r2, r5, r5, lsl #1
    b782:	b2d2      	uxtb	r2, r2
    b784:	9201      	str	r2, [sp, #4]
    b786:	eb04 0244 	add.w	r2, r4, r4, lsl #1
    b78a:	eb06 0346 	add.w	r3, r6, r6, lsl #1
    b78e:	b2d2      	uxtb	r2, r2
    b790:	9200      	str	r2, [sp, #0]
    b792:	b2db      	uxtb	r3, r3
    b794:	2200      	movs	r2, #0
    b796:	47d0      	blx	sl
    b798:	eb05 0285 	add.w	r2, r5, r5, lsl #2
    b79c:	00d2      	lsls	r2, r2, #3
    b79e:	b2d2      	uxtb	r2, r2
    b7a0:	9201      	str	r2, [sp, #4]
    b7a2:	eb04 0284 	add.w	r2, r4, r4, lsl #2
    b7a6:	eb06 0386 	add.w	r3, r6, r6, lsl #2
    b7aa:	00d2      	lsls	r2, r2, #3
    b7ac:	b2d2      	uxtb	r2, r2
    b7ae:	00db      	lsls	r3, r3, #3
    b7b0:	ebc5 15c5 	rsb	r5, r5, r5, lsl #7
    b7b4:	ebc4 14c4 	rsb	r4, r4, r4, lsl #7
    b7b8:	9200      	str	r2, [sp, #0]
    b7ba:	4639      	mov	r1, r7
    b7bc:	f003 03f8 	and.w	r3, r3, #248	; 0xf8
    b7c0:	2200      	movs	r2, #0
    b7c2:	480e      	ldr	r0, [pc, #56]	; (b7fc <main+0x2d0>)
    b7c4:	ebc6 16c6 	rsb	r6, r6, r6, lsl #7
    b7c8:	b2ed      	uxtb	r5, r5
    b7ca:	b2e4      	uxtb	r4, r4
    b7cc:	47d8      	blx	fp
    b7ce:	9400      	str	r4, [sp, #0]
    b7d0:	9501      	str	r5, [sp, #4]
    b7d2:	b2f3      	uxtb	r3, r6
    b7d4:	2200      	movs	r2, #0
    b7d6:	4639      	mov	r1, r7
    b7d8:	4808      	ldr	r0, [pc, #32]	; (b7fc <main+0x2d0>)
    b7da:	4c1a      	ldr	r4, [pc, #104]	; (b844 <main+0x318>)
    b7dc:	47a0      	blx	r4
    b7de:	e71d      	b.n	b61c <main+0xf0>
    b7e0:	000042d1 	.word	0x000042d1
    b7e4:	0000d3f5 	.word	0x0000d3f5
    b7e8:	0000b027 	.word	0x0000b027
    b7ec:	20001058 	.word	0x20001058
    b7f0:	0000c29d 	.word	0x0000c29d
    b7f4:	0000ca25 	.word	0x0000ca25
    b7f8:	00005cb1 	.word	0x00005cb1
    b7fc:	20003708 	.word	0x20003708
    b800:	41008000 	.word	0x41008000
    b804:	200031f4 	.word	0x200031f4
    b808:	20001220 	.word	0x20001220
    b80c:	c0000004 	.word	0xc0000004
    b810:	0000b4f1 	.word	0x0000b4f1
    b814:	000070d9 	.word	0x000070d9
    b818:	20001c88 	.word	0x20001c88
    b81c:	000073ed 	.word	0x000073ed
    b820:	200027d0 	.word	0x200027d0
    b824:	00007579 	.word	0x00007579
    b828:	2000176c 	.word	0x2000176c
    b82c:	000053e9 	.word	0x000053e9
    b830:	20002ce4 	.word	0x20002ce4
    b834:	00005731 	.word	0x00005731
    b838:	00005855 	.word	0x00005855
    b83c:	00005ae5 	.word	0x00005ae5
    b840:	00005c75 	.word	0x00005c75
    b844:	000058c5 	.word	0x000058c5
    b848:	00005851 	.word	0x00005851
    b84c:	00005885 	.word	0x00005885
    b850:	200022ac 	.word	0x200022ac
    b854:	20000d78 	.word	0x20000d78
    b858:	0000b4c1 	.word	0x0000b4c1
    b85c:	00005265 	.word	0x00005265
    b860:	00005779 	.word	0x00005779
    b864:	00005ca5 	.word	0x00005ca5
    b868:	000058a5 	.word	0x000058a5
    b86c:	3b01      	subs	r3, #1
    b86e:	f8a8 3004 	strh.w	r3, [r8, #4]
    b872:	4640      	mov	r0, r8
    b874:	4b36      	ldr	r3, [pc, #216]	; (b950 <main+0x424>)
    b876:	4798      	blx	r3
    b878:	b9a8      	cbnz	r0, b8a6 <main+0x37a>
    b87a:	4836      	ldr	r0, [pc, #216]	; (b954 <main+0x428>)
    b87c:	4b36      	ldr	r3, [pc, #216]	; (b958 <main+0x42c>)
    b87e:	f8df a100 	ldr.w	sl, [pc, #256]	; b980 <main+0x454>
    b882:	4798      	blx	r3
    b884:	f04f 0800 	mov.w	r8, #0
    b888:	4681      	mov	r9, r0
    b88a:	4b34      	ldr	r3, [pc, #208]	; (b95c <main+0x430>)
    b88c:	785b      	ldrb	r3, [r3, #1]
    b88e:	fa5f f188 	uxtb.w	r1, r8
    b892:	428b      	cmp	r3, r1
    b894:	f108 0801 	add.w	r8, r8, #1
    b898:	f67f af4b 	bls.w	b732 <main+0x206>
    b89c:	464b      	mov	r3, r9
    b89e:	2201      	movs	r2, #1
    b8a0:	4620      	mov	r0, r4
    b8a2:	47d0      	blx	sl
    b8a4:	e7f1      	b.n	b88a <main+0x35e>
    b8a6:	4640      	mov	r0, r8
    b8a8:	4b2d      	ldr	r3, [pc, #180]	; (b960 <main+0x434>)
    b8aa:	4798      	blx	r3
    b8ac:	4b2d      	ldr	r3, [pc, #180]	; (b964 <main+0x438>)
    b8ae:	4640      	mov	r0, r8
    b8b0:	4798      	blx	r3
    b8b2:	4b2d      	ldr	r3, [pc, #180]	; (b968 <main+0x43c>)
    b8b4:	9002      	str	r0, [sp, #8]
    b8b6:	4640      	mov	r0, r8
    b8b8:	4798      	blx	r3
    b8ba:	4b2c      	ldr	r3, [pc, #176]	; (b96c <main+0x440>)
    b8bc:	9003      	str	r0, [sp, #12]
    b8be:	4640      	mov	r0, r8
    b8c0:	4798      	blx	r3
    b8c2:	f04f 0a00 	mov.w	sl, #0
    b8c6:	9004      	str	r0, [sp, #16]
    b8c8:	4620      	mov	r0, r4
    b8ca:	4b29      	ldr	r3, [pc, #164]	; (b970 <main+0x444>)
    b8cc:	4798      	blx	r3
    b8ce:	fa5f f98a 	uxtb.w	r9, sl
    b8d2:	4548      	cmp	r0, r9
    b8d4:	f10a 0a01 	add.w	sl, sl, #1
    b8d8:	d9cf      	bls.n	b87a <main+0x34e>
    b8da:	2300      	movs	r3, #0
    b8dc:	9301      	str	r3, [sp, #4]
    b8de:	9300      	str	r3, [sp, #0]
    b8e0:	2201      	movs	r2, #1
    b8e2:	4649      	mov	r1, r9
    b8e4:	4620      	mov	r0, r4
    b8e6:	f8df 809c 	ldr.w	r8, [pc, #156]	; b984 <main+0x458>
    b8ea:	4d22      	ldr	r5, [pc, #136]	; (b974 <main+0x448>)
    b8ec:	47c0      	blx	r8
    b8ee:	9802      	ldr	r0, [sp, #8]
    b8f0:	4b21      	ldr	r3, [pc, #132]	; (b978 <main+0x44c>)
    b8f2:	f8df 8094 	ldr.w	r8, [pc, #148]	; b988 <main+0x45c>
    b8f6:	4798      	blx	r3
    b8f8:	2200      	movs	r2, #0
    b8fa:	4b20      	ldr	r3, [pc, #128]	; (b97c <main+0x450>)
    b8fc:	47a8      	blx	r5
    b8fe:	47c0      	blx	r8
    b900:	b2c3      	uxtb	r3, r0
    b902:	9305      	str	r3, [sp, #20]
    b904:	9804      	ldr	r0, [sp, #16]
    b906:	4b1c      	ldr	r3, [pc, #112]	; (b978 <main+0x44c>)
    b908:	4798      	blx	r3
    b90a:	2200      	movs	r2, #0
    b90c:	4b1b      	ldr	r3, [pc, #108]	; (b97c <main+0x450>)
    b90e:	47a8      	blx	r5
    b910:	47c0      	blx	r8
    b912:	b2c0      	uxtb	r0, r0
    b914:	9001      	str	r0, [sp, #4]
    b916:	4b18      	ldr	r3, [pc, #96]	; (b978 <main+0x44c>)
    b918:	9803      	ldr	r0, [sp, #12]
    b91a:	4798      	blx	r3
    b91c:	2200      	movs	r2, #0
    b91e:	4b17      	ldr	r3, [pc, #92]	; (b97c <main+0x450>)
    b920:	47a8      	blx	r5
    b922:	47c0      	blx	r8
    b924:	b2c0      	uxtb	r0, r0
    b926:	9000      	str	r0, [sp, #0]
    b928:	9b05      	ldr	r3, [sp, #20]
    b92a:	f8df 8060 	ldr.w	r8, [pc, #96]	; b98c <main+0x460>
    b92e:	4649      	mov	r1, r9
    b930:	4620      	mov	r0, r4
    b932:	2201      	movs	r2, #1
    b934:	47c0      	blx	r8
    b936:	9b04      	ldr	r3, [sp, #16]
    b938:	9301      	str	r3, [sp, #4]
    b93a:	9b03      	ldr	r3, [sp, #12]
    b93c:	9300      	str	r3, [sp, #0]
    b93e:	2201      	movs	r2, #1
    b940:	9b02      	ldr	r3, [sp, #8]
    b942:	f8df 804c 	ldr.w	r8, [pc, #76]	; b990 <main+0x464>
    b946:	4649      	mov	r1, r9
    b948:	4620      	mov	r0, r4
    b94a:	47c0      	blx	r8
    b94c:	e7bc      	b.n	b8c8 <main+0x39c>
    b94e:	bf00      	nop
    b950:	000070eb 	.word	0x000070eb
    b954:	20001c88 	.word	0x20001c88
    b958:	000070f5 	.word	0x000070f5
    b95c:	20003708 	.word	0x20003708
    b960:	000070ef 	.word	0x000070ef
    b964:	00007151 	.word	0x00007151
    b968:	00007155 	.word	0x00007155
    b96c:	00007159 	.word	0x00007159
    b970:	00005851 	.word	0x00005851
    b974:	0000cdb9 	.word	0x0000cdb9
    b978:	0000cced 	.word	0x0000cced
    b97c:	3fe00000 	.word	0x3fe00000
    b980:	000058e5 	.word	0x000058e5
    b984:	00005885 	.word	0x00005885
    b988:	0000d1dd 	.word	0x0000d1dd
    b98c:	000058a5 	.word	0x000058a5
    b990:	000058c5 	.word	0x000058c5

0000b994 <cdcdf_acm_req>:
    b994:	e92d 41f3 	stmdb	sp!, {r0, r1, r4, r5, r6, r7, r8, lr}
    b998:	4616      	mov	r6, r2
    b99a:	780a      	ldrb	r2, [r1, #0]
    b99c:	f3c2 1341 	ubfx	r3, r2, #5, #2
    b9a0:	2b01      	cmp	r3, #1
    b9a2:	4607      	mov	r7, r0
    b9a4:	460c      	mov	r4, r1
    b9a6:	d155      	bne.n	ba54 <cdcdf_acm_req+0xc0>
    b9a8:	4b2d      	ldr	r3, [pc, #180]	; (ba60 <cdcdf_acm_req+0xcc>)
    b9aa:	8889      	ldrh	r1, [r1, #4]
    b9ac:	7818      	ldrb	r0, [r3, #0]
    b9ae:	4288      	cmp	r0, r1
    b9b0:	461d      	mov	r5, r3
    b9b2:	d002      	beq.n	b9ba <cdcdf_acm_req+0x26>
    b9b4:	785b      	ldrb	r3, [r3, #1]
    b9b6:	428b      	cmp	r3, r1
    b9b8:	d14c      	bne.n	ba54 <cdcdf_acm_req+0xc0>
    b9ba:	0613      	lsls	r3, r2, #24
    b9bc:	d50f      	bpl.n	b9de <cdcdf_acm_req+0x4a>
    b9be:	2e01      	cmp	r6, #1
    b9c0:	d035      	beq.n	ba2e <cdcdf_acm_req+0x9a>
    b9c2:	7863      	ldrb	r3, [r4, #1]
    b9c4:	2b21      	cmp	r3, #33	; 0x21
    b9c6:	d114      	bne.n	b9f2 <cdcdf_acm_req+0x5e>
    b9c8:	88e2      	ldrh	r2, [r4, #6]
    b9ca:	2a07      	cmp	r2, #7
    b9cc:	d145      	bne.n	ba5a <cdcdf_acm_req+0xc6>
    b9ce:	4925      	ldr	r1, [pc, #148]	; (ba64 <cdcdf_acm_req+0xd0>)
    b9d0:	2300      	movs	r3, #0
    b9d2:	4638      	mov	r0, r7
    b9d4:	4c24      	ldr	r4, [pc, #144]	; (ba68 <cdcdf_acm_req+0xd4>)
    b9d6:	47a0      	blx	r4
    b9d8:	b002      	add	sp, #8
    b9da:	e8bd 81f0 	ldmia.w	sp!, {r4, r5, r6, r7, r8, pc}
    b9de:	4b23      	ldr	r3, [pc, #140]	; (ba6c <cdcdf_acm_req+0xd8>)
    b9e0:	f8b4 8006 	ldrh.w	r8, [r4, #6]
    b9e4:	4798      	blx	r3
    b9e6:	7863      	ldrb	r3, [r4, #1]
    b9e8:	2b20      	cmp	r3, #32
    b9ea:	4601      	mov	r1, r0
    b9ec:	d004      	beq.n	b9f8 <cdcdf_acm_req+0x64>
    b9ee:	2b22      	cmp	r3, #34	; 0x22
    b9f0:	d024      	beq.n	ba3c <cdcdf_acm_req+0xa8>
    b9f2:	f06f 000c 	mvn.w	r0, #12
    b9f6:	e7ef      	b.n	b9d8 <cdcdf_acm_req+0x44>
    b9f8:	f1b8 0f07 	cmp.w	r8, #7
    b9fc:	d12d      	bne.n	ba5a <cdcdf_acm_req+0xc6>
    b9fe:	b916      	cbnz	r6, ba06 <cdcdf_acm_req+0x72>
    ba00:	4633      	mov	r3, r6
    ba02:	4642      	mov	r2, r8
    ba04:	e7e5      	b.n	b9d2 <cdcdf_acm_req+0x3e>
    ba06:	6800      	ldr	r0, [r0, #0]
    ba08:	9000      	str	r0, [sp, #0]
    ba0a:	798b      	ldrb	r3, [r1, #6]
    ba0c:	888a      	ldrh	r2, [r1, #4]
    ba0e:	f88d 3006 	strb.w	r3, [sp, #6]
    ba12:	692b      	ldr	r3, [r5, #16]
    ba14:	f8ad 2004 	strh.w	r2, [sp, #4]
    ba18:	b95b      	cbnz	r3, ba32 <cdcdf_acm_req+0x9e>
    ba1a:	4b12      	ldr	r3, [pc, #72]	; (ba64 <cdcdf_acm_req+0xd0>)
    ba1c:	9800      	ldr	r0, [sp, #0]
    ba1e:	f8bd 1004 	ldrh.w	r1, [sp, #4]
    ba22:	f89d 2006 	ldrb.w	r2, [sp, #6]
    ba26:	f8c5 0006 	str.w	r0, [r5, #6]
    ba2a:	8099      	strh	r1, [r3, #4]
    ba2c:	719a      	strb	r2, [r3, #6]
    ba2e:	2000      	movs	r0, #0
    ba30:	e7d2      	b.n	b9d8 <cdcdf_acm_req+0x44>
    ba32:	4668      	mov	r0, sp
    ba34:	4798      	blx	r3
    ba36:	2800      	cmp	r0, #0
    ba38:	d1ef      	bne.n	ba1a <cdcdf_acm_req+0x86>
    ba3a:	e7f8      	b.n	ba2e <cdcdf_acm_req+0x9a>
    ba3c:	2300      	movs	r3, #0
    ba3e:	461a      	mov	r2, r3
    ba40:	4619      	mov	r1, r3
    ba42:	4618      	mov	r0, r3
    ba44:	4e08      	ldr	r6, [pc, #32]	; (ba68 <cdcdf_acm_req+0xd4>)
    ba46:	47b0      	blx	r6
    ba48:	696b      	ldr	r3, [r5, #20]
    ba4a:	2b00      	cmp	r3, #0
    ba4c:	d0ef      	beq.n	ba2e <cdcdf_acm_req+0x9a>
    ba4e:	8860      	ldrh	r0, [r4, #2]
    ba50:	4798      	blx	r3
    ba52:	e7ec      	b.n	ba2e <cdcdf_acm_req+0x9a>
    ba54:	f06f 0009 	mvn.w	r0, #9
    ba58:	e7be      	b.n	b9d8 <cdcdf_acm_req+0x44>
    ba5a:	f04f 30ff 	mov.w	r0, #4294967295
    ba5e:	e7bb      	b.n	b9d8 <cdcdf_acm_req+0x44>
    ba60:	20000d94 	.word	0x20000d94
    ba64:	20000d9a 	.word	0x20000d9a
    ba68:	0000c471 	.word	0x0000c471
    ba6c:	0000c875 	.word	0x0000c875

0000ba70 <cdcdf_acm_ctrl>:
    ba70:	2901      	cmp	r1, #1
    ba72:	e92d 4ff8 	stmdb	sp!, {r3, r4, r5, r6, r7, r8, r9, sl, fp, lr}
    ba76:	4615      	mov	r5, r2
    ba78:	d054      	beq.n	bb24 <cdcdf_acm_ctrl+0xb4>
    ba7a:	d307      	bcc.n	ba8c <cdcdf_acm_ctrl+0x1c>
    ba7c:	2902      	cmp	r1, #2
    ba7e:	bf0c      	ite	eq
    ba80:	f06f 001a 	mvneq.w	r0, #26
    ba84:	f06f 000c 	mvnne.w	r0, #12
    ba88:	e8bd 8ff8 	ldmia.w	sp!, {r3, r4, r5, r6, r7, r8, r9, sl, fp, pc}
    ba8c:	6887      	ldr	r7, [r0, #8]
    ba8e:	f8df 8110 	ldr.w	r8, [pc, #272]	; bba0 <cdcdf_acm_ctrl+0x130>
    ba92:	6810      	ldr	r0, [r2, #0]
    ba94:	1e7e      	subs	r6, r7, #1
    ba96:	f107 0a01 	add.w	sl, r7, #1
    ba9a:	b918      	cbnz	r0, baa4 <cdcdf_acm_ctrl+0x34>
    ba9c:	f06f 0009 	mvn.w	r0, #9
    baa0:	e8bd 8ff8 	ldmia.w	sp!, {r3, r4, r5, r6, r7, r8, r9, sl, fp, pc}
    baa4:	7943      	ldrb	r3, [r0, #5]
    baa6:	7882      	ldrb	r2, [r0, #2]
    baa8:	f003 03f7 	and.w	r3, r3, #247	; 0xf7
    baac:	2b02      	cmp	r3, #2
    baae:	d1f5      	bne.n	ba9c <cdcdf_acm_ctrl+0x2c>
    bab0:	f816 3f01 	ldrb.w	r3, [r6, #1]!
    bab4:	429a      	cmp	r2, r3
    bab6:	d05f      	beq.n	bb78 <cdcdf_acm_ctrl+0x108>
    bab8:	2bff      	cmp	r3, #255	; 0xff
    baba:	d161      	bne.n	bb80 <cdcdf_acm_ctrl+0x110>
    babc:	7032      	strb	r2, [r6, #0]
    babe:	6869      	ldr	r1, [r5, #4]
    bac0:	f8df 90e0 	ldr.w	r9, [pc, #224]	; bba4 <cdcdf_acm_ctrl+0x134>
    bac4:	2205      	movs	r2, #5
    bac6:	47c0      	blx	r8
    bac8:	4604      	mov	r4, r0
    baca:	b96c      	cbnz	r4, bae8 <cdcdf_acm_ctrl+0x78>
    bacc:	682b      	ldr	r3, [r5, #0]
    bace:	6869      	ldr	r1, [r5, #4]
    bad0:	7818      	ldrb	r0, [r3, #0]
    bad2:	2204      	movs	r2, #4
    bad4:	4418      	add	r0, r3
    bad6:	47c0      	blx	r8
    bad8:	45b2      	cmp	sl, r6
    bada:	d1de      	bne.n	ba9a <cdcdf_acm_ctrl+0x2a>
    badc:	4b2c      	ldr	r3, [pc, #176]	; (bb90 <cdcdf_acm_ctrl+0x120>)
    bade:	2201      	movs	r2, #1
    bae0:	715a      	strb	r2, [r3, #5]
    bae2:	4620      	mov	r0, r4
    bae4:	e8bd 8ff8 	ldmia.w	sp!, {r3, r4, r5, r6, r7, r8, r9, sl, fp, pc}
    bae8:	7961      	ldrb	r1, [r4, #5]
    baea:	7922      	ldrb	r2, [r4, #4]
    baec:	f894 b002 	ldrb.w	fp, [r4, #2]
    baf0:	4b28      	ldr	r3, [pc, #160]	; (bb94 <cdcdf_acm_ctrl+0x124>)
    baf2:	eb02 2201 	add.w	r2, r2, r1, lsl #8
    baf6:	b292      	uxth	r2, r2
    baf8:	78e1      	ldrb	r1, [r4, #3]
    bafa:	4658      	mov	r0, fp
    bafc:	4798      	blx	r3
    bafe:	2800      	cmp	r0, #0
    bb00:	d142      	bne.n	bb88 <cdcdf_acm_ctrl+0x118>
    bb02:	f01b 0f80 	tst.w	fp, #128	; 0x80
    bb06:	bf14      	ite	ne
    bb08:	f886 b002 	strbne.w	fp, [r6, #2]
    bb0c:	f887 b004 	strbeq.w	fp, [r7, #4]
    bb10:	4658      	mov	r0, fp
    bb12:	47c8      	blx	r9
    bb14:	602c      	str	r4, [r5, #0]
    bb16:	7820      	ldrb	r0, [r4, #0]
    bb18:	6869      	ldr	r1, [r5, #4]
    bb1a:	4b1f      	ldr	r3, [pc, #124]	; (bb98 <cdcdf_acm_ctrl+0x128>)
    bb1c:	4420      	add	r0, r4
    bb1e:	4798      	blx	r3
    bb20:	4604      	mov	r4, r0
    bb22:	e7d2      	b.n	baca <cdcdf_acm_ctrl+0x5a>
    bb24:	6884      	ldr	r4, [r0, #8]
    bb26:	b12a      	cbz	r2, bb34 <cdcdf_acm_ctrl+0xc4>
    bb28:	6813      	ldr	r3, [r2, #0]
    bb2a:	795b      	ldrb	r3, [r3, #5]
    bb2c:	f003 03f7 	and.w	r3, r3, #247	; 0xf7
    bb30:	2b02      	cmp	r3, #2
    bb32:	d1b3      	bne.n	ba9c <cdcdf_acm_ctrl+0x2c>
    bb34:	7823      	ldrb	r3, [r4, #0]
    bb36:	2bff      	cmp	r3, #255	; 0xff
    bb38:	d007      	beq.n	bb4a <cdcdf_acm_ctrl+0xda>
    bb3a:	78a0      	ldrb	r0, [r4, #2]
    bb3c:	25ff      	movs	r5, #255	; 0xff
    bb3e:	42a8      	cmp	r0, r5
    bb40:	7025      	strb	r5, [r4, #0]
    bb42:	d002      	beq.n	bb4a <cdcdf_acm_ctrl+0xda>
    bb44:	4b15      	ldr	r3, [pc, #84]	; (bb9c <cdcdf_acm_ctrl+0x12c>)
    bb46:	4798      	blx	r3
    bb48:	70a5      	strb	r5, [r4, #2]
    bb4a:	7863      	ldrb	r3, [r4, #1]
    bb4c:	2bff      	cmp	r3, #255	; 0xff
    bb4e:	d007      	beq.n	bb60 <cdcdf_acm_ctrl+0xf0>
    bb50:	78e0      	ldrb	r0, [r4, #3]
    bb52:	25ff      	movs	r5, #255	; 0xff
    bb54:	42a8      	cmp	r0, r5
    bb56:	7065      	strb	r5, [r4, #1]
    bb58:	d002      	beq.n	bb60 <cdcdf_acm_ctrl+0xf0>
    bb5a:	4b10      	ldr	r3, [pc, #64]	; (bb9c <cdcdf_acm_ctrl+0x12c>)
    bb5c:	4798      	blx	r3
    bb5e:	70e5      	strb	r5, [r4, #3]
    bb60:	7920      	ldrb	r0, [r4, #4]
    bb62:	28ff      	cmp	r0, #255	; 0xff
    bb64:	d003      	beq.n	bb6e <cdcdf_acm_ctrl+0xfe>
    bb66:	4b0d      	ldr	r3, [pc, #52]	; (bb9c <cdcdf_acm_ctrl+0x12c>)
    bb68:	4798      	blx	r3
    bb6a:	23ff      	movs	r3, #255	; 0xff
    bb6c:	7123      	strb	r3, [r4, #4]
    bb6e:	4b08      	ldr	r3, [pc, #32]	; (bb90 <cdcdf_acm_ctrl+0x120>)
    bb70:	2000      	movs	r0, #0
    bb72:	7158      	strb	r0, [r3, #5]
    bb74:	e8bd 8ff8 	ldmia.w	sp!, {r3, r4, r5, r6, r7, r8, r9, sl, fp, pc}
    bb78:	f06f 0011 	mvn.w	r0, #17
    bb7c:	e8bd 8ff8 	ldmia.w	sp!, {r3, r4, r5, r6, r7, r8, r9, sl, fp, pc}
    bb80:	f06f 001b 	mvn.w	r0, #27
    bb84:	e8bd 8ff8 	ldmia.w	sp!, {r3, r4, r5, r6, r7, r8, r9, sl, fp, pc}
    bb88:	f06f 0013 	mvn.w	r0, #19
    bb8c:	e8bd 8ff8 	ldmia.w	sp!, {r3, r4, r5, r6, r7, r8, r9, sl, fp, pc}
    bb90:	20000d94 	.word	0x20000d94
    bb94:	00008301 	.word	0x00008301
    bb98:	0000c8af 	.word	0x0000c8af
    bb9c:	00008361 	.word	0x00008361
    bba0:	0000c895 	.word	0x0000c895
    bba4:	0000838d 	.word	0x0000838d

0000bba8 <cdcdf_acm_init>:
    bba8:	b508      	push	{r3, lr}
    bbaa:	4b0a      	ldr	r3, [pc, #40]	; (bbd4 <cdcdf_acm_init+0x2c>)
    bbac:	4798      	blx	r3
    bbae:	2801      	cmp	r0, #1
    bbb0:	d80c      	bhi.n	bbcc <cdcdf_acm_init+0x24>
    bbb2:	4809      	ldr	r0, [pc, #36]	; (bbd8 <cdcdf_acm_init+0x30>)
    bbb4:	4b09      	ldr	r3, [pc, #36]	; (bbdc <cdcdf_acm_init+0x34>)
    bbb6:	61c3      	str	r3, [r0, #28]
    bbb8:	6200      	str	r0, [r0, #32]
    bbba:	4b09      	ldr	r3, [pc, #36]	; (bbe0 <cdcdf_acm_init+0x38>)
    bbbc:	3018      	adds	r0, #24
    bbbe:	4798      	blx	r3
    bbc0:	4908      	ldr	r1, [pc, #32]	; (bbe4 <cdcdf_acm_init+0x3c>)
    bbc2:	4b09      	ldr	r3, [pc, #36]	; (bbe8 <cdcdf_acm_init+0x40>)
    bbc4:	2001      	movs	r0, #1
    bbc6:	4798      	blx	r3
    bbc8:	2000      	movs	r0, #0
    bbca:	bd08      	pop	{r3, pc}
    bbcc:	f06f 0010 	mvn.w	r0, #16
    bbd0:	bd08      	pop	{r3, pc}
    bbd2:	bf00      	nop
    bbd4:	0000c881 	.word	0x0000c881
    bbd8:	20000d94 	.word	0x20000d94
    bbdc:	0000ba71 	.word	0x0000ba71
    bbe0:	0000c829 	.word	0x0000c829
    bbe4:	20000394 	.word	0x20000394
    bbe8:	0000c7b9 	.word	0x0000c7b9

0000bbec <cdcdf_acm_write>:
    bbec:	b410      	push	{r4}
    bbee:	4c08      	ldr	r4, [pc, #32]	; (bc10 <cdcdf_acm_write+0x24>)
    bbf0:	7963      	ldrb	r3, [r4, #5]
    bbf2:	460a      	mov	r2, r1
    bbf4:	b13b      	cbz	r3, bc06 <cdcdf_acm_write+0x1a>
    bbf6:	4601      	mov	r1, r0
    bbf8:	78e0      	ldrb	r0, [r4, #3]
    bbfa:	4c06      	ldr	r4, [pc, #24]	; (bc14 <cdcdf_acm_write+0x28>)
    bbfc:	2301      	movs	r3, #1
    bbfe:	46a4      	mov	ip, r4
    bc00:	f85d 4b04 	ldr.w	r4, [sp], #4
    bc04:	4760      	bx	ip
    bc06:	f06f 0010 	mvn.w	r0, #16
    bc0a:	f85d 4b04 	ldr.w	r4, [sp], #4
    bc0e:	4770      	bx	lr
    bc10:	20000d94 	.word	0x20000d94
    bc14:	0000c471 	.word	0x0000c471

0000bc18 <hid_keyboard_req>:
    bc18:	b470      	push	{r4, r5, r6}
    bc1a:	780a      	ldrb	r2, [r1, #0]
    bc1c:	2a81      	cmp	r2, #129	; 0x81
    bc1e:	4604      	mov	r4, r0
    bc20:	d11b      	bne.n	bc5a <hid_keyboard_req+0x42>
    bc22:	784b      	ldrb	r3, [r1, #1]
    bc24:	2b06      	cmp	r3, #6
    bc26:	d118      	bne.n	bc5a <hid_keyboard_req+0x42>
    bc28:	4d1a      	ldr	r5, [pc, #104]	; (bc94 <hid_keyboard_req+0x7c>)
    bc2a:	888e      	ldrh	r6, [r1, #4]
    bc2c:	7b2b      	ldrb	r3, [r5, #12]
    bc2e:	429e      	cmp	r6, r3
    bc30:	d113      	bne.n	bc5a <hid_keyboard_req+0x42>
    bc32:	884b      	ldrh	r3, [r1, #2]
    bc34:	0a1b      	lsrs	r3, r3, #8
    bc36:	2b21      	cmp	r3, #33	; 0x21
    bc38:	d004      	beq.n	bc44 <hid_keyboard_req+0x2c>
    bc3a:	2b22      	cmp	r3, #34	; 0x22
    bc3c:	d009      	beq.n	bc52 <hid_keyboard_req+0x3a>
    bc3e:	f06f 000c 	mvn.w	r0, #12
    bc42:	e025      	b.n	bc90 <hid_keyboard_req+0x78>
    bc44:	6829      	ldr	r1, [r5, #0]
    bc46:	780a      	ldrb	r2, [r1, #0]
    bc48:	2300      	movs	r3, #0
    bc4a:	4c13      	ldr	r4, [pc, #76]	; (bc98 <hid_keyboard_req+0x80>)
    bc4c:	46a4      	mov	ip, r4
    bc4e:	bc70      	pop	{r4, r5, r6}
    bc50:	4760      	bx	ip
    bc52:	2300      	movs	r3, #0
    bc54:	223b      	movs	r2, #59	; 0x3b
    bc56:	4911      	ldr	r1, [pc, #68]	; (bc9c <hid_keyboard_req+0x84>)
    bc58:	e7f7      	b.n	bc4a <hid_keyboard_req+0x32>
    bc5a:	f3c2 1241 	ubfx	r2, r2, #5, #2
    bc5e:	2a01      	cmp	r2, #1
    bc60:	d114      	bne.n	bc8c <hid_keyboard_req+0x74>
    bc62:	480c      	ldr	r0, [pc, #48]	; (bc94 <hid_keyboard_req+0x7c>)
    bc64:	888d      	ldrh	r5, [r1, #4]
    bc66:	7b03      	ldrb	r3, [r0, #12]
    bc68:	429d      	cmp	r5, r3
    bc6a:	d10f      	bne.n	bc8c <hid_keyboard_req+0x74>
    bc6c:	784b      	ldrb	r3, [r1, #1]
    bc6e:	2b03      	cmp	r3, #3
    bc70:	d007      	beq.n	bc82 <hid_keyboard_req+0x6a>
    bc72:	2b0b      	cmp	r3, #11
    bc74:	d1e3      	bne.n	bc3e <hid_keyboard_req+0x26>
    bc76:	884b      	ldrh	r3, [r1, #2]
    bc78:	73c3      	strb	r3, [r0, #15]
    bc7a:	2300      	movs	r3, #0
    bc7c:	461a      	mov	r2, r3
    bc7e:	4619      	mov	r1, r3
    bc80:	e002      	b.n	bc88 <hid_keyboard_req+0x70>
    bc82:	2300      	movs	r3, #0
    bc84:	f100 010f 	add.w	r1, r0, #15
    bc88:	4620      	mov	r0, r4
    bc8a:	e7de      	b.n	bc4a <hid_keyboard_req+0x32>
    bc8c:	f06f 0009 	mvn.w	r0, #9
    bc90:	bc70      	pop	{r4, r5, r6}
    bc92:	4770      	bx	lr
    bc94:	20000db8 	.word	0x20000db8
    bc98:	0000c471 	.word	0x0000c471
    bc9c:	0000e0c4 	.word	0x0000e0c4

0000bca0 <hid_keyboard_ctrl>:
    bca0:	2901      	cmp	r1, #1
    bca2:	e92d 4ff8 	stmdb	sp!, {r3, r4, r5, r6, r7, r8, r9, sl, fp, lr}
    bca6:	4615      	mov	r5, r2
    bca8:	d050      	beq.n	bd4c <hid_keyboard_ctrl+0xac>
    bcaa:	d308      	bcc.n	bcbe <hid_keyboard_ctrl+0x1e>
    bcac:	2902      	cmp	r1, #2
    bcae:	bf0c      	ite	eq
    bcb0:	f06f 041a 	mvneq.w	r4, #26
    bcb4:	f06f 040c 	mvnne.w	r4, #12
    bcb8:	4620      	mov	r0, r4
    bcba:	e8bd 8ff8 	ldmia.w	sp!, {r3, r4, r5, r6, r7, r8, r9, sl, fp, pc}
    bcbe:	6813      	ldr	r3, [r2, #0]
    bcc0:	f8d0 8008 	ldr.w	r8, [r0, #8]
    bcc4:	b913      	cbnz	r3, bccc <hid_keyboard_ctrl+0x2c>
    bcc6:	f06f 0409 	mvn.w	r4, #9
    bcca:	e7f5      	b.n	bcb8 <hid_keyboard_ctrl+0x18>
    bccc:	7959      	ldrb	r1, [r3, #5]
    bcce:	789a      	ldrb	r2, [r3, #2]
    bcd0:	2903      	cmp	r1, #3
    bcd2:	d1f8      	bne.n	bcc6 <hid_keyboard_ctrl+0x26>
    bcd4:	f898 100c 	ldrb.w	r1, [r8, #12]
    bcd8:	428a      	cmp	r2, r1
    bcda:	d054      	beq.n	bd86 <hid_keyboard_ctrl+0xe6>
    bcdc:	29ff      	cmp	r1, #255	; 0xff
    bcde:	d155      	bne.n	bd8c <hid_keyboard_ctrl+0xec>
    bce0:	f888 200c 	strb.w	r2, [r8, #12]
    bce4:	7818      	ldrb	r0, [r3, #0]
    bce6:	6869      	ldr	r1, [r5, #4]
    bce8:	4e2b      	ldr	r6, [pc, #172]	; (bd98 <hid_keyboard_ctrl+0xf8>)
    bcea:	f8df b0bc 	ldr.w	fp, [pc, #188]	; bda8 <hid_keyboard_ctrl+0x108>
    bcee:	f8df 90bc 	ldr.w	r9, [pc, #188]	; bdac <hid_keyboard_ctrl+0x10c>
    bcf2:	4418      	add	r0, r3
    bcf4:	2221      	movs	r2, #33	; 0x21
    bcf6:	4b29      	ldr	r3, [pc, #164]	; (bd9c <hid_keyboard_ctrl+0xfc>)
    bcf8:	4798      	blx	r3
    bcfa:	2702      	movs	r7, #2
    bcfc:	6030      	str	r0, [r6, #0]
    bcfe:	682b      	ldr	r3, [r5, #0]
    bd00:	6869      	ldr	r1, [r5, #4]
    bd02:	7818      	ldrb	r0, [r3, #0]
    bd04:	4418      	add	r0, r3
    bd06:	4b26      	ldr	r3, [pc, #152]	; (bda0 <hid_keyboard_ctrl+0x100>)
    bd08:	4798      	blx	r3
    bd0a:	6028      	str	r0, [r5, #0]
    bd0c:	2800      	cmp	r0, #0
    bd0e:	d0da      	beq.n	bcc6 <hid_keyboard_ctrl+0x26>
    bd10:	7941      	ldrb	r1, [r0, #5]
    bd12:	7902      	ldrb	r2, [r0, #4]
    bd14:	f890 a002 	ldrb.w	sl, [r0, #2]
    bd18:	eb02 2201 	add.w	r2, r2, r1, lsl #8
    bd1c:	b292      	uxth	r2, r2
    bd1e:	78c1      	ldrb	r1, [r0, #3]
    bd20:	4650      	mov	r0, sl
    bd22:	47d8      	blx	fp
    bd24:	4604      	mov	r4, r0
    bd26:	2800      	cmp	r0, #0
    bd28:	d133      	bne.n	bd92 <hid_keyboard_ctrl+0xf2>
    bd2a:	f01a 0f80 	tst.w	sl, #128	; 0x80
    bd2e:	bf14      	ite	ne
    bd30:	f888 a00d 	strbne.w	sl, [r8, #13]
    bd34:	f888 a00e 	strbeq.w	sl, [r8, #14]
    bd38:	4650      	mov	r0, sl
    bd3a:	3f01      	subs	r7, #1
    bd3c:	47c8      	blx	r9
    bd3e:	f017 07ff 	ands.w	r7, r7, #255	; 0xff
    bd42:	d1dc      	bne.n	bcfe <hid_keyboard_ctrl+0x5e>
    bd44:	2301      	movs	r3, #1
    bd46:	73f3      	strb	r3, [r6, #15]
    bd48:	7433      	strb	r3, [r6, #16]
    bd4a:	e7b5      	b.n	bcb8 <hid_keyboard_ctrl+0x18>
    bd4c:	6884      	ldr	r4, [r0, #8]
    bd4e:	b11a      	cbz	r2, bd58 <hid_keyboard_ctrl+0xb8>
    bd50:	6813      	ldr	r3, [r2, #0]
    bd52:	795b      	ldrb	r3, [r3, #5]
    bd54:	2b03      	cmp	r3, #3
    bd56:	d1b6      	bne.n	bcc6 <hid_keyboard_ctrl+0x26>
    bd58:	7b23      	ldrb	r3, [r4, #12]
    bd5a:	7b60      	ldrb	r0, [r4, #13]
    bd5c:	2bff      	cmp	r3, #255	; 0xff
    bd5e:	bf1c      	itt	ne
    bd60:	23ff      	movne	r3, #255	; 0xff
    bd62:	7323      	strbne	r3, [r4, #12]
    bd64:	28ff      	cmp	r0, #255	; 0xff
    bd66:	d003      	beq.n	bd70 <hid_keyboard_ctrl+0xd0>
    bd68:	4b0e      	ldr	r3, [pc, #56]	; (bda4 <hid_keyboard_ctrl+0x104>)
    bd6a:	4798      	blx	r3
    bd6c:	23ff      	movs	r3, #255	; 0xff
    bd6e:	7363      	strb	r3, [r4, #13]
    bd70:	7ba0      	ldrb	r0, [r4, #14]
    bd72:	28ff      	cmp	r0, #255	; 0xff
    bd74:	d003      	beq.n	bd7e <hid_keyboard_ctrl+0xde>
    bd76:	4b0b      	ldr	r3, [pc, #44]	; (bda4 <hid_keyboard_ctrl+0x104>)
    bd78:	4798      	blx	r3
    bd7a:	23ff      	movs	r3, #255	; 0xff
    bd7c:	73a3      	strb	r3, [r4, #14]
    bd7e:	4b06      	ldr	r3, [pc, #24]	; (bd98 <hid_keyboard_ctrl+0xf8>)
    bd80:	2400      	movs	r4, #0
    bd82:	741c      	strb	r4, [r3, #16]
    bd84:	e798      	b.n	bcb8 <hid_keyboard_ctrl+0x18>
    bd86:	f06f 0411 	mvn.w	r4, #17
    bd8a:	e795      	b.n	bcb8 <hid_keyboard_ctrl+0x18>
    bd8c:	f06f 041b 	mvn.w	r4, #27
    bd90:	e792      	b.n	bcb8 <hid_keyboard_ctrl+0x18>
    bd92:	f06f 0413 	mvn.w	r4, #19
    bd96:	e78f      	b.n	bcb8 <hid_keyboard_ctrl+0x18>
    bd98:	20000db8 	.word	0x20000db8
    bd9c:	0000c895 	.word	0x0000c895
    bda0:	0000c8af 	.word	0x0000c8af
    bda4:	00008361 	.word	0x00008361
    bda8:	00008301 	.word	0x00008301
    bdac:	0000838d 	.word	0x0000838d

0000bdb0 <hiddf_keyboard_init>:
    bdb0:	b508      	push	{r3, lr}
    bdb2:	4b0a      	ldr	r3, [pc, #40]	; (bddc <hiddf_keyboard_init+0x2c>)
    bdb4:	4798      	blx	r3
    bdb6:	2801      	cmp	r0, #1
    bdb8:	d80c      	bhi.n	bdd4 <hiddf_keyboard_init+0x24>
    bdba:	4809      	ldr	r0, [pc, #36]	; (bde0 <hiddf_keyboard_init+0x30>)
    bdbc:	4b09      	ldr	r3, [pc, #36]	; (bde4 <hiddf_keyboard_init+0x34>)
    bdbe:	6183      	str	r3, [r0, #24]
    bdc0:	61c0      	str	r0, [r0, #28]
    bdc2:	4b09      	ldr	r3, [pc, #36]	; (bde8 <hiddf_keyboard_init+0x38>)
    bdc4:	3014      	adds	r0, #20
    bdc6:	4798      	blx	r3
    bdc8:	4908      	ldr	r1, [pc, #32]	; (bdec <hiddf_keyboard_init+0x3c>)
    bdca:	4b09      	ldr	r3, [pc, #36]	; (bdf0 <hiddf_keyboard_init+0x40>)
    bdcc:	2001      	movs	r0, #1
    bdce:	4798      	blx	r3
    bdd0:	2000      	movs	r0, #0
    bdd2:	bd08      	pop	{r3, pc}
    bdd4:	f06f 0010 	mvn.w	r0, #16
    bdd8:	bd08      	pop	{r3, pc}
    bdda:	bf00      	nop
    bddc:	0000c881 	.word	0x0000c881
    bde0:	20000db8 	.word	0x20000db8
    bde4:	0000bca1 	.word	0x0000bca1
    bde8:	0000c829 	.word	0x0000c829
    bdec:	2000039c 	.word	0x2000039c
    bdf0:	0000c7b9 	.word	0x0000c7b9

0000bdf4 <hiddf_keyboard_keys_state_change>:
    bdf4:	b470      	push	{r4, r5, r6}
    bdf6:	4c1e      	ldr	r4, [pc, #120]	; (be70 <hiddf_keyboard_keys_state_change+0x7c>)
    bdf8:	7c23      	ldrb	r3, [r4, #16]
    bdfa:	2b00      	cmp	r3, #0
    bdfc:	d034      	beq.n	be68 <hiddf_keyboard_keys_state_change+0x74>
    bdfe:	2300      	movs	r3, #0
    be00:	eb01 0541 	add.w	r5, r1, r1, lsl #1
    be04:	6063      	str	r3, [r4, #4]
    be06:	60a3      	str	r3, [r4, #8]
    be08:	4405      	add	r5, r0
    be0a:	4602      	mov	r2, r0
    be0c:	42aa      	cmp	r2, r5
    be0e:	d111      	bne.n	be34 <hiddf_keyboard_keys_state_change+0x40>
    be10:	1ac9      	subs	r1, r1, r3
    be12:	b2c9      	uxtb	r1, r1
    be14:	2906      	cmp	r1, #6
    be16:	d925      	bls.n	be64 <hiddf_keyboard_keys_state_change+0x70>
    be18:	4a16      	ldr	r2, [pc, #88]	; (be74 <hiddf_keyboard_keys_state_change+0x80>)
    be1a:	f04f 33ff 	mov.w	r3, #4294967295
    be1e:	f8c4 3006 	str.w	r3, [r4, #6]
    be22:	8093      	strh	r3, [r2, #4]
    be24:	7b60      	ldrb	r0, [r4, #13]
    be26:	4c14      	ldr	r4, [pc, #80]	; (be78 <hiddf_keyboard_keys_state_change+0x84>)
    be28:	4914      	ldr	r1, [pc, #80]	; (be7c <hiddf_keyboard_keys_state_change+0x88>)
    be2a:	46a4      	mov	ip, r4
    be2c:	2300      	movs	r3, #0
    be2e:	2208      	movs	r2, #8
    be30:	bc70      	pop	{r4, r5, r6}
    be32:	4760      	bx	ip
    be34:	7856      	ldrb	r6, [r2, #1]
    be36:	b10e      	cbz	r6, be3c <hiddf_keyboard_keys_state_change+0x48>
    be38:	3301      	adds	r3, #1
    be3a:	b2db      	uxtb	r3, r3
    be3c:	3203      	adds	r2, #3
    be3e:	e7e5      	b.n	be0c <hiddf_keyboard_keys_state_change+0x18>
    be40:	7881      	ldrb	r1, [r0, #2]
    be42:	2901      	cmp	r1, #1
    be44:	d105      	bne.n	be52 <hiddf_keyboard_keys_state_change+0x5e>
    be46:	7841      	ldrb	r1, [r0, #1]
    be48:	7805      	ldrb	r5, [r0, #0]
    be4a:	b131      	cbz	r1, be5a <hiddf_keyboard_keys_state_change+0x66>
    be4c:	7921      	ldrb	r1, [r4, #4]
    be4e:	4329      	orrs	r1, r5
    be50:	7121      	strb	r1, [r4, #4]
    be52:	3003      	adds	r0, #3
    be54:	4290      	cmp	r0, r2
    be56:	d1f3      	bne.n	be40 <hiddf_keyboard_keys_state_change+0x4c>
    be58:	e7e4      	b.n	be24 <hiddf_keyboard_keys_state_change+0x30>
    be5a:	1c59      	adds	r1, r3, #1
    be5c:	4423      	add	r3, r4
    be5e:	711d      	strb	r5, [r3, #4]
    be60:	b2cb      	uxtb	r3, r1
    be62:	e7f6      	b.n	be52 <hiddf_keyboard_keys_state_change+0x5e>
    be64:	2302      	movs	r3, #2
    be66:	e7f5      	b.n	be54 <hiddf_keyboard_keys_state_change+0x60>
    be68:	f06f 0010 	mvn.w	r0, #16
    be6c:	bc70      	pop	{r4, r5, r6}
    be6e:	4770      	bx	lr
    be70:	20000db8 	.word	0x20000db8
    be74:	20000dbe 	.word	0x20000dbe
    be78:	0000c471 	.word	0x0000c471
    be7c:	20000dbc 	.word	0x20000dbc

0000be80 <hid_mouse_req>:
    be80:	b470      	push	{r4, r5, r6}
    be82:	780a      	ldrb	r2, [r1, #0]
    be84:	2a81      	cmp	r2, #129	; 0x81
    be86:	4604      	mov	r4, r0
    be88:	d11b      	bne.n	bec2 <hid_mouse_req+0x42>
    be8a:	784b      	ldrb	r3, [r1, #1]
    be8c:	2b06      	cmp	r3, #6
    be8e:	d118      	bne.n	bec2 <hid_mouse_req+0x42>
    be90:	4d1a      	ldr	r5, [pc, #104]	; (befc <hid_mouse_req+0x7c>)
    be92:	888e      	ldrh	r6, [r1, #4]
    be94:	7a2b      	ldrb	r3, [r5, #8]
    be96:	429e      	cmp	r6, r3
    be98:	d113      	bne.n	bec2 <hid_mouse_req+0x42>
    be9a:	884b      	ldrh	r3, [r1, #2]
    be9c:	0a1b      	lsrs	r3, r3, #8
    be9e:	2b21      	cmp	r3, #33	; 0x21
    bea0:	d004      	beq.n	beac <hid_mouse_req+0x2c>
    bea2:	2b22      	cmp	r3, #34	; 0x22
    bea4:	d009      	beq.n	beba <hid_mouse_req+0x3a>
    bea6:	f06f 000c 	mvn.w	r0, #12
    beaa:	e025      	b.n	bef8 <hid_mouse_req+0x78>
    beac:	6829      	ldr	r1, [r5, #0]
    beae:	780a      	ldrb	r2, [r1, #0]
    beb0:	2300      	movs	r3, #0
    beb2:	4c13      	ldr	r4, [pc, #76]	; (bf00 <hid_mouse_req+0x80>)
    beb4:	46a4      	mov	ip, r4
    beb6:	bc70      	pop	{r4, r5, r6}
    beb8:	4760      	bx	ip
    beba:	2300      	movs	r3, #0
    bebc:	2234      	movs	r2, #52	; 0x34
    bebe:	4911      	ldr	r1, [pc, #68]	; (bf04 <hid_mouse_req+0x84>)
    bec0:	e7f7      	b.n	beb2 <hid_mouse_req+0x32>
    bec2:	f3c2 1241 	ubfx	r2, r2, #5, #2
    bec6:	2a01      	cmp	r2, #1
    bec8:	d114      	bne.n	bef4 <hid_mouse_req+0x74>
    beca:	480c      	ldr	r0, [pc, #48]	; (befc <hid_mouse_req+0x7c>)
    becc:	888d      	ldrh	r5, [r1, #4]
    bece:	7a03      	ldrb	r3, [r0, #8]
    bed0:	429d      	cmp	r5, r3
    bed2:	d10f      	bne.n	bef4 <hid_mouse_req+0x74>
    bed4:	784b      	ldrb	r3, [r1, #1]
    bed6:	2b03      	cmp	r3, #3
    bed8:	d007      	beq.n	beea <hid_mouse_req+0x6a>
    beda:	2b0b      	cmp	r3, #11
    bedc:	d1e3      	bne.n	bea6 <hid_mouse_req+0x26>
    bede:	884b      	ldrh	r3, [r1, #2]
    bee0:	7283      	strb	r3, [r0, #10]
    bee2:	2300      	movs	r3, #0
    bee4:	461a      	mov	r2, r3
    bee6:	4619      	mov	r1, r3
    bee8:	e002      	b.n	bef0 <hid_mouse_req+0x70>
    beea:	2300      	movs	r3, #0
    beec:	f100 010a 	add.w	r1, r0, #10
    bef0:	4620      	mov	r0, r4
    bef2:	e7de      	b.n	beb2 <hid_mouse_req+0x32>
    bef4:	f06f 0009 	mvn.w	r0, #9
    bef8:	bc70      	pop	{r4, r5, r6}
    befa:	4770      	bx	lr
    befc:	20000dd8 	.word	0x20000dd8
    bf00:	0000c471 	.word	0x0000c471
    bf04:	0000e0ff 	.word	0x0000e0ff

0000bf08 <hid_mouse_ctrl>:
    bf08:	2901      	cmp	r1, #1
    bf0a:	b5f8      	push	{r3, r4, r5, r6, r7, lr}
    bf0c:	4614      	mov	r4, r2
    bf0e:	d03f      	beq.n	bf90 <hid_mouse_ctrl+0x88>
    bf10:	d307      	bcc.n	bf22 <hid_mouse_ctrl+0x1a>
    bf12:	2902      	cmp	r1, #2
    bf14:	bf0c      	ite	eq
    bf16:	f06f 041a 	mvneq.w	r4, #26
    bf1a:	f06f 040c 	mvnne.w	r4, #12
    bf1e:	4620      	mov	r0, r4
    bf20:	bdf8      	pop	{r3, r4, r5, r6, r7, pc}
    bf22:	6813      	ldr	r3, [r2, #0]
    bf24:	6887      	ldr	r7, [r0, #8]
    bf26:	b913      	cbnz	r3, bf2e <hid_mouse_ctrl+0x26>
    bf28:	f06f 0409 	mvn.w	r4, #9
    bf2c:	e7f7      	b.n	bf1e <hid_mouse_ctrl+0x16>
    bf2e:	7959      	ldrb	r1, [r3, #5]
    bf30:	789a      	ldrb	r2, [r3, #2]
    bf32:	2903      	cmp	r1, #3
    bf34:	d1f8      	bne.n	bf28 <hid_mouse_ctrl+0x20>
    bf36:	7a39      	ldrb	r1, [r7, #8]
    bf38:	428a      	cmp	r2, r1
    bf3a:	d03f      	beq.n	bfbc <hid_mouse_ctrl+0xb4>
    bf3c:	29ff      	cmp	r1, #255	; 0xff
    bf3e:	d140      	bne.n	bfc2 <hid_mouse_ctrl+0xba>
    bf40:	723a      	strb	r2, [r7, #8]
    bf42:	7818      	ldrb	r0, [r3, #0]
    bf44:	6861      	ldr	r1, [r4, #4]
    bf46:	4e23      	ldr	r6, [pc, #140]	; (bfd4 <hid_mouse_ctrl+0xcc>)
    bf48:	2221      	movs	r2, #33	; 0x21
    bf4a:	4418      	add	r0, r3
    bf4c:	4b22      	ldr	r3, [pc, #136]	; (bfd8 <hid_mouse_ctrl+0xd0>)
    bf4e:	4798      	blx	r3
    bf50:	6823      	ldr	r3, [r4, #0]
    bf52:	6030      	str	r0, [r6, #0]
    bf54:	7818      	ldrb	r0, [r3, #0]
    bf56:	6861      	ldr	r1, [r4, #4]
    bf58:	4418      	add	r0, r3
    bf5a:	4b20      	ldr	r3, [pc, #128]	; (bfdc <hid_mouse_ctrl+0xd4>)
    bf5c:	4798      	blx	r3
    bf5e:	6020      	str	r0, [r4, #0]
    bf60:	2800      	cmp	r0, #0
    bf62:	d0e1      	beq.n	bf28 <hid_mouse_ctrl+0x20>
    bf64:	7943      	ldrb	r3, [r0, #5]
    bf66:	7902      	ldrb	r2, [r0, #4]
    bf68:	7885      	ldrb	r5, [r0, #2]
    bf6a:	78c1      	ldrb	r1, [r0, #3]
    bf6c:	eb02 2203 	add.w	r2, r2, r3, lsl #8
    bf70:	b292      	uxth	r2, r2
    bf72:	4628      	mov	r0, r5
    bf74:	4b1a      	ldr	r3, [pc, #104]	; (bfe0 <hid_mouse_ctrl+0xd8>)
    bf76:	4798      	blx	r3
    bf78:	4604      	mov	r4, r0
    bf7a:	bb28      	cbnz	r0, bfc8 <hid_mouse_ctrl+0xc0>
    bf7c:	062b      	lsls	r3, r5, #24
    bf7e:	d526      	bpl.n	bfce <hid_mouse_ctrl+0xc6>
    bf80:	4b18      	ldr	r3, [pc, #96]	; (bfe4 <hid_mouse_ctrl+0xdc>)
    bf82:	727d      	strb	r5, [r7, #9]
    bf84:	4628      	mov	r0, r5
    bf86:	4798      	blx	r3
    bf88:	2301      	movs	r3, #1
    bf8a:	72b3      	strb	r3, [r6, #10]
    bf8c:	72f3      	strb	r3, [r6, #11]
    bf8e:	e7c6      	b.n	bf1e <hid_mouse_ctrl+0x16>
    bf90:	6885      	ldr	r5, [r0, #8]
    bf92:	b11a      	cbz	r2, bf9c <hid_mouse_ctrl+0x94>
    bf94:	6813      	ldr	r3, [r2, #0]
    bf96:	795b      	ldrb	r3, [r3, #5]
    bf98:	2b03      	cmp	r3, #3
    bf9a:	d1c5      	bne.n	bf28 <hid_mouse_ctrl+0x20>
    bf9c:	7a2b      	ldrb	r3, [r5, #8]
    bf9e:	7a68      	ldrb	r0, [r5, #9]
    bfa0:	2bff      	cmp	r3, #255	; 0xff
    bfa2:	bf1c      	itt	ne
    bfa4:	23ff      	movne	r3, #255	; 0xff
    bfa6:	722b      	strbne	r3, [r5, #8]
    bfa8:	28ff      	cmp	r0, #255	; 0xff
    bfaa:	d003      	beq.n	bfb4 <hid_mouse_ctrl+0xac>
    bfac:	4b0e      	ldr	r3, [pc, #56]	; (bfe8 <hid_mouse_ctrl+0xe0>)
    bfae:	4798      	blx	r3
    bfb0:	23ff      	movs	r3, #255	; 0xff
    bfb2:	726b      	strb	r3, [r5, #9]
    bfb4:	4b07      	ldr	r3, [pc, #28]	; (bfd4 <hid_mouse_ctrl+0xcc>)
    bfb6:	2400      	movs	r4, #0
    bfb8:	72dc      	strb	r4, [r3, #11]
    bfba:	e7b0      	b.n	bf1e <hid_mouse_ctrl+0x16>
    bfbc:	f06f 0411 	mvn.w	r4, #17
    bfc0:	e7ad      	b.n	bf1e <hid_mouse_ctrl+0x16>
    bfc2:	f06f 041b 	mvn.w	r4, #27
    bfc6:	e7aa      	b.n	bf1e <hid_mouse_ctrl+0x16>
    bfc8:	f06f 0413 	mvn.w	r4, #19
    bfcc:	e7a7      	b.n	bf1e <hid_mouse_ctrl+0x16>
    bfce:	f04f 34ff 	mov.w	r4, #4294967295
    bfd2:	e7a4      	b.n	bf1e <hid_mouse_ctrl+0x16>
    bfd4:	20000dd8 	.word	0x20000dd8
    bfd8:	0000c895 	.word	0x0000c895
    bfdc:	0000c8af 	.word	0x0000c8af
    bfe0:	00008301 	.word	0x00008301
    bfe4:	0000838d 	.word	0x0000838d
    bfe8:	00008361 	.word	0x00008361

0000bfec <hiddf_mouse_init>:
    bfec:	b508      	push	{r3, lr}
    bfee:	4b0a      	ldr	r3, [pc, #40]	; (c018 <hiddf_mouse_init+0x2c>)
    bff0:	4798      	blx	r3
    bff2:	2801      	cmp	r0, #1
    bff4:	d80c      	bhi.n	c010 <hiddf_mouse_init+0x24>
    bff6:	4809      	ldr	r0, [pc, #36]	; (c01c <hiddf_mouse_init+0x30>)
    bff8:	4b09      	ldr	r3, [pc, #36]	; (c020 <hiddf_mouse_init+0x34>)
    bffa:	6103      	str	r3, [r0, #16]
    bffc:	6140      	str	r0, [r0, #20]
    bffe:	4b09      	ldr	r3, [pc, #36]	; (c024 <hiddf_mouse_init+0x38>)
    c000:	300c      	adds	r0, #12
    c002:	4798      	blx	r3
    c004:	4908      	ldr	r1, [pc, #32]	; (c028 <hiddf_mouse_init+0x3c>)
    c006:	4b09      	ldr	r3, [pc, #36]	; (c02c <hiddf_mouse_init+0x40>)
    c008:	2001      	movs	r0, #1
    c00a:	4798      	blx	r3
    c00c:	2000      	movs	r0, #0
    c00e:	bd08      	pop	{r3, pc}
    c010:	f06f 0010 	mvn.w	r0, #16
    c014:	bd08      	pop	{r3, pc}
    c016:	bf00      	nop
    c018:	0000c881 	.word	0x0000c881
    c01c:	20000dd8 	.word	0x20000dd8
    c020:	0000bf09 	.word	0x0000bf09
    c024:	0000c829 	.word	0x0000c829
    c028:	200003a4 	.word	0x200003a4
    c02c:	0000c7b9 	.word	0x0000c7b9

0000c030 <hiddf_mouse_move>:
    c030:	b410      	push	{r4}
    c032:	4c0e      	ldr	r4, [pc, #56]	; (c06c <hiddf_mouse_move+0x3c>)
    c034:	2300      	movs	r3, #0
    c036:	2901      	cmp	r1, #1
    c038:	6063      	str	r3, [r4, #4]
    c03a:	d109      	bne.n	c050 <hiddf_mouse_move+0x20>
    c03c:	7160      	strb	r0, [r4, #5]
    c03e:	7a60      	ldrb	r0, [r4, #9]
    c040:	4c0b      	ldr	r4, [pc, #44]	; (c070 <hiddf_mouse_move+0x40>)
    c042:	490c      	ldr	r1, [pc, #48]	; (c074 <hiddf_mouse_move+0x44>)
    c044:	46a4      	mov	ip, r4
    c046:	2300      	movs	r3, #0
    c048:	2204      	movs	r2, #4
    c04a:	f85d 4b04 	ldr.w	r4, [sp], #4
    c04e:	4760      	bx	ip
    c050:	2902      	cmp	r1, #2
    c052:	d101      	bne.n	c058 <hiddf_mouse_move+0x28>
    c054:	71a0      	strb	r0, [r4, #6]
    c056:	e7f2      	b.n	c03e <hiddf_mouse_move+0xe>
    c058:	2903      	cmp	r1, #3
    c05a:	d101      	bne.n	c060 <hiddf_mouse_move+0x30>
    c05c:	71e0      	strb	r0, [r4, #7]
    c05e:	e7ee      	b.n	c03e <hiddf_mouse_move+0xe>
    c060:	f06f 000c 	mvn.w	r0, #12
    c064:	f85d 4b04 	ldr.w	r4, [sp], #4
    c068:	4770      	bx	lr
    c06a:	bf00      	nop
    c06c:	20000dd8 	.word	0x20000dd8
    c070:	0000c471 	.word	0x0000c471
    c074:	20000ddc 	.word	0x20000ddc

0000c078 <midi_cb_ep_bulk_in>:
    c078:	4770      	bx	lr

0000c07a <midi_cb_ep_bulk_out>:
    c07a:	e7fe      	b.n	c07a <midi_cb_ep_bulk_out>

0000c07c <audio_midi_req>:
    c07c:	b430      	push	{r4, r5}
    c07e:	780a      	ldrb	r2, [r1, #0]
    c080:	2a81      	cmp	r2, #129	; 0x81
    c082:	d10e      	bne.n	c0a2 <audio_midi_req+0x26>
    c084:	4b18      	ldr	r3, [pc, #96]	; (c0e8 <audio_midi_req+0x6c>)
    c086:	888c      	ldrh	r4, [r1, #4]
    c088:	791d      	ldrb	r5, [r3, #4]
    c08a:	42a5      	cmp	r5, r4
    c08c:	d002      	beq.n	c094 <audio_midi_req+0x18>
    c08e:	795d      	ldrb	r5, [r3, #5]
    c090:	42a5      	cmp	r5, r4
    c092:	d106      	bne.n	c0a2 <audio_midi_req+0x26>
    c094:	6819      	ldr	r1, [r3, #0]
    c096:	780a      	ldrb	r2, [r1, #0]
    c098:	2300      	movs	r3, #0
    c09a:	4c14      	ldr	r4, [pc, #80]	; (c0ec <audio_midi_req+0x70>)
    c09c:	46a4      	mov	ip, r4
    c09e:	bc30      	pop	{r4, r5}
    c0a0:	4760      	bx	ip
    c0a2:	f3c2 1241 	ubfx	r2, r2, #5, #2
    c0a6:	2a01      	cmp	r2, #1
    c0a8:	d11a      	bne.n	c0e0 <audio_midi_req+0x64>
    c0aa:	4b0f      	ldr	r3, [pc, #60]	; (c0e8 <audio_midi_req+0x6c>)
    c0ac:	888a      	ldrh	r2, [r1, #4]
    c0ae:	791c      	ldrb	r4, [r3, #4]
    c0b0:	4294      	cmp	r4, r2
    c0b2:	461c      	mov	r4, r3
    c0b4:	d002      	beq.n	c0bc <audio_midi_req+0x40>
    c0b6:	795b      	ldrb	r3, [r3, #5]
    c0b8:	4293      	cmp	r3, r2
    c0ba:	d111      	bne.n	c0e0 <audio_midi_req+0x64>
    c0bc:	784b      	ldrb	r3, [r1, #1]
    c0be:	2b03      	cmp	r3, #3
    c0c0:	d004      	beq.n	c0cc <audio_midi_req+0x50>
    c0c2:	2b0b      	cmp	r3, #11
    c0c4:	d006      	beq.n	c0d4 <audio_midi_req+0x58>
    c0c6:	f06f 000c 	mvn.w	r0, #12
    c0ca:	e00b      	b.n	c0e4 <audio_midi_req+0x68>
    c0cc:	2300      	movs	r3, #0
    c0ce:	2201      	movs	r2, #1
    c0d0:	4907      	ldr	r1, [pc, #28]	; (c0f0 <audio_midi_req+0x74>)
    c0d2:	e7e2      	b.n	c09a <audio_midi_req+0x1e>
    c0d4:	884b      	ldrh	r3, [r1, #2]
    c0d6:	7223      	strb	r3, [r4, #8]
    c0d8:	2300      	movs	r3, #0
    c0da:	461a      	mov	r2, r3
    c0dc:	4619      	mov	r1, r3
    c0de:	e7dc      	b.n	c09a <audio_midi_req+0x1e>
    c0e0:	f06f 0009 	mvn.w	r0, #9
    c0e4:	bc30      	pop	{r4, r5}
    c0e6:	4770      	bx	lr
    c0e8:	20000df0 	.word	0x20000df0
    c0ec:	0000c471 	.word	0x0000c471
    c0f0:	20000df8 	.word	0x20000df8

0000c0f4 <audio_midi_ctrl>:
    c0f4:	e92d 4ff0 	stmdb	sp!, {r4, r5, r6, r7, r8, r9, sl, fp, lr}
    c0f8:	2901      	cmp	r1, #1
    c0fa:	b085      	sub	sp, #20
    c0fc:	4614      	mov	r4, r2
    c0fe:	f000 808d 	beq.w	c21c <audio_midi_ctrl+0x128>
    c102:	d308      	bcc.n	c116 <audio_midi_ctrl+0x22>
    c104:	2902      	cmp	r1, #2
    c106:	bf0c      	ite	eq
    c108:	f06f 001a 	mvneq.w	r0, #26
    c10c:	f06f 000c 	mvnne.w	r0, #12
    c110:	b005      	add	sp, #20
    c112:	e8bd 8ff0 	ldmia.w	sp!, {r4, r5, r6, r7, r8, r9, sl, fp, pc}
    c116:	6885      	ldr	r5, [r0, #8]
    c118:	4f56      	ldr	r7, [pc, #344]	; (c274 <audio_midi_ctrl+0x180>)
    c11a:	6810      	ldr	r0, [r2, #0]
    c11c:	f105 0804 	add.w	r8, r5, #4
    c120:	1dab      	adds	r3, r5, #6
    c122:	9301      	str	r3, [sp, #4]
    c124:	4646      	mov	r6, r8
    c126:	b910      	cbnz	r0, c12e <audio_midi_ctrl+0x3a>
    c128:	f06f 0009 	mvn.w	r0, #9
    c12c:	e7f0      	b.n	c110 <audio_midi_ctrl+0x1c>
    c12e:	7943      	ldrb	r3, [r0, #5]
    c130:	7882      	ldrb	r2, [r0, #2]
    c132:	f003 03fd 	and.w	r3, r3, #253	; 0xfd
    c136:	2b01      	cmp	r3, #1
    c138:	d1f6      	bne.n	c128 <audio_midi_ctrl+0x34>
    c13a:	7833      	ldrb	r3, [r6, #0]
    c13c:	429a      	cmp	r2, r3
    c13e:	f000 8092 	beq.w	c266 <audio_midi_ctrl+0x172>
    c142:	2bff      	cmp	r3, #255	; 0xff
    c144:	f040 8092 	bne.w	c26c <audio_midi_ctrl+0x178>
    c148:	eba6 0308 	sub.w	r3, r6, r8
    c14c:	b2db      	uxtb	r3, r3
    c14e:	2b01      	cmp	r3, #1
    c150:	7032      	strb	r2, [r6, #0]
    c152:	d00f      	beq.n	c174 <audio_midi_ctrl+0x80>
    c154:	6823      	ldr	r3, [r4, #0]
    c156:	6861      	ldr	r1, [r4, #4]
    c158:	7818      	ldrb	r0, [r3, #0]
    c15a:	2204      	movs	r2, #4
    c15c:	4418      	add	r0, r3
    c15e:	4b46      	ldr	r3, [pc, #280]	; (c278 <audio_midi_ctrl+0x184>)
    c160:	4798      	blx	r3
    c162:	9b01      	ldr	r3, [sp, #4]
    c164:	3601      	adds	r6, #1
    c166:	42b3      	cmp	r3, r6
    c168:	d1dd      	bne.n	c126 <audio_midi_ctrl+0x32>
    c16a:	4b44      	ldr	r3, [pc, #272]	; (c27c <audio_midi_ctrl+0x188>)
    c16c:	2201      	movs	r2, #1
    c16e:	735a      	strb	r2, [r3, #13]
    c170:	2000      	movs	r0, #0
    c172:	e7cd      	b.n	c110 <audio_midi_ctrl+0x1c>
    c174:	2205      	movs	r2, #5
    c176:	6861      	ldr	r1, [r4, #4]
    c178:	4b3f      	ldr	r3, [pc, #252]	; (c278 <audio_midi_ctrl+0x184>)
    c17a:	f8df a118 	ldr.w	sl, [pc, #280]	; c294 <audio_midi_ctrl+0x1a0>
    c17e:	4798      	blx	r3
    c180:	4681      	mov	r9, r0
    c182:	f1b9 0f00 	cmp.w	r9, #0
    c186:	d0e5      	beq.n	c154 <audio_midi_ctrl+0x60>
    c188:	f899 2002 	ldrb.w	r2, [r9, #2]
    c18c:	f88d 200a 	strb.w	r2, [sp, #10]
    c190:	f899 2003 	ldrb.w	r2, [r9, #3]
    c194:	f88d 200b 	strb.w	r2, [sp, #11]
    c198:	f899 1005 	ldrb.w	r1, [r9, #5]
    c19c:	f899 2004 	ldrb.w	r2, [r9, #4]
    c1a0:	4b37      	ldr	r3, [pc, #220]	; (c280 <audio_midi_ctrl+0x18c>)
    c1a2:	eb02 2201 	add.w	r2, r2, r1, lsl #8
    c1a6:	b292      	uxth	r2, r2
    c1a8:	f8ad 200c 	strh.w	r2, [sp, #12]
    c1ac:	f8bd 200c 	ldrh.w	r2, [sp, #12]
    c1b0:	b2d2      	uxtb	r2, r2
    c1b2:	713a      	strb	r2, [r7, #4]
    c1b4:	2201      	movs	r2, #1
    c1b6:	703a      	strb	r2, [r7, #0]
    c1b8:	f89d 000a 	ldrb.w	r0, [sp, #10]
    c1bc:	f89d 100b 	ldrb.w	r1, [sp, #11]
    c1c0:	f8bd 200c 	ldrh.w	r2, [sp, #12]
    c1c4:	b292      	uxth	r2, r2
    c1c6:	4798      	blx	r3
    c1c8:	b2c0      	uxtb	r0, r0
    c1ca:	7178      	strb	r0, [r7, #5]
    c1cc:	b130      	cbz	r0, c1dc <audio_midi_ctrl+0xe8>
    c1ce:	797b      	ldrb	r3, [r7, #5]
    c1d0:	425b      	negs	r3, r3
    c1d2:	b2db      	uxtb	r3, r3
    c1d4:	71bb      	strb	r3, [r7, #6]
    c1d6:	f06f 0013 	mvn.w	r0, #19
    c1da:	e799      	b.n	c110 <audio_midi_ctrl+0x1c>
    c1dc:	f89d 200a 	ldrb.w	r2, [sp, #10]
    c1e0:	f89d 000a 	ldrb.w	r0, [sp, #10]
    c1e4:	f8df b0b0 	ldr.w	fp, [pc, #176]	; c298 <audio_midi_ctrl+0x1a4>
    c1e8:	f012 0f80 	tst.w	r2, #128	; 0x80
    c1ec:	b2c0      	uxtb	r0, r0
    c1ee:	d00f      	beq.n	c210 <audio_midi_ctrl+0x11c>
    c1f0:	71a8      	strb	r0, [r5, #6]
    c1f2:	47d0      	blx	sl
    c1f4:	4a23      	ldr	r2, [pc, #140]	; (c284 <audio_midi_ctrl+0x190>)
    c1f6:	79a8      	ldrb	r0, [r5, #6]
    c1f8:	2102      	movs	r1, #2
    c1fa:	47d8      	blx	fp
    c1fc:	f8c4 9000 	str.w	r9, [r4]
    c200:	f899 0000 	ldrb.w	r0, [r9]
    c204:	6861      	ldr	r1, [r4, #4]
    c206:	4b20      	ldr	r3, [pc, #128]	; (c288 <audio_midi_ctrl+0x194>)
    c208:	4448      	add	r0, r9
    c20a:	4798      	blx	r3
    c20c:	4681      	mov	r9, r0
    c20e:	e7b8      	b.n	c182 <audio_midi_ctrl+0x8e>
    c210:	71e8      	strb	r0, [r5, #7]
    c212:	47d0      	blx	sl
    c214:	4a1d      	ldr	r2, [pc, #116]	; (c28c <audio_midi_ctrl+0x198>)
    c216:	79e8      	ldrb	r0, [r5, #7]
    c218:	2102      	movs	r1, #2
    c21a:	e7ee      	b.n	c1fa <audio_midi_ctrl+0x106>
    c21c:	6885      	ldr	r5, [r0, #8]
    c21e:	b132      	cbz	r2, c22e <audio_midi_ctrl+0x13a>
    c220:	6813      	ldr	r3, [r2, #0]
    c222:	795b      	ldrb	r3, [r3, #5]
    c224:	f003 03fd 	and.w	r3, r3, #253	; 0xfd
    c228:	2b01      	cmp	r3, #1
    c22a:	f47f af7d 	bne.w	c128 <audio_midi_ctrl+0x34>
    c22e:	792b      	ldrb	r3, [r5, #4]
    c230:	79a8      	ldrb	r0, [r5, #6]
    c232:	2bff      	cmp	r3, #255	; 0xff
    c234:	bf1c      	itt	ne
    c236:	23ff      	movne	r3, #255	; 0xff
    c238:	712b      	strbne	r3, [r5, #4]
    c23a:	796b      	ldrb	r3, [r5, #5]
    c23c:	2bff      	cmp	r3, #255	; 0xff
    c23e:	bf1c      	itt	ne
    c240:	23ff      	movne	r3, #255	; 0xff
    c242:	716b      	strbne	r3, [r5, #5]
    c244:	28ff      	cmp	r0, #255	; 0xff
    c246:	d003      	beq.n	c250 <audio_midi_ctrl+0x15c>
    c248:	4b11      	ldr	r3, [pc, #68]	; (c290 <audio_midi_ctrl+0x19c>)
    c24a:	4798      	blx	r3
    c24c:	23ff      	movs	r3, #255	; 0xff
    c24e:	71ab      	strb	r3, [r5, #6]
    c250:	79e8      	ldrb	r0, [r5, #7]
    c252:	28ff      	cmp	r0, #255	; 0xff
    c254:	d003      	beq.n	c25e <audio_midi_ctrl+0x16a>
    c256:	4b0e      	ldr	r3, [pc, #56]	; (c290 <audio_midi_ctrl+0x19c>)
    c258:	4798      	blx	r3
    c25a:	23ff      	movs	r3, #255	; 0xff
    c25c:	71eb      	strb	r3, [r5, #7]
    c25e:	4b07      	ldr	r3, [pc, #28]	; (c27c <audio_midi_ctrl+0x188>)
    c260:	2000      	movs	r0, #0
    c262:	7358      	strb	r0, [r3, #13]
    c264:	e754      	b.n	c110 <audio_midi_ctrl+0x1c>
    c266:	f06f 0011 	mvn.w	r0, #17
    c26a:	e751      	b.n	c110 <audio_midi_ctrl+0x1c>
    c26c:	f06f 001b 	mvn.w	r0, #27
    c270:	e74e      	b.n	c110 <audio_midi_ctrl+0x1c>
    c272:	bf00      	nop
    c274:	20003e50 	.word	0x20003e50
    c278:	0000c895 	.word	0x0000c895
    c27c:	20000df0 	.word	0x20000df0
    c280:	00008301 	.word	0x00008301
    c284:	0000c079 	.word	0x0000c079
    c288:	0000c8af 	.word	0x0000c8af
    c28c:	0000c07b 	.word	0x0000c07b
    c290:	00008361 	.word	0x00008361
    c294:	0000838d 	.word	0x0000838d
    c298:	00008529 	.word	0x00008529

0000c29c <audiodf_midi_init>:
    c29c:	b508      	push	{r3, lr}
    c29e:	4b0a      	ldr	r3, [pc, #40]	; (c2c8 <audiodf_midi_init+0x2c>)
    c2a0:	4798      	blx	r3
    c2a2:	2801      	cmp	r0, #1
    c2a4:	d80c      	bhi.n	c2c0 <audiodf_midi_init+0x24>
    c2a6:	4809      	ldr	r0, [pc, #36]	; (c2cc <audiodf_midi_init+0x30>)
    c2a8:	4b09      	ldr	r3, [pc, #36]	; (c2d0 <audiodf_midi_init+0x34>)
    c2aa:	6143      	str	r3, [r0, #20]
    c2ac:	6180      	str	r0, [r0, #24]
    c2ae:	4b09      	ldr	r3, [pc, #36]	; (c2d4 <audiodf_midi_init+0x38>)
    c2b0:	3010      	adds	r0, #16
    c2b2:	4798      	blx	r3
    c2b4:	4908      	ldr	r1, [pc, #32]	; (c2d8 <audiodf_midi_init+0x3c>)
    c2b6:	4b09      	ldr	r3, [pc, #36]	; (c2dc <audiodf_midi_init+0x40>)
    c2b8:	2001      	movs	r0, #1
    c2ba:	4798      	blx	r3
    c2bc:	2000      	movs	r0, #0
    c2be:	bd08      	pop	{r3, pc}
    c2c0:	f06f 0010 	mvn.w	r0, #16
    c2c4:	bd08      	pop	{r3, pc}
    c2c6:	bf00      	nop
    c2c8:	0000c881 	.word	0x0000c881
    c2cc:	20000df0 	.word	0x20000df0
    c2d0:	0000c0f5 	.word	0x0000c0f5
    c2d4:	0000c829 	.word	0x0000c829
    c2d8:	200003ac 	.word	0x200003ac
    c2dc:	0000c7b9 	.word	0x0000c7b9

0000c2e0 <audiodf_midi_xfer_packet>:
    c2e0:	b410      	push	{r4}
    c2e2:	4c07      	ldr	r4, [pc, #28]	; (c300 <audiodf_midi_xfer_packet+0x20>)
    c2e4:	7260      	strb	r0, [r4, #9]
    c2e6:	72a1      	strb	r1, [r4, #10]
    c2e8:	72e2      	strb	r2, [r4, #11]
    c2ea:	7323      	strb	r3, [r4, #12]
    c2ec:	f104 0109 	add.w	r1, r4, #9
    c2f0:	79a0      	ldrb	r0, [r4, #6]
    c2f2:	4c04      	ldr	r4, [pc, #16]	; (c304 <audiodf_midi_xfer_packet+0x24>)
    c2f4:	2300      	movs	r3, #0
    c2f6:	46a4      	mov	ip, r4
    c2f8:	2204      	movs	r2, #4
    c2fa:	f85d 4b04 	ldr.w	r4, [sp], #4
    c2fe:	4760      	bx	ip
    c300:	20000df0 	.word	0x20000df0
    c304:	0000c471 	.word	0x0000c471

0000c308 <usbdc_unconfig>:
    c308:	4b05      	ldr	r3, [pc, #20]	; (c320 <usbdc_unconfig+0x18>)
    c30a:	b510      	push	{r4, lr}
    c30c:	691c      	ldr	r4, [r3, #16]
    c30e:	b904      	cbnz	r4, c312 <usbdc_unconfig+0xa>
    c310:	bd10      	pop	{r4, pc}
    c312:	6863      	ldr	r3, [r4, #4]
    c314:	4620      	mov	r0, r4
    c316:	2200      	movs	r2, #0
    c318:	2101      	movs	r1, #1
    c31a:	4798      	blx	r3
    c31c:	6824      	ldr	r4, [r4, #0]
    c31e:	e7f6      	b.n	c30e <usbdc_unconfig+0x6>
    c320:	20000e0c 	.word	0x20000e0c

0000c324 <usbdc_change_notify>:
    c324:	4b06      	ldr	r3, [pc, #24]	; (c340 <usbdc_change_notify+0x1c>)
    c326:	b570      	push	{r4, r5, r6, lr}
    c328:	68dc      	ldr	r4, [r3, #12]
    c32a:	4605      	mov	r5, r0
    c32c:	460e      	mov	r6, r1
    c32e:	b904      	cbnz	r4, c332 <usbdc_change_notify+0xe>
    c330:	bd70      	pop	{r4, r5, r6, pc}
    c332:	6863      	ldr	r3, [r4, #4]
    c334:	b113      	cbz	r3, c33c <usbdc_change_notify+0x18>
    c336:	4631      	mov	r1, r6
    c338:	4628      	mov	r0, r5
    c33a:	4798      	blx	r3
    c33c:	6824      	ldr	r4, [r4, #0]
    c33e:	e7f6      	b.n	c32e <usbdc_change_notify+0xa>
    c340:	20000e0c 	.word	0x20000e0c

0000c344 <usbdc_request_handler>:
    c344:	b5f8      	push	{r3, r4, r5, r6, r7, lr}
    c346:	4b0c      	ldr	r3, [pc, #48]	; (c378 <usbdc_request_handler+0x34>)
    c348:	689c      	ldr	r4, [r3, #8]
    c34a:	4605      	mov	r5, r0
    c34c:	460e      	mov	r6, r1
    c34e:	4617      	mov	r7, r2
    c350:	b90c      	cbnz	r4, c356 <usbdc_request_handler+0x12>
    c352:	4620      	mov	r0, r4
    c354:	bdf8      	pop	{r3, r4, r5, r6, r7, pc}
    c356:	6863      	ldr	r3, [r4, #4]
    c358:	b90b      	cbnz	r3, c35e <usbdc_request_handler+0x1a>
    c35a:	6824      	ldr	r4, [r4, #0]
    c35c:	e7f8      	b.n	c350 <usbdc_request_handler+0xc>
    c35e:	463a      	mov	r2, r7
    c360:	4631      	mov	r1, r6
    c362:	4628      	mov	r0, r5
    c364:	4798      	blx	r3
    c366:	b120      	cbz	r0, c372 <usbdc_request_handler+0x2e>
    c368:	300a      	adds	r0, #10
    c36a:	d0f6      	beq.n	c35a <usbdc_request_handler+0x16>
    c36c:	f04f 30ff 	mov.w	r0, #4294967295
    c370:	bdf8      	pop	{r3, r4, r5, r6, r7, pc}
    c372:	2001      	movs	r0, #1
    c374:	bdf8      	pop	{r3, r4, r5, r6, r7, pc}
    c376:	bf00      	nop
    c378:	20000e0c 	.word	0x20000e0c

0000c37c <usbd_sof_cb>:
    c37c:	4b04      	ldr	r3, [pc, #16]	; (c390 <usbd_sof_cb+0x14>)
    c37e:	b510      	push	{r4, lr}
    c380:	685c      	ldr	r4, [r3, #4]
    c382:	b904      	cbnz	r4, c386 <usbd_sof_cb+0xa>
    c384:	bd10      	pop	{r4, pc}
    c386:	6863      	ldr	r3, [r4, #4]
    c388:	b103      	cbz	r3, c38c <usbd_sof_cb+0x10>
    c38a:	4798      	blx	r3
    c38c:	6824      	ldr	r4, [r4, #0]
    c38e:	e7f8      	b.n	c382 <usbd_sof_cb+0x6>
    c390:	20000e0c 	.word	0x20000e0c

0000c394 <usbdc_cb_ctl_done>:
    c394:	b510      	push	{r4, lr}
    c396:	4614      	mov	r4, r2
    c398:	460a      	mov	r2, r1
    c39a:	b119      	cbz	r1, c3a4 <usbdc_cb_ctl_done+0x10>
    c39c:	2901      	cmp	r1, #1
    c39e:	d020      	beq.n	c3e2 <usbdc_cb_ctl_done+0x4e>
    c3a0:	2000      	movs	r0, #0
    c3a2:	bd10      	pop	{r4, pc}
    c3a4:	7823      	ldrb	r3, [r4, #0]
    c3a6:	2b00      	cmp	r3, #0
    c3a8:	d1fa      	bne.n	c3a0 <usbdc_cb_ctl_done+0xc>
    c3aa:	7863      	ldrb	r3, [r4, #1]
    c3ac:	2b05      	cmp	r3, #5
    c3ae:	d00d      	beq.n	c3cc <usbdc_cb_ctl_done+0x38>
    c3b0:	2b09      	cmp	r3, #9
    c3b2:	d1f5      	bne.n	c3a0 <usbdc_cb_ctl_done+0xc>
    c3b4:	8862      	ldrh	r2, [r4, #2]
    c3b6:	4b0d      	ldr	r3, [pc, #52]	; (c3ec <usbdc_cb_ctl_done+0x58>)
    c3b8:	2a00      	cmp	r2, #0
    c3ba:	76da      	strb	r2, [r3, #27]
    c3bc:	bf14      	ite	ne
    c3be:	2104      	movne	r1, #4
    c3c0:	2103      	moveq	r1, #3
    c3c2:	7699      	strb	r1, [r3, #26]
    c3c4:	2001      	movs	r0, #1
    c3c6:	4b0a      	ldr	r3, [pc, #40]	; (c3f0 <usbdc_cb_ctl_done+0x5c>)
    c3c8:	4798      	blx	r3
    c3ca:	e7e9      	b.n	c3a0 <usbdc_cb_ctl_done+0xc>
    c3cc:	8860      	ldrh	r0, [r4, #2]
    c3ce:	4b09      	ldr	r3, [pc, #36]	; (c3f4 <usbdc_cb_ctl_done+0x60>)
    c3d0:	b2c0      	uxtb	r0, r0
    c3d2:	4798      	blx	r3
    c3d4:	8863      	ldrh	r3, [r4, #2]
    c3d6:	2b00      	cmp	r3, #0
    c3d8:	bf14      	ite	ne
    c3da:	2103      	movne	r1, #3
    c3dc:	2102      	moveq	r1, #2
    c3de:	4b03      	ldr	r3, [pc, #12]	; (c3ec <usbdc_cb_ctl_done+0x58>)
    c3e0:	e7ef      	b.n	c3c2 <usbdc_cb_ctl_done+0x2e>
    c3e2:	4621      	mov	r1, r4
    c3e4:	4b04      	ldr	r3, [pc, #16]	; (c3f8 <usbdc_cb_ctl_done+0x64>)
    c3e6:	2000      	movs	r0, #0
    c3e8:	4798      	blx	r3
    c3ea:	e7d9      	b.n	c3a0 <usbdc_cb_ctl_done+0xc>
    c3ec:	20000e0c 	.word	0x20000e0c
    c3f0:	0000c325 	.word	0x0000c325
    c3f4:	000082f9 	.word	0x000082f9
    c3f8:	0000c345 	.word	0x0000c345

0000c3fc <usbdc_reset>:
    c3fc:	b570      	push	{r4, r5, r6, lr}
    c3fe:	4b0e      	ldr	r3, [pc, #56]	; (c438 <usbdc_reset+0x3c>)
    c400:	4d0e      	ldr	r5, [pc, #56]	; (c43c <usbdc_reset+0x40>)
    c402:	2400      	movs	r4, #0
    c404:	4798      	blx	r3
    c406:	2602      	movs	r6, #2
    c408:	4620      	mov	r0, r4
    c40a:	4b0d      	ldr	r3, [pc, #52]	; (c440 <usbdc_reset+0x44>)
    c40c:	76ae      	strb	r6, [r5, #26]
    c40e:	76ec      	strb	r4, [r5, #27]
    c410:	776c      	strb	r4, [r5, #29]
    c412:	4798      	blx	r3
    c414:	4b0b      	ldr	r3, [pc, #44]	; (c444 <usbdc_reset+0x48>)
    c416:	7f28      	ldrb	r0, [r5, #28]
    c418:	4d0b      	ldr	r5, [pc, #44]	; (c448 <usbdc_reset+0x4c>)
    c41a:	4798      	blx	r3
    c41c:	4621      	mov	r1, r4
    c41e:	4620      	mov	r0, r4
    c420:	4a0a      	ldr	r2, [pc, #40]	; (c44c <usbdc_reset+0x50>)
    c422:	47a8      	blx	r5
    c424:	4620      	mov	r0, r4
    c426:	4631      	mov	r1, r6
    c428:	4a09      	ldr	r2, [pc, #36]	; (c450 <usbdc_reset+0x54>)
    c42a:	47a8      	blx	r5
    c42c:	4620      	mov	r0, r4
    c42e:	4b09      	ldr	r3, [pc, #36]	; (c454 <usbdc_reset+0x58>)
    c430:	e8bd 4070 	ldmia.w	sp!, {r4, r5, r6, lr}
    c434:	4718      	bx	r3
    c436:	bf00      	nop
    c438:	0000c309 	.word	0x0000c309
    c43c:	20000e0c 	.word	0x20000e0c
    c440:	00008361 	.word	0x00008361
    c444:	00008351 	.word	0x00008351
    c448:	00008529 	.word	0x00008529
    c44c:	0000c491 	.word	0x0000c491
    c450:	0000c395 	.word	0x0000c395
    c454:	0000838d 	.word	0x0000838d

0000c458 <usbd_event_cb>:
    c458:	b110      	cbz	r0, c460 <usbd_event_cb+0x8>
    c45a:	2801      	cmp	r0, #1
    c45c:	d002      	beq.n	c464 <usbd_event_cb+0xc>
    c45e:	4770      	bx	lr
    c460:	4b01      	ldr	r3, [pc, #4]	; (c468 <usbd_event_cb+0x10>)
    c462:	4718      	bx	r3
    c464:	4b01      	ldr	r3, [pc, #4]	; (c46c <usbd_event_cb+0x14>)
    c466:	4718      	bx	r3
    c468:	0000c325 	.word	0x0000c325
    c46c:	0000c3fd 	.word	0x0000c3fd

0000c470 <usbdc_xfer>:
    c470:	b51f      	push	{r0, r1, r2, r3, r4, lr}
    c472:	f88d 000c 	strb.w	r0, [sp, #12]
    c476:	f88d 300d 	strb.w	r3, [sp, #13]
    c47a:	a801      	add	r0, sp, #4
    c47c:	4b03      	ldr	r3, [pc, #12]	; (c48c <usbdc_xfer+0x1c>)
    c47e:	9101      	str	r1, [sp, #4]
    c480:	9202      	str	r2, [sp, #8]
    c482:	4798      	blx	r3
    c484:	b005      	add	sp, #20
    c486:	f85d fb04 	ldr.w	pc, [sp], #4
    c48a:	bf00      	nop
    c48c:	000083cd 	.word	0x000083cd

0000c490 <usbdc_cb_ctl_req>:
    c490:	e92d 43f7 	stmdb	sp!, {r0, r1, r2, r4, r5, r6, r7, r8, r9, lr}
    c494:	4baa      	ldr	r3, [pc, #680]	; (c740 <usbdc_cb_ctl_req+0x2b0>)
    c496:	2200      	movs	r2, #0
    c498:	4605      	mov	r5, r0
    c49a:	460c      	mov	r4, r1
    c49c:	4798      	blx	r3
    c49e:	1c43      	adds	r3, r0, #1
    c4a0:	d008      	beq.n	c4b4 <usbdc_cb_ctl_req+0x24>
    c4a2:	2801      	cmp	r0, #1
    c4a4:	d075      	beq.n	c592 <usbdc_cb_ctl_req+0x102>
    c4a6:	7821      	ldrb	r1, [r4, #0]
    c4a8:	f011 03e0 	ands.w	r3, r1, #224	; 0xe0
    c4ac:	d004      	beq.n	c4b8 <usbdc_cb_ctl_req+0x28>
    c4ae:	2b80      	cmp	r3, #128	; 0x80
    c4b0:	f000 80c4 	beq.w	c63c <usbdc_cb_ctl_req+0x1ac>
    c4b4:	2000      	movs	r0, #0
    c4b6:	e06c      	b.n	c592 <usbdc_cb_ctl_req+0x102>
    c4b8:	7863      	ldrb	r3, [r4, #1]
    c4ba:	3b01      	subs	r3, #1
    c4bc:	2b0a      	cmp	r3, #10
    c4be:	d8f9      	bhi.n	c4b4 <usbdc_cb_ctl_req+0x24>
    c4c0:	a201      	add	r2, pc, #4	; (adr r2, c4c8 <usbdc_cb_ctl_req+0x38>)
    c4c2:	f852 f023 	ldr.w	pc, [r2, r3, lsl #2]
    c4c6:	bf00      	nop
    c4c8:	0000c571 	.word	0x0000c571
    c4cc:	0000c4b5 	.word	0x0000c4b5
    c4d0:	0000c599 	.word	0x0000c599
    c4d4:	0000c4b5 	.word	0x0000c4b5
    c4d8:	0000c4ff 	.word	0x0000c4ff
    c4dc:	0000c4b5 	.word	0x0000c4b5
    c4e0:	0000c4b5 	.word	0x0000c4b5
    c4e4:	0000c4b5 	.word	0x0000c4b5
    c4e8:	0000c4f5 	.word	0x0000c4f5
    c4ec:	0000c4b5 	.word	0x0000c4b5
    c4f0:	0000c5a9 	.word	0x0000c5a9
    c4f4:	8862      	ldrh	r2, [r4, #2]
    c4f6:	b2d2      	uxtb	r2, r2
    c4f8:	b92a      	cbnz	r2, c506 <usbdc_cb_ctl_req+0x76>
    c4fa:	4b92      	ldr	r3, [pc, #584]	; (c744 <usbdc_cb_ctl_req+0x2b4>)
    c4fc:	4798      	blx	r3
    c4fe:	2200      	movs	r2, #0
    c500:	2301      	movs	r3, #1
    c502:	4611      	mov	r1, r2
    c504:	e0ec      	b.n	c6e0 <usbdc_cb_ctl_req+0x250>
    c506:	4c90      	ldr	r4, [pc, #576]	; (c748 <usbdc_cb_ctl_req+0x2b8>)
    c508:	6823      	ldr	r3, [r4, #0]
    c50a:	e893 0003 	ldmia.w	r3, {r0, r1}
    c50e:	4b8f      	ldr	r3, [pc, #572]	; (c74c <usbdc_cb_ctl_req+0x2bc>)
    c510:	4798      	blx	r3
    c512:	2800      	cmp	r0, #0
    c514:	d0ce      	beq.n	c4b4 <usbdc_cb_ctl_req+0x24>
    c516:	78c2      	ldrb	r2, [r0, #3]
    c518:	7883      	ldrb	r3, [r0, #2]
    c51a:	4f8d      	ldr	r7, [pc, #564]	; (c750 <usbdc_cb_ctl_req+0x2c0>)
    c51c:	eb03 2302 	add.w	r3, r3, r2, lsl #8
    c520:	fa10 f183 	uxtah	r1, r0, r3
    c524:	2204      	movs	r2, #4
    c526:	9101      	str	r1, [sp, #4]
    c528:	47b8      	blx	r7
    c52a:	f10d 0808 	add.w	r8, sp, #8
    c52e:	23ff      	movs	r3, #255	; 0xff
    c530:	f848 0d08 	str.w	r0, [r8, #-8]!
    c534:	9a00      	ldr	r2, [sp, #0]
    c536:	2a00      	cmp	r2, #0
    c538:	d0e1      	beq.n	c4fe <usbdc_cb_ctl_req+0x6e>
    c53a:	f892 9002 	ldrb.w	r9, [r2, #2]
    c53e:	4599      	cmp	r9, r3
    c540:	d014      	beq.n	c56c <usbdc_cb_ctl_req+0xdc>
    c542:	6926      	ldr	r6, [r4, #16]
    c544:	b94e      	cbnz	r6, c55a <usbdc_cb_ctl_req+0xca>
    c546:	9800      	ldr	r0, [sp, #0]
    c548:	9901      	ldr	r1, [sp, #4]
    c54a:	7803      	ldrb	r3, [r0, #0]
    c54c:	2204      	movs	r2, #4
    c54e:	4418      	add	r0, r3
    c550:	9000      	str	r0, [sp, #0]
    c552:	47b8      	blx	r7
    c554:	464b      	mov	r3, r9
    c556:	9000      	str	r0, [sp, #0]
    c558:	e7ec      	b.n	c534 <usbdc_cb_ctl_req+0xa4>
    c55a:	6873      	ldr	r3, [r6, #4]
    c55c:	4642      	mov	r2, r8
    c55e:	2100      	movs	r1, #0
    c560:	4630      	mov	r0, r6
    c562:	4798      	blx	r3
    c564:	2800      	cmp	r0, #0
    c566:	d0ee      	beq.n	c546 <usbdc_cb_ctl_req+0xb6>
    c568:	6836      	ldr	r6, [r6, #0]
    c56a:	e7eb      	b.n	c544 <usbdc_cb_ctl_req+0xb4>
    c56c:	4699      	mov	r9, r3
    c56e:	e7ea      	b.n	c546 <usbdc_cb_ctl_req+0xb6>
    c570:	2902      	cmp	r1, #2
    c572:	d19f      	bne.n	c4b4 <usbdc_cb_ctl_req+0x24>
    c574:	88e6      	ldrh	r6, [r4, #6]
    c576:	2e00      	cmp	r6, #0
    c578:	d19c      	bne.n	c4b4 <usbdc_cb_ctl_req+0x24>
    c57a:	88a0      	ldrh	r0, [r4, #4]
    c57c:	4631      	mov	r1, r6
    c57e:	4b75      	ldr	r3, [pc, #468]	; (c754 <usbdc_cb_ctl_req+0x2c4>)
    c580:	b2c0      	uxtb	r0, r0
    c582:	4798      	blx	r3
    c584:	2301      	movs	r3, #1
    c586:	4632      	mov	r2, r6
    c588:	4631      	mov	r1, r6
    c58a:	4628      	mov	r0, r5
    c58c:	4c72      	ldr	r4, [pc, #456]	; (c758 <usbdc_cb_ctl_req+0x2c8>)
    c58e:	47a0      	blx	r4
    c590:	2001      	movs	r0, #1
    c592:	b003      	add	sp, #12
    c594:	e8bd 83f0 	ldmia.w	sp!, {r4, r5, r6, r7, r8, r9, pc}
    c598:	2902      	cmp	r1, #2
    c59a:	d18b      	bne.n	c4b4 <usbdc_cb_ctl_req+0x24>
    c59c:	88e6      	ldrh	r6, [r4, #6]
    c59e:	2e00      	cmp	r6, #0
    c5a0:	d188      	bne.n	c4b4 <usbdc_cb_ctl_req+0x24>
    c5a2:	88a0      	ldrh	r0, [r4, #4]
    c5a4:	2101      	movs	r1, #1
    c5a6:	e7ea      	b.n	c57e <usbdc_cb_ctl_req+0xee>
    c5a8:	4d67      	ldr	r5, [pc, #412]	; (c748 <usbdc_cb_ctl_req+0x2b8>)
    c5aa:	8866      	ldrh	r6, [r4, #2]
    c5ac:	682b      	ldr	r3, [r5, #0]
    c5ae:	7eea      	ldrb	r2, [r5, #27]
    c5b0:	88a7      	ldrh	r7, [r4, #4]
    c5b2:	e893 0003 	ldmia.w	r3, {r0, r1}
    c5b6:	4b65      	ldr	r3, [pc, #404]	; (c74c <usbdc_cb_ctl_req+0x2bc>)
    c5b8:	4798      	blx	r3
    c5ba:	2800      	cmp	r0, #0
    c5bc:	f43f af7a 	beq.w	c4b4 <usbdc_cb_ctl_req+0x24>
    c5c0:	9000      	str	r0, [sp, #0]
    c5c2:	78c2      	ldrb	r2, [r0, #3]
    c5c4:	7881      	ldrb	r1, [r0, #2]
    c5c6:	4c62      	ldr	r4, [pc, #392]	; (c750 <usbdc_cb_ctl_req+0x2c0>)
    c5c8:	eb01 2102 	add.w	r1, r1, r2, lsl #8
    c5cc:	fa10 f181 	uxtah	r1, r0, r1
    c5d0:	9101      	str	r1, [sp, #4]
    c5d2:	2204      	movs	r2, #4
    c5d4:	47a0      	blx	r4
    c5d6:	2800      	cmp	r0, #0
    c5d8:	f43f af6c 	beq.w	c4b4 <usbdc_cb_ctl_req+0x24>
    c5dc:	7883      	ldrb	r3, [r0, #2]
    c5de:	42bb      	cmp	r3, r7
    c5e0:	d113      	bne.n	c60a <usbdc_cb_ctl_req+0x17a>
    c5e2:	78c3      	ldrb	r3, [r0, #3]
    c5e4:	42b3      	cmp	r3, r6
    c5e6:	d110      	bne.n	c60a <usbdc_cb_ctl_req+0x17a>
    c5e8:	f10d 0808 	add.w	r8, sp, #8
    c5ec:	692c      	ldr	r4, [r5, #16]
    c5ee:	f848 0d08 	str.w	r0, [r8, #-8]!
    c5f2:	2c00      	cmp	r4, #0
    c5f4:	f43f af5e 	beq.w	c4b4 <usbdc_cb_ctl_req+0x24>
    c5f8:	2101      	movs	r1, #1
    c5fa:	6863      	ldr	r3, [r4, #4]
    c5fc:	4642      	mov	r2, r8
    c5fe:	4620      	mov	r0, r4
    c600:	4798      	blx	r3
    c602:	4601      	mov	r1, r0
    c604:	b140      	cbz	r0, c618 <usbdc_cb_ctl_req+0x188>
    c606:	6824      	ldr	r4, [r4, #0]
    c608:	e7f3      	b.n	c5f2 <usbdc_cb_ctl_req+0x162>
    c60a:	9800      	ldr	r0, [sp, #0]
    c60c:	9901      	ldr	r1, [sp, #4]
    c60e:	7803      	ldrb	r3, [r0, #0]
    c610:	4418      	add	r0, r3
    c612:	9000      	str	r0, [sp, #0]
    c614:	2204      	movs	r2, #4
    c616:	e7dd      	b.n	c5d4 <usbdc_cb_ctl_req+0x144>
    c618:	6863      	ldr	r3, [r4, #4]
    c61a:	4642      	mov	r2, r8
    c61c:	4620      	mov	r0, r4
    c61e:	4798      	blx	r3
    c620:	2800      	cmp	r0, #0
    c622:	f47f af47 	bne.w	c4b4 <usbdc_cb_ctl_req+0x24>
    c626:	b126      	cbz	r6, c632 <usbdc_cb_ctl_req+0x1a2>
    c628:	2301      	movs	r3, #1
    c62a:	40bb      	lsls	r3, r7
    c62c:	7f6f      	ldrb	r7, [r5, #29]
    c62e:	431f      	orrs	r7, r3
    c630:	776f      	strb	r7, [r5, #29]
    c632:	2300      	movs	r3, #0
    c634:	461a      	mov	r2, r3
    c636:	4619      	mov	r1, r3
    c638:	4618      	mov	r0, r3
    c63a:	e7a7      	b.n	c58c <usbdc_cb_ctl_req+0xfc>
    c63c:	7863      	ldrb	r3, [r4, #1]
    c63e:	2b0a      	cmp	r3, #10
    c640:	f63f af38 	bhi.w	c4b4 <usbdc_cb_ctl_req+0x24>
    c644:	a201      	add	r2, pc, #4	; (adr r2, c64c <usbdc_cb_ctl_req+0x1bc>)
    c646:	f852 f023 	ldr.w	pc, [r2, r3, lsl #2]
    c64a:	bf00      	nop
    c64c:	0000c71b 	.word	0x0000c71b
    c650:	0000c4b5 	.word	0x0000c4b5
    c654:	0000c4b5 	.word	0x0000c4b5
    c658:	0000c4b5 	.word	0x0000c4b5
    c65c:	0000c4b5 	.word	0x0000c4b5
    c660:	0000c4b5 	.word	0x0000c4b5
    c664:	0000c679 	.word	0x0000c679
    c668:	0000c4b5 	.word	0x0000c4b5
    c66c:	0000c70b 	.word	0x0000c70b
    c670:	0000c4b5 	.word	0x0000c4b5
    c674:	0000c775 	.word	0x0000c775
    c678:	8863      	ldrh	r3, [r4, #2]
    c67a:	0a1a      	lsrs	r2, r3, #8
    c67c:	2a02      	cmp	r2, #2
    c67e:	d014      	beq.n	c6aa <usbdc_cb_ctl_req+0x21a>
    c680:	2a03      	cmp	r2, #3
    c682:	d034      	beq.n	c6ee <usbdc_cb_ctl_req+0x25e>
    c684:	2a01      	cmp	r2, #1
    c686:	f47f af15 	bne.w	c4b4 <usbdc_cb_ctl_req+0x24>
    c68a:	4b2f      	ldr	r3, [pc, #188]	; (c748 <usbdc_cb_ctl_req+0x2b8>)
    c68c:	88e4      	ldrh	r4, [r4, #6]
    c68e:	681b      	ldr	r3, [r3, #0]
    c690:	2c12      	cmp	r4, #18
    c692:	e893 0003 	ldmia.w	r3, {r0, r1}
    c696:	4b2e      	ldr	r3, [pc, #184]	; (c750 <usbdc_cb_ctl_req+0x2c0>)
    c698:	bf28      	it	cs
    c69a:	2412      	movcs	r4, #18
    c69c:	4798      	blx	r3
    c69e:	4601      	mov	r1, r0
    c6a0:	2800      	cmp	r0, #0
    c6a2:	f43f af07 	beq.w	c4b4 <usbdc_cb_ctl_req+0x24>
    c6a6:	2300      	movs	r3, #0
    c6a8:	e019      	b.n	c6de <usbdc_cb_ctl_req+0x24e>
    c6aa:	4a27      	ldr	r2, [pc, #156]	; (c748 <usbdc_cb_ctl_req+0x2b8>)
    c6ac:	88e4      	ldrh	r4, [r4, #6]
    c6ae:	6810      	ldr	r0, [r2, #0]
    c6b0:	7f16      	ldrb	r6, [r2, #28]
    c6b2:	1c5a      	adds	r2, r3, #1
    c6b4:	c803      	ldmia	r0, {r0, r1}
    c6b6:	b2d2      	uxtb	r2, r2
    c6b8:	4b24      	ldr	r3, [pc, #144]	; (c74c <usbdc_cb_ctl_req+0x2bc>)
    c6ba:	4798      	blx	r3
    c6bc:	4601      	mov	r1, r0
    c6be:	2800      	cmp	r0, #0
    c6c0:	f43f aef8 	beq.w	c4b4 <usbdc_cb_ctl_req+0x24>
    c6c4:	78c3      	ldrb	r3, [r0, #3]
    c6c6:	7882      	ldrb	r2, [r0, #2]
    c6c8:	eb02 2203 	add.w	r2, r2, r3, lsl #8
    c6cc:	b292      	uxth	r2, r2
    c6ce:	4294      	cmp	r4, r2
    c6d0:	d9e9      	bls.n	c6a6 <usbdc_cb_ctl_req+0x216>
    c6d2:	3e01      	subs	r6, #1
    c6d4:	4226      	tst	r6, r4
    c6d6:	bf0c      	ite	eq
    c6d8:	2301      	moveq	r3, #1
    c6da:	2300      	movne	r3, #0
    c6dc:	4614      	mov	r4, r2
    c6de:	4622      	mov	r2, r4
    c6e0:	4628      	mov	r0, r5
    c6e2:	4c1d      	ldr	r4, [pc, #116]	; (c758 <usbdc_cb_ctl_req+0x2c8>)
    c6e4:	47a0      	blx	r4
    c6e6:	fab0 f080 	clz	r0, r0
    c6ea:	0940      	lsrs	r0, r0, #5
    c6ec:	e751      	b.n	c592 <usbdc_cb_ctl_req+0x102>
    c6ee:	4a16      	ldr	r2, [pc, #88]	; (c748 <usbdc_cb_ctl_req+0x2b8>)
    c6f0:	88e4      	ldrh	r4, [r4, #6]
    c6f2:	6810      	ldr	r0, [r2, #0]
    c6f4:	7f16      	ldrb	r6, [r2, #28]
    c6f6:	c803      	ldmia	r0, {r0, r1}
    c6f8:	b2da      	uxtb	r2, r3
    c6fa:	4b18      	ldr	r3, [pc, #96]	; (c75c <usbdc_cb_ctl_req+0x2cc>)
    c6fc:	4798      	blx	r3
    c6fe:	4601      	mov	r1, r0
    c700:	2800      	cmp	r0, #0
    c702:	f43f aed7 	beq.w	c4b4 <usbdc_cb_ctl_req+0x24>
    c706:	7802      	ldrb	r2, [r0, #0]
    c708:	e7e1      	b.n	c6ce <usbdc_cb_ctl_req+0x23e>
    c70a:	490f      	ldr	r1, [pc, #60]	; (c748 <usbdc_cb_ctl_req+0x2b8>)
    c70c:	694b      	ldr	r3, [r1, #20]
    c70e:	7eca      	ldrb	r2, [r1, #27]
    c710:	701a      	strb	r2, [r3, #0]
    c712:	2300      	movs	r3, #0
    c714:	2201      	movs	r2, #1
    c716:	6949      	ldr	r1, [r1, #20]
    c718:	e737      	b.n	c58a <usbdc_cb_ctl_req+0xfa>
    c71a:	f001 011f 	and.w	r1, r1, #31
    c71e:	2901      	cmp	r1, #1
    c720:	d91e      	bls.n	c760 <usbdc_cb_ctl_req+0x2d0>
    c722:	2902      	cmp	r1, #2
    c724:	f47f aec6 	bne.w	c4b4 <usbdc_cb_ctl_req+0x24>
    c728:	88a0      	ldrh	r0, [r4, #4]
    c72a:	4b0a      	ldr	r3, [pc, #40]	; (c754 <usbdc_cb_ctl_req+0x2c4>)
    c72c:	b2c0      	uxtb	r0, r0
    c72e:	4798      	blx	r3
    c730:	2800      	cmp	r0, #0
    c732:	f6ff aebf 	blt.w	c4b4 <usbdc_cb_ctl_req+0x24>
    c736:	f000 0001 	and.w	r0, r0, #1
    c73a:	9000      	str	r0, [sp, #0]
    c73c:	e012      	b.n	c764 <usbdc_cb_ctl_req+0x2d4>
    c73e:	bf00      	nop
    c740:	0000c345 	.word	0x0000c345
    c744:	0000c309 	.word	0x0000c309
    c748:	20000e0c 	.word	0x20000e0c
    c74c:	0000c8cd 	.word	0x0000c8cd
    c750:	0000c895 	.word	0x0000c895
    c754:	000084c5 	.word	0x000084c5
    c758:	0000c471 	.word	0x0000c471
    c75c:	0000c909 	.word	0x0000c909
    c760:	2300      	movs	r3, #0
    c762:	9300      	str	r3, [sp, #0]
    c764:	4913      	ldr	r1, [pc, #76]	; (c7b4 <usbdc_cb_ctl_req+0x324>)
    c766:	f8bd 2000 	ldrh.w	r2, [sp]
    c76a:	694b      	ldr	r3, [r1, #20]
    c76c:	801a      	strh	r2, [r3, #0]
    c76e:	2300      	movs	r3, #0
    c770:	2202      	movs	r2, #2
    c772:	e7d0      	b.n	c716 <usbdc_cb_ctl_req+0x286>
    c774:	490f      	ldr	r1, [pc, #60]	; (c7b4 <usbdc_cb_ctl_req+0x324>)
    c776:	88a2      	ldrh	r2, [r4, #4]
    c778:	7f4b      	ldrb	r3, [r1, #29]
    c77a:	4113      	asrs	r3, r2
    c77c:	f013 0301 	ands.w	r3, r3, #1
    c780:	460e      	mov	r6, r1
    c782:	d115      	bne.n	c7b0 <usbdc_cb_ctl_req+0x320>
    c784:	694a      	ldr	r2, [r1, #20]
    c786:	7013      	strb	r3, [r2, #0]
    c788:	6949      	ldr	r1, [r1, #20]
    c78a:	2201      	movs	r2, #1
    c78c:	e754      	b.n	c638 <usbdc_cb_ctl_req+0x1a8>
    c78e:	686b      	ldr	r3, [r5, #4]
    c790:	4622      	mov	r2, r4
    c792:	2102      	movs	r1, #2
    c794:	4628      	mov	r0, r5
    c796:	4798      	blx	r3
    c798:	2800      	cmp	r0, #0
    c79a:	da03      	bge.n	c7a4 <usbdc_cb_ctl_req+0x314>
    c79c:	682d      	ldr	r5, [r5, #0]
    c79e:	2d00      	cmp	r5, #0
    c7a0:	d1f5      	bne.n	c78e <usbdc_cb_ctl_req+0x2fe>
    c7a2:	e687      	b.n	c4b4 <usbdc_cb_ctl_req+0x24>
    c7a4:	6973      	ldr	r3, [r6, #20]
    c7a6:	7018      	strb	r0, [r3, #0]
    c7a8:	2201      	movs	r2, #1
    c7aa:	2300      	movs	r3, #0
    c7ac:	6971      	ldr	r1, [r6, #20]
    c7ae:	e743      	b.n	c638 <usbdc_cb_ctl_req+0x1a8>
    c7b0:	690d      	ldr	r5, [r1, #16]
    c7b2:	e7f4      	b.n	c79e <usbdc_cb_ctl_req+0x30e>
    c7b4:	20000e0c 	.word	0x20000e0c

0000c7b8 <usbdc_register_handler>:
    c7b8:	2801      	cmp	r0, #1
    c7ba:	d006      	beq.n	c7ca <usbdc_register_handler+0x12>
    c7bc:	d302      	bcc.n	c7c4 <usbdc_register_handler+0xc>
    c7be:	2802      	cmp	r0, #2
    c7c0:	d005      	beq.n	c7ce <usbdc_register_handler+0x16>
    c7c2:	4770      	bx	lr
    c7c4:	4803      	ldr	r0, [pc, #12]	; (c7d4 <usbdc_register_handler+0x1c>)
    c7c6:	4b04      	ldr	r3, [pc, #16]	; (c7d8 <usbdc_register_handler+0x20>)
    c7c8:	4718      	bx	r3
    c7ca:	4804      	ldr	r0, [pc, #16]	; (c7dc <usbdc_register_handler+0x24>)
    c7cc:	e7fb      	b.n	c7c6 <usbdc_register_handler+0xe>
    c7ce:	4804      	ldr	r0, [pc, #16]	; (c7e0 <usbdc_register_handler+0x28>)
    c7d0:	e7f9      	b.n	c7c6 <usbdc_register_handler+0xe>
    c7d2:	bf00      	nop
    c7d4:	20000e10 	.word	0x20000e10
    c7d8:	00008593 	.word	0x00008593
    c7dc:	20000e14 	.word	0x20000e14
    c7e0:	20000e18 	.word	0x20000e18

0000c7e4 <usbdc_init>:
    c7e4:	b538      	push	{r3, r4, r5, lr}
    c7e6:	4b0a      	ldr	r3, [pc, #40]	; (c810 <usbdc_init+0x2c>)
    c7e8:	4605      	mov	r5, r0
    c7ea:	4798      	blx	r3
    c7ec:	2800      	cmp	r0, #0
    c7ee:	db0e      	blt.n	c80e <usbdc_init+0x2a>
    c7f0:	4c08      	ldr	r4, [pc, #32]	; (c814 <usbdc_init+0x30>)
    c7f2:	4b09      	ldr	r3, [pc, #36]	; (c818 <usbdc_init+0x34>)
    c7f4:	2220      	movs	r2, #32
    c7f6:	2100      	movs	r1, #0
    c7f8:	4620      	mov	r0, r4
    c7fa:	4798      	blx	r3
    c7fc:	6165      	str	r5, [r4, #20]
    c7fe:	4907      	ldr	r1, [pc, #28]	; (c81c <usbdc_init+0x38>)
    c800:	4c07      	ldr	r4, [pc, #28]	; (c820 <usbdc_init+0x3c>)
    c802:	2000      	movs	r0, #0
    c804:	47a0      	blx	r4
    c806:	2001      	movs	r0, #1
    c808:	4906      	ldr	r1, [pc, #24]	; (c824 <usbdc_init+0x40>)
    c80a:	47a0      	blx	r4
    c80c:	2000      	movs	r0, #0
    c80e:	bd38      	pop	{r3, r4, r5, pc}
    c810:	00008279 	.word	0x00008279
    c814:	20000e0c 	.word	0x20000e0c
    c818:	0000d28b 	.word	0x0000d28b
    c81c:	0000c37d 	.word	0x0000c37d
    c820:	000082e1 	.word	0x000082e1
    c824:	0000c459 	.word	0x0000c459

0000c828 <usbdc_register_function>:
    c828:	4601      	mov	r1, r0
    c82a:	4b01      	ldr	r3, [pc, #4]	; (c830 <usbdc_register_function+0x8>)
    c82c:	4801      	ldr	r0, [pc, #4]	; (c834 <usbdc_register_function+0xc>)
    c82e:	4718      	bx	r3
    c830:	00008593 	.word	0x00008593
    c834:	20000e1c 	.word	0x20000e1c

0000c838 <usbdc_start>:
    c838:	b510      	push	{r4, lr}
    c83a:	4b0a      	ldr	r3, [pc, #40]	; (c864 <usbdc_start+0x2c>)
    c83c:	7e9c      	ldrb	r4, [r3, #26]
    c83e:	b954      	cbnz	r4, c856 <usbdc_start+0x1e>
    c840:	b160      	cbz	r0, c85c <usbdc_start+0x24>
    c842:	6802      	ldr	r2, [r0, #0]
    c844:	6018      	str	r0, [r3, #0]
    c846:	79d2      	ldrb	r2, [r2, #7]
    c848:	771a      	strb	r2, [r3, #28]
    c84a:	2201      	movs	r2, #1
    c84c:	769a      	strb	r2, [r3, #26]
    c84e:	4b06      	ldr	r3, [pc, #24]	; (c868 <usbdc_start+0x30>)
    c850:	4798      	blx	r3
    c852:	4620      	mov	r0, r4
    c854:	bd10      	pop	{r4, pc}
    c856:	f06f 0003 	mvn.w	r0, #3
    c85a:	bd10      	pop	{r4, pc}
    c85c:	f06f 0008 	mvn.w	r0, #8
    c860:	bd10      	pop	{r4, pc}
    c862:	bf00      	nop
    c864:	20000e0c 	.word	0x20000e0c
    c868:	000082e9 	.word	0x000082e9

0000c86c <usbdc_attach>:
    c86c:	4b00      	ldr	r3, [pc, #0]	; (c870 <usbdc_attach+0x4>)
    c86e:	4718      	bx	r3
    c870:	000082f1 	.word	0x000082f1

0000c874 <usbdc_get_ctrl_buffer>:
    c874:	4b01      	ldr	r3, [pc, #4]	; (c87c <usbdc_get_ctrl_buffer+0x8>)
    c876:	6958      	ldr	r0, [r3, #20]
    c878:	4770      	bx	lr
    c87a:	bf00      	nop
    c87c:	20000e0c 	.word	0x20000e0c

0000c880 <usbdc_get_state>:
    c880:	4b03      	ldr	r3, [pc, #12]	; (c890 <usbdc_get_state+0x10>)
    c882:	7e98      	ldrb	r0, [r3, #26]
    c884:	f010 0f10 	tst.w	r0, #16
    c888:	bf18      	it	ne
    c88a:	2010      	movne	r0, #16
    c88c:	4770      	bx	lr
    c88e:	bf00      	nop
    c890:	20000e0c 	.word	0x20000e0c

0000c894 <usb_find_desc>:
    c894:	b510      	push	{r4, lr}
    c896:	4288      	cmp	r0, r1
    c898:	d301      	bcc.n	c89e <usb_find_desc+0xa>
    c89a:	2000      	movs	r0, #0
    c89c:	bd10      	pop	{r4, pc}
    c89e:	7803      	ldrb	r3, [r0, #0]
    c8a0:	2b01      	cmp	r3, #1
    c8a2:	d9fa      	bls.n	c89a <usb_find_desc+0x6>
    c8a4:	7844      	ldrb	r4, [r0, #1]
    c8a6:	4294      	cmp	r4, r2
    c8a8:	d0f8      	beq.n	c89c <usb_find_desc+0x8>
    c8aa:	4418      	add	r0, r3
    c8ac:	e7f3      	b.n	c896 <usb_find_desc+0x2>

0000c8ae <usb_find_ep_desc>:
    c8ae:	4288      	cmp	r0, r1
    c8b0:	d301      	bcc.n	c8b6 <usb_find_ep_desc+0x8>
    c8b2:	2000      	movs	r0, #0
    c8b4:	4770      	bx	lr
    c8b6:	7803      	ldrb	r3, [r0, #0]
    c8b8:	2b01      	cmp	r3, #1
    c8ba:	d9fa      	bls.n	c8b2 <usb_find_ep_desc+0x4>
    c8bc:	7842      	ldrb	r2, [r0, #1]
    c8be:	2a04      	cmp	r2, #4
    c8c0:	d0f7      	beq.n	c8b2 <usb_find_ep_desc+0x4>
    c8c2:	2a05      	cmp	r2, #5
    c8c4:	d0f6      	beq.n	c8b4 <usb_find_ep_desc+0x6>
    c8c6:	4418      	add	r0, r3
    c8c8:	e7f1      	b.n	c8ae <usb_find_ep_desc>
	...

0000c8cc <usb_find_cfg_desc>:
    c8cc:	b538      	push	{r3, r4, r5, lr}
    c8ce:	4615      	mov	r5, r2
    c8d0:	4b0c      	ldr	r3, [pc, #48]	; (c904 <usb_find_cfg_desc+0x38>)
    c8d2:	2202      	movs	r2, #2
    c8d4:	460c      	mov	r4, r1
    c8d6:	4798      	blx	r3
    c8d8:	b978      	cbnz	r0, c8fa <usb_find_cfg_desc+0x2e>
    c8da:	bd38      	pop	{r3, r4, r5, pc}
    c8dc:	7803      	ldrb	r3, [r0, #0]
    c8de:	2b01      	cmp	r3, #1
    c8e0:	d90d      	bls.n	c8fe <usb_find_cfg_desc+0x32>
    c8e2:	7843      	ldrb	r3, [r0, #1]
    c8e4:	2b02      	cmp	r3, #2
    c8e6:	d10a      	bne.n	c8fe <usb_find_cfg_desc+0x32>
    c8e8:	7943      	ldrb	r3, [r0, #5]
    c8ea:	42ab      	cmp	r3, r5
    c8ec:	d008      	beq.n	c900 <usb_find_cfg_desc+0x34>
    c8ee:	78c2      	ldrb	r2, [r0, #3]
    c8f0:	7883      	ldrb	r3, [r0, #2]
    c8f2:	eb03 2302 	add.w	r3, r3, r2, lsl #8
    c8f6:	fa10 f083 	uxtah	r0, r0, r3
    c8fa:	42a0      	cmp	r0, r4
    c8fc:	d3ee      	bcc.n	c8dc <usb_find_cfg_desc+0x10>
    c8fe:	2000      	movs	r0, #0
    c900:	bd38      	pop	{r3, r4, r5, pc}
    c902:	bf00      	nop
    c904:	0000c895 	.word	0x0000c895

0000c908 <usb_find_str_desc>:
    c908:	b5f8      	push	{r3, r4, r5, r6, r7, lr}
    c90a:	4f0a      	ldr	r7, [pc, #40]	; (c934 <usb_find_str_desc+0x2c>)
    c90c:	460d      	mov	r5, r1
    c90e:	4616      	mov	r6, r2
    c910:	2400      	movs	r4, #0
    c912:	42a8      	cmp	r0, r5
    c914:	d301      	bcc.n	c91a <usb_find_str_desc+0x12>
    c916:	2000      	movs	r0, #0
    c918:	bdf8      	pop	{r3, r4, r5, r6, r7, pc}
    c91a:	2203      	movs	r2, #3
    c91c:	4629      	mov	r1, r5
    c91e:	47b8      	blx	r7
    c920:	2800      	cmp	r0, #0
    c922:	d0f9      	beq.n	c918 <usb_find_str_desc+0x10>
    c924:	7803      	ldrb	r3, [r0, #0]
    c926:	2b01      	cmp	r3, #1
    c928:	d9f5      	bls.n	c916 <usb_find_str_desc+0xe>
    c92a:	42b4      	cmp	r4, r6
    c92c:	d0f4      	beq.n	c918 <usb_find_str_desc+0x10>
    c92e:	4418      	add	r0, r3
    c930:	3401      	adds	r4, #1
    c932:	e7ee      	b.n	c912 <usb_find_str_desc+0xa>
    c934:	0000c895 	.word	0x0000c895

0000c938 <gpio_get_pin_level>:
    c938:	b537      	push	{r0, r1, r2, r4, r5, lr}
    c93a:	4b0e      	ldr	r3, [pc, #56]	; (c974 <gpio_get_pin_level+0x3c>)
    c93c:	4605      	mov	r5, r0
    c93e:	a801      	add	r0, sp, #4
    c940:	4798      	blx	r3
    c942:	096b      	lsrs	r3, r5, #5
    c944:	490c      	ldr	r1, [pc, #48]	; (c978 <gpio_get_pin_level+0x40>)
    c946:	01db      	lsls	r3, r3, #7
    c948:	18ca      	adds	r2, r1, r3
    c94a:	58c9      	ldr	r1, [r1, r3]
    c94c:	6a13      	ldr	r3, [r2, #32]
    c94e:	6914      	ldr	r4, [r2, #16]
    c950:	405c      	eors	r4, r3
    c952:	400c      	ands	r4, r1
    c954:	a801      	add	r0, sp, #4
    c956:	405c      	eors	r4, r3
    c958:	4b08      	ldr	r3, [pc, #32]	; (c97c <gpio_get_pin_level+0x44>)
    c95a:	4798      	blx	r3
    c95c:	f005 051f 	and.w	r5, r5, #31
    c960:	2301      	movs	r3, #1
    c962:	fa03 f505 	lsl.w	r5, r3, r5
    c966:	4225      	tst	r5, r4
    c968:	bf14      	ite	ne
    c96a:	4618      	movne	r0, r3
    c96c:	2000      	moveq	r0, #0
    c96e:	b003      	add	sp, #12
    c970:	bd30      	pop	{r4, r5, pc}
    c972:	bf00      	nop
    c974:	000078ed 	.word	0x000078ed
    c978:	41008000 	.word	0x41008000
    c97c:	000078fb 	.word	0x000078fb

0000c980 <hiddf_demo_sof_event>:
    c980:	b570      	push	{r4, r5, r6, lr}
    c982:	4a18      	ldr	r2, [pc, #96]	; (c9e4 <hiddf_demo_sof_event+0x64>)
    c984:	7913      	ldrb	r3, [r2, #4]
    c986:	2b0a      	cmp	r3, #10
    c988:	4614      	mov	r4, r2
    c98a:	d802      	bhi.n	c992 <hiddf_demo_sof_event+0x12>
    c98c:	3301      	adds	r3, #1
    c98e:	7113      	strb	r3, [r2, #4]
    c990:	bd70      	pop	{r4, r5, r6, pc}
    c992:	2300      	movs	r3, #0
    c994:	7a10      	ldrb	r0, [r2, #8]
    c996:	4d14      	ldr	r5, [pc, #80]	; (c9e8 <hiddf_demo_sof_event+0x68>)
    c998:	7113      	strb	r3, [r2, #4]
    c99a:	47a8      	blx	r5
    c99c:	b920      	cbnz	r0, c9a8 <hiddf_demo_sof_event+0x28>
    c99e:	2101      	movs	r1, #1
    c9a0:	f06f 0004 	mvn.w	r0, #4
    c9a4:	4b11      	ldr	r3, [pc, #68]	; (c9ec <hiddf_demo_sof_event+0x6c>)
    c9a6:	4798      	blx	r3
    c9a8:	7b20      	ldrb	r0, [r4, #12]
    c9aa:	47a8      	blx	r5
    c9ac:	b918      	cbnz	r0, c9b6 <hiddf_demo_sof_event+0x36>
    c9ae:	2101      	movs	r1, #1
    c9b0:	2005      	movs	r0, #5
    c9b2:	4b0e      	ldr	r3, [pc, #56]	; (c9ec <hiddf_demo_sof_event+0x6c>)
    c9b4:	4798      	blx	r3
    c9b6:	7c20      	ldrb	r0, [r4, #16]
    c9b8:	47a8      	blx	r5
    c9ba:	7d23      	ldrb	r3, [r4, #20]
    c9bc:	f080 0001 	eor.w	r0, r0, #1
    c9c0:	b2c0      	uxtb	r0, r0
    c9c2:	4283      	cmp	r3, r0
    c9c4:	d00c      	beq.n	c9e0 <hiddf_demo_sof_event+0x60>
    c9c6:	7520      	strb	r0, [r4, #20]
    c9c8:	4b09      	ldr	r3, [pc, #36]	; (c9f0 <hiddf_demo_sof_event+0x70>)
    c9ca:	b138      	cbz	r0, c9dc <hiddf_demo_sof_event+0x5c>
    c9cc:	2201      	movs	r2, #1
    c9ce:	709a      	strb	r2, [r3, #2]
    c9d0:	2101      	movs	r1, #1
    c9d2:	4807      	ldr	r0, [pc, #28]	; (c9f0 <hiddf_demo_sof_event+0x70>)
    c9d4:	4b07      	ldr	r3, [pc, #28]	; (c9f4 <hiddf_demo_sof_event+0x74>)
    c9d6:	e8bd 4070 	ldmia.w	sp!, {r4, r5, r6, lr}
    c9da:	4718      	bx	r3
    c9dc:	7098      	strb	r0, [r3, #2]
    c9de:	e7f7      	b.n	c9d0 <hiddf_demo_sof_event+0x50>
    c9e0:	bd70      	pop	{r4, r5, r6, pc}
    c9e2:	bf00      	nop
    c9e4:	20000e2c 	.word	0x20000e2c
    c9e8:	0000c939 	.word	0x0000c939
    c9ec:	0000c031 	.word	0x0000c031
    c9f0:	200003b4 	.word	0x200003b4
    c9f4:	0000bdf5 	.word	0x0000bdf5

0000c9f8 <composite_device_init>:
    c9f8:	b510      	push	{r4, lr}
    c9fa:	4b05      	ldr	r3, [pc, #20]	; (ca10 <composite_device_init+0x18>)
    c9fc:	4805      	ldr	r0, [pc, #20]	; (ca14 <composite_device_init+0x1c>)
    c9fe:	4798      	blx	r3
    ca00:	4b05      	ldr	r3, [pc, #20]	; (ca18 <composite_device_init+0x20>)
    ca02:	4798      	blx	r3
    ca04:	4b05      	ldr	r3, [pc, #20]	; (ca1c <composite_device_init+0x24>)
    ca06:	4798      	blx	r3
    ca08:	4b05      	ldr	r3, [pc, #20]	; (ca20 <composite_device_init+0x28>)
    ca0a:	e8bd 4010 	ldmia.w	sp!, {r4, lr}
    ca0e:	4718      	bx	r3
    ca10:	0000c7e5 	.word	0x0000c7e5
    ca14:	20000e41 	.word	0x20000e41
    ca18:	0000bba9 	.word	0x0000bba9
    ca1c:	0000bfed 	.word	0x0000bfed
    ca20:	0000bdb1 	.word	0x0000bdb1

0000ca24 <composite_device_start>:
    ca24:	b510      	push	{r4, lr}
    ca26:	4b03      	ldr	r3, [pc, #12]	; (ca34 <composite_device_start+0x10>)
    ca28:	4803      	ldr	r0, [pc, #12]	; (ca38 <composite_device_start+0x14>)
    ca2a:	4798      	blx	r3
    ca2c:	4b03      	ldr	r3, [pc, #12]	; (ca3c <composite_device_start+0x18>)
    ca2e:	e8bd 4010 	ldmia.w	sp!, {r4, lr}
    ca32:	4718      	bx	r3
    ca34:	0000c839 	.word	0x0000c839
    ca38:	200003c0 	.word	0x200003c0
    ca3c:	0000c86d 	.word	0x0000c86d

0000ca40 <usb_init>:
    ca40:	4b00      	ldr	r3, [pc, #0]	; (ca44 <usb_init+0x4>)
    ca42:	4718      	bx	r3
    ca44:	0000c9f9 	.word	0x0000c9f9

0000ca48 <__aeabi_drsub>:
    ca48:	f081 4100 	eor.w	r1, r1, #2147483648	; 0x80000000
    ca4c:	e002      	b.n	ca54 <__adddf3>
    ca4e:	bf00      	nop

0000ca50 <__aeabi_dsub>:
    ca50:	f083 4300 	eor.w	r3, r3, #2147483648	; 0x80000000

0000ca54 <__adddf3>:
    ca54:	b530      	push	{r4, r5, lr}
    ca56:	ea4f 0441 	mov.w	r4, r1, lsl #1
    ca5a:	ea4f 0543 	mov.w	r5, r3, lsl #1
    ca5e:	ea94 0f05 	teq	r4, r5
    ca62:	bf08      	it	eq
    ca64:	ea90 0f02 	teqeq	r0, r2
    ca68:	bf1f      	itttt	ne
    ca6a:	ea54 0c00 	orrsne.w	ip, r4, r0
    ca6e:	ea55 0c02 	orrsne.w	ip, r5, r2
    ca72:	ea7f 5c64 	mvnsne.w	ip, r4, asr #21
    ca76:	ea7f 5c65 	mvnsne.w	ip, r5, asr #21
    ca7a:	f000 80e2 	beq.w	cc42 <__adddf3+0x1ee>
    ca7e:	ea4f 5454 	mov.w	r4, r4, lsr #21
    ca82:	ebd4 5555 	rsbs	r5, r4, r5, lsr #21
    ca86:	bfb8      	it	lt
    ca88:	426d      	neglt	r5, r5
    ca8a:	dd0c      	ble.n	caa6 <__adddf3+0x52>
    ca8c:	442c      	add	r4, r5
    ca8e:	ea80 0202 	eor.w	r2, r0, r2
    ca92:	ea81 0303 	eor.w	r3, r1, r3
    ca96:	ea82 0000 	eor.w	r0, r2, r0
    ca9a:	ea83 0101 	eor.w	r1, r3, r1
    ca9e:	ea80 0202 	eor.w	r2, r0, r2
    caa2:	ea81 0303 	eor.w	r3, r1, r3
    caa6:	2d36      	cmp	r5, #54	; 0x36
    caa8:	bf88      	it	hi
    caaa:	bd30      	pophi	{r4, r5, pc}
    caac:	f011 4f00 	tst.w	r1, #2147483648	; 0x80000000
    cab0:	ea4f 3101 	mov.w	r1, r1, lsl #12
    cab4:	f44f 1c80 	mov.w	ip, #1048576	; 0x100000
    cab8:	ea4c 3111 	orr.w	r1, ip, r1, lsr #12
    cabc:	d002      	beq.n	cac4 <__adddf3+0x70>
    cabe:	4240      	negs	r0, r0
    cac0:	eb61 0141 	sbc.w	r1, r1, r1, lsl #1
    cac4:	f013 4f00 	tst.w	r3, #2147483648	; 0x80000000
    cac8:	ea4f 3303 	mov.w	r3, r3, lsl #12
    cacc:	ea4c 3313 	orr.w	r3, ip, r3, lsr #12
    cad0:	d002      	beq.n	cad8 <__adddf3+0x84>
    cad2:	4252      	negs	r2, r2
    cad4:	eb63 0343 	sbc.w	r3, r3, r3, lsl #1
    cad8:	ea94 0f05 	teq	r4, r5
    cadc:	f000 80a7 	beq.w	cc2e <__adddf3+0x1da>
    cae0:	f1a4 0401 	sub.w	r4, r4, #1
    cae4:	f1d5 0e20 	rsbs	lr, r5, #32
    cae8:	db0d      	blt.n	cb06 <__adddf3+0xb2>
    caea:	fa02 fc0e 	lsl.w	ip, r2, lr
    caee:	fa22 f205 	lsr.w	r2, r2, r5
    caf2:	1880      	adds	r0, r0, r2
    caf4:	f141 0100 	adc.w	r1, r1, #0
    caf8:	fa03 f20e 	lsl.w	r2, r3, lr
    cafc:	1880      	adds	r0, r0, r2
    cafe:	fa43 f305 	asr.w	r3, r3, r5
    cb02:	4159      	adcs	r1, r3
    cb04:	e00e      	b.n	cb24 <__adddf3+0xd0>
    cb06:	f1a5 0520 	sub.w	r5, r5, #32
    cb0a:	f10e 0e20 	add.w	lr, lr, #32
    cb0e:	2a01      	cmp	r2, #1
    cb10:	fa03 fc0e 	lsl.w	ip, r3, lr
    cb14:	bf28      	it	cs
    cb16:	f04c 0c02 	orrcs.w	ip, ip, #2
    cb1a:	fa43 f305 	asr.w	r3, r3, r5
    cb1e:	18c0      	adds	r0, r0, r3
    cb20:	eb51 71e3 	adcs.w	r1, r1, r3, asr #31
    cb24:	f001 4500 	and.w	r5, r1, #2147483648	; 0x80000000
    cb28:	d507      	bpl.n	cb3a <__adddf3+0xe6>
    cb2a:	f04f 0e00 	mov.w	lr, #0
    cb2e:	f1dc 0c00 	rsbs	ip, ip, #0
    cb32:	eb7e 0000 	sbcs.w	r0, lr, r0
    cb36:	eb6e 0101 	sbc.w	r1, lr, r1
    cb3a:	f5b1 1f80 	cmp.w	r1, #1048576	; 0x100000
    cb3e:	d31b      	bcc.n	cb78 <__adddf3+0x124>
    cb40:	f5b1 1f00 	cmp.w	r1, #2097152	; 0x200000
    cb44:	d30c      	bcc.n	cb60 <__adddf3+0x10c>
    cb46:	0849      	lsrs	r1, r1, #1
    cb48:	ea5f 0030 	movs.w	r0, r0, rrx
    cb4c:	ea4f 0c3c 	mov.w	ip, ip, rrx
    cb50:	f104 0401 	add.w	r4, r4, #1
    cb54:	ea4f 5244 	mov.w	r2, r4, lsl #21
    cb58:	f512 0f80 	cmn.w	r2, #4194304	; 0x400000
    cb5c:	f080 809a 	bcs.w	cc94 <__adddf3+0x240>
    cb60:	f1bc 4f00 	cmp.w	ip, #2147483648	; 0x80000000
    cb64:	bf08      	it	eq
    cb66:	ea5f 0c50 	movseq.w	ip, r0, lsr #1
    cb6a:	f150 0000 	adcs.w	r0, r0, #0
    cb6e:	eb41 5104 	adc.w	r1, r1, r4, lsl #20
    cb72:	ea41 0105 	orr.w	r1, r1, r5
    cb76:	bd30      	pop	{r4, r5, pc}
    cb78:	ea5f 0c4c 	movs.w	ip, ip, lsl #1
    cb7c:	4140      	adcs	r0, r0
    cb7e:	eb41 0101 	adc.w	r1, r1, r1
    cb82:	f411 1f80 	tst.w	r1, #1048576	; 0x100000
    cb86:	f1a4 0401 	sub.w	r4, r4, #1
    cb8a:	d1e9      	bne.n	cb60 <__adddf3+0x10c>
    cb8c:	f091 0f00 	teq	r1, #0
    cb90:	bf04      	itt	eq
    cb92:	4601      	moveq	r1, r0
    cb94:	2000      	moveq	r0, #0
    cb96:	fab1 f381 	clz	r3, r1
    cb9a:	bf08      	it	eq
    cb9c:	3320      	addeq	r3, #32
    cb9e:	f1a3 030b 	sub.w	r3, r3, #11
    cba2:	f1b3 0220 	subs.w	r2, r3, #32
    cba6:	da0c      	bge.n	cbc2 <__adddf3+0x16e>
    cba8:	320c      	adds	r2, #12
    cbaa:	dd08      	ble.n	cbbe <__adddf3+0x16a>
    cbac:	f102 0c14 	add.w	ip, r2, #20
    cbb0:	f1c2 020c 	rsb	r2, r2, #12
    cbb4:	fa01 f00c 	lsl.w	r0, r1, ip
    cbb8:	fa21 f102 	lsr.w	r1, r1, r2
    cbbc:	e00c      	b.n	cbd8 <__adddf3+0x184>
    cbbe:	f102 0214 	add.w	r2, r2, #20
    cbc2:	bfd8      	it	le
    cbc4:	f1c2 0c20 	rsble	ip, r2, #32
    cbc8:	fa01 f102 	lsl.w	r1, r1, r2
    cbcc:	fa20 fc0c 	lsr.w	ip, r0, ip
    cbd0:	bfdc      	itt	le
    cbd2:	ea41 010c 	orrle.w	r1, r1, ip
    cbd6:	4090      	lslle	r0, r2
    cbd8:	1ae4      	subs	r4, r4, r3
    cbda:	bfa2      	ittt	ge
    cbdc:	eb01 5104 	addge.w	r1, r1, r4, lsl #20
    cbe0:	4329      	orrge	r1, r5
    cbe2:	bd30      	popge	{r4, r5, pc}
    cbe4:	ea6f 0404 	mvn.w	r4, r4
    cbe8:	3c1f      	subs	r4, #31
    cbea:	da1c      	bge.n	cc26 <__adddf3+0x1d2>
    cbec:	340c      	adds	r4, #12
    cbee:	dc0e      	bgt.n	cc0e <__adddf3+0x1ba>
    cbf0:	f104 0414 	add.w	r4, r4, #20
    cbf4:	f1c4 0220 	rsb	r2, r4, #32
    cbf8:	fa20 f004 	lsr.w	r0, r0, r4
    cbfc:	fa01 f302 	lsl.w	r3, r1, r2
    cc00:	ea40 0003 	orr.w	r0, r0, r3
    cc04:	fa21 f304 	lsr.w	r3, r1, r4
    cc08:	ea45 0103 	orr.w	r1, r5, r3
    cc0c:	bd30      	pop	{r4, r5, pc}
    cc0e:	f1c4 040c 	rsb	r4, r4, #12
    cc12:	f1c4 0220 	rsb	r2, r4, #32
    cc16:	fa20 f002 	lsr.w	r0, r0, r2
    cc1a:	fa01 f304 	lsl.w	r3, r1, r4
    cc1e:	ea40 0003 	orr.w	r0, r0, r3
    cc22:	4629      	mov	r1, r5
    cc24:	bd30      	pop	{r4, r5, pc}
    cc26:	fa21 f004 	lsr.w	r0, r1, r4
    cc2a:	4629      	mov	r1, r5
    cc2c:	bd30      	pop	{r4, r5, pc}
    cc2e:	f094 0f00 	teq	r4, #0
    cc32:	f483 1380 	eor.w	r3, r3, #1048576	; 0x100000
    cc36:	bf06      	itte	eq
    cc38:	f481 1180 	eoreq.w	r1, r1, #1048576	; 0x100000
    cc3c:	3401      	addeq	r4, #1
    cc3e:	3d01      	subne	r5, #1
    cc40:	e74e      	b.n	cae0 <__adddf3+0x8c>
    cc42:	ea7f 5c64 	mvns.w	ip, r4, asr #21
    cc46:	bf18      	it	ne
    cc48:	ea7f 5c65 	mvnsne.w	ip, r5, asr #21
    cc4c:	d029      	beq.n	cca2 <__adddf3+0x24e>
    cc4e:	ea94 0f05 	teq	r4, r5
    cc52:	bf08      	it	eq
    cc54:	ea90 0f02 	teqeq	r0, r2
    cc58:	d005      	beq.n	cc66 <__adddf3+0x212>
    cc5a:	ea54 0c00 	orrs.w	ip, r4, r0
    cc5e:	bf04      	itt	eq
    cc60:	4619      	moveq	r1, r3
    cc62:	4610      	moveq	r0, r2
    cc64:	bd30      	pop	{r4, r5, pc}
    cc66:	ea91 0f03 	teq	r1, r3
    cc6a:	bf1e      	ittt	ne
    cc6c:	2100      	movne	r1, #0
    cc6e:	2000      	movne	r0, #0
    cc70:	bd30      	popne	{r4, r5, pc}
    cc72:	ea5f 5c54 	movs.w	ip, r4, lsr #21
    cc76:	d105      	bne.n	cc84 <__adddf3+0x230>
    cc78:	0040      	lsls	r0, r0, #1
    cc7a:	4149      	adcs	r1, r1
    cc7c:	bf28      	it	cs
    cc7e:	f041 4100 	orrcs.w	r1, r1, #2147483648	; 0x80000000
    cc82:	bd30      	pop	{r4, r5, pc}
    cc84:	f514 0480 	adds.w	r4, r4, #4194304	; 0x400000
    cc88:	bf3c      	itt	cc
    cc8a:	f501 1180 	addcc.w	r1, r1, #1048576	; 0x100000
    cc8e:	bd30      	popcc	{r4, r5, pc}
    cc90:	f001 4500 	and.w	r5, r1, #2147483648	; 0x80000000
    cc94:	f045 41fe 	orr.w	r1, r5, #2130706432	; 0x7f000000
    cc98:	f441 0170 	orr.w	r1, r1, #15728640	; 0xf00000
    cc9c:	f04f 0000 	mov.w	r0, #0
    cca0:	bd30      	pop	{r4, r5, pc}
    cca2:	ea7f 5c64 	mvns.w	ip, r4, asr #21
    cca6:	bf1a      	itte	ne
    cca8:	4619      	movne	r1, r3
    ccaa:	4610      	movne	r0, r2
    ccac:	ea7f 5c65 	mvnseq.w	ip, r5, asr #21
    ccb0:	bf1c      	itt	ne
    ccb2:	460b      	movne	r3, r1
    ccb4:	4602      	movne	r2, r0
    ccb6:	ea50 3401 	orrs.w	r4, r0, r1, lsl #12
    ccba:	bf06      	itte	eq
    ccbc:	ea52 3503 	orrseq.w	r5, r2, r3, lsl #12
    ccc0:	ea91 0f03 	teqeq	r1, r3
    ccc4:	f441 2100 	orrne.w	r1, r1, #524288	; 0x80000
    ccc8:	bd30      	pop	{r4, r5, pc}
    ccca:	bf00      	nop

0000cccc <__aeabi_ui2d>:
    cccc:	f090 0f00 	teq	r0, #0
    ccd0:	bf04      	itt	eq
    ccd2:	2100      	moveq	r1, #0
    ccd4:	4770      	bxeq	lr
    ccd6:	b530      	push	{r4, r5, lr}
    ccd8:	f44f 6480 	mov.w	r4, #1024	; 0x400
    ccdc:	f104 0432 	add.w	r4, r4, #50	; 0x32
    cce0:	f04f 0500 	mov.w	r5, #0
    cce4:	f04f 0100 	mov.w	r1, #0
    cce8:	e750      	b.n	cb8c <__adddf3+0x138>
    ccea:	bf00      	nop

0000ccec <__aeabi_i2d>:
    ccec:	f090 0f00 	teq	r0, #0
    ccf0:	bf04      	itt	eq
    ccf2:	2100      	moveq	r1, #0
    ccf4:	4770      	bxeq	lr
    ccf6:	b530      	push	{r4, r5, lr}
    ccf8:	f44f 6480 	mov.w	r4, #1024	; 0x400
    ccfc:	f104 0432 	add.w	r4, r4, #50	; 0x32
    cd00:	f010 4500 	ands.w	r5, r0, #2147483648	; 0x80000000
    cd04:	bf48      	it	mi
    cd06:	4240      	negmi	r0, r0
    cd08:	f04f 0100 	mov.w	r1, #0
    cd0c:	e73e      	b.n	cb8c <__adddf3+0x138>
    cd0e:	bf00      	nop

0000cd10 <__aeabi_f2d>:
    cd10:	0042      	lsls	r2, r0, #1
    cd12:	ea4f 01e2 	mov.w	r1, r2, asr #3
    cd16:	ea4f 0131 	mov.w	r1, r1, rrx
    cd1a:	ea4f 7002 	mov.w	r0, r2, lsl #28
    cd1e:	bf1f      	itttt	ne
    cd20:	f012 437f 	andsne.w	r3, r2, #4278190080	; 0xff000000
    cd24:	f093 4f7f 	teqne	r3, #4278190080	; 0xff000000
    cd28:	f081 5160 	eorne.w	r1, r1, #939524096	; 0x38000000
    cd2c:	4770      	bxne	lr
    cd2e:	f092 0f00 	teq	r2, #0
    cd32:	bf14      	ite	ne
    cd34:	f093 4f7f 	teqne	r3, #4278190080	; 0xff000000
    cd38:	4770      	bxeq	lr
    cd3a:	b530      	push	{r4, r5, lr}
    cd3c:	f44f 7460 	mov.w	r4, #896	; 0x380
    cd40:	f001 4500 	and.w	r5, r1, #2147483648	; 0x80000000
    cd44:	f021 4100 	bic.w	r1, r1, #2147483648	; 0x80000000
    cd48:	e720      	b.n	cb8c <__adddf3+0x138>
    cd4a:	bf00      	nop

0000cd4c <__aeabi_ul2d>:
    cd4c:	ea50 0201 	orrs.w	r2, r0, r1
    cd50:	bf08      	it	eq
    cd52:	4770      	bxeq	lr
    cd54:	b530      	push	{r4, r5, lr}
    cd56:	f04f 0500 	mov.w	r5, #0
    cd5a:	e00a      	b.n	cd72 <__aeabi_l2d+0x16>

0000cd5c <__aeabi_l2d>:
    cd5c:	ea50 0201 	orrs.w	r2, r0, r1
    cd60:	bf08      	it	eq
    cd62:	4770      	bxeq	lr
    cd64:	b530      	push	{r4, r5, lr}
    cd66:	f011 4500 	ands.w	r5, r1, #2147483648	; 0x80000000
    cd6a:	d502      	bpl.n	cd72 <__aeabi_l2d+0x16>
    cd6c:	4240      	negs	r0, r0
    cd6e:	eb61 0141 	sbc.w	r1, r1, r1, lsl #1
    cd72:	f44f 6480 	mov.w	r4, #1024	; 0x400
    cd76:	f104 0432 	add.w	r4, r4, #50	; 0x32
    cd7a:	ea5f 5c91 	movs.w	ip, r1, lsr #22
    cd7e:	f43f aedc 	beq.w	cb3a <__adddf3+0xe6>
    cd82:	f04f 0203 	mov.w	r2, #3
    cd86:	ea5f 0cdc 	movs.w	ip, ip, lsr #3
    cd8a:	bf18      	it	ne
    cd8c:	3203      	addne	r2, #3
    cd8e:	ea5f 0cdc 	movs.w	ip, ip, lsr #3
    cd92:	bf18      	it	ne
    cd94:	3203      	addne	r2, #3
    cd96:	eb02 02dc 	add.w	r2, r2, ip, lsr #3
    cd9a:	f1c2 0320 	rsb	r3, r2, #32
    cd9e:	fa00 fc03 	lsl.w	ip, r0, r3
    cda2:	fa20 f002 	lsr.w	r0, r0, r2
    cda6:	fa01 fe03 	lsl.w	lr, r1, r3
    cdaa:	ea40 000e 	orr.w	r0, r0, lr
    cdae:	fa21 f102 	lsr.w	r1, r1, r2
    cdb2:	4414      	add	r4, r2
    cdb4:	e6c1      	b.n	cb3a <__adddf3+0xe6>
    cdb6:	bf00      	nop

0000cdb8 <__aeabi_dmul>:
    cdb8:	b570      	push	{r4, r5, r6, lr}
    cdba:	f04f 0cff 	mov.w	ip, #255	; 0xff
    cdbe:	f44c 6ce0 	orr.w	ip, ip, #1792	; 0x700
    cdc2:	ea1c 5411 	ands.w	r4, ip, r1, lsr #20
    cdc6:	bf1d      	ittte	ne
    cdc8:	ea1c 5513 	andsne.w	r5, ip, r3, lsr #20
    cdcc:	ea94 0f0c 	teqne	r4, ip
    cdd0:	ea95 0f0c 	teqne	r5, ip
    cdd4:	f000 f8de 	bleq	cf94 <__aeabi_dmul+0x1dc>
    cdd8:	442c      	add	r4, r5
    cdda:	ea81 0603 	eor.w	r6, r1, r3
    cdde:	ea21 514c 	bic.w	r1, r1, ip, lsl #21
    cde2:	ea23 534c 	bic.w	r3, r3, ip, lsl #21
    cde6:	ea50 3501 	orrs.w	r5, r0, r1, lsl #12
    cdea:	bf18      	it	ne
    cdec:	ea52 3503 	orrsne.w	r5, r2, r3, lsl #12
    cdf0:	f441 1180 	orr.w	r1, r1, #1048576	; 0x100000
    cdf4:	f443 1380 	orr.w	r3, r3, #1048576	; 0x100000
    cdf8:	d038      	beq.n	ce6c <__aeabi_dmul+0xb4>
    cdfa:	fba0 ce02 	umull	ip, lr, r0, r2
    cdfe:	f04f 0500 	mov.w	r5, #0
    ce02:	fbe1 e502 	umlal	lr, r5, r1, r2
    ce06:	f006 4200 	and.w	r2, r6, #2147483648	; 0x80000000
    ce0a:	fbe0 e503 	umlal	lr, r5, r0, r3
    ce0e:	f04f 0600 	mov.w	r6, #0
    ce12:	fbe1 5603 	umlal	r5, r6, r1, r3
    ce16:	f09c 0f00 	teq	ip, #0
    ce1a:	bf18      	it	ne
    ce1c:	f04e 0e01 	orrne.w	lr, lr, #1
    ce20:	f1a4 04ff 	sub.w	r4, r4, #255	; 0xff
    ce24:	f5b6 7f00 	cmp.w	r6, #512	; 0x200
    ce28:	f564 7440 	sbc.w	r4, r4, #768	; 0x300
    ce2c:	d204      	bcs.n	ce38 <__aeabi_dmul+0x80>
    ce2e:	ea5f 0e4e 	movs.w	lr, lr, lsl #1
    ce32:	416d      	adcs	r5, r5
    ce34:	eb46 0606 	adc.w	r6, r6, r6
    ce38:	ea42 21c6 	orr.w	r1, r2, r6, lsl #11
    ce3c:	ea41 5155 	orr.w	r1, r1, r5, lsr #21
    ce40:	ea4f 20c5 	mov.w	r0, r5, lsl #11
    ce44:	ea40 505e 	orr.w	r0, r0, lr, lsr #21
    ce48:	ea4f 2ece 	mov.w	lr, lr, lsl #11
    ce4c:	f1b4 0cfd 	subs.w	ip, r4, #253	; 0xfd
    ce50:	bf88      	it	hi
    ce52:	f5bc 6fe0 	cmphi.w	ip, #1792	; 0x700
    ce56:	d81e      	bhi.n	ce96 <__aeabi_dmul+0xde>
    ce58:	f1be 4f00 	cmp.w	lr, #2147483648	; 0x80000000
    ce5c:	bf08      	it	eq
    ce5e:	ea5f 0e50 	movseq.w	lr, r0, lsr #1
    ce62:	f150 0000 	adcs.w	r0, r0, #0
    ce66:	eb41 5104 	adc.w	r1, r1, r4, lsl #20
    ce6a:	bd70      	pop	{r4, r5, r6, pc}
    ce6c:	f006 4600 	and.w	r6, r6, #2147483648	; 0x80000000
    ce70:	ea46 0101 	orr.w	r1, r6, r1
    ce74:	ea40 0002 	orr.w	r0, r0, r2
    ce78:	ea81 0103 	eor.w	r1, r1, r3
    ce7c:	ebb4 045c 	subs.w	r4, r4, ip, lsr #1
    ce80:	bfc2      	ittt	gt
    ce82:	ebd4 050c 	rsbsgt	r5, r4, ip
    ce86:	ea41 5104 	orrgt.w	r1, r1, r4, lsl #20
    ce8a:	bd70      	popgt	{r4, r5, r6, pc}
    ce8c:	f441 1180 	orr.w	r1, r1, #1048576	; 0x100000
    ce90:	f04f 0e00 	mov.w	lr, #0
    ce94:	3c01      	subs	r4, #1
    ce96:	f300 80ab 	bgt.w	cff0 <__aeabi_dmul+0x238>
    ce9a:	f114 0f36 	cmn.w	r4, #54	; 0x36
    ce9e:	bfde      	ittt	le
    cea0:	2000      	movle	r0, #0
    cea2:	f001 4100 	andle.w	r1, r1, #2147483648	; 0x80000000
    cea6:	bd70      	pople	{r4, r5, r6, pc}
    cea8:	f1c4 0400 	rsb	r4, r4, #0
    ceac:	3c20      	subs	r4, #32
    ceae:	da35      	bge.n	cf1c <__aeabi_dmul+0x164>
    ceb0:	340c      	adds	r4, #12
    ceb2:	dc1b      	bgt.n	ceec <__aeabi_dmul+0x134>
    ceb4:	f104 0414 	add.w	r4, r4, #20
    ceb8:	f1c4 0520 	rsb	r5, r4, #32
    cebc:	fa00 f305 	lsl.w	r3, r0, r5
    cec0:	fa20 f004 	lsr.w	r0, r0, r4
    cec4:	fa01 f205 	lsl.w	r2, r1, r5
    cec8:	ea40 0002 	orr.w	r0, r0, r2
    cecc:	f001 4200 	and.w	r2, r1, #2147483648	; 0x80000000
    ced0:	f021 4100 	bic.w	r1, r1, #2147483648	; 0x80000000
    ced4:	eb10 70d3 	adds.w	r0, r0, r3, lsr #31
    ced8:	fa21 f604 	lsr.w	r6, r1, r4
    cedc:	eb42 0106 	adc.w	r1, r2, r6
    cee0:	ea5e 0e43 	orrs.w	lr, lr, r3, lsl #1
    cee4:	bf08      	it	eq
    cee6:	ea20 70d3 	biceq.w	r0, r0, r3, lsr #31
    ceea:	bd70      	pop	{r4, r5, r6, pc}
    ceec:	f1c4 040c 	rsb	r4, r4, #12
    cef0:	f1c4 0520 	rsb	r5, r4, #32
    cef4:	fa00 f304 	lsl.w	r3, r0, r4
    cef8:	fa20 f005 	lsr.w	r0, r0, r5
    cefc:	fa01 f204 	lsl.w	r2, r1, r4
    cf00:	ea40 0002 	orr.w	r0, r0, r2
    cf04:	f001 4100 	and.w	r1, r1, #2147483648	; 0x80000000
    cf08:	eb10 70d3 	adds.w	r0, r0, r3, lsr #31
    cf0c:	f141 0100 	adc.w	r1, r1, #0
    cf10:	ea5e 0e43 	orrs.w	lr, lr, r3, lsl #1
    cf14:	bf08      	it	eq
    cf16:	ea20 70d3 	biceq.w	r0, r0, r3, lsr #31
    cf1a:	bd70      	pop	{r4, r5, r6, pc}
    cf1c:	f1c4 0520 	rsb	r5, r4, #32
    cf20:	fa00 f205 	lsl.w	r2, r0, r5
    cf24:	ea4e 0e02 	orr.w	lr, lr, r2
    cf28:	fa20 f304 	lsr.w	r3, r0, r4
    cf2c:	fa01 f205 	lsl.w	r2, r1, r5
    cf30:	ea43 0302 	orr.w	r3, r3, r2
    cf34:	fa21 f004 	lsr.w	r0, r1, r4
    cf38:	f001 4100 	and.w	r1, r1, #2147483648	; 0x80000000
    cf3c:	fa21 f204 	lsr.w	r2, r1, r4
    cf40:	ea20 0002 	bic.w	r0, r0, r2
    cf44:	eb00 70d3 	add.w	r0, r0, r3, lsr #31
    cf48:	ea5e 0e43 	orrs.w	lr, lr, r3, lsl #1
    cf4c:	bf08      	it	eq
    cf4e:	ea20 70d3 	biceq.w	r0, r0, r3, lsr #31
    cf52:	bd70      	pop	{r4, r5, r6, pc}
    cf54:	f094 0f00 	teq	r4, #0
    cf58:	d10f      	bne.n	cf7a <__aeabi_dmul+0x1c2>
    cf5a:	f001 4600 	and.w	r6, r1, #2147483648	; 0x80000000
    cf5e:	0040      	lsls	r0, r0, #1
    cf60:	eb41 0101 	adc.w	r1, r1, r1
    cf64:	f411 1f80 	tst.w	r1, #1048576	; 0x100000
    cf68:	bf08      	it	eq
    cf6a:	3c01      	subeq	r4, #1
    cf6c:	d0f7      	beq.n	cf5e <__aeabi_dmul+0x1a6>
    cf6e:	ea41 0106 	orr.w	r1, r1, r6
    cf72:	f095 0f00 	teq	r5, #0
    cf76:	bf18      	it	ne
    cf78:	4770      	bxne	lr
    cf7a:	f003 4600 	and.w	r6, r3, #2147483648	; 0x80000000
    cf7e:	0052      	lsls	r2, r2, #1
    cf80:	eb43 0303 	adc.w	r3, r3, r3
    cf84:	f413 1f80 	tst.w	r3, #1048576	; 0x100000
    cf88:	bf08      	it	eq
    cf8a:	3d01      	subeq	r5, #1
    cf8c:	d0f7      	beq.n	cf7e <__aeabi_dmul+0x1c6>
    cf8e:	ea43 0306 	orr.w	r3, r3, r6
    cf92:	4770      	bx	lr
    cf94:	ea94 0f0c 	teq	r4, ip
    cf98:	ea0c 5513 	and.w	r5, ip, r3, lsr #20
    cf9c:	bf18      	it	ne
    cf9e:	ea95 0f0c 	teqne	r5, ip
    cfa2:	d00c      	beq.n	cfbe <__aeabi_dmul+0x206>
    cfa4:	ea50 0641 	orrs.w	r6, r0, r1, lsl #1
    cfa8:	bf18      	it	ne
    cfaa:	ea52 0643 	orrsne.w	r6, r2, r3, lsl #1
    cfae:	d1d1      	bne.n	cf54 <__aeabi_dmul+0x19c>
    cfb0:	ea81 0103 	eor.w	r1, r1, r3
    cfb4:	f001 4100 	and.w	r1, r1, #2147483648	; 0x80000000
    cfb8:	f04f 0000 	mov.w	r0, #0
    cfbc:	bd70      	pop	{r4, r5, r6, pc}
    cfbe:	ea50 0641 	orrs.w	r6, r0, r1, lsl #1
    cfc2:	bf06      	itte	eq
    cfc4:	4610      	moveq	r0, r2
    cfc6:	4619      	moveq	r1, r3
    cfc8:	ea52 0643 	orrsne.w	r6, r2, r3, lsl #1
    cfcc:	d019      	beq.n	d002 <__aeabi_dmul+0x24a>
    cfce:	ea94 0f0c 	teq	r4, ip
    cfd2:	d102      	bne.n	cfda <__aeabi_dmul+0x222>
    cfd4:	ea50 3601 	orrs.w	r6, r0, r1, lsl #12
    cfd8:	d113      	bne.n	d002 <__aeabi_dmul+0x24a>
    cfda:	ea95 0f0c 	teq	r5, ip
    cfde:	d105      	bne.n	cfec <__aeabi_dmul+0x234>
    cfe0:	ea52 3603 	orrs.w	r6, r2, r3, lsl #12
    cfe4:	bf1c      	itt	ne
    cfe6:	4610      	movne	r0, r2
    cfe8:	4619      	movne	r1, r3
    cfea:	d10a      	bne.n	d002 <__aeabi_dmul+0x24a>
    cfec:	ea81 0103 	eor.w	r1, r1, r3
    cff0:	f001 4100 	and.w	r1, r1, #2147483648	; 0x80000000
    cff4:	f041 41fe 	orr.w	r1, r1, #2130706432	; 0x7f000000
    cff8:	f441 0170 	orr.w	r1, r1, #15728640	; 0xf00000
    cffc:	f04f 0000 	mov.w	r0, #0
    d000:	bd70      	pop	{r4, r5, r6, pc}
    d002:	f041 41fe 	orr.w	r1, r1, #2130706432	; 0x7f000000
    d006:	f441 0178 	orr.w	r1, r1, #16252928	; 0xf80000
    d00a:	bd70      	pop	{r4, r5, r6, pc}

0000d00c <__aeabi_ddiv>:
    d00c:	b570      	push	{r4, r5, r6, lr}
    d00e:	f04f 0cff 	mov.w	ip, #255	; 0xff
    d012:	f44c 6ce0 	orr.w	ip, ip, #1792	; 0x700
    d016:	ea1c 5411 	ands.w	r4, ip, r1, lsr #20
    d01a:	bf1d      	ittte	ne
    d01c:	ea1c 5513 	andsne.w	r5, ip, r3, lsr #20
    d020:	ea94 0f0c 	teqne	r4, ip
    d024:	ea95 0f0c 	teqne	r5, ip
    d028:	f000 f8a7 	bleq	d17a <__aeabi_ddiv+0x16e>
    d02c:	eba4 0405 	sub.w	r4, r4, r5
    d030:	ea81 0e03 	eor.w	lr, r1, r3
    d034:	ea52 3503 	orrs.w	r5, r2, r3, lsl #12
    d038:	ea4f 3101 	mov.w	r1, r1, lsl #12
    d03c:	f000 8088 	beq.w	d150 <__aeabi_ddiv+0x144>
    d040:	ea4f 3303 	mov.w	r3, r3, lsl #12
    d044:	f04f 5580 	mov.w	r5, #268435456	; 0x10000000
    d048:	ea45 1313 	orr.w	r3, r5, r3, lsr #4
    d04c:	ea43 6312 	orr.w	r3, r3, r2, lsr #24
    d050:	ea4f 2202 	mov.w	r2, r2, lsl #8
    d054:	ea45 1511 	orr.w	r5, r5, r1, lsr #4
    d058:	ea45 6510 	orr.w	r5, r5, r0, lsr #24
    d05c:	ea4f 2600 	mov.w	r6, r0, lsl #8
    d060:	f00e 4100 	and.w	r1, lr, #2147483648	; 0x80000000
    d064:	429d      	cmp	r5, r3
    d066:	bf08      	it	eq
    d068:	4296      	cmpeq	r6, r2
    d06a:	f144 04fd 	adc.w	r4, r4, #253	; 0xfd
    d06e:	f504 7440 	add.w	r4, r4, #768	; 0x300
    d072:	d202      	bcs.n	d07a <__aeabi_ddiv+0x6e>
    d074:	085b      	lsrs	r3, r3, #1
    d076:	ea4f 0232 	mov.w	r2, r2, rrx
    d07a:	1ab6      	subs	r6, r6, r2
    d07c:	eb65 0503 	sbc.w	r5, r5, r3
    d080:	085b      	lsrs	r3, r3, #1
    d082:	ea4f 0232 	mov.w	r2, r2, rrx
    d086:	f44f 1080 	mov.w	r0, #1048576	; 0x100000
    d08a:	f44f 2c00 	mov.w	ip, #524288	; 0x80000
    d08e:	ebb6 0e02 	subs.w	lr, r6, r2
    d092:	eb75 0e03 	sbcs.w	lr, r5, r3
    d096:	bf22      	ittt	cs
    d098:	1ab6      	subcs	r6, r6, r2
    d09a:	4675      	movcs	r5, lr
    d09c:	ea40 000c 	orrcs.w	r0, r0, ip
    d0a0:	085b      	lsrs	r3, r3, #1
    d0a2:	ea4f 0232 	mov.w	r2, r2, rrx
    d0a6:	ebb6 0e02 	subs.w	lr, r6, r2
    d0aa:	eb75 0e03 	sbcs.w	lr, r5, r3
    d0ae:	bf22      	ittt	cs
    d0b0:	1ab6      	subcs	r6, r6, r2
    d0b2:	4675      	movcs	r5, lr
    d0b4:	ea40 005c 	orrcs.w	r0, r0, ip, lsr #1
    d0b8:	085b      	lsrs	r3, r3, #1
    d0ba:	ea4f 0232 	mov.w	r2, r2, rrx
    d0be:	ebb6 0e02 	subs.w	lr, r6, r2
    d0c2:	eb75 0e03 	sbcs.w	lr, r5, r3
    d0c6:	bf22      	ittt	cs
    d0c8:	1ab6      	subcs	r6, r6, r2
    d0ca:	4675      	movcs	r5, lr
    d0cc:	ea40 009c 	orrcs.w	r0, r0, ip, lsr #2
    d0d0:	085b      	lsrs	r3, r3, #1
    d0d2:	ea4f 0232 	mov.w	r2, r2, rrx
    d0d6:	ebb6 0e02 	subs.w	lr, r6, r2
    d0da:	eb75 0e03 	sbcs.w	lr, r5, r3
    d0de:	bf22      	ittt	cs
    d0e0:	1ab6      	subcs	r6, r6, r2
    d0e2:	4675      	movcs	r5, lr
    d0e4:	ea40 00dc 	orrcs.w	r0, r0, ip, lsr #3
    d0e8:	ea55 0e06 	orrs.w	lr, r5, r6
    d0ec:	d018      	beq.n	d120 <__aeabi_ddiv+0x114>
    d0ee:	ea4f 1505 	mov.w	r5, r5, lsl #4
    d0f2:	ea45 7516 	orr.w	r5, r5, r6, lsr #28
    d0f6:	ea4f 1606 	mov.w	r6, r6, lsl #4
    d0fa:	ea4f 03c3 	mov.w	r3, r3, lsl #3
    d0fe:	ea43 7352 	orr.w	r3, r3, r2, lsr #29
    d102:	ea4f 02c2 	mov.w	r2, r2, lsl #3
    d106:	ea5f 1c1c 	movs.w	ip, ip, lsr #4
    d10a:	d1c0      	bne.n	d08e <__aeabi_ddiv+0x82>
    d10c:	f411 1f80 	tst.w	r1, #1048576	; 0x100000
    d110:	d10b      	bne.n	d12a <__aeabi_ddiv+0x11e>
    d112:	ea41 0100 	orr.w	r1, r1, r0
    d116:	f04f 0000 	mov.w	r0, #0
    d11a:	f04f 4c00 	mov.w	ip, #2147483648	; 0x80000000
    d11e:	e7b6      	b.n	d08e <__aeabi_ddiv+0x82>
    d120:	f411 1f80 	tst.w	r1, #1048576	; 0x100000
    d124:	bf04      	itt	eq
    d126:	4301      	orreq	r1, r0
    d128:	2000      	moveq	r0, #0
    d12a:	f1b4 0cfd 	subs.w	ip, r4, #253	; 0xfd
    d12e:	bf88      	it	hi
    d130:	f5bc 6fe0 	cmphi.w	ip, #1792	; 0x700
    d134:	f63f aeaf 	bhi.w	ce96 <__aeabi_dmul+0xde>
    d138:	ebb5 0c03 	subs.w	ip, r5, r3
    d13c:	bf04      	itt	eq
    d13e:	ebb6 0c02 	subseq.w	ip, r6, r2
    d142:	ea5f 0c50 	movseq.w	ip, r0, lsr #1
    d146:	f150 0000 	adcs.w	r0, r0, #0
    d14a:	eb41 5104 	adc.w	r1, r1, r4, lsl #20
    d14e:	bd70      	pop	{r4, r5, r6, pc}
    d150:	f00e 4e00 	and.w	lr, lr, #2147483648	; 0x80000000
    d154:	ea4e 3111 	orr.w	r1, lr, r1, lsr #12
    d158:	eb14 045c 	adds.w	r4, r4, ip, lsr #1
    d15c:	bfc2      	ittt	gt
    d15e:	ebd4 050c 	rsbsgt	r5, r4, ip
    d162:	ea41 5104 	orrgt.w	r1, r1, r4, lsl #20
    d166:	bd70      	popgt	{r4, r5, r6, pc}
    d168:	f441 1180 	orr.w	r1, r1, #1048576	; 0x100000
    d16c:	f04f 0e00 	mov.w	lr, #0
    d170:	3c01      	subs	r4, #1
    d172:	e690      	b.n	ce96 <__aeabi_dmul+0xde>
    d174:	ea45 0e06 	orr.w	lr, r5, r6
    d178:	e68d      	b.n	ce96 <__aeabi_dmul+0xde>
    d17a:	ea0c 5513 	and.w	r5, ip, r3, lsr #20
    d17e:	ea94 0f0c 	teq	r4, ip
    d182:	bf08      	it	eq
    d184:	ea95 0f0c 	teqeq	r5, ip
    d188:	f43f af3b 	beq.w	d002 <__aeabi_dmul+0x24a>
    d18c:	ea94 0f0c 	teq	r4, ip
    d190:	d10a      	bne.n	d1a8 <__aeabi_ddiv+0x19c>
    d192:	ea50 3401 	orrs.w	r4, r0, r1, lsl #12
    d196:	f47f af34 	bne.w	d002 <__aeabi_dmul+0x24a>
    d19a:	ea95 0f0c 	teq	r5, ip
    d19e:	f47f af25 	bne.w	cfec <__aeabi_dmul+0x234>
    d1a2:	4610      	mov	r0, r2
    d1a4:	4619      	mov	r1, r3
    d1a6:	e72c      	b.n	d002 <__aeabi_dmul+0x24a>
    d1a8:	ea95 0f0c 	teq	r5, ip
    d1ac:	d106      	bne.n	d1bc <__aeabi_ddiv+0x1b0>
    d1ae:	ea52 3503 	orrs.w	r5, r2, r3, lsl #12
    d1b2:	f43f aefd 	beq.w	cfb0 <__aeabi_dmul+0x1f8>
    d1b6:	4610      	mov	r0, r2
    d1b8:	4619      	mov	r1, r3
    d1ba:	e722      	b.n	d002 <__aeabi_dmul+0x24a>
    d1bc:	ea50 0641 	orrs.w	r6, r0, r1, lsl #1
    d1c0:	bf18      	it	ne
    d1c2:	ea52 0643 	orrsne.w	r6, r2, r3, lsl #1
    d1c6:	f47f aec5 	bne.w	cf54 <__aeabi_dmul+0x19c>
    d1ca:	ea50 0441 	orrs.w	r4, r0, r1, lsl #1
    d1ce:	f47f af0d 	bne.w	cfec <__aeabi_dmul+0x234>
    d1d2:	ea52 0543 	orrs.w	r5, r2, r3, lsl #1
    d1d6:	f47f aeeb 	bne.w	cfb0 <__aeabi_dmul+0x1f8>
    d1da:	e712      	b.n	d002 <__aeabi_dmul+0x24a>

0000d1dc <__aeabi_d2uiz>:
    d1dc:	004a      	lsls	r2, r1, #1
    d1de:	d211      	bcs.n	d204 <__aeabi_d2uiz+0x28>
    d1e0:	f512 1200 	adds.w	r2, r2, #2097152	; 0x200000
    d1e4:	d211      	bcs.n	d20a <__aeabi_d2uiz+0x2e>
    d1e6:	d50d      	bpl.n	d204 <__aeabi_d2uiz+0x28>
    d1e8:	f46f 7378 	mvn.w	r3, #992	; 0x3e0
    d1ec:	ebb3 5262 	subs.w	r2, r3, r2, asr #21
    d1f0:	d40e      	bmi.n	d210 <__aeabi_d2uiz+0x34>
    d1f2:	ea4f 23c1 	mov.w	r3, r1, lsl #11
    d1f6:	f043 4300 	orr.w	r3, r3, #2147483648	; 0x80000000
    d1fa:	ea43 5350 	orr.w	r3, r3, r0, lsr #21
    d1fe:	fa23 f002 	lsr.w	r0, r3, r2
    d202:	4770      	bx	lr
    d204:	f04f 0000 	mov.w	r0, #0
    d208:	4770      	bx	lr
    d20a:	ea50 3001 	orrs.w	r0, r0, r1, lsl #12
    d20e:	d102      	bne.n	d216 <__aeabi_d2uiz+0x3a>
    d210:	f04f 30ff 	mov.w	r0, #4294967295
    d214:	4770      	bx	lr
    d216:	f04f 0000 	mov.w	r0, #0
    d21a:	4770      	bx	lr

0000d21c <__libc_init_array>:
    d21c:	b570      	push	{r4, r5, r6, lr}
    d21e:	4e0d      	ldr	r6, [pc, #52]	; (d254 <__libc_init_array+0x38>)
    d220:	4c0d      	ldr	r4, [pc, #52]	; (d258 <__libc_init_array+0x3c>)
    d222:	1ba4      	subs	r4, r4, r6
    d224:	10a4      	asrs	r4, r4, #2
    d226:	2500      	movs	r5, #0
    d228:	42a5      	cmp	r5, r4
    d22a:	d109      	bne.n	d240 <__libc_init_array+0x24>
    d22c:	4e0b      	ldr	r6, [pc, #44]	; (d25c <__libc_init_array+0x40>)
    d22e:	4c0c      	ldr	r4, [pc, #48]	; (d260 <__libc_init_array+0x44>)
    d230:	f000 ffca 	bl	e1c8 <_init>
    d234:	1ba4      	subs	r4, r4, r6
    d236:	10a4      	asrs	r4, r4, #2
    d238:	2500      	movs	r5, #0
    d23a:	42a5      	cmp	r5, r4
    d23c:	d105      	bne.n	d24a <__libc_init_array+0x2e>
    d23e:	bd70      	pop	{r4, r5, r6, pc}
    d240:	f856 3025 	ldr.w	r3, [r6, r5, lsl #2]
    d244:	4798      	blx	r3
    d246:	3501      	adds	r5, #1
    d248:	e7ee      	b.n	d228 <__libc_init_array+0xc>
    d24a:	f856 3025 	ldr.w	r3, [r6, r5, lsl #2]
    d24e:	4798      	blx	r3
    d250:	3501      	adds	r5, #1
    d252:	e7f2      	b.n	d23a <__libc_init_array+0x1e>
    d254:	0000e1d4 	.word	0x0000e1d4
    d258:	0000e1d4 	.word	0x0000e1d4
    d25c:	0000e1d4 	.word	0x0000e1d4
    d260:	0000e1d8 	.word	0x0000e1d8

0000d264 <malloc>:
    d264:	4b02      	ldr	r3, [pc, #8]	; (d270 <malloc+0xc>)
    d266:	4601      	mov	r1, r0
    d268:	6818      	ldr	r0, [r3, #0]
    d26a:	f000 b865 	b.w	d338 <_malloc_r>
    d26e:	bf00      	nop
    d270:	20000554 	.word	0x20000554

0000d274 <memcpy>:
    d274:	b510      	push	{r4, lr}
    d276:	1e43      	subs	r3, r0, #1
    d278:	440a      	add	r2, r1
    d27a:	4291      	cmp	r1, r2
    d27c:	d100      	bne.n	d280 <memcpy+0xc>
    d27e:	bd10      	pop	{r4, pc}
    d280:	f811 4b01 	ldrb.w	r4, [r1], #1
    d284:	f803 4f01 	strb.w	r4, [r3, #1]!
    d288:	e7f7      	b.n	d27a <memcpy+0x6>

0000d28a <memset>:
    d28a:	4402      	add	r2, r0
    d28c:	4603      	mov	r3, r0
    d28e:	4293      	cmp	r3, r2
    d290:	d100      	bne.n	d294 <memset+0xa>
    d292:	4770      	bx	lr
    d294:	f803 1b01 	strb.w	r1, [r3], #1
    d298:	e7f9      	b.n	d28e <memset+0x4>
	...

0000d29c <_free_r>:
    d29c:	b538      	push	{r3, r4, r5, lr}
    d29e:	4605      	mov	r5, r0
    d2a0:	2900      	cmp	r1, #0
    d2a2:	d045      	beq.n	d330 <_free_r+0x94>
    d2a4:	f851 3c04 	ldr.w	r3, [r1, #-4]
    d2a8:	1f0c      	subs	r4, r1, #4
    d2aa:	2b00      	cmp	r3, #0
    d2ac:	bfb8      	it	lt
    d2ae:	18e4      	addlt	r4, r4, r3
    d2b0:	f000 f91e 	bl	d4f0 <__malloc_lock>
    d2b4:	4a1f      	ldr	r2, [pc, #124]	; (d334 <_free_r+0x98>)
    d2b6:	6813      	ldr	r3, [r2, #0]
    d2b8:	4610      	mov	r0, r2
    d2ba:	b933      	cbnz	r3, d2ca <_free_r+0x2e>
    d2bc:	6063      	str	r3, [r4, #4]
    d2be:	6014      	str	r4, [r2, #0]
    d2c0:	4628      	mov	r0, r5
    d2c2:	e8bd 4038 	ldmia.w	sp!, {r3, r4, r5, lr}
    d2c6:	f000 b914 	b.w	d4f2 <__malloc_unlock>
    d2ca:	42a3      	cmp	r3, r4
    d2cc:	d90c      	bls.n	d2e8 <_free_r+0x4c>
    d2ce:	6821      	ldr	r1, [r4, #0]
    d2d0:	1862      	adds	r2, r4, r1
    d2d2:	4293      	cmp	r3, r2
    d2d4:	bf04      	itt	eq
    d2d6:	681a      	ldreq	r2, [r3, #0]
    d2d8:	685b      	ldreq	r3, [r3, #4]
    d2da:	6063      	str	r3, [r4, #4]
    d2dc:	bf04      	itt	eq
    d2de:	1852      	addeq	r2, r2, r1
    d2e0:	6022      	streq	r2, [r4, #0]
    d2e2:	6004      	str	r4, [r0, #0]
    d2e4:	e7ec      	b.n	d2c0 <_free_r+0x24>
    d2e6:	4613      	mov	r3, r2
    d2e8:	685a      	ldr	r2, [r3, #4]
    d2ea:	b10a      	cbz	r2, d2f0 <_free_r+0x54>
    d2ec:	42a2      	cmp	r2, r4
    d2ee:	d9fa      	bls.n	d2e6 <_free_r+0x4a>
    d2f0:	6819      	ldr	r1, [r3, #0]
    d2f2:	1858      	adds	r0, r3, r1
    d2f4:	42a0      	cmp	r0, r4
    d2f6:	d10b      	bne.n	d310 <_free_r+0x74>
    d2f8:	6820      	ldr	r0, [r4, #0]
    d2fa:	4401      	add	r1, r0
    d2fc:	1858      	adds	r0, r3, r1
    d2fe:	4282      	cmp	r2, r0
    d300:	6019      	str	r1, [r3, #0]
    d302:	d1dd      	bne.n	d2c0 <_free_r+0x24>
    d304:	6810      	ldr	r0, [r2, #0]
    d306:	6852      	ldr	r2, [r2, #4]
    d308:	605a      	str	r2, [r3, #4]
    d30a:	4401      	add	r1, r0
    d30c:	6019      	str	r1, [r3, #0]
    d30e:	e7d7      	b.n	d2c0 <_free_r+0x24>
    d310:	d902      	bls.n	d318 <_free_r+0x7c>
    d312:	230c      	movs	r3, #12
    d314:	602b      	str	r3, [r5, #0]
    d316:	e7d3      	b.n	d2c0 <_free_r+0x24>
    d318:	6820      	ldr	r0, [r4, #0]
    d31a:	1821      	adds	r1, r4, r0
    d31c:	428a      	cmp	r2, r1
    d31e:	bf04      	itt	eq
    d320:	6811      	ldreq	r1, [r2, #0]
    d322:	6852      	ldreq	r2, [r2, #4]
    d324:	6062      	str	r2, [r4, #4]
    d326:	bf04      	itt	eq
    d328:	1809      	addeq	r1, r1, r0
    d32a:	6021      	streq	r1, [r4, #0]
    d32c:	605c      	str	r4, [r3, #4]
    d32e:	e7c7      	b.n	d2c0 <_free_r+0x24>
    d330:	bd38      	pop	{r3, r4, r5, pc}
    d332:	bf00      	nop
    d334:	20000e84 	.word	0x20000e84

0000d338 <_malloc_r>:
    d338:	b570      	push	{r4, r5, r6, lr}
    d33a:	1ccd      	adds	r5, r1, #3
    d33c:	f025 0503 	bic.w	r5, r5, #3
    d340:	3508      	adds	r5, #8
    d342:	2d0c      	cmp	r5, #12
    d344:	bf38      	it	cc
    d346:	250c      	movcc	r5, #12
    d348:	2d00      	cmp	r5, #0
    d34a:	4606      	mov	r6, r0
    d34c:	db01      	blt.n	d352 <_malloc_r+0x1a>
    d34e:	42a9      	cmp	r1, r5
    d350:	d903      	bls.n	d35a <_malloc_r+0x22>
    d352:	230c      	movs	r3, #12
    d354:	6033      	str	r3, [r6, #0]
    d356:	2000      	movs	r0, #0
    d358:	bd70      	pop	{r4, r5, r6, pc}
    d35a:	f000 f8c9 	bl	d4f0 <__malloc_lock>
    d35e:	4a23      	ldr	r2, [pc, #140]	; (d3ec <_malloc_r+0xb4>)
    d360:	6814      	ldr	r4, [r2, #0]
    d362:	4621      	mov	r1, r4
    d364:	b991      	cbnz	r1, d38c <_malloc_r+0x54>
    d366:	4c22      	ldr	r4, [pc, #136]	; (d3f0 <_malloc_r+0xb8>)
    d368:	6823      	ldr	r3, [r4, #0]
    d36a:	b91b      	cbnz	r3, d374 <_malloc_r+0x3c>
    d36c:	4630      	mov	r0, r6
    d36e:	f000 f87b 	bl	d468 <_sbrk_r>
    d372:	6020      	str	r0, [r4, #0]
    d374:	4629      	mov	r1, r5
    d376:	4630      	mov	r0, r6
    d378:	f000 f876 	bl	d468 <_sbrk_r>
    d37c:	1c43      	adds	r3, r0, #1
    d37e:	d126      	bne.n	d3ce <_malloc_r+0x96>
    d380:	230c      	movs	r3, #12
    d382:	6033      	str	r3, [r6, #0]
    d384:	4630      	mov	r0, r6
    d386:	f000 f8b4 	bl	d4f2 <__malloc_unlock>
    d38a:	e7e4      	b.n	d356 <_malloc_r+0x1e>
    d38c:	680b      	ldr	r3, [r1, #0]
    d38e:	1b5b      	subs	r3, r3, r5
    d390:	d41a      	bmi.n	d3c8 <_malloc_r+0x90>
    d392:	2b0b      	cmp	r3, #11
    d394:	d90f      	bls.n	d3b6 <_malloc_r+0x7e>
    d396:	600b      	str	r3, [r1, #0]
    d398:	50cd      	str	r5, [r1, r3]
    d39a:	18cc      	adds	r4, r1, r3
    d39c:	4630      	mov	r0, r6
    d39e:	f000 f8a8 	bl	d4f2 <__malloc_unlock>
    d3a2:	f104 000b 	add.w	r0, r4, #11
    d3a6:	1d23      	adds	r3, r4, #4
    d3a8:	f020 0007 	bic.w	r0, r0, #7
    d3ac:	1ac3      	subs	r3, r0, r3
    d3ae:	d01b      	beq.n	d3e8 <_malloc_r+0xb0>
    d3b0:	425a      	negs	r2, r3
    d3b2:	50e2      	str	r2, [r4, r3]
    d3b4:	bd70      	pop	{r4, r5, r6, pc}
    d3b6:	428c      	cmp	r4, r1
    d3b8:	bf0d      	iteet	eq
    d3ba:	6863      	ldreq	r3, [r4, #4]
    d3bc:	684b      	ldrne	r3, [r1, #4]
    d3be:	6063      	strne	r3, [r4, #4]
    d3c0:	6013      	streq	r3, [r2, #0]
    d3c2:	bf18      	it	ne
    d3c4:	460c      	movne	r4, r1
    d3c6:	e7e9      	b.n	d39c <_malloc_r+0x64>
    d3c8:	460c      	mov	r4, r1
    d3ca:	6849      	ldr	r1, [r1, #4]
    d3cc:	e7ca      	b.n	d364 <_malloc_r+0x2c>
    d3ce:	1cc4      	adds	r4, r0, #3
    d3d0:	f024 0403 	bic.w	r4, r4, #3
    d3d4:	42a0      	cmp	r0, r4
    d3d6:	d005      	beq.n	d3e4 <_malloc_r+0xac>
    d3d8:	1a21      	subs	r1, r4, r0
    d3da:	4630      	mov	r0, r6
    d3dc:	f000 f844 	bl	d468 <_sbrk_r>
    d3e0:	3001      	adds	r0, #1
    d3e2:	d0cd      	beq.n	d380 <_malloc_r+0x48>
    d3e4:	6025      	str	r5, [r4, #0]
    d3e6:	e7d9      	b.n	d39c <_malloc_r+0x64>
    d3e8:	bd70      	pop	{r4, r5, r6, pc}
    d3ea:	bf00      	nop
    d3ec:	20000e84 	.word	0x20000e84
    d3f0:	20000e88 	.word	0x20000e88

0000d3f4 <rand>:
    d3f4:	4b19      	ldr	r3, [pc, #100]	; (d45c <rand+0x68>)
    d3f6:	b510      	push	{r4, lr}
    d3f8:	681c      	ldr	r4, [r3, #0]
    d3fa:	6ba3      	ldr	r3, [r4, #56]	; 0x38
    d3fc:	b9d3      	cbnz	r3, d434 <rand+0x40>
    d3fe:	2018      	movs	r0, #24
    d400:	f7ff ff30 	bl	d264 <malloc>
    d404:	f243 330e 	movw	r3, #13070	; 0x330e
    d408:	63a0      	str	r0, [r4, #56]	; 0x38
    d40a:	8003      	strh	r3, [r0, #0]
    d40c:	f64a 33cd 	movw	r3, #43981	; 0xabcd
    d410:	8043      	strh	r3, [r0, #2]
    d412:	f241 2334 	movw	r3, #4660	; 0x1234
    d416:	8083      	strh	r3, [r0, #4]
    d418:	f24e 636d 	movw	r3, #58989	; 0xe66d
    d41c:	80c3      	strh	r3, [r0, #6]
    d41e:	f64d 63ec 	movw	r3, #57068	; 0xdeec
    d422:	8103      	strh	r3, [r0, #8]
    d424:	2305      	movs	r3, #5
    d426:	8143      	strh	r3, [r0, #10]
    d428:	230b      	movs	r3, #11
    d42a:	8183      	strh	r3, [r0, #12]
    d42c:	2201      	movs	r2, #1
    d42e:	2300      	movs	r3, #0
    d430:	e9c0 2304 	strd	r2, r3, [r0, #16]
    d434:	6ba1      	ldr	r1, [r4, #56]	; 0x38
    d436:	480a      	ldr	r0, [pc, #40]	; (d460 <rand+0x6c>)
    d438:	690a      	ldr	r2, [r1, #16]
    d43a:	694b      	ldr	r3, [r1, #20]
    d43c:	4c09      	ldr	r4, [pc, #36]	; (d464 <rand+0x70>)
    d43e:	4350      	muls	r0, r2
    d440:	fb04 0003 	mla	r0, r4, r3, r0
    d444:	fba2 2304 	umull	r2, r3, r2, r4
    d448:	3201      	adds	r2, #1
    d44a:	4403      	add	r3, r0
    d44c:	f143 0300 	adc.w	r3, r3, #0
    d450:	e9c1 2304 	strd	r2, r3, [r1, #16]
    d454:	f023 4000 	bic.w	r0, r3, #2147483648	; 0x80000000
    d458:	bd10      	pop	{r4, pc}
    d45a:	bf00      	nop
    d45c:	20000554 	.word	0x20000554
    d460:	5851f42d 	.word	0x5851f42d
    d464:	4c957f2d 	.word	0x4c957f2d

0000d468 <_sbrk_r>:
    d468:	b538      	push	{r3, r4, r5, lr}
    d46a:	4c06      	ldr	r4, [pc, #24]	; (d484 <_sbrk_r+0x1c>)
    d46c:	2300      	movs	r3, #0
    d46e:	4605      	mov	r5, r0
    d470:	4608      	mov	r0, r1
    d472:	6023      	str	r3, [r4, #0]
    d474:	f7fb f8d4 	bl	8620 <_sbrk>
    d478:	1c43      	adds	r3, r0, #1
    d47a:	d102      	bne.n	d482 <_sbrk_r+0x1a>
    d47c:	6823      	ldr	r3, [r4, #0]
    d47e:	b103      	cbz	r3, d482 <_sbrk_r+0x1a>
    d480:	602b      	str	r3, [r5, #0]
    d482:	bd38      	pop	{r3, r4, r5, pc}
    d484:	20003e5c 	.word	0x20003e5c

0000d488 <siprintf>:
    d488:	b40e      	push	{r1, r2, r3}
    d48a:	b500      	push	{lr}
    d48c:	b09c      	sub	sp, #112	; 0x70
    d48e:	f44f 7102 	mov.w	r1, #520	; 0x208
    d492:	ab1d      	add	r3, sp, #116	; 0x74
    d494:	f8ad 1014 	strh.w	r1, [sp, #20]
    d498:	9002      	str	r0, [sp, #8]
    d49a:	9006      	str	r0, [sp, #24]
    d49c:	f06f 4100 	mvn.w	r1, #2147483648	; 0x80000000
    d4a0:	480a      	ldr	r0, [pc, #40]	; (d4cc <siprintf+0x44>)
    d4a2:	9104      	str	r1, [sp, #16]
    d4a4:	9107      	str	r1, [sp, #28]
    d4a6:	f64f 71ff 	movw	r1, #65535	; 0xffff
    d4aa:	f853 2b04 	ldr.w	r2, [r3], #4
    d4ae:	f8ad 1016 	strh.w	r1, [sp, #22]
    d4b2:	6800      	ldr	r0, [r0, #0]
    d4b4:	9301      	str	r3, [sp, #4]
    d4b6:	a902      	add	r1, sp, #8
    d4b8:	f000 f878 	bl	d5ac <_svfiprintf_r>
    d4bc:	9b02      	ldr	r3, [sp, #8]
    d4be:	2200      	movs	r2, #0
    d4c0:	701a      	strb	r2, [r3, #0]
    d4c2:	b01c      	add	sp, #112	; 0x70
    d4c4:	f85d eb04 	ldr.w	lr, [sp], #4
    d4c8:	b003      	add	sp, #12
    d4ca:	4770      	bx	lr
    d4cc:	20000554 	.word	0x20000554

0000d4d0 <strcpy>:
    d4d0:	4603      	mov	r3, r0
    d4d2:	f811 2b01 	ldrb.w	r2, [r1], #1
    d4d6:	f803 2b01 	strb.w	r2, [r3], #1
    d4da:	2a00      	cmp	r2, #0
    d4dc:	d1f9      	bne.n	d4d2 <strcpy+0x2>
    d4de:	4770      	bx	lr

0000d4e0 <strlen>:
    d4e0:	4603      	mov	r3, r0
    d4e2:	f813 2b01 	ldrb.w	r2, [r3], #1
    d4e6:	2a00      	cmp	r2, #0
    d4e8:	d1fb      	bne.n	d4e2 <strlen+0x2>
    d4ea:	1a18      	subs	r0, r3, r0
    d4ec:	3801      	subs	r0, #1
    d4ee:	4770      	bx	lr

0000d4f0 <__malloc_lock>:
    d4f0:	4770      	bx	lr

0000d4f2 <__malloc_unlock>:
    d4f2:	4770      	bx	lr

0000d4f4 <__ssputs_r>:
    d4f4:	e92d 47f0 	stmdb	sp!, {r4, r5, r6, r7, r8, r9, sl, lr}
    d4f8:	688e      	ldr	r6, [r1, #8]
    d4fa:	429e      	cmp	r6, r3
    d4fc:	4682      	mov	sl, r0
    d4fe:	460c      	mov	r4, r1
    d500:	4691      	mov	r9, r2
    d502:	4698      	mov	r8, r3
    d504:	d835      	bhi.n	d572 <__ssputs_r+0x7e>
    d506:	898a      	ldrh	r2, [r1, #12]
    d508:	f412 6f90 	tst.w	r2, #1152	; 0x480
    d50c:	d031      	beq.n	d572 <__ssputs_r+0x7e>
    d50e:	6825      	ldr	r5, [r4, #0]
    d510:	6909      	ldr	r1, [r1, #16]
    d512:	1a6f      	subs	r7, r5, r1
    d514:	6965      	ldr	r5, [r4, #20]
    d516:	2302      	movs	r3, #2
    d518:	eb05 0545 	add.w	r5, r5, r5, lsl #1
    d51c:	fb95 f5f3 	sdiv	r5, r5, r3
    d520:	f108 0301 	add.w	r3, r8, #1
    d524:	443b      	add	r3, r7
    d526:	429d      	cmp	r5, r3
    d528:	bf38      	it	cc
    d52a:	461d      	movcc	r5, r3
    d52c:	0553      	lsls	r3, r2, #21
    d52e:	d531      	bpl.n	d594 <__ssputs_r+0xa0>
    d530:	4629      	mov	r1, r5
    d532:	f7ff ff01 	bl	d338 <_malloc_r>
    d536:	4606      	mov	r6, r0
    d538:	b950      	cbnz	r0, d550 <__ssputs_r+0x5c>
    d53a:	230c      	movs	r3, #12
    d53c:	f8ca 3000 	str.w	r3, [sl]
    d540:	89a3      	ldrh	r3, [r4, #12]
    d542:	f043 0340 	orr.w	r3, r3, #64	; 0x40
    d546:	81a3      	strh	r3, [r4, #12]
    d548:	f04f 30ff 	mov.w	r0, #4294967295
    d54c:	e8bd 87f0 	ldmia.w	sp!, {r4, r5, r6, r7, r8, r9, sl, pc}
    d550:	463a      	mov	r2, r7
    d552:	6921      	ldr	r1, [r4, #16]
    d554:	f7ff fe8e 	bl	d274 <memcpy>
    d558:	89a3      	ldrh	r3, [r4, #12]
    d55a:	f423 6390 	bic.w	r3, r3, #1152	; 0x480
    d55e:	f043 0380 	orr.w	r3, r3, #128	; 0x80
    d562:	81a3      	strh	r3, [r4, #12]
    d564:	6126      	str	r6, [r4, #16]
    d566:	6165      	str	r5, [r4, #20]
    d568:	443e      	add	r6, r7
    d56a:	1bed      	subs	r5, r5, r7
    d56c:	6026      	str	r6, [r4, #0]
    d56e:	60a5      	str	r5, [r4, #8]
    d570:	4646      	mov	r6, r8
    d572:	4546      	cmp	r6, r8
    d574:	bf28      	it	cs
    d576:	4646      	movcs	r6, r8
    d578:	4632      	mov	r2, r6
    d57a:	4649      	mov	r1, r9
    d57c:	6820      	ldr	r0, [r4, #0]
    d57e:	f000 faef 	bl	db60 <memmove>
    d582:	68a3      	ldr	r3, [r4, #8]
    d584:	1b9b      	subs	r3, r3, r6
    d586:	60a3      	str	r3, [r4, #8]
    d588:	6823      	ldr	r3, [r4, #0]
    d58a:	441e      	add	r6, r3
    d58c:	6026      	str	r6, [r4, #0]
    d58e:	2000      	movs	r0, #0
    d590:	e8bd 87f0 	ldmia.w	sp!, {r4, r5, r6, r7, r8, r9, sl, pc}
    d594:	462a      	mov	r2, r5
    d596:	f000 fafd 	bl	db94 <_realloc_r>
    d59a:	4606      	mov	r6, r0
    d59c:	2800      	cmp	r0, #0
    d59e:	d1e1      	bne.n	d564 <__ssputs_r+0x70>
    d5a0:	6921      	ldr	r1, [r4, #16]
    d5a2:	4650      	mov	r0, sl
    d5a4:	f7ff fe7a 	bl	d29c <_free_r>
    d5a8:	e7c7      	b.n	d53a <__ssputs_r+0x46>
	...

0000d5ac <_svfiprintf_r>:
    d5ac:	e92d 4ff0 	stmdb	sp!, {r4, r5, r6, r7, r8, r9, sl, fp, lr}
    d5b0:	b09d      	sub	sp, #116	; 0x74
    d5b2:	4680      	mov	r8, r0
    d5b4:	9303      	str	r3, [sp, #12]
    d5b6:	898b      	ldrh	r3, [r1, #12]
    d5b8:	061c      	lsls	r4, r3, #24
    d5ba:	460d      	mov	r5, r1
    d5bc:	4616      	mov	r6, r2
    d5be:	d50f      	bpl.n	d5e0 <_svfiprintf_r+0x34>
    d5c0:	690b      	ldr	r3, [r1, #16]
    d5c2:	b96b      	cbnz	r3, d5e0 <_svfiprintf_r+0x34>
    d5c4:	2140      	movs	r1, #64	; 0x40
    d5c6:	f7ff feb7 	bl	d338 <_malloc_r>
    d5ca:	6028      	str	r0, [r5, #0]
    d5cc:	6128      	str	r0, [r5, #16]
    d5ce:	b928      	cbnz	r0, d5dc <_svfiprintf_r+0x30>
    d5d0:	230c      	movs	r3, #12
    d5d2:	f8c8 3000 	str.w	r3, [r8]
    d5d6:	f04f 30ff 	mov.w	r0, #4294967295
    d5da:	e0c5      	b.n	d768 <_svfiprintf_r+0x1bc>
    d5dc:	2340      	movs	r3, #64	; 0x40
    d5de:	616b      	str	r3, [r5, #20]
    d5e0:	2300      	movs	r3, #0
    d5e2:	9309      	str	r3, [sp, #36]	; 0x24
    d5e4:	2320      	movs	r3, #32
    d5e6:	f88d 3029 	strb.w	r3, [sp, #41]	; 0x29
    d5ea:	2330      	movs	r3, #48	; 0x30
    d5ec:	f88d 302a 	strb.w	r3, [sp, #42]	; 0x2a
    d5f0:	f04f 0b01 	mov.w	fp, #1
    d5f4:	4637      	mov	r7, r6
    d5f6:	463c      	mov	r4, r7
    d5f8:	f814 3b01 	ldrb.w	r3, [r4], #1
    d5fc:	2b00      	cmp	r3, #0
    d5fe:	d13c      	bne.n	d67a <_svfiprintf_r+0xce>
    d600:	ebb7 0a06 	subs.w	sl, r7, r6
    d604:	d00b      	beq.n	d61e <_svfiprintf_r+0x72>
    d606:	4653      	mov	r3, sl
    d608:	4632      	mov	r2, r6
    d60a:	4629      	mov	r1, r5
    d60c:	4640      	mov	r0, r8
    d60e:	f7ff ff71 	bl	d4f4 <__ssputs_r>
    d612:	3001      	adds	r0, #1
    d614:	f000 80a3 	beq.w	d75e <_svfiprintf_r+0x1b2>
    d618:	9b09      	ldr	r3, [sp, #36]	; 0x24
    d61a:	4453      	add	r3, sl
    d61c:	9309      	str	r3, [sp, #36]	; 0x24
    d61e:	783b      	ldrb	r3, [r7, #0]
    d620:	2b00      	cmp	r3, #0
    d622:	f000 809c 	beq.w	d75e <_svfiprintf_r+0x1b2>
    d626:	2300      	movs	r3, #0
    d628:	f04f 32ff 	mov.w	r2, #4294967295
    d62c:	9304      	str	r3, [sp, #16]
    d62e:	9307      	str	r3, [sp, #28]
    d630:	9205      	str	r2, [sp, #20]
    d632:	9306      	str	r3, [sp, #24]
    d634:	f88d 3053 	strb.w	r3, [sp, #83]	; 0x53
    d638:	931a      	str	r3, [sp, #104]	; 0x68
    d63a:	2205      	movs	r2, #5
    d63c:	7821      	ldrb	r1, [r4, #0]
    d63e:	4850      	ldr	r0, [pc, #320]	; (d780 <_svfiprintf_r+0x1d4>)
    d640:	f000 fa3e 	bl	dac0 <memchr>
    d644:	1c67      	adds	r7, r4, #1
    d646:	9b04      	ldr	r3, [sp, #16]
    d648:	b9d8      	cbnz	r0, d682 <_svfiprintf_r+0xd6>
    d64a:	06d9      	lsls	r1, r3, #27
    d64c:	bf44      	itt	mi
    d64e:	2220      	movmi	r2, #32
    d650:	f88d 2053 	strbmi.w	r2, [sp, #83]	; 0x53
    d654:	071a      	lsls	r2, r3, #28
    d656:	bf44      	itt	mi
    d658:	222b      	movmi	r2, #43	; 0x2b
    d65a:	f88d 2053 	strbmi.w	r2, [sp, #83]	; 0x53
    d65e:	7822      	ldrb	r2, [r4, #0]
    d660:	2a2a      	cmp	r2, #42	; 0x2a
    d662:	d016      	beq.n	d692 <_svfiprintf_r+0xe6>
    d664:	9a07      	ldr	r2, [sp, #28]
    d666:	2100      	movs	r1, #0
    d668:	200a      	movs	r0, #10
    d66a:	4627      	mov	r7, r4
    d66c:	3401      	adds	r4, #1
    d66e:	783b      	ldrb	r3, [r7, #0]
    d670:	3b30      	subs	r3, #48	; 0x30
    d672:	2b09      	cmp	r3, #9
    d674:	d951      	bls.n	d71a <_svfiprintf_r+0x16e>
    d676:	b1c9      	cbz	r1, d6ac <_svfiprintf_r+0x100>
    d678:	e011      	b.n	d69e <_svfiprintf_r+0xf2>
    d67a:	2b25      	cmp	r3, #37	; 0x25
    d67c:	d0c0      	beq.n	d600 <_svfiprintf_r+0x54>
    d67e:	4627      	mov	r7, r4
    d680:	e7b9      	b.n	d5f6 <_svfiprintf_r+0x4a>
    d682:	4a3f      	ldr	r2, [pc, #252]	; (d780 <_svfiprintf_r+0x1d4>)
    d684:	1a80      	subs	r0, r0, r2
    d686:	fa0b f000 	lsl.w	r0, fp, r0
    d68a:	4318      	orrs	r0, r3
    d68c:	9004      	str	r0, [sp, #16]
    d68e:	463c      	mov	r4, r7
    d690:	e7d3      	b.n	d63a <_svfiprintf_r+0x8e>
    d692:	9a03      	ldr	r2, [sp, #12]
    d694:	1d11      	adds	r1, r2, #4
    d696:	6812      	ldr	r2, [r2, #0]
    d698:	9103      	str	r1, [sp, #12]
    d69a:	2a00      	cmp	r2, #0
    d69c:	db01      	blt.n	d6a2 <_svfiprintf_r+0xf6>
    d69e:	9207      	str	r2, [sp, #28]
    d6a0:	e004      	b.n	d6ac <_svfiprintf_r+0x100>
    d6a2:	4252      	negs	r2, r2
    d6a4:	f043 0302 	orr.w	r3, r3, #2
    d6a8:	9207      	str	r2, [sp, #28]
    d6aa:	9304      	str	r3, [sp, #16]
    d6ac:	783b      	ldrb	r3, [r7, #0]
    d6ae:	2b2e      	cmp	r3, #46	; 0x2e
    d6b0:	d10e      	bne.n	d6d0 <_svfiprintf_r+0x124>
    d6b2:	787b      	ldrb	r3, [r7, #1]
    d6b4:	2b2a      	cmp	r3, #42	; 0x2a
    d6b6:	f107 0101 	add.w	r1, r7, #1
    d6ba:	d132      	bne.n	d722 <_svfiprintf_r+0x176>
    d6bc:	9b03      	ldr	r3, [sp, #12]
    d6be:	1d1a      	adds	r2, r3, #4
    d6c0:	681b      	ldr	r3, [r3, #0]
    d6c2:	9203      	str	r2, [sp, #12]
    d6c4:	2b00      	cmp	r3, #0
    d6c6:	bfb8      	it	lt
    d6c8:	f04f 33ff 	movlt.w	r3, #4294967295
    d6cc:	3702      	adds	r7, #2
    d6ce:	9305      	str	r3, [sp, #20]
    d6d0:	4c2c      	ldr	r4, [pc, #176]	; (d784 <_svfiprintf_r+0x1d8>)
    d6d2:	7839      	ldrb	r1, [r7, #0]
    d6d4:	2203      	movs	r2, #3
    d6d6:	4620      	mov	r0, r4
    d6d8:	f000 f9f2 	bl	dac0 <memchr>
    d6dc:	b138      	cbz	r0, d6ee <_svfiprintf_r+0x142>
    d6de:	2340      	movs	r3, #64	; 0x40
    d6e0:	1b00      	subs	r0, r0, r4
    d6e2:	fa03 f000 	lsl.w	r0, r3, r0
    d6e6:	9b04      	ldr	r3, [sp, #16]
    d6e8:	4303      	orrs	r3, r0
    d6ea:	9304      	str	r3, [sp, #16]
    d6ec:	3701      	adds	r7, #1
    d6ee:	7839      	ldrb	r1, [r7, #0]
    d6f0:	4825      	ldr	r0, [pc, #148]	; (d788 <_svfiprintf_r+0x1dc>)
    d6f2:	f88d 1028 	strb.w	r1, [sp, #40]	; 0x28
    d6f6:	2206      	movs	r2, #6
    d6f8:	1c7e      	adds	r6, r7, #1
    d6fa:	f000 f9e1 	bl	dac0 <memchr>
    d6fe:	2800      	cmp	r0, #0
    d700:	d035      	beq.n	d76e <_svfiprintf_r+0x1c2>
    d702:	4b22      	ldr	r3, [pc, #136]	; (d78c <_svfiprintf_r+0x1e0>)
    d704:	b9fb      	cbnz	r3, d746 <_svfiprintf_r+0x19a>
    d706:	9b03      	ldr	r3, [sp, #12]
    d708:	3307      	adds	r3, #7
    d70a:	f023 0307 	bic.w	r3, r3, #7
    d70e:	3308      	adds	r3, #8
    d710:	9303      	str	r3, [sp, #12]
    d712:	9b09      	ldr	r3, [sp, #36]	; 0x24
    d714:	444b      	add	r3, r9
    d716:	9309      	str	r3, [sp, #36]	; 0x24
    d718:	e76c      	b.n	d5f4 <_svfiprintf_r+0x48>
    d71a:	fb00 3202 	mla	r2, r0, r2, r3
    d71e:	2101      	movs	r1, #1
    d720:	e7a3      	b.n	d66a <_svfiprintf_r+0xbe>
    d722:	2300      	movs	r3, #0
    d724:	9305      	str	r3, [sp, #20]
    d726:	4618      	mov	r0, r3
    d728:	240a      	movs	r4, #10
    d72a:	460f      	mov	r7, r1
    d72c:	3101      	adds	r1, #1
    d72e:	783a      	ldrb	r2, [r7, #0]
    d730:	3a30      	subs	r2, #48	; 0x30
    d732:	2a09      	cmp	r2, #9
    d734:	d903      	bls.n	d73e <_svfiprintf_r+0x192>
    d736:	2b00      	cmp	r3, #0
    d738:	d0ca      	beq.n	d6d0 <_svfiprintf_r+0x124>
    d73a:	9005      	str	r0, [sp, #20]
    d73c:	e7c8      	b.n	d6d0 <_svfiprintf_r+0x124>
    d73e:	fb04 2000 	mla	r0, r4, r0, r2
    d742:	2301      	movs	r3, #1
    d744:	e7f1      	b.n	d72a <_svfiprintf_r+0x17e>
    d746:	ab03      	add	r3, sp, #12
    d748:	9300      	str	r3, [sp, #0]
    d74a:	462a      	mov	r2, r5
    d74c:	4b10      	ldr	r3, [pc, #64]	; (d790 <_svfiprintf_r+0x1e4>)
    d74e:	a904      	add	r1, sp, #16
    d750:	4640      	mov	r0, r8
    d752:	f3af 8000 	nop.w
    d756:	f1b0 3fff 	cmp.w	r0, #4294967295
    d75a:	4681      	mov	r9, r0
    d75c:	d1d9      	bne.n	d712 <_svfiprintf_r+0x166>
    d75e:	89ab      	ldrh	r3, [r5, #12]
    d760:	065b      	lsls	r3, r3, #25
    d762:	f53f af38 	bmi.w	d5d6 <_svfiprintf_r+0x2a>
    d766:	9809      	ldr	r0, [sp, #36]	; 0x24
    d768:	b01d      	add	sp, #116	; 0x74
    d76a:	e8bd 8ff0 	ldmia.w	sp!, {r4, r5, r6, r7, r8, r9, sl, fp, pc}
    d76e:	ab03      	add	r3, sp, #12
    d770:	9300      	str	r3, [sp, #0]
    d772:	462a      	mov	r2, r5
    d774:	4b06      	ldr	r3, [pc, #24]	; (d790 <_svfiprintf_r+0x1e4>)
    d776:	a904      	add	r1, sp, #16
    d778:	4640      	mov	r0, r8
    d77a:	f000 f881 	bl	d880 <_printf_i>
    d77e:	e7ea      	b.n	d756 <_svfiprintf_r+0x1aa>
    d780:	0000e194 	.word	0x0000e194
    d784:	0000e19a 	.word	0x0000e19a
    d788:	0000e19e 	.word	0x0000e19e
    d78c:	00000000 	.word	0x00000000
    d790:	0000d4f5 	.word	0x0000d4f5

0000d794 <_printf_common>:
    d794:	e92d 47f0 	stmdb	sp!, {r4, r5, r6, r7, r8, r9, sl, lr}
    d798:	4691      	mov	r9, r2
    d79a:	461f      	mov	r7, r3
    d79c:	688a      	ldr	r2, [r1, #8]
    d79e:	690b      	ldr	r3, [r1, #16]
    d7a0:	f8dd 8020 	ldr.w	r8, [sp, #32]
    d7a4:	4293      	cmp	r3, r2
    d7a6:	bfb8      	it	lt
    d7a8:	4613      	movlt	r3, r2
    d7aa:	f8c9 3000 	str.w	r3, [r9]
    d7ae:	f891 2043 	ldrb.w	r2, [r1, #67]	; 0x43
    d7b2:	4606      	mov	r6, r0
    d7b4:	460c      	mov	r4, r1
    d7b6:	b112      	cbz	r2, d7be <_printf_common+0x2a>
    d7b8:	3301      	adds	r3, #1
    d7ba:	f8c9 3000 	str.w	r3, [r9]
    d7be:	6823      	ldr	r3, [r4, #0]
    d7c0:	0699      	lsls	r1, r3, #26
    d7c2:	bf42      	ittt	mi
    d7c4:	f8d9 3000 	ldrmi.w	r3, [r9]
    d7c8:	3302      	addmi	r3, #2
    d7ca:	f8c9 3000 	strmi.w	r3, [r9]
    d7ce:	6825      	ldr	r5, [r4, #0]
    d7d0:	f015 0506 	ands.w	r5, r5, #6
    d7d4:	d107      	bne.n	d7e6 <_printf_common+0x52>
    d7d6:	f104 0a19 	add.w	sl, r4, #25
    d7da:	68e3      	ldr	r3, [r4, #12]
    d7dc:	f8d9 2000 	ldr.w	r2, [r9]
    d7e0:	1a9b      	subs	r3, r3, r2
    d7e2:	429d      	cmp	r5, r3
    d7e4:	db29      	blt.n	d83a <_printf_common+0xa6>
    d7e6:	f894 3043 	ldrb.w	r3, [r4, #67]	; 0x43
    d7ea:	6822      	ldr	r2, [r4, #0]
    d7ec:	3300      	adds	r3, #0
    d7ee:	bf18      	it	ne
    d7f0:	2301      	movne	r3, #1
    d7f2:	0692      	lsls	r2, r2, #26
    d7f4:	d42e      	bmi.n	d854 <_printf_common+0xc0>
    d7f6:	f104 0243 	add.w	r2, r4, #67	; 0x43
    d7fa:	4639      	mov	r1, r7
    d7fc:	4630      	mov	r0, r6
    d7fe:	47c0      	blx	r8
    d800:	3001      	adds	r0, #1
    d802:	d021      	beq.n	d848 <_printf_common+0xb4>
    d804:	6823      	ldr	r3, [r4, #0]
    d806:	68e5      	ldr	r5, [r4, #12]
    d808:	f8d9 2000 	ldr.w	r2, [r9]
    d80c:	f003 0306 	and.w	r3, r3, #6
    d810:	2b04      	cmp	r3, #4
    d812:	bf08      	it	eq
    d814:	1aad      	subeq	r5, r5, r2
    d816:	68a3      	ldr	r3, [r4, #8]
    d818:	6922      	ldr	r2, [r4, #16]
    d81a:	bf0c      	ite	eq
    d81c:	ea25 75e5 	biceq.w	r5, r5, r5, asr #31
    d820:	2500      	movne	r5, #0
    d822:	4293      	cmp	r3, r2
    d824:	bfc4      	itt	gt
    d826:	1a9b      	subgt	r3, r3, r2
    d828:	18ed      	addgt	r5, r5, r3
    d82a:	f04f 0900 	mov.w	r9, #0
    d82e:	341a      	adds	r4, #26
    d830:	454d      	cmp	r5, r9
    d832:	d11b      	bne.n	d86c <_printf_common+0xd8>
    d834:	2000      	movs	r0, #0
    d836:	e8bd 87f0 	ldmia.w	sp!, {r4, r5, r6, r7, r8, r9, sl, pc}
    d83a:	2301      	movs	r3, #1
    d83c:	4652      	mov	r2, sl
    d83e:	4639      	mov	r1, r7
    d840:	4630      	mov	r0, r6
    d842:	47c0      	blx	r8
    d844:	3001      	adds	r0, #1
    d846:	d103      	bne.n	d850 <_printf_common+0xbc>
    d848:	f04f 30ff 	mov.w	r0, #4294967295
    d84c:	e8bd 87f0 	ldmia.w	sp!, {r4, r5, r6, r7, r8, r9, sl, pc}
    d850:	3501      	adds	r5, #1
    d852:	e7c2      	b.n	d7da <_printf_common+0x46>
    d854:	18e1      	adds	r1, r4, r3
    d856:	1c5a      	adds	r2, r3, #1
    d858:	2030      	movs	r0, #48	; 0x30
    d85a:	f881 0043 	strb.w	r0, [r1, #67]	; 0x43
    d85e:	4422      	add	r2, r4
    d860:	f894 1045 	ldrb.w	r1, [r4, #69]	; 0x45
    d864:	f882 1043 	strb.w	r1, [r2, #67]	; 0x43
    d868:	3302      	adds	r3, #2
    d86a:	e7c4      	b.n	d7f6 <_printf_common+0x62>
    d86c:	2301      	movs	r3, #1
    d86e:	4622      	mov	r2, r4
    d870:	4639      	mov	r1, r7
    d872:	4630      	mov	r0, r6
    d874:	47c0      	blx	r8
    d876:	3001      	adds	r0, #1
    d878:	d0e6      	beq.n	d848 <_printf_common+0xb4>
    d87a:	f109 0901 	add.w	r9, r9, #1
    d87e:	e7d7      	b.n	d830 <_printf_common+0x9c>

0000d880 <_printf_i>:
    d880:	e92d 43f0 	stmdb	sp!, {r4, r5, r6, r7, r8, r9, lr}
    d884:	4617      	mov	r7, r2
    d886:	7e0a      	ldrb	r2, [r1, #24]
    d888:	b085      	sub	sp, #20
    d88a:	2a6e      	cmp	r2, #110	; 0x6e
    d88c:	4698      	mov	r8, r3
    d88e:	4606      	mov	r6, r0
    d890:	460c      	mov	r4, r1
    d892:	9b0c      	ldr	r3, [sp, #48]	; 0x30
    d894:	f101 0e43 	add.w	lr, r1, #67	; 0x43
    d898:	f000 80bc 	beq.w	da14 <_printf_i+0x194>
    d89c:	d81a      	bhi.n	d8d4 <_printf_i+0x54>
    d89e:	2a63      	cmp	r2, #99	; 0x63
    d8a0:	d02e      	beq.n	d900 <_printf_i+0x80>
    d8a2:	d80a      	bhi.n	d8ba <_printf_i+0x3a>
    d8a4:	2a00      	cmp	r2, #0
    d8a6:	f000 80c8 	beq.w	da3a <_printf_i+0x1ba>
    d8aa:	2a58      	cmp	r2, #88	; 0x58
    d8ac:	f000 808a 	beq.w	d9c4 <_printf_i+0x144>
    d8b0:	f104 0542 	add.w	r5, r4, #66	; 0x42
    d8b4:	f884 2042 	strb.w	r2, [r4, #66]	; 0x42
    d8b8:	e02a      	b.n	d910 <_printf_i+0x90>
    d8ba:	2a64      	cmp	r2, #100	; 0x64
    d8bc:	d001      	beq.n	d8c2 <_printf_i+0x42>
    d8be:	2a69      	cmp	r2, #105	; 0x69
    d8c0:	d1f6      	bne.n	d8b0 <_printf_i+0x30>
    d8c2:	6821      	ldr	r1, [r4, #0]
    d8c4:	681a      	ldr	r2, [r3, #0]
    d8c6:	f011 0f80 	tst.w	r1, #128	; 0x80
    d8ca:	d023      	beq.n	d914 <_printf_i+0x94>
    d8cc:	1d11      	adds	r1, r2, #4
    d8ce:	6019      	str	r1, [r3, #0]
    d8d0:	6813      	ldr	r3, [r2, #0]
    d8d2:	e027      	b.n	d924 <_printf_i+0xa4>
    d8d4:	2a73      	cmp	r2, #115	; 0x73
    d8d6:	f000 80b4 	beq.w	da42 <_printf_i+0x1c2>
    d8da:	d808      	bhi.n	d8ee <_printf_i+0x6e>
    d8dc:	2a6f      	cmp	r2, #111	; 0x6f
    d8de:	d02a      	beq.n	d936 <_printf_i+0xb6>
    d8e0:	2a70      	cmp	r2, #112	; 0x70
    d8e2:	d1e5      	bne.n	d8b0 <_printf_i+0x30>
    d8e4:	680a      	ldr	r2, [r1, #0]
    d8e6:	f042 0220 	orr.w	r2, r2, #32
    d8ea:	600a      	str	r2, [r1, #0]
    d8ec:	e003      	b.n	d8f6 <_printf_i+0x76>
    d8ee:	2a75      	cmp	r2, #117	; 0x75
    d8f0:	d021      	beq.n	d936 <_printf_i+0xb6>
    d8f2:	2a78      	cmp	r2, #120	; 0x78
    d8f4:	d1dc      	bne.n	d8b0 <_printf_i+0x30>
    d8f6:	2278      	movs	r2, #120	; 0x78
    d8f8:	f884 2045 	strb.w	r2, [r4, #69]	; 0x45
    d8fc:	496e      	ldr	r1, [pc, #440]	; (dab8 <_printf_i+0x238>)
    d8fe:	e064      	b.n	d9ca <_printf_i+0x14a>
    d900:	681a      	ldr	r2, [r3, #0]
    d902:	f101 0542 	add.w	r5, r1, #66	; 0x42
    d906:	1d11      	adds	r1, r2, #4
    d908:	6019      	str	r1, [r3, #0]
    d90a:	6813      	ldr	r3, [r2, #0]
    d90c:	f884 3042 	strb.w	r3, [r4, #66]	; 0x42
    d910:	2301      	movs	r3, #1
    d912:	e0a3      	b.n	da5c <_printf_i+0x1dc>
    d914:	f011 0f40 	tst.w	r1, #64	; 0x40
    d918:	f102 0104 	add.w	r1, r2, #4
    d91c:	6019      	str	r1, [r3, #0]
    d91e:	d0d7      	beq.n	d8d0 <_printf_i+0x50>
    d920:	f9b2 3000 	ldrsh.w	r3, [r2]
    d924:	2b00      	cmp	r3, #0
    d926:	da03      	bge.n	d930 <_printf_i+0xb0>
    d928:	222d      	movs	r2, #45	; 0x2d
    d92a:	425b      	negs	r3, r3
    d92c:	f884 2043 	strb.w	r2, [r4, #67]	; 0x43
    d930:	4962      	ldr	r1, [pc, #392]	; (dabc <_printf_i+0x23c>)
    d932:	220a      	movs	r2, #10
    d934:	e017      	b.n	d966 <_printf_i+0xe6>
    d936:	6820      	ldr	r0, [r4, #0]
    d938:	6819      	ldr	r1, [r3, #0]
    d93a:	f010 0f80 	tst.w	r0, #128	; 0x80
    d93e:	d003      	beq.n	d948 <_printf_i+0xc8>
    d940:	1d08      	adds	r0, r1, #4
    d942:	6018      	str	r0, [r3, #0]
    d944:	680b      	ldr	r3, [r1, #0]
    d946:	e006      	b.n	d956 <_printf_i+0xd6>
    d948:	f010 0f40 	tst.w	r0, #64	; 0x40
    d94c:	f101 0004 	add.w	r0, r1, #4
    d950:	6018      	str	r0, [r3, #0]
    d952:	d0f7      	beq.n	d944 <_printf_i+0xc4>
    d954:	880b      	ldrh	r3, [r1, #0]
    d956:	4959      	ldr	r1, [pc, #356]	; (dabc <_printf_i+0x23c>)
    d958:	2a6f      	cmp	r2, #111	; 0x6f
    d95a:	bf14      	ite	ne
    d95c:	220a      	movne	r2, #10
    d95e:	2208      	moveq	r2, #8
    d960:	2000      	movs	r0, #0
    d962:	f884 0043 	strb.w	r0, [r4, #67]	; 0x43
    d966:	6865      	ldr	r5, [r4, #4]
    d968:	60a5      	str	r5, [r4, #8]
    d96a:	2d00      	cmp	r5, #0
    d96c:	f2c0 809c 	blt.w	daa8 <_printf_i+0x228>
    d970:	6820      	ldr	r0, [r4, #0]
    d972:	f020 0004 	bic.w	r0, r0, #4
    d976:	6020      	str	r0, [r4, #0]
    d978:	2b00      	cmp	r3, #0
    d97a:	d13f      	bne.n	d9fc <_printf_i+0x17c>
    d97c:	2d00      	cmp	r5, #0
    d97e:	f040 8095 	bne.w	daac <_printf_i+0x22c>
    d982:	4675      	mov	r5, lr
    d984:	2a08      	cmp	r2, #8
    d986:	d10b      	bne.n	d9a0 <_printf_i+0x120>
    d988:	6823      	ldr	r3, [r4, #0]
    d98a:	07da      	lsls	r2, r3, #31
    d98c:	d508      	bpl.n	d9a0 <_printf_i+0x120>
    d98e:	6923      	ldr	r3, [r4, #16]
    d990:	6862      	ldr	r2, [r4, #4]
    d992:	429a      	cmp	r2, r3
    d994:	bfde      	ittt	le
    d996:	2330      	movle	r3, #48	; 0x30
    d998:	f805 3c01 	strble.w	r3, [r5, #-1]
    d99c:	f105 35ff 	addle.w	r5, r5, #4294967295
    d9a0:	ebae 0305 	sub.w	r3, lr, r5
    d9a4:	6123      	str	r3, [r4, #16]
    d9a6:	f8cd 8000 	str.w	r8, [sp]
    d9aa:	463b      	mov	r3, r7
    d9ac:	aa03      	add	r2, sp, #12
    d9ae:	4621      	mov	r1, r4
    d9b0:	4630      	mov	r0, r6
    d9b2:	f7ff feef 	bl	d794 <_printf_common>
    d9b6:	3001      	adds	r0, #1
    d9b8:	d155      	bne.n	da66 <_printf_i+0x1e6>
    d9ba:	f04f 30ff 	mov.w	r0, #4294967295
    d9be:	b005      	add	sp, #20
    d9c0:	e8bd 83f0 	ldmia.w	sp!, {r4, r5, r6, r7, r8, r9, pc}
    d9c4:	f881 2045 	strb.w	r2, [r1, #69]	; 0x45
    d9c8:	493c      	ldr	r1, [pc, #240]	; (dabc <_printf_i+0x23c>)
    d9ca:	6822      	ldr	r2, [r4, #0]
    d9cc:	6818      	ldr	r0, [r3, #0]
    d9ce:	f012 0f80 	tst.w	r2, #128	; 0x80
    d9d2:	f100 0504 	add.w	r5, r0, #4
    d9d6:	601d      	str	r5, [r3, #0]
    d9d8:	d001      	beq.n	d9de <_printf_i+0x15e>
    d9da:	6803      	ldr	r3, [r0, #0]
    d9dc:	e002      	b.n	d9e4 <_printf_i+0x164>
    d9de:	0655      	lsls	r5, r2, #25
    d9e0:	d5fb      	bpl.n	d9da <_printf_i+0x15a>
    d9e2:	8803      	ldrh	r3, [r0, #0]
    d9e4:	07d0      	lsls	r0, r2, #31
    d9e6:	bf44      	itt	mi
    d9e8:	f042 0220 	orrmi.w	r2, r2, #32
    d9ec:	6022      	strmi	r2, [r4, #0]
    d9ee:	b91b      	cbnz	r3, d9f8 <_printf_i+0x178>
    d9f0:	6822      	ldr	r2, [r4, #0]
    d9f2:	f022 0220 	bic.w	r2, r2, #32
    d9f6:	6022      	str	r2, [r4, #0]
    d9f8:	2210      	movs	r2, #16
    d9fa:	e7b1      	b.n	d960 <_printf_i+0xe0>
    d9fc:	4675      	mov	r5, lr
    d9fe:	fbb3 f0f2 	udiv	r0, r3, r2
    da02:	fb02 3310 	mls	r3, r2, r0, r3
    da06:	5ccb      	ldrb	r3, [r1, r3]
    da08:	f805 3d01 	strb.w	r3, [r5, #-1]!
    da0c:	4603      	mov	r3, r0
    da0e:	2800      	cmp	r0, #0
    da10:	d1f5      	bne.n	d9fe <_printf_i+0x17e>
    da12:	e7b7      	b.n	d984 <_printf_i+0x104>
    da14:	6808      	ldr	r0, [r1, #0]
    da16:	681a      	ldr	r2, [r3, #0]
    da18:	6949      	ldr	r1, [r1, #20]
    da1a:	f010 0f80 	tst.w	r0, #128	; 0x80
    da1e:	d004      	beq.n	da2a <_printf_i+0x1aa>
    da20:	1d10      	adds	r0, r2, #4
    da22:	6018      	str	r0, [r3, #0]
    da24:	6813      	ldr	r3, [r2, #0]
    da26:	6019      	str	r1, [r3, #0]
    da28:	e007      	b.n	da3a <_printf_i+0x1ba>
    da2a:	f010 0f40 	tst.w	r0, #64	; 0x40
    da2e:	f102 0004 	add.w	r0, r2, #4
    da32:	6018      	str	r0, [r3, #0]
    da34:	6813      	ldr	r3, [r2, #0]
    da36:	d0f6      	beq.n	da26 <_printf_i+0x1a6>
    da38:	8019      	strh	r1, [r3, #0]
    da3a:	2300      	movs	r3, #0
    da3c:	6123      	str	r3, [r4, #16]
    da3e:	4675      	mov	r5, lr
    da40:	e7b1      	b.n	d9a6 <_printf_i+0x126>
    da42:	681a      	ldr	r2, [r3, #0]
    da44:	1d11      	adds	r1, r2, #4
    da46:	6019      	str	r1, [r3, #0]
    da48:	6815      	ldr	r5, [r2, #0]
    da4a:	6862      	ldr	r2, [r4, #4]
    da4c:	2100      	movs	r1, #0
    da4e:	4628      	mov	r0, r5
    da50:	f000 f836 	bl	dac0 <memchr>
    da54:	b108      	cbz	r0, da5a <_printf_i+0x1da>
    da56:	1b40      	subs	r0, r0, r5
    da58:	6060      	str	r0, [r4, #4]
    da5a:	6863      	ldr	r3, [r4, #4]
    da5c:	6123      	str	r3, [r4, #16]
    da5e:	2300      	movs	r3, #0
    da60:	f884 3043 	strb.w	r3, [r4, #67]	; 0x43
    da64:	e79f      	b.n	d9a6 <_printf_i+0x126>
    da66:	6923      	ldr	r3, [r4, #16]
    da68:	462a      	mov	r2, r5
    da6a:	4639      	mov	r1, r7
    da6c:	4630      	mov	r0, r6
    da6e:	47c0      	blx	r8
    da70:	3001      	adds	r0, #1
    da72:	d0a2      	beq.n	d9ba <_printf_i+0x13a>
    da74:	6823      	ldr	r3, [r4, #0]
    da76:	079b      	lsls	r3, r3, #30
    da78:	d507      	bpl.n	da8a <_printf_i+0x20a>
    da7a:	2500      	movs	r5, #0
    da7c:	f104 0919 	add.w	r9, r4, #25
    da80:	68e3      	ldr	r3, [r4, #12]
    da82:	9a03      	ldr	r2, [sp, #12]
    da84:	1a9b      	subs	r3, r3, r2
    da86:	429d      	cmp	r5, r3
    da88:	db05      	blt.n	da96 <_printf_i+0x216>
    da8a:	68e0      	ldr	r0, [r4, #12]
    da8c:	9b03      	ldr	r3, [sp, #12]
    da8e:	4298      	cmp	r0, r3
    da90:	bfb8      	it	lt
    da92:	4618      	movlt	r0, r3
    da94:	e793      	b.n	d9be <_printf_i+0x13e>
    da96:	2301      	movs	r3, #1
    da98:	464a      	mov	r2, r9
    da9a:	4639      	mov	r1, r7
    da9c:	4630      	mov	r0, r6
    da9e:	47c0      	blx	r8
    daa0:	3001      	adds	r0, #1
    daa2:	d08a      	beq.n	d9ba <_printf_i+0x13a>
    daa4:	3501      	adds	r5, #1
    daa6:	e7eb      	b.n	da80 <_printf_i+0x200>
    daa8:	2b00      	cmp	r3, #0
    daaa:	d1a7      	bne.n	d9fc <_printf_i+0x17c>
    daac:	780b      	ldrb	r3, [r1, #0]
    daae:	f884 3042 	strb.w	r3, [r4, #66]	; 0x42
    dab2:	f104 0542 	add.w	r5, r4, #66	; 0x42
    dab6:	e765      	b.n	d984 <_printf_i+0x104>
    dab8:	0000e1b6 	.word	0x0000e1b6
    dabc:	0000e1a5 	.word	0x0000e1a5

0000dac0 <memchr>:
    dac0:	f001 01ff 	and.w	r1, r1, #255	; 0xff
    dac4:	2a10      	cmp	r2, #16
    dac6:	db2b      	blt.n	db20 <memchr+0x60>
    dac8:	f010 0f07 	tst.w	r0, #7
    dacc:	d008      	beq.n	dae0 <memchr+0x20>
    dace:	f810 3b01 	ldrb.w	r3, [r0], #1
    dad2:	3a01      	subs	r2, #1
    dad4:	428b      	cmp	r3, r1
    dad6:	d02d      	beq.n	db34 <memchr+0x74>
    dad8:	f010 0f07 	tst.w	r0, #7
    dadc:	b342      	cbz	r2, db30 <memchr+0x70>
    dade:	d1f6      	bne.n	dace <memchr+0xe>
    dae0:	b4f0      	push	{r4, r5, r6, r7}
    dae2:	ea41 2101 	orr.w	r1, r1, r1, lsl #8
    dae6:	ea41 4101 	orr.w	r1, r1, r1, lsl #16
    daea:	f022 0407 	bic.w	r4, r2, #7
    daee:	f07f 0700 	mvns.w	r7, #0
    daf2:	2300      	movs	r3, #0
    daf4:	e8f0 5602 	ldrd	r5, r6, [r0], #8
    daf8:	3c08      	subs	r4, #8
    dafa:	ea85 0501 	eor.w	r5, r5, r1
    dafe:	ea86 0601 	eor.w	r6, r6, r1
    db02:	fa85 f547 	uadd8	r5, r5, r7
    db06:	faa3 f587 	sel	r5, r3, r7
    db0a:	fa86 f647 	uadd8	r6, r6, r7
    db0e:	faa5 f687 	sel	r6, r5, r7
    db12:	b98e      	cbnz	r6, db38 <memchr+0x78>
    db14:	d1ee      	bne.n	daf4 <memchr+0x34>
    db16:	bcf0      	pop	{r4, r5, r6, r7}
    db18:	f001 01ff 	and.w	r1, r1, #255	; 0xff
    db1c:	f002 0207 	and.w	r2, r2, #7
    db20:	b132      	cbz	r2, db30 <memchr+0x70>
    db22:	f810 3b01 	ldrb.w	r3, [r0], #1
    db26:	3a01      	subs	r2, #1
    db28:	ea83 0301 	eor.w	r3, r3, r1
    db2c:	b113      	cbz	r3, db34 <memchr+0x74>
    db2e:	d1f8      	bne.n	db22 <memchr+0x62>
    db30:	2000      	movs	r0, #0
    db32:	4770      	bx	lr
    db34:	3801      	subs	r0, #1
    db36:	4770      	bx	lr
    db38:	2d00      	cmp	r5, #0
    db3a:	bf06      	itte	eq
    db3c:	4635      	moveq	r5, r6
    db3e:	3803      	subeq	r0, #3
    db40:	3807      	subne	r0, #7
    db42:	f015 0f01 	tst.w	r5, #1
    db46:	d107      	bne.n	db58 <memchr+0x98>
    db48:	3001      	adds	r0, #1
    db4a:	f415 7f80 	tst.w	r5, #256	; 0x100
    db4e:	bf02      	ittt	eq
    db50:	3001      	addeq	r0, #1
    db52:	f415 3fc0 	tsteq.w	r5, #98304	; 0x18000
    db56:	3001      	addeq	r0, #1
    db58:	bcf0      	pop	{r4, r5, r6, r7}
    db5a:	3801      	subs	r0, #1
    db5c:	4770      	bx	lr
    db5e:	bf00      	nop

0000db60 <memmove>:
    db60:	4288      	cmp	r0, r1
    db62:	b510      	push	{r4, lr}
    db64:	eb01 0302 	add.w	r3, r1, r2
    db68:	d803      	bhi.n	db72 <memmove+0x12>
    db6a:	1e42      	subs	r2, r0, #1
    db6c:	4299      	cmp	r1, r3
    db6e:	d10c      	bne.n	db8a <memmove+0x2a>
    db70:	bd10      	pop	{r4, pc}
    db72:	4298      	cmp	r0, r3
    db74:	d2f9      	bcs.n	db6a <memmove+0xa>
    db76:	1881      	adds	r1, r0, r2
    db78:	1ad2      	subs	r2, r2, r3
    db7a:	42d3      	cmn	r3, r2
    db7c:	d100      	bne.n	db80 <memmove+0x20>
    db7e:	bd10      	pop	{r4, pc}
    db80:	f813 4d01 	ldrb.w	r4, [r3, #-1]!
    db84:	f801 4d01 	strb.w	r4, [r1, #-1]!
    db88:	e7f7      	b.n	db7a <memmove+0x1a>
    db8a:	f811 4b01 	ldrb.w	r4, [r1], #1
    db8e:	f802 4f01 	strb.w	r4, [r2, #1]!
    db92:	e7eb      	b.n	db6c <memmove+0xc>

0000db94 <_realloc_r>:
    db94:	b5f8      	push	{r3, r4, r5, r6, r7, lr}
    db96:	4607      	mov	r7, r0
    db98:	4614      	mov	r4, r2
    db9a:	460e      	mov	r6, r1
    db9c:	b921      	cbnz	r1, dba8 <_realloc_r+0x14>
    db9e:	4611      	mov	r1, r2
    dba0:	e8bd 40f8 	ldmia.w	sp!, {r3, r4, r5, r6, r7, lr}
    dba4:	f7ff bbc8 	b.w	d338 <_malloc_r>
    dba8:	b922      	cbnz	r2, dbb4 <_realloc_r+0x20>
    dbaa:	f7ff fb77 	bl	d29c <_free_r>
    dbae:	4625      	mov	r5, r4
    dbb0:	4628      	mov	r0, r5
    dbb2:	bdf8      	pop	{r3, r4, r5, r6, r7, pc}
    dbb4:	f000 f814 	bl	dbe0 <_malloc_usable_size_r>
    dbb8:	4284      	cmp	r4, r0
    dbba:	d90f      	bls.n	dbdc <_realloc_r+0x48>
    dbbc:	4621      	mov	r1, r4
    dbbe:	4638      	mov	r0, r7
    dbc0:	f7ff fbba 	bl	d338 <_malloc_r>
    dbc4:	4605      	mov	r5, r0
    dbc6:	2800      	cmp	r0, #0
    dbc8:	d0f2      	beq.n	dbb0 <_realloc_r+0x1c>
    dbca:	4631      	mov	r1, r6
    dbcc:	4622      	mov	r2, r4
    dbce:	f7ff fb51 	bl	d274 <memcpy>
    dbd2:	4631      	mov	r1, r6
    dbd4:	4638      	mov	r0, r7
    dbd6:	f7ff fb61 	bl	d29c <_free_r>
    dbda:	e7e9      	b.n	dbb0 <_realloc_r+0x1c>
    dbdc:	4635      	mov	r5, r6
    dbde:	e7e7      	b.n	dbb0 <_realloc_r+0x1c>

0000dbe0 <_malloc_usable_size_r>:
    dbe0:	f851 0c04 	ldr.w	r0, [r1, #-4]
    dbe4:	2800      	cmp	r0, #0
    dbe6:	f1a0 0004 	sub.w	r0, r0, #4
    dbea:	bfbc      	itt	lt
    dbec:	580b      	ldrlt	r3, [r1, r0]
    dbee:	18c0      	addlt	r0, r0, r3
    dbf0:	4770      	bx	lr
    dbf2:	475b      	.short	0x475b
    dbf4:	5d444952 	.word	0x5d444952
    dbf8:	64332520 	.word	0x64332520
    dbfc:	64342520 	.word	0x64342520
    dc00:	64342520 	.word	0x64342520
    dc04:	20642520 	.word	0x20642520
    dc08:	44494d5b 	.word	0x44494d5b
    dc0c:	43205d49 	.word	0x43205d49
    dc10:	25203a68 	.word	0x25203a68
    dc14:	43202064 	.word	0x43202064
    dc18:	203a646d 	.word	0x203a646d
    dc1c:	20206425 	.word	0x20206425
    dc20:	61726150 	.word	0x61726150
    dc24:	203a316d 	.word	0x203a316d
    dc28:	20206425 	.word	0x20206425
    dc2c:	61726150 	.word	0x61726150
    dc30:	203a326d 	.word	0x203a326d
    dc34:	000a6425 	.word	0x000a6425
    dc38:	4952475b 	.word	0x4952475b
    dc3c:	25205d44 	.word	0x25205d44
    dc40:	25206433 	.word	0x25206433
    dc44:	25206434 	.word	0x25206434
    dc48:	25206434 	.word	0x25206434
    dc4c:	4b5b2064 	.word	0x4b5b2064
    dc50:	4f425945 	.word	0x4f425945
    dc54:	5d445241 	.word	0x5d445241
    dc58:	79654b20 	.word	0x79654b20
    dc5c:	6425203a 	.word	0x6425203a
    dc60:	646f4d20 	.word	0x646f4d20
    dc64:	6425203a 	.word	0x6425203a
    dc68:	646d4320 	.word	0x646d4320
    dc6c:	6425203a 	.word	0x6425203a
    dc70:	4357480a 	.word	0x4357480a
    dc74:	203a4746 	.word	0x203a4746
    dc78:	78383025 	.word	0x78383025
    dc7c:	555b000a 	.word	0x555b000a
    dc80:	4f4e4b4e 	.word	0x4f4e4b4e
    dc84:	205d4e57 	.word	0x205d4e57
    dc88:	50203e2d 	.word	0x50203e2d
    dc8c:	6f746f72 	.word	0x6f746f72
    dc90:	3a6c6f63 	.word	0x3a6c6f63
    dc94:	0a642520 	.word	0x0a642520
    dc98:	00          	.byte	0x00
    dc99:	25          	.byte	0x25
    dc9a:	2563      	.short	0x2563
    dc9c:	25783230 	.word	0x25783230
    dca0:	25783230 	.word	0x25783230
    dca4:	25783230 	.word	0x25783230
    dca8:	25783230 	.word	0x25783230
    dcac:	63250063 	.word	0x63250063
    dcb0:	78323025 	.word	0x78323025
    dcb4:	78323025 	.word	0x78323025
    dcb8:	78323025 	.word	0x78323025
    dcbc:	78323025 	.word	0x78323025
    dcc0:	78323025 	.word	0x78323025
    dcc4:	63256325 	.word	0x63256325
    dcc8:	78323025 	.word	0x78323025
    dccc:	78323025 	.word	0x78323025
    dcd0:	78323025 	.word	0x78323025
    dcd4:	78323025 	.word	0x78323025
    dcd8:	78323025 	.word	0x78323025
    dcdc:	30006325 	.word	0x30006325
    dce0:	0030      	.short	0x0030
    dce2:	6325      	.short	0x6325
    dce4:	78323025 	.word	0x78323025
    dce8:	78323025 	.word	0x78323025
    dcec:	78323025 	.word	0x78323025
    dcf0:	78323025 	.word	0x78323025
    dcf4:	00256325 	.word	0x00256325
    dcf8:	78383025 	.word	0x78383025
    dcfc:	00          	.byte	0x00
    dcfd:	25          	.byte	0x25
    dcfe:	3230      	.short	0x3230
    dd00:	30300078 	.word	0x30300078
    dd04:	000a      	.short	0x000a

0000dd06 <_adcs>:
    dd06:	0000 0100 000c 0003 1807 0004 0000 0000     ................
    dd16:	080b 0014 0000 0001 0100 000c 0003 1804     ................
    dd26:	0004 0000 0000 080b 0014 0000 0000          ..............

0000dd34 <_cfgs>:
    dd34:	0600 0020 8000 0806 0400 0020 8000 0806     .. ....... .....
    dd44:	1000 0020 8000 0806 0c00 0020 8000 0806     .. ....... .....
	...
    dd64:	0b00 0020 0003 1400 0a00 0020 0002 0800     .. ....... .....
    dd74:	1300 0020 0003 1400 0000 0000 0000 0000     .. .............
	...

0000de34 <user_mux_confs>:
	...
    de60:	0201 0403 0201 0403 0000 0000 0000 0000     ................
	...

0000de78 <channel_confs>:
    de78:	0522 0523 0524 0525 0000 0000 0000 0000     ".#.$.%.........
	...

0000deb8 <interrupt_cfg>:
    deb8:	0002 0000 0002 0000 0002 0000 0002 0000     ................
	...
    df38:	3000 4000 3400 4000 2000 4101 4000 4101     .0.@.4.@. .A.@.A
    df48:	0000 4300 0400 4300 0800 4300 0c00 4300     ...C...C...C...C

0000df58 <sercomspi_regs>:
    df58:	000c 3020 0000 0002 0000 0000 0005 01ff     .. 0............
    df68:	0c03 2000 0000 0000 0000 0000 0600 ff00     ... ............
    df78:	0701 0000                                   ....

0000df7c <_i2cms>:
    df7c:	0005 0000 0014 0020 0100 0000 e6e5 0000     ...... .........
    df8c:	0000 00d7 6c00 02dc                         .....l..

0000df94 <_usarts>:
    df94:	0000 0000 0004 4010 0000 0003 0002 0070     .......@......p.
    dfa4:	aaaa 0000 0000 0000 0001 0000 0004 4010     ...............@
    dfb4:	0000 0003 0002 0070 aaaa 0000 0000 0000     ......p.........
    dfc4:	0002 0000 0004 4010 0000 0003 0002 0070     .......@......p.
    dfd4:	f62b 0000 0000 0000 0004 0000 0004 4010     +..............@
    dfe4:	0000 0003 0002 0070 aaaa 0000 0000 0000     ......p.........
    dff4:	0006 0000 0004 4010 0000 0003 0002 0070     .......@......p.
    e004:	aaaa 0000 0000 0000 3800 4000 3c00 4000     .........8.@.<.@
    e014:	a000 4101 c000 4101 1400 4200 1800 4200     ...A...A...B...B
    e024:	1400 4300 1800 4300                         ...C...C

0000e02c <_tcs>:
    e02c:	0000 006b 0308 0000 0021 0000 3a98 0000     ..k.....!....:..
    e03c:	0000 0000 0001 006c 0308 0000 0021 0000     ......l.....!...
    e04c:	3a98 0000 0000 0000 0002 006d 0308 0000     .:........m.....
    e05c:	0021 0000 3a98 0000 0000 0000 0003 006e     !....:........n.
    e06c:	0308 0000 0021 0000 3a98 0000 0000 0000     ....!....:......

0000e07c <_usb_ep_cfgs>:
    e07c:	0d38 2000 0000 0000 0040 0000 0000 0000     8.. ....@.......
	...
    e094:	0d30 2000 0000 0000 0008 0000 0cf0 2000     0.. ........... 
    e0a4:	0ce8 2000 0040 0008 0000 0000 0000 0000     ... @...........
	...
    e0bc:	0ca8 2000 0000 0040                         ... ..@.

0000e0c4 <keyboard_report_desc>:
    e0c4:	0105 0609 01a1 0705 e019 e729 0015 0125     ..........)...%.
    e0d4:	0175 0895 0281 0181 0019 6529 0015 6525     u.........)e..%e
    e0e4:	0875 0695 0081 0805 0119 0529 0015 0125     u.........)...%.
    e0f4:	0175 0595 0291 0395 0191 05c0                    u..........

0000e0ff <mouse_report_desc>:
    e0ff:	0105 0209 01a1 0109 00a1 0905 0119 0329     ..............).
    e10f:	0015 0125 0175 0395 0281 0575 0195 0181     ..%.u.....u.....
    e11f:	0105 3009 3109 3809 8115 7f25 0875 0395     ...0.1.8..%.u...
    e12f:	0681 c0c0 0000                                   .....

0000e134 <__sf_fake_stderr>:
	...

0000e154 <__sf_fake_stdin>:
	...

0000e174 <__sf_fake_stdout>:
	...
    e194:	2d23 2b30 0020 6c68 004c 6665 4567 4746     #-0+ .hlL.efgEFG
    e1a4:	3000 3231 3433 3635 3837 4139 4342 4544     .0123456789ABCDE
    e1b4:	0046 3130 3332 3534 3736 3938 6261 6463     F.0123456789abcd
    e1c4:	6665 0000                                   ef..

0000e1c8 <_init>:
    e1c8:	b5f8      	push	{r3, r4, r5, r6, r7, lr}
    e1ca:	bf00      	nop
    e1cc:	bcf8      	pop	{r3, r4, r5, r6, r7}
    e1ce:	bc08      	pop	{r3}
    e1d0:	469e      	mov	lr, r3
    e1d2:	4770      	bx	lr

0000e1d4 <__init_array_start>:
    e1d4:	00004289 	.word	0x00004289

0000e1d8 <_fini>:
    e1d8:	b5f8      	push	{r3, r4, r5, r6, r7, lr}
    e1da:	bf00      	nop
    e1dc:	bcf8      	pop	{r3, r4, r5, r6, r7}
    e1de:	bc08      	pop	{r3}
    e1e0:	469e      	mov	lr, r3
    e1e2:	4770      	bx	lr

0000e1e4 <__fini_array_start>:
    e1e4:	00004265 	.word	0x00004265
