
grid_toplevel.elf:     file format elf32-littlearm

Sections:
Idx Name          Size      VMA       LMA       File off  Algn
  0 .text         00006114  00004000  00004000  00004000  2**4
                  CONTENTS, ALLOC, LOAD, READONLY, CODE
  1 .relocate     000003d8  20000000  0000a114  00010000  2**2
                  CONTENTS, ALLOC, LOAD, DATA
  2 .bkupram      00000000  47000000  47000000  000103d8  2**0
                  CONTENTS
  3 .qspi         00000000  04000000  04000000  000103d8  2**0
                  CONTENTS
  4 .bss          000018d8  200003e0  0000a500  000103e0  2**4
                  ALLOC
  5 .stack        00010000  20001cb8  0000bdd8  000103e0  2**0
                  ALLOC
  6 .ARM.attributes 0000002e  00000000  00000000  000103d8  2**0
                  CONTENTS, READONLY
  7 .comment      00000059  00000000  00000000  00010406  2**0
                  CONTENTS, READONLY
  8 .debug_frame  000004c0  00000000  00000000  00010460  2**2
                  CONTENTS, READONLY, DEBUGGING

Disassembly of section .text:

00004000 <exception_table>:
    4000:	b8 1c 01 20 ed 42 00 00 e9 42 00 00 e9 42 00 00     ... .B...B...B..
    4010:	e9 42 00 00 e9 42 00 00 e9 42 00 00 00 00 00 00     .B...B...B......
	...
    402c:	e9 42 00 00 e9 42 00 00 00 00 00 00 e9 42 00 00     .B...B.......B..
    403c:	e9 42 00 00 e9 42 00 00 e9 42 00 00 e9 42 00 00     .B...B...B...B..
    404c:	e9 42 00 00 e9 42 00 00 e9 42 00 00 e9 42 00 00     .B...B...B...B..
    405c:	e9 42 00 00 e9 42 00 00 e9 42 00 00 e9 42 00 00     .B...B...B...B..
    406c:	55 61 00 00 e9 42 00 00 e9 42 00 00 e9 42 00 00     Ua...B...B...B..
    407c:	e9 42 00 00 e9 42 00 00 e9 42 00 00 e9 42 00 00     .B...B...B...B..
    408c:	e9 42 00 00 e9 42 00 00 e9 42 00 00 e9 42 00 00     .B...B...B...B..
    409c:	e9 42 00 00 e9 42 00 00 e9 42 00 00 e9 42 00 00     .B...B...B...B..
    40ac:	e9 42 00 00 e9 42 00 00 45 5f 00 00 19 5f 00 00     .B...B..E_..._..
    40bc:	25 5e 00 00 2d 5e 00 00 35 5e 00 00 3d 5e 00 00     %^..-^..5^..=^..
    40cc:	45 5e 00 00 e9 42 00 00 e9 42 00 00 e9 42 00 00     E^...B...B...B..
    40dc:	e9 42 00 00 e9 42 00 00 e9 42 00 00 00 00 00 00     .B...B...B......
	...
    40f4:	69 60 00 00 39 69 00 00 31 69 00 00 29 69 00 00     i`..9i..1i..)i..
    4104:	19 69 00 00 61 69 00 00 59 69 00 00 51 69 00 00     .i..ai..Yi..Qi..
    4114:	41 69 00 00 89 69 00 00 81 69 00 00 79 69 00 00     Ai...i...i..yi..
    4124:	69 69 00 00 e9 42 00 00 e9 42 00 00 e9 42 00 00     ii...B...B...B..
    4134:	e9 42 00 00 b1 69 00 00 a9 69 00 00 a1 69 00 00     .B...i...i...i..
    4144:	91 69 00 00 2d 6a 00 00 25 6a 00 00 1d 6a 00 00     .i..-j..%j...j..
    4154:	b9 69 00 00 55 6a 00 00 4d 6a 00 00 45 6a 00 00     .i..Uj..Mj..Ej..
    4164:	35 6a 00 00 e9 42 00 00 e9 42 00 00 e9 42 00 00     5j...B...B...B..
    4174:	e9 42 00 00 00 00 00 00 00 00 00 00 2d 7b 00 00     .B..........-{..
    4184:	35 7b 00 00 3d 7b 00 00 45 7b 00 00 00 00 00 00     5{..={..E{......
    4194:	e9 42 00 00 e9 42 00 00 e9 42 00 00 e9 42 00 00     .B...B...B...B..
    41a4:	e9 42 00 00 e9 42 00 00 e9 42 00 00 e9 42 00 00     .B...B...B...B..
    41b4:	e9 42 00 00 e9 42 00 00 e9 42 00 00 e9 42 00 00     .B...B...B...B..
    41c4:	e9 42 00 00 e9 42 00 00 e9 42 00 00 e9 42 00 00     .B...B...B...B..
    41d4:	e9 42 00 00 e9 42 00 00 e9 42 00 00 e9 42 00 00     .B...B...B...B..
    41e4:	e9 42 00 00 e9 42 00 00 e9 42 00 00 e9 42 00 00     .B...B...B...B..
    41f4:	e9 42 00 00 e9 42 00 00 e9 42 00 00 e9 42 00 00     .B...B...B...B..
    4204:	e9 42 00 00 e9 42 00 00 e9 42 00 00 e9 42 00 00     .B...B...B...B..
    4214:	e9 42 00 00 81 5b 00 00 71 5b 00 00 99 5b 00 00     .B...[..q[...[..
    4224:	89 5b 00 00 e9 42 00 00 e9 42 00 00 e9 42 00 00     .[...B...B...B..
    4234:	e9 42 00 00 e9 42 00 00 e9 42 00 00 e9 42 00 00     .B...B...B...B..
    4244:	e9 42 00 00 e9 42 00 00 e9 42 00 00 e9 42 00 00     .B...B...B...B..
    4254:	e9 42 00 00 e9 42 00 00 e9 42 00 00 e9 42 00 00     .B...B...B...B..

00004264 <__do_global_dtors_aux>:
    4264:	b510      	push	{r4, lr}
    4266:	4c05      	ldr	r4, [pc, #20]	; (427c <__do_global_dtors_aux+0x18>)
    4268:	7823      	ldrb	r3, [r4, #0]
    426a:	b933      	cbnz	r3, 427a <__do_global_dtors_aux+0x16>
    426c:	4b04      	ldr	r3, [pc, #16]	; (4280 <__do_global_dtors_aux+0x1c>)
    426e:	b113      	cbz	r3, 4276 <__do_global_dtors_aux+0x12>
    4270:	4804      	ldr	r0, [pc, #16]	; (4284 <__do_global_dtors_aux+0x20>)
    4272:	f3af 8000 	nop.w
    4276:	2301      	movs	r3, #1
    4278:	7023      	strb	r3, [r4, #0]
    427a:	bd10      	pop	{r4, pc}
    427c:	200003e0 	.word	0x200003e0
    4280:	00000000 	.word	0x00000000
    4284:	0000a114 	.word	0x0000a114

00004288 <frame_dummy>:
    4288:	4b0c      	ldr	r3, [pc, #48]	; (42bc <frame_dummy+0x34>)
    428a:	b143      	cbz	r3, 429e <frame_dummy+0x16>
    428c:	480c      	ldr	r0, [pc, #48]	; (42c0 <frame_dummy+0x38>)
    428e:	490d      	ldr	r1, [pc, #52]	; (42c4 <frame_dummy+0x3c>)
    4290:	b510      	push	{r4, lr}
    4292:	f3af 8000 	nop.w
    4296:	480c      	ldr	r0, [pc, #48]	; (42c8 <frame_dummy+0x40>)
    4298:	6803      	ldr	r3, [r0, #0]
    429a:	b923      	cbnz	r3, 42a6 <frame_dummy+0x1e>
    429c:	bd10      	pop	{r4, pc}
    429e:	480a      	ldr	r0, [pc, #40]	; (42c8 <frame_dummy+0x40>)
    42a0:	6803      	ldr	r3, [r0, #0]
    42a2:	b933      	cbnz	r3, 42b2 <frame_dummy+0x2a>
    42a4:	4770      	bx	lr
    42a6:	4b09      	ldr	r3, [pc, #36]	; (42cc <frame_dummy+0x44>)
    42a8:	2b00      	cmp	r3, #0
    42aa:	d0f7      	beq.n	429c <frame_dummy+0x14>
    42ac:	e8bd 4010 	ldmia.w	sp!, {r4, lr}
    42b0:	4718      	bx	r3
    42b2:	4b06      	ldr	r3, [pc, #24]	; (42cc <frame_dummy+0x44>)
    42b4:	2b00      	cmp	r3, #0
    42b6:	d0f5      	beq.n	42a4 <frame_dummy+0x1c>
    42b8:	4718      	bx	r3
    42ba:	bf00      	nop
    42bc:	00000000 	.word	0x00000000
    42c0:	0000a114 	.word	0x0000a114
    42c4:	200003e4 	.word	0x200003e4
    42c8:	0000a114 	.word	0x0000a114
    42cc:	00000000 	.word	0x00000000

000042d0 <atmel_start_init>:
    42d0:	b510      	push	{r4, lr}
    42d2:	4b03      	ldr	r3, [pc, #12]	; (42e0 <atmel_start_init+0x10>)
    42d4:	4798      	blx	r3
    42d6:	4b03      	ldr	r3, [pc, #12]	; (42e4 <atmel_start_init+0x14>)
    42d8:	e8bd 4010 	ldmia.w	sp!, {r4, lr}
    42dc:	4718      	bx	r3
    42de:	bf00      	nop
    42e0:	00004a0d 	.word	0x00004a0d
    42e4:	00009425 	.word	0x00009425

000042e8 <Dummy_Handler>:
    42e8:	e7fe      	b.n	42e8 <Dummy_Handler>
	...

000042ec <Reset_Handler>:
    42ec:	b508      	push	{r3, lr}
    42ee:	4a14      	ldr	r2, [pc, #80]	; (4340 <Reset_Handler+0x54>)
    42f0:	4b14      	ldr	r3, [pc, #80]	; (4344 <Reset_Handler+0x58>)
    42f2:	429a      	cmp	r2, r3
    42f4:	d118      	bne.n	4328 <Reset_Handler+0x3c>
    42f6:	4b14      	ldr	r3, [pc, #80]	; (4348 <Reset_Handler+0x5c>)
    42f8:	4a14      	ldr	r2, [pc, #80]	; (434c <Reset_Handler+0x60>)
    42fa:	2100      	movs	r1, #0
    42fc:	4293      	cmp	r3, r2
    42fe:	d31c      	bcc.n	433a <Reset_Handler+0x4e>
    4300:	4a13      	ldr	r2, [pc, #76]	; (4350 <Reset_Handler+0x64>)
    4302:	4b14      	ldr	r3, [pc, #80]	; (4354 <Reset_Handler+0x68>)
    4304:	f022 027f 	bic.w	r2, r2, #127	; 0x7f
    4308:	609a      	str	r2, [r3, #8]
    430a:	f8d3 2088 	ldr.w	r2, [r3, #136]	; 0x88
    430e:	f442 0270 	orr.w	r2, r2, #15728640	; 0xf00000
    4312:	f8c3 2088 	str.w	r2, [r3, #136]	; 0x88
    4316:	f3bf 8f4f 	dsb	sy
    431a:	f3bf 8f6f 	isb	sy
    431e:	4b0e      	ldr	r3, [pc, #56]	; (4358 <Reset_Handler+0x6c>)
    4320:	4798      	blx	r3
    4322:	4b0e      	ldr	r3, [pc, #56]	; (435c <Reset_Handler+0x70>)
    4324:	4798      	blx	r3
    4326:	e7fe      	b.n	4326 <Reset_Handler+0x3a>
    4328:	490d      	ldr	r1, [pc, #52]	; (4360 <Reset_Handler+0x74>)
    432a:	3a04      	subs	r2, #4
    432c:	428b      	cmp	r3, r1
    432e:	d2e2      	bcs.n	42f6 <Reset_Handler+0xa>
    4330:	f852 0f04 	ldr.w	r0, [r2, #4]!
    4334:	f843 0b04 	str.w	r0, [r3], #4
    4338:	e7f8      	b.n	432c <Reset_Handler+0x40>
    433a:	f843 1b04 	str.w	r1, [r3], #4
    433e:	e7dd      	b.n	42fc <Reset_Handler+0x10>
    4340:	0000a114 	.word	0x0000a114
    4344:	20000000 	.word	0x20000000
    4348:	200003e0 	.word	0x200003e0
    434c:	20001cb8 	.word	0x20001cb8
    4350:	00004000 	.word	0x00004000
    4354:	e000ed00 	.word	0xe000ed00
    4358:	0000942d 	.word	0x0000942d
    435c:	000087d9 	.word	0x000087d9
    4360:	200003d8 	.word	0x200003d8

00004364 <_gpio_set_pin_function>:
    4364:	b530      	push	{r4, r5, lr}
    4366:	1c4a      	adds	r2, r1, #1
    4368:	b2c4      	uxtb	r4, r0
    436a:	f3c0 1247 	ubfx	r2, r0, #5, #8
    436e:	4816      	ldr	r0, [pc, #88]	; (43c8 <_gpio_set_pin_function+0x64>)
    4370:	f004 031f 	and.w	r3, r4, #31
    4374:	eb00 10c2 	add.w	r0, r0, r2, lsl #7
    4378:	d107      	bne.n	438a <_gpio_set_pin_function+0x26>
    437a:	4418      	add	r0, r3
    437c:	f890 3040 	ldrb.w	r3, [r0, #64]	; 0x40
    4380:	f003 03fe 	and.w	r3, r3, #254	; 0xfe
    4384:	f880 3040 	strb.w	r3, [r0, #64]	; 0x40
    4388:	bd30      	pop	{r4, r5, pc}
    438a:	18c5      	adds	r5, r0, r3
    438c:	085b      	lsrs	r3, r3, #1
    438e:	f895 2040 	ldrb.w	r2, [r5, #64]	; 0x40
    4392:	f002 02fe 	and.w	r2, r2, #254	; 0xfe
    4396:	4418      	add	r0, r3
    4398:	f042 0201 	orr.w	r2, r2, #1
    439c:	f885 2040 	strb.w	r2, [r5, #64]	; 0x40
    43a0:	f890 3030 	ldrb.w	r3, [r0, #48]	; 0x30
    43a4:	f014 0f01 	tst.w	r4, #1
    43a8:	bf19      	ittee	ne
    43aa:	f003 030f 	andne.w	r3, r3, #15
    43ae:	ea43 1101 	orrne.w	r1, r3, r1, lsl #4
    43b2:	f001 010f 	andeq.w	r1, r1, #15
    43b6:	f003 03f0 	andeq.w	r3, r3, #240	; 0xf0
    43ba:	bf14      	ite	ne
    43bc:	b2c9      	uxtbne	r1, r1
    43be:	4319      	orreq	r1, r3
    43c0:	f880 1030 	strb.w	r1, [r0, #48]	; 0x30
    43c4:	bd30      	pop	{r4, r5, pc}
    43c6:	bf00      	nop
    43c8:	41008000 	.word	0x41008000

000043cc <gpio_set_pin_direction>:
    43cc:	2201      	movs	r2, #1
    43ce:	0943      	lsrs	r3, r0, #5
    43d0:	4291      	cmp	r1, r2
    43d2:	f000 001f 	and.w	r0, r0, #31
    43d6:	fa02 f000 	lsl.w	r0, r2, r0
    43da:	d011      	beq.n	4400 <gpio_set_pin_direction+0x34>
    43dc:	d302      	bcc.n	43e4 <gpio_set_pin_direction+0x18>
    43de:	2902      	cmp	r1, #2
    43e0:	d01f      	beq.n	4422 <gpio_set_pin_direction+0x56>
    43e2:	4770      	bx	lr
    43e4:	01db      	lsls	r3, r3, #7
    43e6:	f103 4382 	add.w	r3, r3, #1090519040	; 0x41000000
    43ea:	f503 4300 	add.w	r3, r3, #32768	; 0x8000
    43ee:	6058      	str	r0, [r3, #4]
    43f0:	b282      	uxth	r2, r0
    43f2:	f042 4280 	orr.w	r2, r2, #1073741824	; 0x40000000
    43f6:	0c00      	lsrs	r0, r0, #16
    43f8:	629a      	str	r2, [r3, #40]	; 0x28
    43fa:	f040 4040 	orr.w	r0, r0, #3221225472	; 0xc0000000
    43fe:	e00e      	b.n	441e <gpio_set_pin_direction+0x52>
    4400:	01db      	lsls	r3, r3, #7
    4402:	b282      	uxth	r2, r0
    4404:	f103 4382 	add.w	r3, r3, #1090519040	; 0x41000000
    4408:	f503 4300 	add.w	r3, r3, #32768	; 0x8000
    440c:	f042 4280 	orr.w	r2, r2, #1073741824	; 0x40000000
    4410:	f442 3200 	orr.w	r2, r2, #131072	; 0x20000
    4414:	6058      	str	r0, [r3, #4]
    4416:	629a      	str	r2, [r3, #40]	; 0x28
    4418:	4a05      	ldr	r2, [pc, #20]	; (4430 <gpio_set_pin_direction+0x64>)
    441a:	ea42 4010 	orr.w	r0, r2, r0, lsr #16
    441e:	6298      	str	r0, [r3, #40]	; 0x28
    4420:	4770      	bx	lr
    4422:	01db      	lsls	r3, r3, #7
    4424:	f103 4382 	add.w	r3, r3, #1090519040	; 0x41000000
    4428:	f503 4300 	add.w	r3, r3, #32768	; 0x8000
    442c:	6098      	str	r0, [r3, #8]
    442e:	e7df      	b.n	43f0 <gpio_set_pin_direction+0x24>
    4430:	c0020000 	.word	0xc0020000

00004434 <ADC_0_init>:
    4434:	b5f0      	push	{r4, r5, r6, r7, lr}
    4436:	4a14      	ldr	r2, [pc, #80]	; (4488 <ADC_0_init+0x54>)
    4438:	4e14      	ldr	r6, [pc, #80]	; (448c <ADC_0_init+0x58>)
    443a:	6a13      	ldr	r3, [r2, #32]
    443c:	4d14      	ldr	r5, [pc, #80]	; (4490 <ADC_0_init+0x5c>)
    443e:	4915      	ldr	r1, [pc, #84]	; (4494 <ADC_0_init+0x60>)
    4440:	4f15      	ldr	r7, [pc, #84]	; (4498 <ADC_0_init+0x64>)
    4442:	f043 0380 	orr.w	r3, r3, #128	; 0x80
    4446:	6213      	str	r3, [r2, #32]
    4448:	4b14      	ldr	r3, [pc, #80]	; (449c <ADC_0_init+0x68>)
    444a:	b085      	sub	sp, #20
    444c:	2241      	movs	r2, #65	; 0x41
    444e:	f8c3 2120 	str.w	r2, [r3, #288]	; 0x120
    4452:	4b13      	ldr	r3, [pc, #76]	; (44a0 <ADC_0_init+0x6c>)
    4454:	9301      	str	r3, [sp, #4]
    4456:	2400      	movs	r4, #0
    4458:	2301      	movs	r3, #1
    445a:	9300      	str	r3, [sp, #0]
    445c:	4632      	mov	r2, r6
    445e:	4623      	mov	r3, r4
    4460:	9402      	str	r4, [sp, #8]
    4462:	4628      	mov	r0, r5
    4464:	47b8      	blx	r7
    4466:	1c72      	adds	r2, r6, #1
    4468:	4621      	mov	r1, r4
    446a:	2310      	movs	r3, #16
    446c:	4628      	mov	r0, r5
    446e:	4d0d      	ldr	r5, [pc, #52]	; (44a4 <ADC_0_init+0x70>)
    4470:	47a8      	blx	r5
    4472:	4621      	mov	r1, r4
    4474:	2007      	movs	r0, #7
    4476:	4b0c      	ldr	r3, [pc, #48]	; (44a8 <ADC_0_init+0x74>)
    4478:	4798      	blx	r3
    447a:	490c      	ldr	r1, [pc, #48]	; (44ac <ADC_0_init+0x78>)
    447c:	4b0c      	ldr	r3, [pc, #48]	; (44b0 <ADC_0_init+0x7c>)
    447e:	2007      	movs	r0, #7
    4480:	b005      	add	sp, #20
    4482:	e8bd 40f0 	ldmia.w	sp!, {r4, r5, r6, r7, lr}
    4486:	4718      	bx	r3
    4488:	40000800 	.word	0x40000800
    448c:	200003fc 	.word	0x200003fc
    4490:	200011a0 	.word	0x200011a0
    4494:	43001c00 	.word	0x43001c00
    4498:	00004c29 	.word	0x00004c29
    449c:	40001c00 	.word	0x40001c00
    44a0:	20001298 	.word	0x20001298
    44a4:	00004c75 	.word	0x00004c75
    44a8:	000043cd 	.word	0x000043cd
    44ac:	00070001 	.word	0x00070001
    44b0:	00004365 	.word	0x00004365

000044b4 <ADC_1_init>:
    44b4:	b5f0      	push	{r4, r5, r6, r7, lr}
    44b6:	4a15      	ldr	r2, [pc, #84]	; (450c <ADC_1_init+0x58>)
    44b8:	4e15      	ldr	r6, [pc, #84]	; (4510 <ADC_1_init+0x5c>)
    44ba:	6a13      	ldr	r3, [r2, #32]
    44bc:	4d15      	ldr	r5, [pc, #84]	; (4514 <ADC_1_init+0x60>)
    44be:	4916      	ldr	r1, [pc, #88]	; (4518 <ADC_1_init+0x64>)
    44c0:	4f16      	ldr	r7, [pc, #88]	; (451c <ADC_1_init+0x68>)
    44c2:	f443 7380 	orr.w	r3, r3, #256	; 0x100
    44c6:	6213      	str	r3, [r2, #32]
    44c8:	4b15      	ldr	r3, [pc, #84]	; (4520 <ADC_1_init+0x6c>)
    44ca:	b085      	sub	sp, #20
    44cc:	2241      	movs	r2, #65	; 0x41
    44ce:	f8c3 2124 	str.w	r2, [r3, #292]	; 0x124
    44d2:	4b14      	ldr	r3, [pc, #80]	; (4524 <ADC_1_init+0x70>)
    44d4:	9301      	str	r3, [sp, #4]
    44d6:	2400      	movs	r4, #0
    44d8:	2301      	movs	r3, #1
    44da:	9300      	str	r3, [sp, #0]
    44dc:	f106 0211 	add.w	r2, r6, #17
    44e0:	4623      	mov	r3, r4
    44e2:	9402      	str	r4, [sp, #8]
    44e4:	4628      	mov	r0, r5
    44e6:	47b8      	blx	r7
    44e8:	f106 0212 	add.w	r2, r6, #18
    44ec:	4621      	mov	r1, r4
    44ee:	2310      	movs	r3, #16
    44f0:	4628      	mov	r0, r5
    44f2:	4d0d      	ldr	r5, [pc, #52]	; (4528 <ADC_1_init+0x74>)
    44f4:	47a8      	blx	r5
    44f6:	4621      	mov	r1, r4
    44f8:	2042      	movs	r0, #66	; 0x42
    44fa:	4b0c      	ldr	r3, [pc, #48]	; (452c <ADC_1_init+0x78>)
    44fc:	4798      	blx	r3
    44fe:	490c      	ldr	r1, [pc, #48]	; (4530 <ADC_1_init+0x7c>)
    4500:	4b0c      	ldr	r3, [pc, #48]	; (4534 <ADC_1_init+0x80>)
    4502:	2042      	movs	r0, #66	; 0x42
    4504:	b005      	add	sp, #20
    4506:	e8bd 40f0 	ldmia.w	sp!, {r4, r5, r6, r7, lr}
    450a:	4718      	bx	r3
    450c:	40000800 	.word	0x40000800
    4510:	200003fc 	.word	0x200003fc
    4514:	20001350 	.word	0x20001350
    4518:	43002000 	.word	0x43002000
    451c:	00004c29 	.word	0x00004c29
    4520:	40001c00 	.word	0x40001c00
    4524:	200010f8 	.word	0x200010f8
    4528:	00004c75 	.word	0x00004c75
    452c:	000043cd 	.word	0x000043cd
    4530:	00420001 	.word	0x00420001
    4534:	00004365 	.word	0x00004365

00004538 <CRC_0_init>:
    4538:	4a04      	ldr	r2, [pc, #16]	; (454c <CRC_0_init+0x14>)
    453a:	4905      	ldr	r1, [pc, #20]	; (4550 <CRC_0_init+0x18>)
    453c:	6993      	ldr	r3, [r2, #24]
    453e:	4805      	ldr	r0, [pc, #20]	; (4554 <CRC_0_init+0x1c>)
    4540:	f043 0302 	orr.w	r3, r3, #2
    4544:	6193      	str	r3, [r2, #24]
    4546:	4b04      	ldr	r3, [pc, #16]	; (4558 <CRC_0_init+0x20>)
    4548:	4718      	bx	r3
    454a:	bf00      	nop
    454c:	40000800 	.word	0x40000800
    4550:	41002000 	.word	0x41002000
    4554:	200010f4 	.word	0x200010f4
    4558:	00004dcd 	.word	0x00004dcd

0000455c <FLASH_0_CLOCK_init>:
    455c:	4a02      	ldr	r2, [pc, #8]	; (4568 <FLASH_0_CLOCK_init+0xc>)
    455e:	6913      	ldr	r3, [r2, #16]
    4560:	f043 0340 	orr.w	r3, r3, #64	; 0x40
    4564:	6113      	str	r3, [r2, #16]
    4566:	4770      	bx	lr
    4568:	40000800 	.word	0x40000800

0000456c <FLASH_0_init>:
    456c:	b510      	push	{r4, lr}
    456e:	4b04      	ldr	r3, [pc, #16]	; (4580 <FLASH_0_init+0x14>)
    4570:	4798      	blx	r3
    4572:	4904      	ldr	r1, [pc, #16]	; (4584 <FLASH_0_init+0x18>)
    4574:	4804      	ldr	r0, [pc, #16]	; (4588 <FLASH_0_init+0x1c>)
    4576:	4b05      	ldr	r3, [pc, #20]	; (458c <FLASH_0_init+0x20>)
    4578:	e8bd 4010 	ldmia.w	sp!, {r4, lr}
    457c:	4718      	bx	r3
    457e:	bf00      	nop
    4580:	0000455d 	.word	0x0000455d
    4584:	41004000 	.word	0x41004000
    4588:	200010d8 	.word	0x200010d8
    458c:	00004e3d 	.word	0x00004e3d

00004590 <USART_EAST_CLOCK_init>:
    4590:	4b06      	ldr	r3, [pc, #24]	; (45ac <USART_EAST_CLOCK_init+0x1c>)
    4592:	2241      	movs	r2, #65	; 0x41
    4594:	f8c3 209c 	str.w	r2, [r3, #156]	; 0x9c
    4598:	2242      	movs	r2, #66	; 0x42
    459a:	f8c3 208c 	str.w	r2, [r3, #140]	; 0x8c
    459e:	4a04      	ldr	r2, [pc, #16]	; (45b0 <USART_EAST_CLOCK_init+0x20>)
    45a0:	6953      	ldr	r3, [r2, #20]
    45a2:	f443 5380 	orr.w	r3, r3, #4096	; 0x1000
    45a6:	6153      	str	r3, [r2, #20]
    45a8:	4770      	bx	lr
    45aa:	bf00      	nop
    45ac:	40001c00 	.word	0x40001c00
    45b0:	40000800 	.word	0x40000800

000045b4 <USART_EAST_PORT_init>:
    45b4:	b510      	push	{r4, lr}
    45b6:	4c05      	ldr	r4, [pc, #20]	; (45cc <USART_EAST_PORT_init+0x18>)
    45b8:	4905      	ldr	r1, [pc, #20]	; (45d0 <USART_EAST_PORT_init+0x1c>)
    45ba:	2051      	movs	r0, #81	; 0x51
    45bc:	47a0      	blx	r4
    45be:	4623      	mov	r3, r4
    45c0:	4904      	ldr	r1, [pc, #16]	; (45d4 <USART_EAST_PORT_init+0x20>)
    45c2:	2050      	movs	r0, #80	; 0x50
    45c4:	e8bd 4010 	ldmia.w	sp!, {r4, lr}
    45c8:	4718      	bx	r3
    45ca:	bf00      	nop
    45cc:	00004365 	.word	0x00004365
    45d0:	00510003 	.word	0x00510003
    45d4:	00500003 	.word	0x00500003

000045d8 <USART_EAST_init>:
    45d8:	b513      	push	{r0, r1, r4, lr}
    45da:	4b07      	ldr	r3, [pc, #28]	; (45f8 <USART_EAST_init+0x20>)
    45dc:	4c07      	ldr	r4, [pc, #28]	; (45fc <USART_EAST_init+0x24>)
    45de:	4798      	blx	r3
    45e0:	2300      	movs	r3, #0
    45e2:	9300      	str	r3, [sp, #0]
    45e4:	4a06      	ldr	r2, [pc, #24]	; (4600 <USART_EAST_init+0x28>)
    45e6:	4907      	ldr	r1, [pc, #28]	; (4604 <USART_EAST_init+0x2c>)
    45e8:	4807      	ldr	r0, [pc, #28]	; (4608 <USART_EAST_init+0x30>)
    45ea:	2310      	movs	r3, #16
    45ec:	47a0      	blx	r4
    45ee:	4b07      	ldr	r3, [pc, #28]	; (460c <USART_EAST_init+0x34>)
    45f0:	b002      	add	sp, #8
    45f2:	e8bd 4010 	ldmia.w	sp!, {r4, lr}
    45f6:	4718      	bx	r3
    45f8:	00004591 	.word	0x00004591
    45fc:	0000521d 	.word	0x0000521d
    4600:	2000041e 	.word	0x2000041e
    4604:	40003000 	.word	0x40003000
    4608:	200011cc 	.word	0x200011cc
    460c:	000045b5 	.word	0x000045b5

00004610 <USART_NORTH_CLOCK_init>:
    4610:	4b06      	ldr	r3, [pc, #24]	; (462c <USART_NORTH_CLOCK_init+0x1c>)
    4612:	2241      	movs	r2, #65	; 0x41
    4614:	f8c3 20a0 	str.w	r2, [r3, #160]	; 0xa0
    4618:	2242      	movs	r2, #66	; 0x42
    461a:	f8c3 208c 	str.w	r2, [r3, #140]	; 0x8c
    461e:	4a04      	ldr	r2, [pc, #16]	; (4630 <USART_NORTH_CLOCK_init+0x20>)
    4620:	6953      	ldr	r3, [r2, #20]
    4622:	f443 5300 	orr.w	r3, r3, #8192	; 0x2000
    4626:	6153      	str	r3, [r2, #20]
    4628:	4770      	bx	lr
    462a:	bf00      	nop
    462c:	40001c00 	.word	0x40001c00
    4630:	40000800 	.word	0x40000800

00004634 <USART_NORTH_PORT_init>:
    4634:	b510      	push	{r4, lr}
    4636:	4c05      	ldr	r4, [pc, #20]	; (464c <USART_NORTH_PORT_init+0x18>)
    4638:	4905      	ldr	r1, [pc, #20]	; (4650 <USART_NORTH_PORT_init+0x1c>)
    463a:	205b      	movs	r0, #91	; 0x5b
    463c:	47a0      	blx	r4
    463e:	4623      	mov	r3, r4
    4640:	4904      	ldr	r1, [pc, #16]	; (4654 <USART_NORTH_PORT_init+0x20>)
    4642:	205c      	movs	r0, #92	; 0x5c
    4644:	e8bd 4010 	ldmia.w	sp!, {r4, lr}
    4648:	4718      	bx	r3
    464a:	bf00      	nop
    464c:	00004365 	.word	0x00004365
    4650:	005b0002 	.word	0x005b0002
    4654:	005c0002 	.word	0x005c0002

00004658 <USART_NORTH_init>:
    4658:	b513      	push	{r0, r1, r4, lr}
    465a:	4b07      	ldr	r3, [pc, #28]	; (4678 <USART_NORTH_init+0x20>)
    465c:	4c07      	ldr	r4, [pc, #28]	; (467c <USART_NORTH_init+0x24>)
    465e:	4798      	blx	r3
    4660:	2300      	movs	r3, #0
    4662:	9300      	str	r3, [sp, #0]
    4664:	4a06      	ldr	r2, [pc, #24]	; (4680 <USART_NORTH_init+0x28>)
    4666:	4907      	ldr	r1, [pc, #28]	; (4684 <USART_NORTH_init+0x2c>)
    4668:	4807      	ldr	r0, [pc, #28]	; (4688 <USART_NORTH_init+0x30>)
    466a:	2310      	movs	r3, #16
    466c:	47a0      	blx	r4
    466e:	4b07      	ldr	r3, [pc, #28]	; (468c <USART_NORTH_init+0x34>)
    4670:	b002      	add	sp, #8
    4672:	e8bd 4010 	ldmia.w	sp!, {r4, lr}
    4676:	4718      	bx	r3
    4678:	00004611 	.word	0x00004611
    467c:	0000521d 	.word	0x0000521d
    4680:	2000042e 	.word	0x2000042e
    4684:	40003400 	.word	0x40003400
    4688:	2000121c 	.word	0x2000121c
    468c:	00004635 	.word	0x00004635

00004690 <GRID_AUX_CLOCK_init>:
    4690:	4b06      	ldr	r3, [pc, #24]	; (46ac <GRID_AUX_CLOCK_init+0x1c>)
    4692:	2241      	movs	r2, #65	; 0x41
    4694:	f8c3 20dc 	str.w	r2, [r3, #220]	; 0xdc
    4698:	2242      	movs	r2, #66	; 0x42
    469a:	f8c3 208c 	str.w	r2, [r3, #140]	; 0x8c
    469e:	4a04      	ldr	r2, [pc, #16]	; (46b0 <GRID_AUX_CLOCK_init+0x20>)
    46a0:	6993      	ldr	r3, [r2, #24]
    46a2:	f443 7300 	orr.w	r3, r3, #512	; 0x200
    46a6:	6193      	str	r3, [r2, #24]
    46a8:	4770      	bx	lr
    46aa:	bf00      	nop
    46ac:	40001c00 	.word	0x40001c00
    46b0:	40000800 	.word	0x40000800

000046b4 <GRID_AUX_PORT_init>:
    46b4:	b510      	push	{r4, lr}
    46b6:	4c05      	ldr	r4, [pc, #20]	; (46cc <GRID_AUX_PORT_init+0x18>)
    46b8:	4905      	ldr	r1, [pc, #20]	; (46d0 <GRID_AUX_PORT_init+0x1c>)
    46ba:	2039      	movs	r0, #57	; 0x39
    46bc:	47a0      	blx	r4
    46be:	4623      	mov	r3, r4
    46c0:	4904      	ldr	r1, [pc, #16]	; (46d4 <GRID_AUX_PORT_init+0x20>)
    46c2:	2038      	movs	r0, #56	; 0x38
    46c4:	e8bd 4010 	ldmia.w	sp!, {r4, lr}
    46c8:	4718      	bx	r3
    46ca:	bf00      	nop
    46cc:	00004365 	.word	0x00004365
    46d0:	00390003 	.word	0x00390003
    46d4:	00380003 	.word	0x00380003

000046d8 <GRID_AUX_init>:
    46d8:	b513      	push	{r0, r1, r4, lr}
    46da:	4b07      	ldr	r3, [pc, #28]	; (46f8 <GRID_AUX_init+0x20>)
    46dc:	4c07      	ldr	r4, [pc, #28]	; (46fc <GRID_AUX_init+0x24>)
    46de:	4798      	blx	r3
    46e0:	2300      	movs	r3, #0
    46e2:	9300      	str	r3, [sp, #0]
    46e4:	4a06      	ldr	r2, [pc, #24]	; (4700 <GRID_AUX_init+0x28>)
    46e6:	4907      	ldr	r1, [pc, #28]	; (4704 <GRID_AUX_init+0x2c>)
    46e8:	4807      	ldr	r0, [pc, #28]	; (4708 <GRID_AUX_init+0x30>)
    46ea:	2310      	movs	r3, #16
    46ec:	47a0      	blx	r4
    46ee:	4b07      	ldr	r3, [pc, #28]	; (470c <GRID_AUX_init+0x34>)
    46f0:	b002      	add	sp, #8
    46f2:	e8bd 4010 	ldmia.w	sp!, {r4, lr}
    46f6:	4718      	bx	r3
    46f8:	00004691 	.word	0x00004691
    46fc:	0000521d 	.word	0x0000521d
    4700:	2000043e 	.word	0x2000043e
    4704:	41012000 	.word	0x41012000
    4708:	20001150 	.word	0x20001150
    470c:	000046b5 	.word	0x000046b5

00004710 <USART_WEST_CLOCK_init>:
    4710:	4b06      	ldr	r3, [pc, #24]	; (472c <USART_WEST_CLOCK_init+0x1c>)
    4712:	2241      	movs	r2, #65	; 0x41
    4714:	f8c3 2108 	str.w	r2, [r3, #264]	; 0x108
    4718:	2242      	movs	r2, #66	; 0x42
    471a:	f8c3 208c 	str.w	r2, [r3, #140]	; 0x8c
    471e:	4a04      	ldr	r2, [pc, #16]	; (4730 <USART_WEST_CLOCK_init+0x20>)
    4720:	6a13      	ldr	r3, [r2, #32]
    4722:	f043 0301 	orr.w	r3, r3, #1
    4726:	6213      	str	r3, [r2, #32]
    4728:	4770      	bx	lr
    472a:	bf00      	nop
    472c:	40001c00 	.word	0x40001c00
    4730:	40000800 	.word	0x40000800

00004734 <USART_WEST_PORT_init>:
    4734:	b510      	push	{r4, lr}
    4736:	4c05      	ldr	r4, [pc, #20]	; (474c <USART_WEST_PORT_init+0x18>)
    4738:	4905      	ldr	r1, [pc, #20]	; (4750 <USART_WEST_PORT_init+0x1c>)
    473a:	2028      	movs	r0, #40	; 0x28
    473c:	47a0      	blx	r4
    473e:	4623      	mov	r3, r4
    4740:	4904      	ldr	r1, [pc, #16]	; (4754 <USART_WEST_PORT_init+0x20>)
    4742:	2029      	movs	r0, #41	; 0x29
    4744:	e8bd 4010 	ldmia.w	sp!, {r4, lr}
    4748:	4718      	bx	r3
    474a:	bf00      	nop
    474c:	00004365 	.word	0x00004365
    4750:	00280003 	.word	0x00280003
    4754:	00290003 	.word	0x00290003

00004758 <USART_WEST_init>:
    4758:	b513      	push	{r0, r1, r4, lr}
    475a:	4b08      	ldr	r3, [pc, #32]	; (477c <USART_WEST_init+0x24>)
    475c:	4c08      	ldr	r4, [pc, #32]	; (4780 <USART_WEST_init+0x28>)
    475e:	4798      	blx	r3
    4760:	2300      	movs	r3, #0
    4762:	9300      	str	r3, [sp, #0]
    4764:	4a07      	ldr	r2, [pc, #28]	; (4784 <USART_WEST_init+0x2c>)
    4766:	4808      	ldr	r0, [pc, #32]	; (4788 <USART_WEST_init+0x30>)
    4768:	2310      	movs	r3, #16
    476a:	f04f 4186 	mov.w	r1, #1124073472	; 0x43000000
    476e:	47a0      	blx	r4
    4770:	4b06      	ldr	r3, [pc, #24]	; (478c <USART_WEST_init+0x34>)
    4772:	b002      	add	sp, #8
    4774:	e8bd 4010 	ldmia.w	sp!, {r4, lr}
    4778:	4718      	bx	r3
    477a:	bf00      	nop
    477c:	00004711 	.word	0x00004711
    4780:	0000521d 	.word	0x0000521d
    4784:	2000044e 	.word	0x2000044e
    4788:	200012b0 	.word	0x200012b0
    478c:	00004735 	.word	0x00004735

00004790 <SYS_I2C_PORT_init>:
    4790:	b570      	push	{r4, r5, r6, lr}
    4792:	4c0b      	ldr	r4, [pc, #44]	; (47c0 <SYS_I2C_PORT_init+0x30>)
    4794:	4d0b      	ldr	r5, [pc, #44]	; (47c4 <SYS_I2C_PORT_init+0x34>)
    4796:	f894 3057 	ldrb.w	r3, [r4, #87]	; 0x57
    479a:	490b      	ldr	r1, [pc, #44]	; (47c8 <SYS_I2C_PORT_init+0x38>)
    479c:	f003 03fb 	and.w	r3, r3, #251	; 0xfb
    47a0:	f884 3057 	strb.w	r3, [r4, #87]	; 0x57
    47a4:	2017      	movs	r0, #23
    47a6:	47a8      	blx	r5
    47a8:	f894 3056 	ldrb.w	r3, [r4, #86]	; 0x56
    47ac:	4907      	ldr	r1, [pc, #28]	; (47cc <SYS_I2C_PORT_init+0x3c>)
    47ae:	f003 03fb 	and.w	r3, r3, #251	; 0xfb
    47b2:	f884 3056 	strb.w	r3, [r4, #86]	; 0x56
    47b6:	2016      	movs	r0, #22
    47b8:	462b      	mov	r3, r5
    47ba:	e8bd 4070 	ldmia.w	sp!, {r4, r5, r6, lr}
    47be:	4718      	bx	r3
    47c0:	41008000 	.word	0x41008000
    47c4:	00004365 	.word	0x00004365
    47c8:	00170003 	.word	0x00170003
    47cc:	00160003 	.word	0x00160003

000047d0 <SYS_I2C_CLOCK_init>:
    47d0:	4b06      	ldr	r3, [pc, #24]	; (47ec <SYS_I2C_CLOCK_init+0x1c>)
    47d2:	2241      	movs	r2, #65	; 0x41
    47d4:	f8c3 210c 	str.w	r2, [r3, #268]	; 0x10c
    47d8:	2242      	movs	r2, #66	; 0x42
    47da:	f8c3 208c 	str.w	r2, [r3, #140]	; 0x8c
    47de:	4a04      	ldr	r2, [pc, #16]	; (47f0 <SYS_I2C_CLOCK_init+0x20>)
    47e0:	6a13      	ldr	r3, [r2, #32]
    47e2:	f043 0302 	orr.w	r3, r3, #2
    47e6:	6213      	str	r3, [r2, #32]
    47e8:	4770      	bx	lr
    47ea:	bf00      	nop
    47ec:	40001c00 	.word	0x40001c00
    47f0:	40000800 	.word	0x40000800

000047f4 <SYS_I2C_init>:
    47f4:	b510      	push	{r4, lr}
    47f6:	4b05      	ldr	r3, [pc, #20]	; (480c <SYS_I2C_init+0x18>)
    47f8:	4798      	blx	r3
    47fa:	4b05      	ldr	r3, [pc, #20]	; (4810 <SYS_I2C_init+0x1c>)
    47fc:	4905      	ldr	r1, [pc, #20]	; (4814 <SYS_I2C_init+0x20>)
    47fe:	4806      	ldr	r0, [pc, #24]	; (4818 <SYS_I2C_init+0x24>)
    4800:	4798      	blx	r3
    4802:	4b06      	ldr	r3, [pc, #24]	; (481c <SYS_I2C_init+0x28>)
    4804:	e8bd 4010 	ldmia.w	sp!, {r4, lr}
    4808:	4718      	bx	r3
    480a:	bf00      	nop
    480c:	000047d1 	.word	0x000047d1
    4810:	00004ee1 	.word	0x00004ee1
    4814:	43000400 	.word	0x43000400
    4818:	20001110 	.word	0x20001110
    481c:	00004791 	.word	0x00004791

00004820 <USART_SOUTH_CLOCK_init>:
    4820:	4b06      	ldr	r3, [pc, #24]	; (483c <USART_SOUTH_CLOCK_init+0x1c>)
    4822:	2241      	movs	r2, #65	; 0x41
    4824:	f8c3 2110 	str.w	r2, [r3, #272]	; 0x110
    4828:	2242      	movs	r2, #66	; 0x42
    482a:	f8c3 208c 	str.w	r2, [r3, #140]	; 0x8c
    482e:	4a04      	ldr	r2, [pc, #16]	; (4840 <USART_SOUTH_CLOCK_init+0x20>)
    4830:	6a13      	ldr	r3, [r2, #32]
    4832:	f043 0304 	orr.w	r3, r3, #4
    4836:	6213      	str	r3, [r2, #32]
    4838:	4770      	bx	lr
    483a:	bf00      	nop
    483c:	40001c00 	.word	0x40001c00
    4840:	40000800 	.word	0x40000800

00004844 <USART_SOUTH_PORT_init>:
    4844:	b510      	push	{r4, lr}
    4846:	4c05      	ldr	r4, [pc, #20]	; (485c <USART_SOUTH_PORT_init+0x18>)
    4848:	4905      	ldr	r1, [pc, #20]	; (4860 <USART_SOUTH_PORT_init+0x1c>)
    484a:	204d      	movs	r0, #77	; 0x4d
    484c:	47a0      	blx	r4
    484e:	4623      	mov	r3, r4
    4850:	4904      	ldr	r1, [pc, #16]	; (4864 <USART_SOUTH_PORT_init+0x20>)
    4852:	204c      	movs	r0, #76	; 0x4c
    4854:	e8bd 4010 	ldmia.w	sp!, {r4, lr}
    4858:	4718      	bx	r3
    485a:	bf00      	nop
    485c:	00004365 	.word	0x00004365
    4860:	004d0003 	.word	0x004d0003
    4864:	004c0003 	.word	0x004c0003

00004868 <USART_SOUTH_init>:
    4868:	b513      	push	{r0, r1, r4, lr}
    486a:	4b07      	ldr	r3, [pc, #28]	; (4888 <USART_SOUTH_init+0x20>)
    486c:	4c07      	ldr	r4, [pc, #28]	; (488c <USART_SOUTH_init+0x24>)
    486e:	4798      	blx	r3
    4870:	2300      	movs	r3, #0
    4872:	9300      	str	r3, [sp, #0]
    4874:	4a06      	ldr	r2, [pc, #24]	; (4890 <USART_SOUTH_init+0x28>)
    4876:	4907      	ldr	r1, [pc, #28]	; (4894 <USART_SOUTH_init+0x2c>)
    4878:	4807      	ldr	r0, [pc, #28]	; (4898 <USART_SOUTH_init+0x30>)
    487a:	2310      	movs	r3, #16
    487c:	47a0      	blx	r4
    487e:	4b07      	ldr	r3, [pc, #28]	; (489c <USART_SOUTH_init+0x34>)
    4880:	b002      	add	sp, #8
    4882:	e8bd 4010 	ldmia.w	sp!, {r4, lr}
    4886:	4718      	bx	r3
    4888:	00004821 	.word	0x00004821
    488c:	0000521d 	.word	0x0000521d
    4890:	2000045e 	.word	0x2000045e
    4894:	43000800 	.word	0x43000800
    4898:	20001300 	.word	0x20001300
    489c:	00004845 	.word	0x00004845

000048a0 <GRID_LED_PORT_init>:
    48a0:	b570      	push	{r4, r5, r6, lr}
    48a2:	4c13      	ldr	r4, [pc, #76]	; (48f0 <GRID_LED_PORT_init+0x50>)
    48a4:	4e13      	ldr	r6, [pc, #76]	; (48f4 <GRID_LED_PORT_init+0x54>)
    48a6:	4d14      	ldr	r5, [pc, #80]	; (48f8 <GRID_LED_PORT_init+0x58>)
    48a8:	f04f 4380 	mov.w	r3, #1073741824	; 0x40000000
    48ac:	f8c4 3094 	str.w	r3, [r4, #148]	; 0x94
    48b0:	2102      	movs	r1, #2
    48b2:	203e      	movs	r0, #62	; 0x3e
    48b4:	47b0      	blx	r6
    48b6:	4911      	ldr	r1, [pc, #68]	; (48fc <GRID_LED_PORT_init+0x5c>)
    48b8:	203e      	movs	r0, #62	; 0x3e
    48ba:	47a8      	blx	r5
    48bc:	f04f 4300 	mov.w	r3, #2147483648	; 0x80000000
    48c0:	f8c4 3094 	str.w	r3, [r4, #148]	; 0x94
    48c4:	2102      	movs	r1, #2
    48c6:	203f      	movs	r0, #63	; 0x3f
    48c8:	47b0      	blx	r6
    48ca:	490d      	ldr	r1, [pc, #52]	; (4900 <GRID_LED_PORT_init+0x60>)
    48cc:	203f      	movs	r0, #63	; 0x3f
    48ce:	47a8      	blx	r5
    48d0:	2101      	movs	r1, #1
    48d2:	201e      	movs	r0, #30
    48d4:	47b0      	blx	r6
    48d6:	f894 305e 	ldrb.w	r3, [r4, #94]	; 0x5e
    48da:	490a      	ldr	r1, [pc, #40]	; (4904 <GRID_LED_PORT_init+0x64>)
    48dc:	f003 03fb 	and.w	r3, r3, #251	; 0xfb
    48e0:	f884 305e 	strb.w	r3, [r4, #94]	; 0x5e
    48e4:	201e      	movs	r0, #30
    48e6:	462b      	mov	r3, r5
    48e8:	e8bd 4070 	ldmia.w	sp!, {r4, r5, r6, lr}
    48ec:	4718      	bx	r3
    48ee:	bf00      	nop
    48f0:	41008000 	.word	0x41008000
    48f4:	000043cd 	.word	0x000043cd
    48f8:	00004365 	.word	0x00004365
    48fc:	003e0002 	.word	0x003e0002
    4900:	003f0002 	.word	0x003f0002
    4904:	001e0002 	.word	0x001e0002

00004908 <GRID_LED_CLOCK_init>:
    4908:	4b06      	ldr	r3, [pc, #24]	; (4924 <GRID_LED_CLOCK_init+0x1c>)
    490a:	2241      	movs	r2, #65	; 0x41
    490c:	f8c3 2114 	str.w	r2, [r3, #276]	; 0x114
    4910:	2242      	movs	r2, #66	; 0x42
    4912:	f8c3 208c 	str.w	r2, [r3, #140]	; 0x8c
    4916:	4a04      	ldr	r2, [pc, #16]	; (4928 <GRID_LED_CLOCK_init+0x20>)
    4918:	6a13      	ldr	r3, [r2, #32]
    491a:	f043 0308 	orr.w	r3, r3, #8
    491e:	6213      	str	r3, [r2, #32]
    4920:	4770      	bx	lr
    4922:	bf00      	nop
    4924:	40001c00 	.word	0x40001c00
    4928:	40000800 	.word	0x40000800

0000492c <GRID_LED_init>:
    492c:	b510      	push	{r4, lr}
    492e:	4b05      	ldr	r3, [pc, #20]	; (4944 <GRID_LED_init+0x18>)
    4930:	4798      	blx	r3
    4932:	4b05      	ldr	r3, [pc, #20]	; (4948 <GRID_LED_init+0x1c>)
    4934:	4905      	ldr	r1, [pc, #20]	; (494c <GRID_LED_init+0x20>)
    4936:	4806      	ldr	r0, [pc, #24]	; (4950 <GRID_LED_init+0x24>)
    4938:	4798      	blx	r3
    493a:	4b06      	ldr	r3, [pc, #24]	; (4954 <GRID_LED_init+0x28>)
    493c:	e8bd 4010 	ldmia.w	sp!, {r4, lr}
    4940:	4718      	bx	r3
    4942:	bf00      	nop
    4944:	00004909 	.word	0x00004909
    4948:	00004f69 	.word	0x00004f69
    494c:	43000c00 	.word	0x43000c00
    4950:	2000126c 	.word	0x2000126c
    4954:	000048a1 	.word	0x000048a1

00004958 <delay_driver_init>:
    4958:	4801      	ldr	r0, [pc, #4]	; (4960 <delay_driver_init+0x8>)
    495a:	4b02      	ldr	r3, [pc, #8]	; (4964 <delay_driver_init+0xc>)
    495c:	4718      	bx	r3
    495e:	bf00      	nop
    4960:	e000e010 	.word	0xe000e010
    4964:	00004dd5 	.word	0x00004dd5

00004968 <USB_0_PORT_init>:
    4968:	b570      	push	{r4, r5, r6, lr}
    496a:	2102      	movs	r1, #2
    496c:	4c11      	ldr	r4, [pc, #68]	; (49b4 <USB_0_PORT_init+0x4c>)
    496e:	4e12      	ldr	r6, [pc, #72]	; (49b8 <USB_0_PORT_init+0x50>)
    4970:	4d12      	ldr	r5, [pc, #72]	; (49bc <USB_0_PORT_init+0x54>)
    4972:	2018      	movs	r0, #24
    4974:	47b0      	blx	r6
    4976:	f04f 7380 	mov.w	r3, #16777216	; 0x1000000
    497a:	6163      	str	r3, [r4, #20]
    497c:	f894 3058 	ldrb.w	r3, [r4, #88]	; 0x58
    4980:	490f      	ldr	r1, [pc, #60]	; (49c0 <USB_0_PORT_init+0x58>)
    4982:	f003 03fb 	and.w	r3, r3, #251	; 0xfb
    4986:	f884 3058 	strb.w	r3, [r4, #88]	; 0x58
    498a:	2018      	movs	r0, #24
    498c:	47a8      	blx	r5
    498e:	2102      	movs	r1, #2
    4990:	2019      	movs	r0, #25
    4992:	47b0      	blx	r6
    4994:	f04f 7300 	mov.w	r3, #33554432	; 0x2000000
    4998:	6163      	str	r3, [r4, #20]
    499a:	f894 3059 	ldrb.w	r3, [r4, #89]	; 0x59
    499e:	4909      	ldr	r1, [pc, #36]	; (49c4 <USB_0_PORT_init+0x5c>)
    49a0:	f003 03fb 	and.w	r3, r3, #251	; 0xfb
    49a4:	f884 3059 	strb.w	r3, [r4, #89]	; 0x59
    49a8:	2019      	movs	r0, #25
    49aa:	462b      	mov	r3, r5
    49ac:	e8bd 4070 	ldmia.w	sp!, {r4, r5, r6, lr}
    49b0:	4718      	bx	r3
    49b2:	bf00      	nop
    49b4:	41008000 	.word	0x41008000
    49b8:	000043cd 	.word	0x000043cd
    49bc:	00004365 	.word	0x00004365
    49c0:	00180007 	.word	0x00180007
    49c4:	00190007 	.word	0x00190007

000049c8 <USB_0_CLOCK_init>:
    49c8:	4b07      	ldr	r3, [pc, #28]	; (49e8 <USB_0_CLOCK_init+0x20>)
    49ca:	2241      	movs	r2, #65	; 0x41
    49cc:	f8c3 20a8 	str.w	r2, [r3, #168]	; 0xa8
    49d0:	f5a3 53a0 	sub.w	r3, r3, #5120	; 0x1400
    49d4:	691a      	ldr	r2, [r3, #16]
    49d6:	f442 6280 	orr.w	r2, r2, #1024	; 0x400
    49da:	611a      	str	r2, [r3, #16]
    49dc:	699a      	ldr	r2, [r3, #24]
    49de:	f042 0201 	orr.w	r2, r2, #1
    49e2:	619a      	str	r2, [r3, #24]
    49e4:	4770      	bx	lr
    49e6:	bf00      	nop
    49e8:	40001c00 	.word	0x40001c00

000049ec <USB_0_init>:
    49ec:	b510      	push	{r4, lr}
    49ee:	4b04      	ldr	r3, [pc, #16]	; (4a00 <USB_0_init+0x14>)
    49f0:	4798      	blx	r3
    49f2:	4b04      	ldr	r3, [pc, #16]	; (4a04 <USB_0_init+0x18>)
    49f4:	4798      	blx	r3
    49f6:	4b04      	ldr	r3, [pc, #16]	; (4a08 <USB_0_init+0x1c>)
    49f8:	e8bd 4010 	ldmia.w	sp!, {r4, lr}
    49fc:	4718      	bx	r3
    49fe:	bf00      	nop
    4a00:	000049c9 	.word	0x000049c9
    4a04:	000054e5 	.word	0x000054e5
    4a08:	00004969 	.word	0x00004969

00004a0c <system_init>:
    4a0c:	b570      	push	{r4, r5, r6, lr}
    4a0e:	4b53      	ldr	r3, [pc, #332]	; (4b5c <system_init+0x150>)
    4a10:	4c53      	ldr	r4, [pc, #332]	; (4b60 <system_init+0x154>)
    4a12:	4d54      	ldr	r5, [pc, #336]	; (4b64 <system_init+0x158>)
    4a14:	4798      	blx	r3
    4a16:	2320      	movs	r3, #32
    4a18:	6163      	str	r3, [r4, #20]
    4a1a:	2102      	movs	r1, #2
    4a1c:	2005      	movs	r0, #5
    4a1e:	47a8      	blx	r5
    4a20:	f894 3045 	ldrb.w	r3, [r4, #69]	; 0x45
    4a24:	f003 03fe 	and.w	r3, r3, #254	; 0xfe
    4a28:	f884 3045 	strb.w	r3, [r4, #69]	; 0x45
    4a2c:	f44f 5300 	mov.w	r3, #8192	; 0x2000
    4a30:	f8c4 3094 	str.w	r3, [r4, #148]	; 0x94
    4a34:	2102      	movs	r1, #2
    4a36:	202d      	movs	r0, #45	; 0x2d
    4a38:	47a8      	blx	r5
    4a3a:	f894 30cd 	ldrb.w	r3, [r4, #205]	; 0xcd
    4a3e:	f44f 4680 	mov.w	r6, #16384	; 0x4000
    4a42:	f003 03fe 	and.w	r3, r3, #254	; 0xfe
    4a46:	f884 30cd 	strb.w	r3, [r4, #205]	; 0xcd
    4a4a:	2102      	movs	r1, #2
    4a4c:	f8c4 6094 	str.w	r6, [r4, #148]	; 0x94
    4a50:	202e      	movs	r0, #46	; 0x2e
    4a52:	47a8      	blx	r5
    4a54:	f894 30ce 	ldrb.w	r3, [r4, #206]	; 0xce
    4a58:	f003 03fe 	and.w	r3, r3, #254	; 0xfe
    4a5c:	f884 30ce 	strb.w	r3, [r4, #206]	; 0xce
    4a60:	2101      	movs	r1, #1
    4a62:	202f      	movs	r0, #47	; 0x2f
    4a64:	47a8      	blx	r5
    4a66:	f894 30cf 	ldrb.w	r3, [r4, #207]	; 0xcf
    4a6a:	f003 03fb 	and.w	r3, r3, #251	; 0xfb
    4a6e:	f884 30cf 	strb.w	r3, [r4, #207]	; 0xcf
    4a72:	f894 30cf 	ldrb.w	r3, [r4, #207]	; 0xcf
    4a76:	f003 03fe 	and.w	r3, r3, #254	; 0xfe
    4a7a:	f884 30cf 	strb.w	r3, [r4, #207]	; 0xcf
    4a7e:	2101      	movs	r1, #1
    4a80:	204b      	movs	r0, #75	; 0x4b
    4a82:	47a8      	blx	r5
    4a84:	f44f 6200 	mov.w	r2, #2048	; 0x800
    4a88:	f8c4 2104 	str.w	r2, [r4, #260]	; 0x104
    4a8c:	f894 314b 	ldrb.w	r3, [r4, #331]	; 0x14b
    4a90:	f043 0304 	orr.w	r3, r3, #4
    4a94:	f884 314b 	strb.w	r3, [r4, #331]	; 0x14b
    4a98:	f8c4 2118 	str.w	r2, [r4, #280]	; 0x118
    4a9c:	f894 314b 	ldrb.w	r3, [r4, #331]	; 0x14b
    4aa0:	f003 03fe 	and.w	r3, r3, #254	; 0xfe
    4aa4:	f884 314b 	strb.w	r3, [r4, #331]	; 0x14b
    4aa8:	2102      	movs	r1, #2
    4aaa:	f8c4 6114 	str.w	r6, [r4, #276]	; 0x114
    4aae:	204e      	movs	r0, #78	; 0x4e
    4ab0:	47a8      	blx	r5
    4ab2:	f894 314e 	ldrb.w	r3, [r4, #334]	; 0x14e
    4ab6:	f003 03fe 	and.w	r3, r3, #254	; 0xfe
    4aba:	f884 314e 	strb.w	r3, [r4, #334]	; 0x14e
    4abe:	f44f 2300 	mov.w	r3, #524288	; 0x80000
    4ac2:	f8c4 3114 	str.w	r3, [r4, #276]	; 0x114
    4ac6:	2102      	movs	r1, #2
    4ac8:	2053      	movs	r0, #83	; 0x53
    4aca:	47a8      	blx	r5
    4acc:	f894 3153 	ldrb.w	r3, [r4, #339]	; 0x153
    4ad0:	f003 03fe 	and.w	r3, r3, #254	; 0xfe
    4ad4:	f884 3153 	strb.w	r3, [r4, #339]	; 0x153
    4ad8:	f44f 1380 	mov.w	r3, #1048576	; 0x100000
    4adc:	f8c4 3114 	str.w	r3, [r4, #276]	; 0x114
    4ae0:	2102      	movs	r1, #2
    4ae2:	2054      	movs	r0, #84	; 0x54
    4ae4:	47a8      	blx	r5
    4ae6:	f894 3154 	ldrb.w	r3, [r4, #340]	; 0x154
    4aea:	f003 03fe 	and.w	r3, r3, #254	; 0xfe
    4aee:	f884 3154 	strb.w	r3, [r4, #340]	; 0x154
    4af2:	f44f 1300 	mov.w	r3, #2097152	; 0x200000
    4af6:	2102      	movs	r1, #2
    4af8:	2055      	movs	r0, #85	; 0x55
    4afa:	f8c4 3114 	str.w	r3, [r4, #276]	; 0x114
    4afe:	47a8      	blx	r5
    4b00:	f894 3155 	ldrb.w	r3, [r4, #341]	; 0x155
    4b04:	f003 03fe 	and.w	r3, r3, #254	; 0xfe
    4b08:	f884 3155 	strb.w	r3, [r4, #341]	; 0x155
    4b0c:	4b16      	ldr	r3, [pc, #88]	; (4b68 <system_init+0x15c>)
    4b0e:	4798      	blx	r3
    4b10:	4b16      	ldr	r3, [pc, #88]	; (4b6c <system_init+0x160>)
    4b12:	4798      	blx	r3
    4b14:	4b16      	ldr	r3, [pc, #88]	; (4b70 <system_init+0x164>)
    4b16:	4798      	blx	r3
    4b18:	4b16      	ldr	r3, [pc, #88]	; (4b74 <system_init+0x168>)
    4b1a:	4798      	blx	r3
    4b1c:	4a16      	ldr	r2, [pc, #88]	; (4b78 <system_init+0x16c>)
    4b1e:	6953      	ldr	r3, [r2, #20]
    4b20:	f443 7300 	orr.w	r3, r3, #512	; 0x200
    4b24:	6153      	str	r3, [r2, #20]
    4b26:	4b15      	ldr	r3, [pc, #84]	; (4b7c <system_init+0x170>)
    4b28:	4798      	blx	r3
    4b2a:	4915      	ldr	r1, [pc, #84]	; (4b80 <system_init+0x174>)
    4b2c:	4b15      	ldr	r3, [pc, #84]	; (4b84 <system_init+0x178>)
    4b2e:	4602      	mov	r2, r0
    4b30:	4815      	ldr	r0, [pc, #84]	; (4b88 <system_init+0x17c>)
    4b32:	4798      	blx	r3
    4b34:	4b15      	ldr	r3, [pc, #84]	; (4b8c <system_init+0x180>)
    4b36:	4798      	blx	r3
    4b38:	4b15      	ldr	r3, [pc, #84]	; (4b90 <system_init+0x184>)
    4b3a:	4798      	blx	r3
    4b3c:	4b15      	ldr	r3, [pc, #84]	; (4b94 <system_init+0x188>)
    4b3e:	4798      	blx	r3
    4b40:	4b15      	ldr	r3, [pc, #84]	; (4b98 <system_init+0x18c>)
    4b42:	4798      	blx	r3
    4b44:	4b15      	ldr	r3, [pc, #84]	; (4b9c <system_init+0x190>)
    4b46:	4798      	blx	r3
    4b48:	4b15      	ldr	r3, [pc, #84]	; (4ba0 <system_init+0x194>)
    4b4a:	4798      	blx	r3
    4b4c:	4b15      	ldr	r3, [pc, #84]	; (4ba4 <system_init+0x198>)
    4b4e:	4798      	blx	r3
    4b50:	4b15      	ldr	r3, [pc, #84]	; (4ba8 <system_init+0x19c>)
    4b52:	4798      	blx	r3
    4b54:	4b15      	ldr	r3, [pc, #84]	; (4bac <system_init+0x1a0>)
    4b56:	e8bd 4070 	ldmia.w	sp!, {r4, r5, r6, lr}
    4b5a:	4718      	bx	r3
    4b5c:	00005bb5 	.word	0x00005bb5
    4b60:	41008000 	.word	0x41008000
    4b64:	000043cd 	.word	0x000043cd
    4b68:	00004435 	.word	0x00004435
    4b6c:	000044b5 	.word	0x000044b5
    4b70:	00004539 	.word	0x00004539
    4b74:	0000456d 	.word	0x0000456d
    4b78:	40000800 	.word	0x40000800
    4b7c:	0000614f 	.word	0x0000614f
    4b80:	40002400 	.word	0x40002400
    4b84:	00005065 	.word	0x00005065
    4b88:	200010bc 	.word	0x200010bc
    4b8c:	000045d9 	.word	0x000045d9
    4b90:	00004659 	.word	0x00004659
    4b94:	000046d9 	.word	0x000046d9
    4b98:	00004759 	.word	0x00004759
    4b9c:	000047f5 	.word	0x000047f5
    4ba0:	00004869 	.word	0x00004869
    4ba4:	0000492d 	.word	0x0000492d
    4ba8:	00004959 	.word	0x00004959
    4bac:	000049ed 	.word	0x000049ed

00004bb0 <adc_async_window_threshold_reached>:
    4bb0:	6983      	ldr	r3, [r0, #24]
    4bb2:	b103      	cbz	r3, 4bb6 <adc_async_window_threshold_reached+0x6>
    4bb4:	4718      	bx	r3
    4bb6:	4770      	bx	lr

00004bb8 <adc_async_error_occured>:
    4bb8:	69c3      	ldr	r3, [r0, #28]
    4bba:	b103      	cbz	r3, 4bbe <adc_async_error_occured+0x6>
    4bbc:	4718      	bx	r3
    4bbe:	4770      	bx	lr

00004bc0 <adc_async_channel_conversion_done>:
    4bc0:	e92d 4ff1 	stmdb	sp!, {r0, r4, r5, r6, r7, r8, r9, sl, fp, lr}
    4bc4:	6a03      	ldr	r3, [r0, #32]
    4bc6:	f8d0 8028 	ldr.w	r8, [r0, #40]	; 0x28
    4bca:	5c5c      	ldrb	r4, [r3, r1]
    4bcc:	f8df 9054 	ldr.w	r9, [pc, #84]	; 4c24 <adc_async_channel_conversion_done+0x64>
    4bd0:	eb04 0444 	add.w	r4, r4, r4, lsl #1
    4bd4:	00e4      	lsls	r4, r4, #3
    4bd6:	eb08 0504 	add.w	r5, r8, r4
    4bda:	f105 0a04 	add.w	sl, r5, #4
    4bde:	4606      	mov	r6, r0
    4be0:	460f      	mov	r7, r1
    4be2:	4650      	mov	r0, sl
    4be4:	b2d1      	uxtb	r1, r2
    4be6:	4693      	mov	fp, r2
    4be8:	47c8      	blx	r9
    4bea:	4630      	mov	r0, r6
    4bec:	4b0c      	ldr	r3, [pc, #48]	; (4c20 <adc_async_channel_conversion_done+0x60>)
    4bee:	4798      	blx	r3
    4bf0:	2801      	cmp	r0, #1
    4bf2:	d906      	bls.n	4c02 <adc_async_channel_conversion_done+0x42>
    4bf4:	ea4f 211b 	mov.w	r1, fp, lsr #8
    4bf8:	4650      	mov	r0, sl
    4bfa:	47c8      	blx	r9
    4bfc:	8aab      	ldrh	r3, [r5, #20]
    4bfe:	3301      	adds	r3, #1
    4c00:	82ab      	strh	r3, [r5, #20]
    4c02:	8aab      	ldrh	r3, [r5, #20]
    4c04:	3301      	adds	r3, #1
    4c06:	82ab      	strh	r3, [r5, #20]
    4c08:	f858 3004 	ldr.w	r3, [r8, r4]
    4c0c:	b12b      	cbz	r3, 4c1a <adc_async_channel_conversion_done+0x5a>
    4c0e:	4639      	mov	r1, r7
    4c10:	4630      	mov	r0, r6
    4c12:	b001      	add	sp, #4
    4c14:	e8bd 4ff0 	ldmia.w	sp!, {r4, r5, r6, r7, r8, r9, sl, fp, lr}
    4c18:	4718      	bx	r3
    4c1a:	b001      	add	sp, #4
    4c1c:	e8bd 8ff0 	ldmia.w	sp!, {r4, r5, r6, r7, r8, r9, sl, fp, pc}
    4c20:	00005b25 	.word	0x00005b25
    4c24:	0000585d 	.word	0x0000585d

00004c28 <adc_async_init>:
    4c28:	b570      	push	{r4, r5, r6, lr}
    4c2a:	4604      	mov	r4, r0
    4c2c:	26ff      	movs	r6, #255	; 0xff
    4c2e:	2000      	movs	r0, #0
    4c30:	b2c5      	uxtb	r5, r0
    4c32:	3001      	adds	r0, #1
    4c34:	5556      	strb	r6, [r2, r5]
    4c36:	b2c5      	uxtb	r5, r0
    4c38:	42ab      	cmp	r3, r5
    4c3a:	d2f9      	bcs.n	4c30 <adc_async_init+0x8>
    4c3c:	f884 3024 	strb.w	r3, [r4, #36]	; 0x24
    4c40:	f89d 3010 	ldrb.w	r3, [sp, #16]
    4c44:	f884 3025 	strb.w	r3, [r4, #37]	; 0x25
    4c48:	9b05      	ldr	r3, [sp, #20]
    4c4a:	62a3      	str	r3, [r4, #40]	; 0x28
    4c4c:	6222      	str	r2, [r4, #32]
    4c4e:	4620      	mov	r0, r4
    4c50:	4b04      	ldr	r3, [pc, #16]	; (4c64 <adc_async_init+0x3c>)
    4c52:	4798      	blx	r3
    4c54:	b928      	cbnz	r0, 4c62 <adc_async_init+0x3a>
    4c56:	4b04      	ldr	r3, [pc, #16]	; (4c68 <adc_async_init+0x40>)
    4c58:	60a3      	str	r3, [r4, #8]
    4c5a:	4b04      	ldr	r3, [pc, #16]	; (4c6c <adc_async_init+0x44>)
    4c5c:	6023      	str	r3, [r4, #0]
    4c5e:	4b04      	ldr	r3, [pc, #16]	; (4c70 <adc_async_init+0x48>)
    4c60:	6063      	str	r3, [r4, #4]
    4c62:	bd70      	pop	{r4, r5, r6, pc}
    4c64:	00005a65 	.word	0x00005a65
    4c68:	00004bc1 	.word	0x00004bc1
    4c6c:	00004bb1 	.word	0x00004bb1
    4c70:	00004bb9 	.word	0x00004bb9

00004c74 <adc_async_register_channel_buffer>:
    4c74:	b5f8      	push	{r3, r4, r5, r6, r7, lr}
    4c76:	460f      	mov	r7, r1
    4c78:	f8d0 e020 	ldr.w	lr, [r0, #32]
    4c7c:	4611      	mov	r1, r2
    4c7e:	f81e 2007 	ldrb.w	r2, [lr, r7]
    4c82:	2aff      	cmp	r2, #255	; 0xff
    4c84:	4605      	mov	r5, r0
    4c86:	d11a      	bne.n	4cbe <adc_async_register_channel_buffer+0x4a>
    4c88:	f890 2024 	ldrb.w	r2, [r0, #36]	; 0x24
    4c8c:	2000      	movs	r0, #0
    4c8e:	4604      	mov	r4, r0
    4c90:	b2c6      	uxtb	r6, r0
    4c92:	4296      	cmp	r6, r2
    4c94:	d916      	bls.n	4cc4 <adc_async_register_channel_buffer+0x50>
    4c96:	f895 2025 	ldrb.w	r2, [r5, #37]	; 0x25
    4c9a:	42a2      	cmp	r2, r4
    4c9c:	d31a      	bcc.n	4cd4 <adc_async_register_channel_buffer+0x60>
    4c9e:	eb04 0644 	add.w	r6, r4, r4, lsl #1
    4ca2:	6aa8      	ldr	r0, [r5, #40]	; 0x28
    4ca4:	00f6      	lsls	r6, r6, #3
    4ca6:	4430      	add	r0, r6
    4ca8:	461a      	mov	r2, r3
    4caa:	3004      	adds	r0, #4
    4cac:	4b0b      	ldr	r3, [pc, #44]	; (4cdc <adc_async_register_channel_buffer+0x68>)
    4cae:	4798      	blx	r3
    4cb0:	b928      	cbnz	r0, 4cbe <adc_async_register_channel_buffer+0x4a>
    4cb2:	6a2b      	ldr	r3, [r5, #32]
    4cb4:	55dc      	strb	r4, [r3, r7]
    4cb6:	6aab      	ldr	r3, [r5, #40]	; 0x28
    4cb8:	441e      	add	r6, r3
    4cba:	82b0      	strh	r0, [r6, #20]
    4cbc:	bdf8      	pop	{r3, r4, r5, r6, r7, pc}
    4cbe:	f06f 000c 	mvn.w	r0, #12
    4cc2:	bdf8      	pop	{r3, r4, r5, r6, r7, pc}
    4cc4:	f81e 6006 	ldrb.w	r6, [lr, r6]
    4cc8:	2eff      	cmp	r6, #255	; 0xff
    4cca:	bf1c      	itt	ne
    4ccc:	3401      	addne	r4, #1
    4cce:	b2e4      	uxtbne	r4, r4
    4cd0:	3001      	adds	r0, #1
    4cd2:	e7dd      	b.n	4c90 <adc_async_register_channel_buffer+0x1c>
    4cd4:	f06f 001b 	mvn.w	r0, #27
    4cd8:	bdf8      	pop	{r3, r4, r5, r6, r7, pc}
    4cda:	bf00      	nop
    4cdc:	00005823 	.word	0x00005823

00004ce0 <adc_async_enable_channel>:
    4ce0:	b508      	push	{r3, lr}
    4ce2:	4b02      	ldr	r3, [pc, #8]	; (4cec <adc_async_enable_channel+0xc>)
    4ce4:	4798      	blx	r3
    4ce6:	2000      	movs	r0, #0
    4ce8:	bd08      	pop	{r3, pc}
    4cea:	bf00      	nop
    4cec:	00005b19 	.word	0x00005b19

00004cf0 <adc_async_register_callback>:
    4cf0:	2a01      	cmp	r2, #1
    4cf2:	b538      	push	{r3, r4, r5, lr}
    4cf4:	d013      	beq.n	4d1e <adc_async_register_callback+0x2e>
    4cf6:	d304      	bcc.n	4d02 <adc_async_register_callback+0x12>
    4cf8:	2a02      	cmp	r2, #2
    4cfa:	d012      	beq.n	4d22 <adc_async_register_callback+0x32>
    4cfc:	f06f 000c 	mvn.w	r0, #12
    4d00:	bd38      	pop	{r3, r4, r5, pc}
    4d02:	6a04      	ldr	r4, [r0, #32]
    4d04:	6a85      	ldr	r5, [r0, #40]	; 0x28
    4d06:	5c64      	ldrb	r4, [r4, r1]
    4d08:	eb04 0444 	add.w	r4, r4, r4, lsl #1
    4d0c:	f845 3034 	str.w	r3, [r5, r4, lsl #3]
    4d10:	3300      	adds	r3, #0
    4d12:	bf18      	it	ne
    4d14:	2301      	movne	r3, #1
    4d16:	4c04      	ldr	r4, [pc, #16]	; (4d28 <adc_async_register_callback+0x38>)
    4d18:	47a0      	blx	r4
    4d1a:	2000      	movs	r0, #0
    4d1c:	bd38      	pop	{r3, r4, r5, pc}
    4d1e:	6183      	str	r3, [r0, #24]
    4d20:	e7f6      	b.n	4d10 <adc_async_register_callback+0x20>
    4d22:	61c3      	str	r3, [r0, #28]
    4d24:	e7f4      	b.n	4d10 <adc_async_register_callback+0x20>
    4d26:	bf00      	nop
    4d28:	00005b51 	.word	0x00005b51

00004d2c <adc_async_read_channel>:
    4d2c:	e92d 47f3 	stmdb	sp!, {r0, r1, r4, r5, r6, r7, r8, r9, sl, lr}
    4d30:	4604      	mov	r4, r0
    4d32:	461f      	mov	r7, r3
    4d34:	4b15      	ldr	r3, [pc, #84]	; (4d8c <adc_async_read_channel+0x60>)
    4d36:	f8df a064 	ldr.w	sl, [pc, #100]	; 4d9c <adc_async_read_channel+0x70>
    4d3a:	460d      	mov	r5, r1
    4d3c:	4690      	mov	r8, r2
    4d3e:	4798      	blx	r3
    4d40:	6a23      	ldr	r3, [r4, #32]
    4d42:	5d5d      	ldrb	r5, [r3, r5]
    4d44:	6aa3      	ldr	r3, [r4, #40]	; 0x28
    4d46:	eb05 0545 	add.w	r5, r5, r5, lsl #1
    4d4a:	eb03 05c5 	add.w	r5, r3, r5, lsl #3
    4d4e:	a801      	add	r0, sp, #4
    4d50:	4b0f      	ldr	r3, [pc, #60]	; (4d90 <adc_async_read_channel+0x64>)
    4d52:	1d2e      	adds	r6, r5, #4
    4d54:	4798      	blx	r3
    4d56:	4b0f      	ldr	r3, [pc, #60]	; (4d94 <adc_async_read_channel+0x68>)
    4d58:	4630      	mov	r0, r6
    4d5a:	4798      	blx	r3
    4d5c:	4b0e      	ldr	r3, [pc, #56]	; (4d98 <adc_async_read_channel+0x6c>)
    4d5e:	4681      	mov	r9, r0
    4d60:	a801      	add	r0, sp, #4
    4d62:	4798      	blx	r3
    4d64:	2400      	movs	r4, #0
    4d66:	45a1      	cmp	r9, r4
    4d68:	b2a2      	uxth	r2, r4
    4d6a:	d001      	beq.n	4d70 <adc_async_read_channel+0x44>
    4d6c:	42bc      	cmp	r4, r7
    4d6e:	d106      	bne.n	4d7e <adc_async_read_channel+0x52>
    4d70:	8aab      	ldrh	r3, [r5, #20]
    4d72:	b2a0      	uxth	r0, r4
    4d74:	1a9b      	subs	r3, r3, r2
    4d76:	82ab      	strh	r3, [r5, #20]
    4d78:	b002      	add	sp, #8
    4d7a:	e8bd 87f0 	ldmia.w	sp!, {r4, r5, r6, r7, r8, r9, sl, pc}
    4d7e:	eb08 0104 	add.w	r1, r8, r4
    4d82:	4630      	mov	r0, r6
    4d84:	47d0      	blx	sl
    4d86:	3401      	adds	r4, #1
    4d88:	e7ed      	b.n	4d66 <adc_async_read_channel+0x3a>
    4d8a:	bf00      	nop
    4d8c:	00005b25 	.word	0x00005b25
    4d90:	00004db1 	.word	0x00004db1
    4d94:	00005883 	.word	0x00005883
    4d98:	00004dbf 	.word	0x00004dbf
    4d9c:	0000583b 	.word	0x0000583b

00004da0 <adc_async_start_conversion>:
    4da0:	b508      	push	{r3, lr}
    4da2:	4b02      	ldr	r3, [pc, #8]	; (4dac <adc_async_start_conversion+0xc>)
    4da4:	4798      	blx	r3
    4da6:	2000      	movs	r0, #0
    4da8:	bd08      	pop	{r3, pc}
    4daa:	bf00      	nop
    4dac:	00005b39 	.word	0x00005b39

00004db0 <atomic_enter_critical>:
    4db0:	f3ef 8310 	mrs	r3, PRIMASK
    4db4:	6003      	str	r3, [r0, #0]
    4db6:	b672      	cpsid	i
    4db8:	f3bf 8f5f 	dmb	sy
    4dbc:	4770      	bx	lr

00004dbe <atomic_leave_critical>:
    4dbe:	f3bf 8f5f 	dmb	sy
    4dc2:	6803      	ldr	r3, [r0, #0]
    4dc4:	f383 8810 	msr	PRIMASK, r3
    4dc8:	4770      	bx	lr
	...

00004dcc <crc_sync_init>:
    4dcc:	4b00      	ldr	r3, [pc, #0]	; (4dd0 <crc_sync_init+0x4>)
    4dce:	4718      	bx	r3
    4dd0:	00005e4d 	.word	0x00005e4d

00004dd4 <delay_init>:
    4dd4:	4b01      	ldr	r3, [pc, #4]	; (4ddc <delay_init+0x8>)
    4dd6:	6018      	str	r0, [r3, #0]
    4dd8:	4b01      	ldr	r3, [pc, #4]	; (4de0 <delay_init+0xc>)
    4dda:	4718      	bx	r3
    4ddc:	20000470 	.word	0x20000470
    4de0:	00006c69 	.word	0x00006c69

00004de4 <delay_us>:
    4de4:	4b05      	ldr	r3, [pc, #20]	; (4dfc <delay_us+0x18>)
    4de6:	b510      	push	{r4, lr}
    4de8:	681c      	ldr	r4, [r3, #0]
    4dea:	4b05      	ldr	r3, [pc, #20]	; (4e00 <delay_us+0x1c>)
    4dec:	4798      	blx	r3
    4dee:	4b05      	ldr	r3, [pc, #20]	; (4e04 <delay_us+0x20>)
    4df0:	4601      	mov	r1, r0
    4df2:	4620      	mov	r0, r4
    4df4:	e8bd 4010 	ldmia.w	sp!, {r4, lr}
    4df8:	4718      	bx	r3
    4dfa:	bf00      	nop
    4dfc:	20000470 	.word	0x20000470
    4e00:	00005ba1 	.word	0x00005ba1
    4e04:	00006c7d 	.word	0x00006c7d

00004e08 <delay_ms>:
    4e08:	4b05      	ldr	r3, [pc, #20]	; (4e20 <delay_ms+0x18>)
    4e0a:	b510      	push	{r4, lr}
    4e0c:	681c      	ldr	r4, [r3, #0]
    4e0e:	4b05      	ldr	r3, [pc, #20]	; (4e24 <delay_ms+0x1c>)
    4e10:	4798      	blx	r3
    4e12:	4b05      	ldr	r3, [pc, #20]	; (4e28 <delay_ms+0x20>)
    4e14:	4601      	mov	r1, r0
    4e16:	4620      	mov	r0, r4
    4e18:	e8bd 4010 	ldmia.w	sp!, {r4, lr}
    4e1c:	4718      	bx	r3
    4e1e:	bf00      	nop
    4e20:	20000470 	.word	0x20000470
    4e24:	00005ba9 	.word	0x00005ba9
    4e28:	00006c7d 	.word	0x00006c7d

00004e2c <flash_ready>:
    4e2c:	6943      	ldr	r3, [r0, #20]
    4e2e:	b103      	cbz	r3, 4e32 <flash_ready+0x6>
    4e30:	4718      	bx	r3
    4e32:	4770      	bx	lr

00004e34 <flash_error>:
    4e34:	6983      	ldr	r3, [r0, #24]
    4e36:	b103      	cbz	r3, 4e3a <flash_error+0x6>
    4e38:	4718      	bx	r3
    4e3a:	4770      	bx	lr

00004e3c <flash_init>:
    4e3c:	b510      	push	{r4, lr}
    4e3e:	4b04      	ldr	r3, [pc, #16]	; (4e50 <flash_init+0x14>)
    4e40:	4604      	mov	r4, r0
    4e42:	4798      	blx	r3
    4e44:	b918      	cbnz	r0, 4e4e <flash_init+0x12>
    4e46:	4b03      	ldr	r3, [pc, #12]	; (4e54 <flash_init+0x18>)
    4e48:	6023      	str	r3, [r4, #0]
    4e4a:	4b03      	ldr	r3, [pc, #12]	; (4e58 <flash_init+0x1c>)
    4e4c:	6063      	str	r3, [r4, #4]
    4e4e:	bd10      	pop	{r4, pc}
    4e50:	00005ecd 	.word	0x00005ecd
    4e54:	00004e2d 	.word	0x00004e2d
    4e58:	00004e35 	.word	0x00004e35

00004e5c <i2c_m_async_write>:
    4e5c:	b51f      	push	{r0, r1, r2, r3, r4, lr}
    4e5e:	8a83      	ldrh	r3, [r0, #20]
    4e60:	f8ad 3004 	strh.w	r3, [sp, #4]
    4e64:	f44f 4300 	mov.w	r3, #32768	; 0x8000
    4e68:	f8ad 3006 	strh.w	r3, [sp, #6]
    4e6c:	9103      	str	r1, [sp, #12]
    4e6e:	4b05      	ldr	r3, [pc, #20]	; (4e84 <i2c_m_async_write+0x28>)
    4e70:	9202      	str	r2, [sp, #8]
    4e72:	a901      	add	r1, sp, #4
    4e74:	3828      	subs	r0, #40	; 0x28
    4e76:	4614      	mov	r4, r2
    4e78:	4798      	blx	r3
    4e7a:	2800      	cmp	r0, #0
    4e7c:	bf08      	it	eq
    4e7e:	4620      	moveq	r0, r4
    4e80:	b004      	add	sp, #16
    4e82:	bd10      	pop	{r4, pc}
    4e84:	0000683d 	.word	0x0000683d

00004e88 <i2c_m_async_read>:
    4e88:	b51f      	push	{r0, r1, r2, r3, r4, lr}
    4e8a:	8a83      	ldrh	r3, [r0, #20]
    4e8c:	f8ad 3004 	strh.w	r3, [sp, #4]
    4e90:	f248 0301 	movw	r3, #32769	; 0x8001
    4e94:	f8ad 3006 	strh.w	r3, [sp, #6]
    4e98:	9103      	str	r1, [sp, #12]
    4e9a:	4b05      	ldr	r3, [pc, #20]	; (4eb0 <i2c_m_async_read+0x28>)
    4e9c:	9202      	str	r2, [sp, #8]
    4e9e:	a901      	add	r1, sp, #4
    4ea0:	3828      	subs	r0, #40	; 0x28
    4ea2:	4614      	mov	r4, r2
    4ea4:	4798      	blx	r3
    4ea6:	2800      	cmp	r0, #0
    4ea8:	bf08      	it	eq
    4eaa:	4620      	moveq	r0, r4
    4eac:	b004      	add	sp, #16
    4eae:	bd10      	pop	{r4, pc}
    4eb0:	0000683d 	.word	0x0000683d

00004eb4 <i2c_tx_complete>:
    4eb4:	8842      	ldrh	r2, [r0, #2]
    4eb6:	05d2      	lsls	r2, r2, #23
    4eb8:	d402      	bmi.n	4ec0 <i2c_tx_complete+0xc>
    4eba:	6b43      	ldr	r3, [r0, #52]	; 0x34
    4ebc:	b103      	cbz	r3, 4ec0 <i2c_tx_complete+0xc>
    4ebe:	4718      	bx	r3
    4ec0:	4770      	bx	lr

00004ec2 <i2c_rx_complete>:
    4ec2:	8842      	ldrh	r2, [r0, #2]
    4ec4:	05d2      	lsls	r2, r2, #23
    4ec6:	d402      	bmi.n	4ece <i2c_rx_complete+0xc>
    4ec8:	6b83      	ldr	r3, [r0, #56]	; 0x38
    4eca:	b103      	cbz	r3, 4ece <i2c_rx_complete+0xc>
    4ecc:	4718      	bx	r3
    4ece:	4770      	bx	lr

00004ed0 <i2c_error>:
    4ed0:	8842      	ldrh	r2, [r0, #2]
    4ed2:	05d2      	lsls	r2, r2, #23
    4ed4:	d402      	bmi.n	4edc <i2c_error+0xc>
    4ed6:	6b03      	ldr	r3, [r0, #48]	; 0x30
    4ed8:	b103      	cbz	r3, 4edc <i2c_error+0xc>
    4eda:	4718      	bx	r3
    4edc:	4770      	bx	lr
	...

00004ee0 <i2c_m_async_init>:
    4ee0:	b570      	push	{r4, r5, r6, lr}
    4ee2:	4b0c      	ldr	r3, [pc, #48]	; (4f14 <i2c_m_async_init+0x34>)
    4ee4:	4604      	mov	r4, r0
    4ee6:	4798      	blx	r3
    4ee8:	4605      	mov	r5, r0
    4eea:	b980      	cbnz	r0, 4f0e <i2c_m_async_init+0x2e>
    4eec:	4b0a      	ldr	r3, [pc, #40]	; (4f18 <i2c_m_async_init+0x38>)
    4eee:	62e3      	str	r3, [r4, #44]	; 0x2c
    4ef0:	4b0a      	ldr	r3, [pc, #40]	; (4f1c <i2c_m_async_init+0x3c>)
    4ef2:	62a3      	str	r3, [r4, #40]	; 0x28
    4ef4:	4a0a      	ldr	r2, [pc, #40]	; (4f20 <i2c_m_async_init+0x40>)
    4ef6:	4e0b      	ldr	r6, [pc, #44]	; (4f24 <i2c_m_async_init+0x44>)
    4ef8:	2101      	movs	r1, #1
    4efa:	4620      	mov	r0, r4
    4efc:	47b0      	blx	r6
    4efe:	4a0a      	ldr	r2, [pc, #40]	; (4f28 <i2c_m_async_init+0x48>)
    4f00:	2102      	movs	r1, #2
    4f02:	4620      	mov	r0, r4
    4f04:	47b0      	blx	r6
    4f06:	4a09      	ldr	r2, [pc, #36]	; (4f2c <i2c_m_async_init+0x4c>)
    4f08:	4629      	mov	r1, r5
    4f0a:	4620      	mov	r0, r4
    4f0c:	47b0      	blx	r6
    4f0e:	4628      	mov	r0, r5
    4f10:	bd70      	pop	{r4, r5, r6, pc}
    4f12:	bf00      	nop
    4f14:	000067d9 	.word	0x000067d9
    4f18:	00004e89 	.word	0x00004e89
    4f1c:	00004e5d 	.word	0x00004e5d
    4f20:	00004eb5 	.word	0x00004eb5
    4f24:	000068fd 	.word	0x000068fd
    4f28:	00004ec3 	.word	0x00004ec3
    4f2c:	00004ed1 	.word	0x00004ed1

00004f30 <io_write>:
    4f30:	6803      	ldr	r3, [r0, #0]
    4f32:	4718      	bx	r3

00004f34 <io_read>:
    4f34:	6843      	ldr	r3, [r0, #4]
    4f36:	4718      	bx	r3

00004f38 <_spi_m_dma_io_write>:
    4f38:	b410      	push	{r4}
    4f3a:	4c04      	ldr	r4, [pc, #16]	; (4f4c <_spi_m_dma_io_write+0x14>)
    4f3c:	4613      	mov	r3, r2
    4f3e:	46a4      	mov	ip, r4
    4f40:	2200      	movs	r2, #0
    4f42:	381c      	subs	r0, #28
    4f44:	f85d 4b04 	ldr.w	r4, [sp], #4
    4f48:	4760      	bx	ip
    4f4a:	bf00      	nop
    4f4c:	00006b7d 	.word	0x00006b7d

00004f50 <_spi_m_dma_io_read>:
    4f50:	b410      	push	{r4}
    4f52:	4c04      	ldr	r4, [pc, #16]	; (4f64 <_spi_m_dma_io_read+0x14>)
    4f54:	4613      	mov	r3, r2
    4f56:	46a4      	mov	ip, r4
    4f58:	460a      	mov	r2, r1
    4f5a:	381c      	subs	r0, #28
    4f5c:	2100      	movs	r1, #0
    4f5e:	f85d 4b04 	ldr.w	r4, [sp], #4
    4f62:	4760      	bx	ip
    4f64:	00006b7d 	.word	0x00006b7d

00004f68 <spi_m_dma_init>:
    4f68:	b510      	push	{r4, lr}
    4f6a:	4b05      	ldr	r3, [pc, #20]	; (4f80 <spi_m_dma_init+0x18>)
    4f6c:	4604      	mov	r4, r0
    4f6e:	f840 1f04 	str.w	r1, [r0, #4]!
    4f72:	4798      	blx	r3
    4f74:	b918      	cbnz	r0, 4f7e <spi_m_dma_init+0x16>
    4f76:	4b03      	ldr	r3, [pc, #12]	; (4f84 <spi_m_dma_init+0x1c>)
    4f78:	6263      	str	r3, [r4, #36]	; 0x24
    4f7a:	4b03      	ldr	r3, [pc, #12]	; (4f88 <spi_m_dma_init+0x20>)
    4f7c:	6223      	str	r3, [r4, #32]
    4f7e:	bd10      	pop	{r4, pc}
    4f80:	00006a5d 	.word	0x00006a5d
    4f84:	00004f51 	.word	0x00004f51
    4f88:	00004f39 	.word	0x00004f39

00004f8c <spi_m_dma_enable>:
    4f8c:	3004      	adds	r0, #4
    4f8e:	4b01      	ldr	r3, [pc, #4]	; (4f94 <spi_m_dma_enable+0x8>)
    4f90:	4718      	bx	r3
    4f92:	bf00      	nop
    4f94:	00006b11 	.word	0x00006b11

00004f98 <spi_m_dma_register_callback>:
    4f98:	3004      	adds	r0, #4
    4f9a:	4b01      	ldr	r3, [pc, #4]	; (4fa0 <spi_m_dma_register_callback+0x8>)
    4f9c:	4718      	bx	r3
    4f9e:	bf00      	nop
    4fa0:	00006b1d 	.word	0x00006b1d

00004fa4 <spi_m_dma_get_io_descriptor>:
    4fa4:	3020      	adds	r0, #32
    4fa6:	6008      	str	r0, [r1, #0]
    4fa8:	2000      	movs	r0, #0
    4faa:	4770      	bx	lr

00004fac <timer_add_timer_task>:
    4fac:	b5f0      	push	{r4, r5, r6, r7, lr}
    4fae:	6805      	ldr	r5, [r0, #0]
    4fb0:	b91d      	cbnz	r5, 4fba <timer_add_timer_task+0xe>
    4fb2:	4b0f      	ldr	r3, [pc, #60]	; (4ff0 <timer_add_timer_task+0x44>)
    4fb4:	e8bd 40f0 	ldmia.w	sp!, {r4, r5, r6, r7, lr}
    4fb8:	4718      	bx	r3
    4fba:	f8d1 e008 	ldr.w	lr, [r1, #8]
    4fbe:	462c      	mov	r4, r5
    4fc0:	2600      	movs	r6, #0
    4fc2:	f1c2 0c01 	rsb	ip, r2, #1
    4fc6:	6863      	ldr	r3, [r4, #4]
    4fc8:	68a7      	ldr	r7, [r4, #8]
    4fca:	4293      	cmp	r3, r2
    4fcc:	bf95      	itete	ls
    4fce:	19db      	addls	r3, r3, r7
    4fd0:	4463      	addhi	r3, ip
    4fd2:	1a9b      	subls	r3, r3, r2
    4fd4:	19db      	addhi	r3, r3, r7
    4fd6:	4573      	cmp	r3, lr
    4fd8:	d207      	bcs.n	4fea <timer_add_timer_task+0x3e>
    4fda:	6823      	ldr	r3, [r4, #0]
    4fdc:	4626      	mov	r6, r4
    4fde:	b913      	cbnz	r3, 4fe6 <timer_add_timer_task+0x3a>
    4fe0:	4630      	mov	r0, r6
    4fe2:	4b04      	ldr	r3, [pc, #16]	; (4ff4 <timer_add_timer_task+0x48>)
    4fe4:	e7e6      	b.n	4fb4 <timer_add_timer_task+0x8>
    4fe6:	461c      	mov	r4, r3
    4fe8:	e7ed      	b.n	4fc6 <timer_add_timer_task+0x1a>
    4fea:	42a5      	cmp	r5, r4
    4fec:	d1f8      	bne.n	4fe0 <timer_add_timer_task+0x34>
    4fee:	e7e0      	b.n	4fb2 <timer_add_timer_task+0x6>
    4ff0:	000057ef 	.word	0x000057ef
    4ff4:	000057f7 	.word	0x000057f7

00004ff8 <timer_process_counted>:
    4ff8:	e92d 47f0 	stmdb	sp!, {r4, r5, r6, r7, r8, r9, sl, lr}
    4ffc:	6906      	ldr	r6, [r0, #16]
    4ffe:	7e03      	ldrb	r3, [r0, #24]
    5000:	6944      	ldr	r4, [r0, #20]
    5002:	3601      	adds	r6, #1
    5004:	07da      	lsls	r2, r3, #31
    5006:	4605      	mov	r5, r0
    5008:	6106      	str	r6, [r0, #16]
    500a:	d410      	bmi.n	502e <timer_process_counted+0x36>
    500c:	7e03      	ldrb	r3, [r0, #24]
    500e:	079b      	lsls	r3, r3, #30
    5010:	d40d      	bmi.n	502e <timer_process_counted+0x36>
    5012:	f8df 8048 	ldr.w	r8, [pc, #72]	; 505c <timer_process_counted+0x64>
    5016:	f8df 9048 	ldr.w	r9, [pc, #72]	; 5060 <timer_process_counted+0x68>
    501a:	f100 0714 	add.w	r7, r0, #20
    501e:	b124      	cbz	r4, 502a <timer_process_counted+0x32>
    5020:	6863      	ldr	r3, [r4, #4]
    5022:	68a2      	ldr	r2, [r4, #8]
    5024:	1af3      	subs	r3, r6, r3
    5026:	4293      	cmp	r3, r2
    5028:	d207      	bcs.n	503a <timer_process_counted+0x42>
    502a:	e8bd 87f0 	ldmia.w	sp!, {r4, r5, r6, r7, r8, r9, sl, pc}
    502e:	7e2b      	ldrb	r3, [r5, #24]
    5030:	f043 0302 	orr.w	r3, r3, #2
    5034:	762b      	strb	r3, [r5, #24]
    5036:	e8bd 87f0 	ldmia.w	sp!, {r4, r5, r6, r7, r8, r9, sl, pc}
    503a:	4638      	mov	r0, r7
    503c:	47c0      	blx	r8
    503e:	7c23      	ldrb	r3, [r4, #16]
    5040:	2b01      	cmp	r3, #1
    5042:	d104      	bne.n	504e <timer_process_counted+0x56>
    5044:	6066      	str	r6, [r4, #4]
    5046:	4632      	mov	r2, r6
    5048:	4621      	mov	r1, r4
    504a:	4638      	mov	r0, r7
    504c:	47c8      	blx	r9
    504e:	f8d5 a014 	ldr.w	sl, [r5, #20]
    5052:	68e3      	ldr	r3, [r4, #12]
    5054:	4620      	mov	r0, r4
    5056:	4798      	blx	r3
    5058:	4654      	mov	r4, sl
    505a:	e7e0      	b.n	501e <timer_process_counted+0x26>
    505c:	00005817 	.word	0x00005817
    5060:	00004fad 	.word	0x00004fad

00005064 <timer_init>:
    5064:	b510      	push	{r4, lr}
    5066:	4b04      	ldr	r3, [pc, #16]	; (5078 <timer_init+0x14>)
    5068:	4604      	mov	r4, r0
    506a:	4798      	blx	r3
    506c:	2000      	movs	r0, #0
    506e:	4b03      	ldr	r3, [pc, #12]	; (507c <timer_init+0x18>)
    5070:	6120      	str	r0, [r4, #16]
    5072:	6023      	str	r3, [r4, #0]
    5074:	bd10      	pop	{r4, pc}
    5076:	bf00      	nop
    5078:	000060ad 	.word	0x000060ad
    507c:	00004ff9 	.word	0x00004ff9

00005080 <timer_start>:
    5080:	b538      	push	{r3, r4, r5, lr}
    5082:	4b06      	ldr	r3, [pc, #24]	; (509c <timer_start+0x1c>)
    5084:	4605      	mov	r5, r0
    5086:	4798      	blx	r3
    5088:	4604      	mov	r4, r0
    508a:	b920      	cbnz	r0, 5096 <timer_start+0x16>
    508c:	4628      	mov	r0, r5
    508e:	4b04      	ldr	r3, [pc, #16]	; (50a0 <timer_start+0x20>)
    5090:	4798      	blx	r3
    5092:	4620      	mov	r0, r4
    5094:	bd38      	pop	{r3, r4, r5, pc}
    5096:	f06f 0010 	mvn.w	r0, #16
    509a:	bd38      	pop	{r3, r4, r5, pc}
    509c:	00006131 	.word	0x00006131
    50a0:	000060f5 	.word	0x000060f5

000050a4 <timer_add_task>:
    50a4:	b5f7      	push	{r0, r1, r2, r4, r5, r6, r7, lr}
    50a6:	7e03      	ldrb	r3, [r0, #24]
    50a8:	f100 0614 	add.w	r6, r0, #20
    50ac:	f043 0301 	orr.w	r3, r3, #1
    50b0:	7603      	strb	r3, [r0, #24]
    50b2:	4604      	mov	r4, r0
    50b4:	4b15      	ldr	r3, [pc, #84]	; (510c <timer_add_task+0x68>)
    50b6:	4630      	mov	r0, r6
    50b8:	460f      	mov	r7, r1
    50ba:	4798      	blx	r3
    50bc:	4605      	mov	r5, r0
    50be:	b138      	cbz	r0, 50d0 <timer_add_task+0x2c>
    50c0:	7e23      	ldrb	r3, [r4, #24]
    50c2:	f003 03fe 	and.w	r3, r3, #254	; 0xfe
    50c6:	7623      	strb	r3, [r4, #24]
    50c8:	f06f 0011 	mvn.w	r0, #17
    50cc:	b003      	add	sp, #12
    50ce:	bdf0      	pop	{r4, r5, r6, r7, pc}
    50d0:	6922      	ldr	r2, [r4, #16]
    50d2:	4b0f      	ldr	r3, [pc, #60]	; (5110 <timer_add_task+0x6c>)
    50d4:	607a      	str	r2, [r7, #4]
    50d6:	4630      	mov	r0, r6
    50d8:	4639      	mov	r1, r7
    50da:	4798      	blx	r3
    50dc:	7e23      	ldrb	r3, [r4, #24]
    50de:	f003 03fe 	and.w	r3, r3, #254	; 0xfe
    50e2:	7623      	strb	r3, [r4, #24]
    50e4:	7e20      	ldrb	r0, [r4, #24]
    50e6:	f010 0002 	ands.w	r0, r0, #2
    50ea:	d0ef      	beq.n	50cc <timer_add_task+0x28>
    50ec:	a801      	add	r0, sp, #4
    50ee:	4b09      	ldr	r3, [pc, #36]	; (5114 <timer_add_task+0x70>)
    50f0:	4798      	blx	r3
    50f2:	7e23      	ldrb	r3, [r4, #24]
    50f4:	f003 03fd 	and.w	r3, r3, #253	; 0xfd
    50f8:	7623      	strb	r3, [r4, #24]
    50fa:	4620      	mov	r0, r4
    50fc:	4b06      	ldr	r3, [pc, #24]	; (5118 <timer_add_task+0x74>)
    50fe:	4798      	blx	r3
    5100:	a801      	add	r0, sp, #4
    5102:	4b06      	ldr	r3, [pc, #24]	; (511c <timer_add_task+0x78>)
    5104:	4798      	blx	r3
    5106:	4628      	mov	r0, r5
    5108:	e7e0      	b.n	50cc <timer_add_task+0x28>
    510a:	bf00      	nop
    510c:	000057e1 	.word	0x000057e1
    5110:	00004fad 	.word	0x00004fad
    5114:	00004db1 	.word	0x00004db1
    5118:	0000614d 	.word	0x0000614d
    511c:	00004dbf 	.word	0x00004dbf

00005120 <usart_transmission_complete>:
    5120:	4603      	mov	r3, r0
    5122:	2200      	movs	r2, #0
    5124:	629a      	str	r2, [r3, #40]	; 0x28
    5126:	69db      	ldr	r3, [r3, #28]
    5128:	3808      	subs	r0, #8
    512a:	b103      	cbz	r3, 512e <usart_transmission_complete+0xe>
    512c:	4718      	bx	r3
    512e:	4770      	bx	lr

00005130 <usart_error>:
    5130:	4603      	mov	r3, r0
    5132:	2200      	movs	r2, #0
    5134:	629a      	str	r2, [r3, #40]	; 0x28
    5136:	6a5b      	ldr	r3, [r3, #36]	; 0x24
    5138:	3808      	subs	r0, #8
    513a:	b103      	cbz	r3, 513e <usart_error+0xe>
    513c:	4718      	bx	r3
    513e:	4770      	bx	lr

00005140 <usart_fill_rx_buffer>:
    5140:	b570      	push	{r4, r5, r6, lr}
    5142:	4604      	mov	r4, r0
    5144:	4b05      	ldr	r3, [pc, #20]	; (515c <usart_fill_rx_buffer+0x1c>)
    5146:	f1a0 0508 	sub.w	r5, r0, #8
    514a:	302c      	adds	r0, #44	; 0x2c
    514c:	4798      	blx	r3
    514e:	6a23      	ldr	r3, [r4, #32]
    5150:	b11b      	cbz	r3, 515a <usart_fill_rx_buffer+0x1a>
    5152:	4628      	mov	r0, r5
    5154:	e8bd 4070 	ldmia.w	sp!, {r4, r5, r6, lr}
    5158:	4718      	bx	r3
    515a:	bd70      	pop	{r4, r5, r6, pc}
    515c:	0000585d 	.word	0x0000585d

00005160 <usart_async_write>:
    5160:	b510      	push	{r4, lr}
    5162:	f8b0 304c 	ldrh.w	r3, [r0, #76]	; 0x4c
    5166:	4614      	mov	r4, r2
    5168:	f8b0 2044 	ldrh.w	r2, [r0, #68]	; 0x44
    516c:	429a      	cmp	r2, r3
    516e:	d10c      	bne.n	518a <usart_async_write+0x2a>
    5170:	2300      	movs	r3, #0
    5172:	f8a0 3044 	strh.w	r3, [r0, #68]	; 0x44
    5176:	2301      	movs	r3, #1
    5178:	6481      	str	r1, [r0, #72]	; 0x48
    517a:	f8a0 404c 	strh.w	r4, [r0, #76]	; 0x4c
    517e:	6303      	str	r3, [r0, #48]	; 0x30
    5180:	3008      	adds	r0, #8
    5182:	4b03      	ldr	r3, [pc, #12]	; (5190 <usart_async_write+0x30>)
    5184:	4798      	blx	r3
    5186:	4620      	mov	r0, r4
    5188:	bd10      	pop	{r4, pc}
    518a:	f06f 001b 	mvn.w	r0, #27
    518e:	bd10      	pop	{r4, pc}
    5190:	00006797 	.word	0x00006797

00005194 <usart_process_byte_sent>:
    5194:	8f83      	ldrh	r3, [r0, #60]	; 0x3c
    5196:	f8b0 2044 	ldrh.w	r2, [r0, #68]	; 0x44
    519a:	429a      	cmp	r2, r3
    519c:	b510      	push	{r4, lr}
    519e:	4604      	mov	r4, r0
    51a0:	d00a      	beq.n	51b8 <usart_process_byte_sent+0x24>
    51a2:	6c02      	ldr	r2, [r0, #64]	; 0x40
    51a4:	1c59      	adds	r1, r3, #1
    51a6:	8781      	strh	r1, [r0, #60]	; 0x3c
    51a8:	5cd1      	ldrb	r1, [r2, r3]
    51aa:	4b04      	ldr	r3, [pc, #16]	; (51bc <usart_process_byte_sent+0x28>)
    51ac:	4798      	blx	r3
    51ae:	4b04      	ldr	r3, [pc, #16]	; (51c0 <usart_process_byte_sent+0x2c>)
    51b0:	4620      	mov	r0, r4
    51b2:	e8bd 4010 	ldmia.w	sp!, {r4, lr}
    51b6:	4718      	bx	r3
    51b8:	4b02      	ldr	r3, [pc, #8]	; (51c4 <usart_process_byte_sent+0x30>)
    51ba:	e7fa      	b.n	51b2 <usart_process_byte_sent+0x1e>
    51bc:	00006791 	.word	0x00006791
    51c0:	00006797 	.word	0x00006797
    51c4:	0000679f 	.word	0x0000679f

000051c8 <usart_async_read>:
    51c8:	e92d 43f7 	stmdb	sp!, {r0, r1, r2, r4, r5, r6, r7, r8, r9, lr}
    51cc:	4605      	mov	r5, r0
    51ce:	4b0f      	ldr	r3, [pc, #60]	; (520c <usart_async_read+0x44>)
    51d0:	f8df 9044 	ldr.w	r9, [pc, #68]	; 5218 <usart_async_read+0x50>
    51d4:	a801      	add	r0, sp, #4
    51d6:	3534      	adds	r5, #52	; 0x34
    51d8:	4688      	mov	r8, r1
    51da:	4616      	mov	r6, r2
    51dc:	4798      	blx	r3
    51de:	4b0c      	ldr	r3, [pc, #48]	; (5210 <usart_async_read+0x48>)
    51e0:	4628      	mov	r0, r5
    51e2:	4798      	blx	r3
    51e4:	4b0b      	ldr	r3, [pc, #44]	; (5214 <usart_async_read+0x4c>)
    51e6:	4607      	mov	r7, r0
    51e8:	a801      	add	r0, sp, #4
    51ea:	4798      	blx	r3
    51ec:	2400      	movs	r4, #0
    51ee:	42a7      	cmp	r7, r4
    51f0:	d001      	beq.n	51f6 <usart_async_read+0x2e>
    51f2:	42b4      	cmp	r4, r6
    51f4:	d103      	bne.n	51fe <usart_async_read+0x36>
    51f6:	b2a0      	uxth	r0, r4
    51f8:	b003      	add	sp, #12
    51fa:	e8bd 83f0 	ldmia.w	sp!, {r4, r5, r6, r7, r8, r9, pc}
    51fe:	eb08 0104 	add.w	r1, r8, r4
    5202:	4628      	mov	r0, r5
    5204:	47c8      	blx	r9
    5206:	3401      	adds	r4, #1
    5208:	e7f1      	b.n	51ee <usart_async_read+0x26>
    520a:	bf00      	nop
    520c:	00004db1 	.word	0x00004db1
    5210:	00005883 	.word	0x00005883
    5214:	00004dbf 	.word	0x00004dbf
    5218:	0000583b 	.word	0x0000583b

0000521c <usart_async_init>:
    521c:	b538      	push	{r3, r4, r5, lr}
    521e:	4604      	mov	r4, r0
    5220:	460d      	mov	r5, r1
    5222:	3034      	adds	r0, #52	; 0x34
    5224:	4611      	mov	r1, r2
    5226:	461a      	mov	r2, r3
    5228:	4b0c      	ldr	r3, [pc, #48]	; (525c <usart_async_init+0x40>)
    522a:	4798      	blx	r3
    522c:	b990      	cbnz	r0, 5254 <usart_async_init+0x38>
    522e:	4629      	mov	r1, r5
    5230:	f104 0008 	add.w	r0, r4, #8
    5234:	4b0a      	ldr	r3, [pc, #40]	; (5260 <usart_async_init+0x44>)
    5236:	4798      	blx	r3
    5238:	b970      	cbnz	r0, 5258 <usart_async_init+0x3c>
    523a:	4b0a      	ldr	r3, [pc, #40]	; (5264 <usart_async_init+0x48>)
    523c:	6063      	str	r3, [r4, #4]
    523e:	4b0a      	ldr	r3, [pc, #40]	; (5268 <usart_async_init+0x4c>)
    5240:	6023      	str	r3, [r4, #0]
    5242:	4b0a      	ldr	r3, [pc, #40]	; (526c <usart_async_init+0x50>)
    5244:	60a3      	str	r3, [r4, #8]
    5246:	4b0a      	ldr	r3, [pc, #40]	; (5270 <usart_async_init+0x54>)
    5248:	60e3      	str	r3, [r4, #12]
    524a:	4b0a      	ldr	r3, [pc, #40]	; (5274 <usart_async_init+0x58>)
    524c:	6123      	str	r3, [r4, #16]
    524e:	4b0a      	ldr	r3, [pc, #40]	; (5278 <usart_async_init+0x5c>)
    5250:	6163      	str	r3, [r4, #20]
    5252:	bd38      	pop	{r3, r4, r5, pc}
    5254:	f06f 000c 	mvn.w	r0, #12
    5258:	bd38      	pop	{r3, r4, r5, pc}
    525a:	bf00      	nop
    525c:	00005823 	.word	0x00005823
    5260:	00006719 	.word	0x00006719
    5264:	000051c9 	.word	0x000051c9
    5268:	00005161 	.word	0x00005161
    526c:	00005195 	.word	0x00005195
    5270:	00005141 	.word	0x00005141
    5274:	00005121 	.word	0x00005121
    5278:	00005131 	.word	0x00005131

0000527c <usart_async_enable>:
    527c:	b508      	push	{r3, lr}
    527e:	3008      	adds	r0, #8
    5280:	4b01      	ldr	r3, [pc, #4]	; (5288 <usart_async_enable+0xc>)
    5282:	4798      	blx	r3
    5284:	2000      	movs	r0, #0
    5286:	bd08      	pop	{r3, pc}
    5288:	0000677d 	.word	0x0000677d

0000528c <usart_async_get_io_descriptor>:
    528c:	6008      	str	r0, [r1, #0]
    528e:	2000      	movs	r0, #0
    5290:	4770      	bx	lr
	...

00005294 <usart_async_register_callback>:
    5294:	2901      	cmp	r1, #1
    5296:	b508      	push	{r3, lr}
    5298:	d00f      	beq.n	52ba <usart_async_register_callback+0x26>
    529a:	d304      	bcc.n	52a6 <usart_async_register_callback+0x12>
    529c:	2902      	cmp	r1, #2
    529e:	d012      	beq.n	52c6 <usart_async_register_callback+0x32>
    52a0:	f06f 000c 	mvn.w	r0, #12
    52a4:	bd08      	pop	{r3, pc}
    52a6:	6282      	str	r2, [r0, #40]	; 0x28
    52a8:	3200      	adds	r2, #0
    52aa:	bf18      	it	ne
    52ac:	2201      	movne	r2, #1
    52ae:	2101      	movs	r1, #1
    52b0:	3008      	adds	r0, #8
    52b2:	4b08      	ldr	r3, [pc, #32]	; (52d4 <usart_async_register_callback+0x40>)
    52b4:	4798      	blx	r3
    52b6:	2000      	movs	r0, #0
    52b8:	bd08      	pop	{r3, pc}
    52ba:	6242      	str	r2, [r0, #36]	; 0x24
    52bc:	3200      	adds	r2, #0
    52be:	bf18      	it	ne
    52c0:	2201      	movne	r2, #1
    52c2:	2102      	movs	r1, #2
    52c4:	e7f4      	b.n	52b0 <usart_async_register_callback+0x1c>
    52c6:	62c2      	str	r2, [r0, #44]	; 0x2c
    52c8:	3200      	adds	r2, #0
    52ca:	bf18      	it	ne
    52cc:	2201      	movne	r2, #1
    52ce:	2103      	movs	r1, #3
    52d0:	e7ee      	b.n	52b0 <usart_async_register_callback+0x1c>
    52d2:	bf00      	nop
    52d4:	000067a7 	.word	0x000067a7

000052d8 <usart_async_is_rx_not_empty>:
    52d8:	b508      	push	{r3, lr}
    52da:	3034      	adds	r0, #52	; 0x34
    52dc:	4b02      	ldr	r3, [pc, #8]	; (52e8 <usart_async_is_rx_not_empty+0x10>)
    52de:	4798      	blx	r3
    52e0:	3000      	adds	r0, #0
    52e2:	bf18      	it	ne
    52e4:	2001      	movne	r0, #1
    52e6:	bd08      	pop	{r3, pc}
    52e8:	00005883 	.word	0x00005883

000052ec <_usb_d_find_ep>:
    52ec:	490a      	ldr	r1, [pc, #40]	; (5318 <_usb_d_find_ep+0x2c>)
    52ee:	b570      	push	{r4, r5, r6, lr}
    52f0:	2300      	movs	r3, #0
    52f2:	f000 060f 	and.w	r6, r0, #15
    52f6:	015d      	lsls	r5, r3, #5
    52f8:	194c      	adds	r4, r1, r5
    52fa:	b25a      	sxtb	r2, r3
    52fc:	7864      	ldrb	r4, [r4, #1]
    52fe:	4284      	cmp	r4, r0
    5300:	d008      	beq.n	5314 <_usb_d_find_ep+0x28>
    5302:	5c6d      	ldrb	r5, [r5, r1]
    5304:	b90d      	cbnz	r5, 530a <_usb_d_find_ep+0x1e>
    5306:	42a6      	cmp	r6, r4
    5308:	d004      	beq.n	5314 <_usb_d_find_ep+0x28>
    530a:	3301      	adds	r3, #1
    530c:	2b0d      	cmp	r3, #13
    530e:	d1f2      	bne.n	52f6 <_usb_d_find_ep+0xa>
    5310:	f04f 32ff 	mov.w	r2, #4294967295
    5314:	4610      	mov	r0, r2
    5316:	bd70      	pop	{r4, r5, r6, pc}
    5318:	20000474 	.word	0x20000474

0000531c <usb_d_dummy_cb_false>:
    531c:	2000      	movs	r0, #0
    531e:	4770      	bx	lr

00005320 <usb_d_cb_trans_more>:
    5320:	b570      	push	{r4, r5, r6, lr}
    5322:	4b09      	ldr	r3, [pc, #36]	; (5348 <usb_d_cb_trans_more+0x28>)
    5324:	4604      	mov	r4, r0
    5326:	460d      	mov	r5, r1
    5328:	4798      	blx	r3
    532a:	4b08      	ldr	r3, [pc, #32]	; (534c <usb_d_cb_trans_more+0x2c>)
    532c:	eb03 1040 	add.w	r0, r3, r0, lsl #5
    5330:	7883      	ldrb	r3, [r0, #2]
    5332:	2b03      	cmp	r3, #3
    5334:	d105      	bne.n	5342 <usb_d_cb_trans_more+0x22>
    5336:	6983      	ldr	r3, [r0, #24]
    5338:	4629      	mov	r1, r5
    533a:	4620      	mov	r0, r4
    533c:	e8bd 4070 	ldmia.w	sp!, {r4, r5, r6, lr}
    5340:	4718      	bx	r3
    5342:	2000      	movs	r0, #0
    5344:	bd70      	pop	{r4, r5, r6, pc}
    5346:	bf00      	nop
    5348:	000052ed 	.word	0x000052ed
    534c:	20000474 	.word	0x20000474

00005350 <_usb_d_cb_trans_done>:
    5350:	e92d 43f0 	stmdb	sp!, {r4, r5, r6, r7, r8, r9, lr}
    5354:	4b3c      	ldr	r3, [pc, #240]	; (5448 <_usb_d_cb_trans_done+0xf8>)
    5356:	4c3d      	ldr	r4, [pc, #244]	; (544c <_usb_d_cb_trans_done+0xfc>)
    5358:	b085      	sub	sp, #20
    535a:	4680      	mov	r8, r0
    535c:	460f      	mov	r7, r1
    535e:	4691      	mov	r9, r2
    5360:	4798      	blx	r3
    5362:	4603      	mov	r3, r0
    5364:	0146      	lsls	r6, r0, #5
    5366:	2f00      	cmp	r7, #0
    5368:	d149      	bne.n	53fe <_usb_d_cb_trans_done+0xae>
    536a:	19a5      	adds	r5, r4, r6
    536c:	5da1      	ldrb	r1, [r4, r6]
    536e:	70ef      	strb	r7, [r5, #3]
    5370:	2900      	cmp	r1, #0
    5372:	d13b      	bne.n	53ec <_usb_d_cb_trans_done+0x9c>
    5374:	78aa      	ldrb	r2, [r5, #2]
    5376:	7868      	ldrb	r0, [r5, #1]
    5378:	69ee      	ldr	r6, [r5, #28]
    537a:	2a03      	cmp	r2, #3
    537c:	f04f 0e0c 	mov.w	lr, #12
    5380:	f04f 0220 	mov.w	r2, #32
    5384:	d12b      	bne.n	53de <_usb_d_cb_trans_done+0x8e>
    5386:	fb12 e203 	smlabb	r2, r2, r3, lr
    538a:	4422      	add	r2, r4
    538c:	2101      	movs	r1, #1
    538e:	f995 700c 	ldrsb.w	r7, [r5, #12]
    5392:	47b0      	blx	r6
    5394:	786b      	ldrb	r3, [r5, #1]
    5396:	b178      	cbz	r0, 53b8 <_usb_d_cb_trans_done+0x68>
    5398:	2205      	movs	r2, #5
    539a:	2f00      	cmp	r7, #0
    539c:	70aa      	strb	r2, [r5, #2]
    539e:	f04f 0202 	mov.w	r2, #2
    53a2:	bfb4      	ite	lt
    53a4:	4618      	movlt	r0, r3
    53a6:	f043 0080 	orrge.w	r0, r3, #128	; 0x80
    53aa:	70ea      	strb	r2, [r5, #3]
    53ac:	2101      	movs	r1, #1
    53ae:	4b28      	ldr	r3, [pc, #160]	; (5450 <_usb_d_cb_trans_done+0x100>)
    53b0:	4798      	blx	r3
    53b2:	b005      	add	sp, #20
    53b4:	e8bd 83f0 	ldmia.w	sp!, {r4, r5, r6, r7, r8, r9, pc}
    53b8:	2f00      	cmp	r7, #0
    53ba:	bfac      	ite	ge
    53bc:	f043 0380 	orrge.w	r3, r3, #128	; 0x80
    53c0:	f003 030f 	andlt.w	r3, r3, #15
    53c4:	2204      	movs	r2, #4
    53c6:	f88d 300c 	strb.w	r3, [sp, #12]
    53ca:	2301      	movs	r3, #1
    53cc:	9001      	str	r0, [sp, #4]
    53ce:	9002      	str	r0, [sp, #8]
    53d0:	f88d 300d 	strb.w	r3, [sp, #13]
    53d4:	70aa      	strb	r2, [r5, #2]
    53d6:	a801      	add	r0, sp, #4
    53d8:	4b1e      	ldr	r3, [pc, #120]	; (5454 <_usb_d_cb_trans_done+0x104>)
    53da:	4798      	blx	r3
    53dc:	e7e9      	b.n	53b2 <_usb_d_cb_trans_done+0x62>
    53de:	fb12 e203 	smlabb	r2, r2, r3, lr
    53e2:	4422      	add	r2, r4
    53e4:	47b0      	blx	r6
    53e6:	2302      	movs	r3, #2
    53e8:	70ab      	strb	r3, [r5, #2]
    53ea:	e7e2      	b.n	53b2 <_usb_d_cb_trans_done+0x62>
    53ec:	2301      	movs	r3, #1
    53ee:	70ab      	strb	r3, [r5, #2]
    53f0:	4434      	add	r4, r6
    53f2:	464a      	mov	r2, r9
    53f4:	69e3      	ldr	r3, [r4, #28]
    53f6:	78e1      	ldrb	r1, [r4, #3]
    53f8:	4640      	mov	r0, r8
    53fa:	4798      	blx	r3
    53fc:	e7d9      	b.n	53b2 <_usb_d_cb_trans_done+0x62>
    53fe:	2f01      	cmp	r7, #1
    5400:	eb04 0306 	add.w	r3, r4, r6
    5404:	d10b      	bne.n	541e <_usb_d_cb_trans_done+0xce>
    5406:	5da1      	ldrb	r1, [r4, r6]
    5408:	2202      	movs	r2, #2
    540a:	70da      	strb	r2, [r3, #3]
    540c:	b921      	cbnz	r1, 5418 <_usb_d_cb_trans_done+0xc8>
    540e:	709a      	strb	r2, [r3, #2]
    5410:	4640      	mov	r0, r8
    5412:	4b0f      	ldr	r3, [pc, #60]	; (5450 <_usb_d_cb_trans_done+0x100>)
    5414:	4798      	blx	r3
    5416:	e7eb      	b.n	53f0 <_usb_d_cb_trans_done+0xa0>
    5418:	2205      	movs	r2, #5
    541a:	709a      	strb	r2, [r3, #2]
    541c:	e7e8      	b.n	53f0 <_usb_d_cb_trans_done+0xa0>
    541e:	2f02      	cmp	r7, #2
    5420:	d107      	bne.n	5432 <_usb_d_cb_trans_done+0xe2>
    5422:	2204      	movs	r2, #4
    5424:	70da      	strb	r2, [r3, #3]
    5426:	5da2      	ldrb	r2, [r4, r6]
    5428:	b90a      	cbnz	r2, 542e <_usb_d_cb_trans_done+0xde>
    542a:	709f      	strb	r7, [r3, #2]
    542c:	e7c1      	b.n	53b2 <_usb_d_cb_trans_done+0x62>
    542e:	2201      	movs	r2, #1
    5430:	e7f3      	b.n	541a <_usb_d_cb_trans_done+0xca>
    5432:	2f03      	cmp	r7, #3
    5434:	bf09      	itett	eq
    5436:	2200      	moveq	r2, #0
    5438:	2206      	movne	r2, #6
    543a:	709a      	strbeq	r2, [r3, #2]
    543c:	2205      	moveq	r2, #5
    543e:	bf18      	it	ne
    5440:	709a      	strbne	r2, [r3, #2]
    5442:	70da      	strb	r2, [r3, #3]
    5444:	e7d4      	b.n	53f0 <_usb_d_cb_trans_done+0xa0>
    5446:	bf00      	nop
    5448:	000052ed 	.word	0x000052ed
    544c:	20000474 	.word	0x20000474
    5450:	0000789d 	.word	0x0000789d
    5454:	000079d5 	.word	0x000079d5

00005458 <usb_d_cb_trans_setup>:
    5458:	e92d 47f0 	stmdb	sp!, {r4, r5, r6, r7, r8, r9, sl, lr}
    545c:	4b1d      	ldr	r3, [pc, #116]	; (54d4 <usb_d_cb_trans_setup+0x7c>)
    545e:	4e1e      	ldr	r6, [pc, #120]	; (54d8 <usb_d_cb_trans_setup+0x80>)
    5460:	4c1e      	ldr	r4, [pc, #120]	; (54dc <usb_d_cb_trans_setup+0x84>)
    5462:	4605      	mov	r5, r0
    5464:	4798      	blx	r3
    5466:	2720      	movs	r7, #32
    5468:	230c      	movs	r3, #12
    546a:	fb17 3700 	smlabb	r7, r7, r0, r3
    546e:	4437      	add	r7, r6
    5470:	4681      	mov	r9, r0
    5472:	4639      	mov	r1, r7
    5474:	4628      	mov	r0, r5
    5476:	4b1a      	ldr	r3, [pc, #104]	; (54e0 <usb_d_cb_trans_setup+0x88>)
    5478:	4798      	blx	r3
    547a:	b2c0      	uxtb	r0, r0
    547c:	2808      	cmp	r0, #8
    547e:	f065 087f 	orn	r8, r5, #127	; 0x7f
    5482:	d009      	beq.n	5498 <usb_d_cb_trans_setup+0x40>
    5484:	2101      	movs	r1, #1
    5486:	4628      	mov	r0, r5
    5488:	47a0      	blx	r4
    548a:	2101      	movs	r1, #1
    548c:	fa5f f088 	uxtb.w	r0, r8
    5490:	4623      	mov	r3, r4
    5492:	e8bd 47f0 	ldmia.w	sp!, {r4, r5, r6, r7, r8, r9, sl, lr}
    5496:	4718      	bx	r3
    5498:	eb06 1649 	add.w	r6, r6, r9, lsl #5
    549c:	2100      	movs	r1, #0
    549e:	4628      	mov	r0, r5
    54a0:	fa5f f888 	uxtb.w	r8, r8
    54a4:	47a0      	blx	r4
    54a6:	f04f 0901 	mov.w	r9, #1
    54aa:	2100      	movs	r1, #0
    54ac:	4640      	mov	r0, r8
    54ae:	47a0      	blx	r4
    54b0:	f886 9002 	strb.w	r9, [r6, #2]
    54b4:	6973      	ldr	r3, [r6, #20]
    54b6:	4639      	mov	r1, r7
    54b8:	4628      	mov	r0, r5
    54ba:	4798      	blx	r3
    54bc:	b938      	cbnz	r0, 54ce <usb_d_cb_trans_setup+0x76>
    54be:	2305      	movs	r3, #5
    54c0:	4649      	mov	r1, r9
    54c2:	70b3      	strb	r3, [r6, #2]
    54c4:	4628      	mov	r0, r5
    54c6:	47a0      	blx	r4
    54c8:	4649      	mov	r1, r9
    54ca:	4640      	mov	r0, r8
    54cc:	e7e0      	b.n	5490 <usb_d_cb_trans_setup+0x38>
    54ce:	e8bd 87f0 	ldmia.w	sp!, {r4, r5, r6, r7, r8, r9, sl, pc}
    54d2:	bf00      	nop
    54d4:	000052ed 	.word	0x000052ed
    54d8:	20000474 	.word	0x20000474
    54dc:	0000789d 	.word	0x0000789d
    54e0:	00007981 	.word	0x00007981

000054e4 <usb_d_init>:
    54e4:	b510      	push	{r4, lr}
    54e6:	4b11      	ldr	r3, [pc, #68]	; (552c <usb_d_init+0x48>)
    54e8:	4798      	blx	r3
    54ea:	2800      	cmp	r0, #0
    54ec:	db1c      	blt.n	5528 <usb_d_init+0x44>
    54ee:	f44f 72d0 	mov.w	r2, #416	; 0x1a0
    54f2:	2100      	movs	r1, #0
    54f4:	4b0e      	ldr	r3, [pc, #56]	; (5530 <usb_d_init+0x4c>)
    54f6:	480f      	ldr	r0, [pc, #60]	; (5534 <usb_d_init+0x50>)
    54f8:	4798      	blx	r3
    54fa:	4b0e      	ldr	r3, [pc, #56]	; (5534 <usb_d_init+0x50>)
    54fc:	4a0e      	ldr	r2, [pc, #56]	; (5538 <usb_d_init+0x54>)
    54fe:	f503 71d0 	add.w	r1, r3, #416	; 0x1a0
    5502:	20ff      	movs	r0, #255	; 0xff
    5504:	7058      	strb	r0, [r3, #1]
    5506:	615a      	str	r2, [r3, #20]
    5508:	619a      	str	r2, [r3, #24]
    550a:	61da      	str	r2, [r3, #28]
    550c:	3320      	adds	r3, #32
    550e:	428b      	cmp	r3, r1
    5510:	d1f8      	bne.n	5504 <usb_d_init+0x20>
    5512:	4c0a      	ldr	r4, [pc, #40]	; (553c <usb_d_init+0x58>)
    5514:	490a      	ldr	r1, [pc, #40]	; (5540 <usb_d_init+0x5c>)
    5516:	2000      	movs	r0, #0
    5518:	47a0      	blx	r4
    551a:	490a      	ldr	r1, [pc, #40]	; (5544 <usb_d_init+0x60>)
    551c:	2001      	movs	r0, #1
    551e:	47a0      	blx	r4
    5520:	2002      	movs	r0, #2
    5522:	4909      	ldr	r1, [pc, #36]	; (5548 <usb_d_init+0x64>)
    5524:	47a0      	blx	r4
    5526:	2000      	movs	r0, #0
    5528:	bd10      	pop	{r4, pc}
    552a:	bf00      	nop
    552c:	00007479 	.word	0x00007479
    5530:	0000949b 	.word	0x0000949b
    5534:	20000474 	.word	0x20000474
    5538:	0000531d 	.word	0x0000531d
    553c:	00007b01 	.word	0x00007b01
    5540:	00005459 	.word	0x00005459
    5544:	00005321 	.word	0x00005321
    5548:	00005351 	.word	0x00005351

0000554c <usb_d_register_callback>:
    554c:	4b00      	ldr	r3, [pc, #0]	; (5550 <usb_d_register_callback+0x4>)
    554e:	4718      	bx	r3
    5550:	00007add 	.word	0x00007add

00005554 <usb_d_enable>:
    5554:	4b00      	ldr	r3, [pc, #0]	; (5558 <usb_d_enable+0x4>)
    5556:	4718      	bx	r3
    5558:	00007561 	.word	0x00007561

0000555c <usb_d_attach>:
    555c:	4b00      	ldr	r3, [pc, #0]	; (5560 <usb_d_attach+0x4>)
    555e:	4718      	bx	r3
    5560:	000075bd 	.word	0x000075bd

00005564 <usb_d_set_address>:
    5564:	4b00      	ldr	r3, [pc, #0]	; (5568 <usb_d_set_address+0x4>)
    5566:	4718      	bx	r3
    5568:	000075cf 	.word	0x000075cf

0000556c <usb_d_ep_init>:
    556c:	b5f8      	push	{r3, r4, r5, r6, r7, lr}
    556e:	4c10      	ldr	r4, [pc, #64]	; (55b0 <usb_d_ep_init+0x44>)
    5570:	4606      	mov	r6, r0
    5572:	460d      	mov	r5, r1
    5574:	4617      	mov	r7, r2
    5576:	47a0      	blx	r4
    5578:	2800      	cmp	r0, #0
    557a:	da13      	bge.n	55a4 <usb_d_ep_init+0x38>
    557c:	20ff      	movs	r0, #255	; 0xff
    557e:	47a0      	blx	r4
    5580:	1e04      	subs	r4, r0, #0
    5582:	db12      	blt.n	55aa <usb_d_ep_init+0x3e>
    5584:	463a      	mov	r2, r7
    5586:	4629      	mov	r1, r5
    5588:	4630      	mov	r0, r6
    558a:	4b0a      	ldr	r3, [pc, #40]	; (55b4 <usb_d_ep_init+0x48>)
    558c:	4798      	blx	r3
    558e:	2800      	cmp	r0, #0
    5590:	db0d      	blt.n	55ae <usb_d_ep_init+0x42>
    5592:	4b09      	ldr	r3, [pc, #36]	; (55b8 <usb_d_ep_init+0x4c>)
    5594:	0160      	lsls	r0, r4, #5
    5596:	181a      	adds	r2, r3, r0
    5598:	f005 0503 	and.w	r5, r5, #3
    559c:	541d      	strb	r5, [r3, r0]
    559e:	7056      	strb	r6, [r2, #1]
    55a0:	2000      	movs	r0, #0
    55a2:	bdf8      	pop	{r3, r4, r5, r6, r7, pc}
    55a4:	f06f 0013 	mvn.w	r0, #19
    55a8:	bdf8      	pop	{r3, r4, r5, r6, r7, pc}
    55aa:	f06f 0014 	mvn.w	r0, #20
    55ae:	bdf8      	pop	{r3, r4, r5, r6, r7, pc}
    55b0:	000052ed 	.word	0x000052ed
    55b4:	000075dd 	.word	0x000075dd
    55b8:	20000474 	.word	0x20000474

000055bc <usb_d_ep0_init>:
    55bc:	2100      	movs	r1, #0
    55be:	4602      	mov	r2, r0
    55c0:	4b01      	ldr	r3, [pc, #4]	; (55c8 <usb_d_ep0_init+0xc>)
    55c2:	4608      	mov	r0, r1
    55c4:	4718      	bx	r3
    55c6:	bf00      	nop
    55c8:	0000556d 	.word	0x0000556d

000055cc <usb_d_ep_deinit>:
    55cc:	b538      	push	{r3, r4, r5, lr}
    55ce:	4b07      	ldr	r3, [pc, #28]	; (55ec <usb_d_ep_deinit+0x20>)
    55d0:	4605      	mov	r5, r0
    55d2:	4798      	blx	r3
    55d4:	1e04      	subs	r4, r0, #0
    55d6:	db07      	blt.n	55e8 <usb_d_ep_deinit+0x1c>
    55d8:	4628      	mov	r0, r5
    55da:	4b05      	ldr	r3, [pc, #20]	; (55f0 <usb_d_ep_deinit+0x24>)
    55dc:	4798      	blx	r3
    55de:	4805      	ldr	r0, [pc, #20]	; (55f4 <usb_d_ep_deinit+0x28>)
    55e0:	eb00 1044 	add.w	r0, r0, r4, lsl #5
    55e4:	23ff      	movs	r3, #255	; 0xff
    55e6:	7043      	strb	r3, [r0, #1]
    55e8:	bd38      	pop	{r3, r4, r5, pc}
    55ea:	bf00      	nop
    55ec:	000052ed 	.word	0x000052ed
    55f0:	0000769d 	.word	0x0000769d
    55f4:	20000474 	.word	0x20000474

000055f8 <usb_d_ep_enable>:
    55f8:	b538      	push	{r3, r4, r5, lr}
    55fa:	4b0c      	ldr	r3, [pc, #48]	; (562c <usb_d_ep_enable+0x34>)
    55fc:	4605      	mov	r5, r0
    55fe:	4798      	blx	r3
    5600:	2800      	cmp	r0, #0
    5602:	db10      	blt.n	5626 <usb_d_ep_enable+0x2e>
    5604:	0140      	lsls	r0, r0, #5
    5606:	4c0a      	ldr	r4, [pc, #40]	; (5630 <usb_d_ep_enable+0x38>)
    5608:	5c23      	ldrb	r3, [r4, r0]
    560a:	4404      	add	r4, r0
    560c:	2b00      	cmp	r3, #0
    560e:	bf0c      	ite	eq
    5610:	2302      	moveq	r3, #2
    5612:	2301      	movne	r3, #1
    5614:	70a3      	strb	r3, [r4, #2]
    5616:	4628      	mov	r0, r5
    5618:	4b06      	ldr	r3, [pc, #24]	; (5634 <usb_d_ep_enable+0x3c>)
    561a:	4798      	blx	r3
    561c:	2800      	cmp	r0, #0
    561e:	da04      	bge.n	562a <usb_d_ep_enable+0x32>
    5620:	2300      	movs	r3, #0
    5622:	70a3      	strb	r3, [r4, #2]
    5624:	bd38      	pop	{r3, r4, r5, pc}
    5626:	f06f 0011 	mvn.w	r0, #17
    562a:	bd38      	pop	{r3, r4, r5, pc}
    562c:	000052ed 	.word	0x000052ed
    5630:	20000474 	.word	0x20000474
    5634:	00007721 	.word	0x00007721

00005638 <usb_d_ep_transfer>:
    5638:	e92d 4ff0 	stmdb	sp!, {r4, r5, r6, r7, r8, r9, sl, fp, lr}
    563c:	f890 a008 	ldrb.w	sl, [r0, #8]
    5640:	4b36      	ldr	r3, [pc, #216]	; (571c <usb_d_ep_transfer+0xe4>)
    5642:	4607      	mov	r7, r0
    5644:	b087      	sub	sp, #28
    5646:	4650      	mov	r0, sl
    5648:	4798      	blx	r3
    564a:	f1b0 0800 	subs.w	r8, r0, #0
    564e:	f897 9009 	ldrb.w	r9, [r7, #9]
    5652:	687e      	ldr	r6, [r7, #4]
    5654:	db5d      	blt.n	5712 <usb_d_ep_transfer+0xda>
    5656:	f8df b0d4 	ldr.w	fp, [pc, #212]	; 572c <usb_d_ep_transfer+0xf4>
    565a:	4b31      	ldr	r3, [pc, #196]	; (5720 <usb_d_ep_transfer+0xe8>)
    565c:	ea4f 1848 	mov.w	r8, r8, lsl #5
    5660:	eb0b 0508 	add.w	r5, fp, r8
    5664:	a802      	add	r0, sp, #8
    5666:	4798      	blx	r3
    5668:	78ab      	ldrb	r3, [r5, #2]
    566a:	f88d 3007 	strb.w	r3, [sp, #7]
    566e:	f89d 0007 	ldrb.w	r0, [sp, #7]
    5672:	4b2c      	ldr	r3, [pc, #176]	; (5724 <usb_d_ep_transfer+0xec>)
    5674:	b2c4      	uxtb	r4, r0
    5676:	2c01      	cmp	r4, #1
    5678:	d11c      	bne.n	56b4 <usb_d_ep_transfer+0x7c>
    567a:	2203      	movs	r2, #3
    567c:	70aa      	strb	r2, [r5, #2]
    567e:	a802      	add	r0, sp, #8
    5680:	4798      	blx	r3
    5682:	f81b 3008 	ldrb.w	r3, [fp, r8]
    5686:	b34b      	cbz	r3, 56dc <usb_d_ep_transfer+0xa4>
    5688:	f119 0300 	adds.w	r3, r9, #0
    568c:	ea4f 14da 	mov.w	r4, sl, lsr #7
    5690:	bf18      	it	ne
    5692:	2301      	movne	r3, #1
    5694:	6839      	ldr	r1, [r7, #0]
    5696:	7a3a      	ldrb	r2, [r7, #8]
    5698:	9103      	str	r1, [sp, #12]
    569a:	9604      	str	r6, [sp, #16]
    569c:	2c00      	cmp	r4, #0
    569e:	d035      	beq.n	570c <usb_d_ep_transfer+0xd4>
    56a0:	f042 0280 	orr.w	r2, r2, #128	; 0x80
    56a4:	f88d 3015 	strb.w	r3, [sp, #21]
    56a8:	a803      	add	r0, sp, #12
    56aa:	4b1f      	ldr	r3, [pc, #124]	; (5728 <usb_d_ep_transfer+0xf0>)
    56ac:	f88d 2014 	strb.w	r2, [sp, #20]
    56b0:	4798      	blx	r3
    56b2:	e00d      	b.n	56d0 <usb_d_ep_transfer+0x98>
    56b4:	a802      	add	r0, sp, #8
    56b6:	4798      	blx	r3
    56b8:	f89d 3007 	ldrb.w	r3, [sp, #7]
    56bc:	b2db      	uxtb	r3, r3
    56be:	2b05      	cmp	r3, #5
    56c0:	d02a      	beq.n	5718 <usb_d_ep_transfer+0xe0>
    56c2:	2b06      	cmp	r3, #6
    56c4:	d007      	beq.n	56d6 <usb_d_ep_transfer+0x9e>
    56c6:	2b00      	cmp	r3, #0
    56c8:	bf0c      	ite	eq
    56ca:	f06f 0012 	mvneq.w	r0, #18
    56ce:	2001      	movne	r0, #1
    56d0:	b007      	add	sp, #28
    56d2:	e8bd 8ff0 	ldmia.w	sp!, {r4, r5, r6, r7, r8, r9, sl, fp, pc}
    56d6:	f06f 000f 	mvn.w	r0, #15
    56da:	e7f9      	b.n	56d0 <usb_d_ep_transfer+0x98>
    56dc:	7ce9      	ldrb	r1, [r5, #19]
    56de:	7caa      	ldrb	r2, [r5, #18]
    56e0:	eb02 2201 	add.w	r2, r2, r1, lsl #8
    56e4:	b292      	uxth	r2, r2
    56e6:	b92a      	cbnz	r2, 56f4 <usb_d_ep_transfer+0xbc>
    56e8:	2304      	movs	r3, #4
    56ea:	70ab      	strb	r3, [r5, #2]
    56ec:	4616      	mov	r6, r2
    56ee:	4623      	mov	r3, r4
    56f0:	461c      	mov	r4, r3
    56f2:	e7cf      	b.n	5694 <usb_d_ep_transfer+0x5c>
    56f4:	f995 100c 	ldrsb.w	r1, [r5, #12]
    56f8:	4296      	cmp	r6, r2
    56fa:	bf28      	it	cs
    56fc:	4616      	movcs	r6, r2
    56fe:	2900      	cmp	r1, #0
    5700:	daf6      	bge.n	56f0 <usb_d_ep_transfer+0xb8>
    5702:	42b2      	cmp	r2, r6
    5704:	bf94      	ite	ls
    5706:	2300      	movls	r3, #0
    5708:	2301      	movhi	r3, #1
    570a:	e7c3      	b.n	5694 <usb_d_ep_transfer+0x5c>
    570c:	f002 020f 	and.w	r2, r2, #15
    5710:	e7c8      	b.n	56a4 <usb_d_ep_transfer+0x6c>
    5712:	f06f 0011 	mvn.w	r0, #17
    5716:	e7db      	b.n	56d0 <usb_d_ep_transfer+0x98>
    5718:	2002      	movs	r0, #2
    571a:	e7d9      	b.n	56d0 <usb_d_ep_transfer+0x98>
    571c:	000052ed 	.word	0x000052ed
    5720:	00004db1 	.word	0x00004db1
    5724:	00004dbf 	.word	0x00004dbf
    5728:	000079d5 	.word	0x000079d5
    572c:	20000474 	.word	0x20000474

00005730 <usb_d_ep_halt>:
    5730:	e92d 41f0 	stmdb	sp!, {r4, r5, r6, r7, r8, lr}
    5734:	4605      	mov	r5, r0
    5736:	460c      	mov	r4, r1
    5738:	b9d9      	cbnz	r1, 5772 <usb_d_ep_halt+0x42>
    573a:	4b13      	ldr	r3, [pc, #76]	; (5788 <usb_d_ep_halt+0x58>)
    573c:	4798      	blx	r3
    573e:	1e07      	subs	r7, r0, #0
    5740:	db1e      	blt.n	5780 <usb_d_ep_halt+0x50>
    5742:	2102      	movs	r1, #2
    5744:	4628      	mov	r0, r5
    5746:	4e11      	ldr	r6, [pc, #68]	; (578c <usb_d_ep_halt+0x5c>)
    5748:	47b0      	blx	r6
    574a:	b1d8      	cbz	r0, 5784 <usb_d_ep_halt+0x54>
    574c:	4621      	mov	r1, r4
    574e:	4628      	mov	r0, r5
    5750:	47b0      	blx	r6
    5752:	2800      	cmp	r0, #0
    5754:	db16      	blt.n	5784 <usb_d_ep_halt+0x54>
    5756:	480e      	ldr	r0, [pc, #56]	; (5790 <usb_d_ep_halt+0x60>)
    5758:	eb00 1047 	add.w	r0, r0, r7, lsl #5
    575c:	2103      	movs	r1, #3
    575e:	2301      	movs	r3, #1
    5760:	7083      	strb	r3, [r0, #2]
    5762:	70c1      	strb	r1, [r0, #3]
    5764:	69c3      	ldr	r3, [r0, #28]
    5766:	4622      	mov	r2, r4
    5768:	4628      	mov	r0, r5
    576a:	4798      	blx	r3
    576c:	4620      	mov	r0, r4
    576e:	e8bd 81f0 	ldmia.w	sp!, {r4, r5, r6, r7, r8, pc}
    5772:	2901      	cmp	r1, #1
    5774:	4b05      	ldr	r3, [pc, #20]	; (578c <usb_d_ep_halt+0x5c>)
    5776:	bf18      	it	ne
    5778:	2102      	movne	r1, #2
    577a:	e8bd 41f0 	ldmia.w	sp!, {r4, r5, r6, r7, r8, lr}
    577e:	4718      	bx	r3
    5780:	f06f 0011 	mvn.w	r0, #17
    5784:	e8bd 81f0 	ldmia.w	sp!, {r4, r5, r6, r7, r8, pc}
    5788:	000052ed 	.word	0x000052ed
    578c:	0000789d 	.word	0x0000789d
    5790:	20000474 	.word	0x20000474

00005794 <usb_d_ep_register_callback>:
    5794:	b538      	push	{r3, r4, r5, lr}
    5796:	4b0f      	ldr	r3, [pc, #60]	; (57d4 <usb_d_ep_register_callback+0x40>)
    5798:	4614      	mov	r4, r2
    579a:	460d      	mov	r5, r1
    579c:	4798      	blx	r3
    579e:	4a0e      	ldr	r2, [pc, #56]	; (57d8 <usb_d_ep_register_callback+0x44>)
    57a0:	2c00      	cmp	r4, #0
    57a2:	bf08      	it	eq
    57a4:	4614      	moveq	r4, r2
    57a6:	2800      	cmp	r0, #0
    57a8:	db13      	blt.n	57d2 <usb_d_ep_register_callback+0x3e>
    57aa:	2d01      	cmp	r5, #1
    57ac:	d008      	beq.n	57c0 <usb_d_ep_register_callback+0x2c>
    57ae:	d302      	bcc.n	57b6 <usb_d_ep_register_callback+0x22>
    57b0:	2d02      	cmp	r5, #2
    57b2:	d00a      	beq.n	57ca <usb_d_ep_register_callback+0x36>
    57b4:	bd38      	pop	{r3, r4, r5, pc}
    57b6:	4b09      	ldr	r3, [pc, #36]	; (57dc <usb_d_ep_register_callback+0x48>)
    57b8:	eb03 1040 	add.w	r0, r3, r0, lsl #5
    57bc:	6144      	str	r4, [r0, #20]
    57be:	bd38      	pop	{r3, r4, r5, pc}
    57c0:	4b06      	ldr	r3, [pc, #24]	; (57dc <usb_d_ep_register_callback+0x48>)
    57c2:	eb03 1040 	add.w	r0, r3, r0, lsl #5
    57c6:	6184      	str	r4, [r0, #24]
    57c8:	bd38      	pop	{r3, r4, r5, pc}
    57ca:	4b04      	ldr	r3, [pc, #16]	; (57dc <usb_d_ep_register_callback+0x48>)
    57cc:	eb03 1040 	add.w	r0, r3, r0, lsl #5
    57d0:	61c4      	str	r4, [r0, #28]
    57d2:	bd38      	pop	{r3, r4, r5, pc}
    57d4:	000052ed 	.word	0x000052ed
    57d8:	0000531d 	.word	0x0000531d
    57dc:	20000474 	.word	0x20000474

000057e0 <is_list_element>:
    57e0:	6800      	ldr	r0, [r0, #0]
    57e2:	b900      	cbnz	r0, 57e6 <is_list_element+0x6>
    57e4:	4770      	bx	lr
    57e6:	4288      	cmp	r0, r1
    57e8:	d1fa      	bne.n	57e0 <is_list_element>
    57ea:	2001      	movs	r0, #1
    57ec:	4770      	bx	lr

000057ee <list_insert_as_head>:
    57ee:	6803      	ldr	r3, [r0, #0]
    57f0:	600b      	str	r3, [r1, #0]
    57f2:	6001      	str	r1, [r0, #0]
    57f4:	4770      	bx	lr

000057f6 <list_insert_after>:
    57f6:	6803      	ldr	r3, [r0, #0]
    57f8:	600b      	str	r3, [r1, #0]
    57fa:	6001      	str	r1, [r0, #0]
    57fc:	4770      	bx	lr

000057fe <list_insert_at_end>:
    57fe:	6803      	ldr	r3, [r0, #0]
    5800:	b91b      	cbnz	r3, 580a <list_insert_at_end+0xc>
    5802:	6001      	str	r1, [r0, #0]
    5804:	600b      	str	r3, [r1, #0]
    5806:	4770      	bx	lr
    5808:	4613      	mov	r3, r2
    580a:	681a      	ldr	r2, [r3, #0]
    580c:	2a00      	cmp	r2, #0
    580e:	d1fb      	bne.n	5808 <list_insert_at_end+0xa>
    5810:	6019      	str	r1, [r3, #0]
    5812:	600a      	str	r2, [r1, #0]
    5814:	4770      	bx	lr

00005816 <list_remove_head>:
    5816:	6803      	ldr	r3, [r0, #0]
    5818:	b10b      	cbz	r3, 581e <list_remove_head+0x8>
    581a:	681a      	ldr	r2, [r3, #0]
    581c:	6002      	str	r2, [r0, #0]
    581e:	4618      	mov	r0, r3
    5820:	4770      	bx	lr

00005822 <ringbuffer_init>:
    5822:	1e53      	subs	r3, r2, #1
    5824:	401a      	ands	r2, r3
    5826:	bf01      	itttt	eq
    5828:	6043      	streq	r3, [r0, #4]
    582a:	6082      	streq	r2, [r0, #8]
    582c:	60c2      	streq	r2, [r0, #12]
    582e:	6001      	streq	r1, [r0, #0]
    5830:	bf0c      	ite	eq
    5832:	4610      	moveq	r0, r2
    5834:	f06f 000c 	mvnne.w	r0, #12
    5838:	4770      	bx	lr

0000583a <ringbuffer_get>:
    583a:	6883      	ldr	r3, [r0, #8]
    583c:	68c2      	ldr	r2, [r0, #12]
    583e:	429a      	cmp	r2, r3
    5840:	d009      	beq.n	5856 <ringbuffer_get+0x1c>
    5842:	6842      	ldr	r2, [r0, #4]
    5844:	4013      	ands	r3, r2
    5846:	6802      	ldr	r2, [r0, #0]
    5848:	5cd3      	ldrb	r3, [r2, r3]
    584a:	700b      	strb	r3, [r1, #0]
    584c:	6883      	ldr	r3, [r0, #8]
    584e:	3301      	adds	r3, #1
    5850:	6083      	str	r3, [r0, #8]
    5852:	2000      	movs	r0, #0
    5854:	4770      	bx	lr
    5856:	f06f 0009 	mvn.w	r0, #9
    585a:	4770      	bx	lr

0000585c <ringbuffer_put>:
    585c:	68c3      	ldr	r3, [r0, #12]
    585e:	6842      	ldr	r2, [r0, #4]
    5860:	4013      	ands	r3, r2
    5862:	6802      	ldr	r2, [r0, #0]
    5864:	54d1      	strb	r1, [r2, r3]
    5866:	68c3      	ldr	r3, [r0, #12]
    5868:	6881      	ldr	r1, [r0, #8]
    586a:	6842      	ldr	r2, [r0, #4]
    586c:	1a59      	subs	r1, r3, r1
    586e:	4291      	cmp	r1, r2
    5870:	bf88      	it	hi
    5872:	1a9a      	subhi	r2, r3, r2
    5874:	f103 0301 	add.w	r3, r3, #1
    5878:	bf88      	it	hi
    587a:	6082      	strhi	r2, [r0, #8]
    587c:	60c3      	str	r3, [r0, #12]
    587e:	2000      	movs	r0, #0
    5880:	4770      	bx	lr

00005882 <ringbuffer_num>:
    5882:	68c2      	ldr	r2, [r0, #12]
    5884:	6880      	ldr	r0, [r0, #8]
    5886:	1a10      	subs	r0, r2, r0
    5888:	4770      	bx	lr
	...

0000588c <_sbrk>:
    588c:	4b04      	ldr	r3, [pc, #16]	; (58a0 <_sbrk+0x14>)
    588e:	6819      	ldr	r1, [r3, #0]
    5890:	4602      	mov	r2, r0
    5892:	b909      	cbnz	r1, 5898 <_sbrk+0xc>
    5894:	4903      	ldr	r1, [pc, #12]	; (58a4 <_sbrk+0x18>)
    5896:	6019      	str	r1, [r3, #0]
    5898:	6818      	ldr	r0, [r3, #0]
    589a:	4402      	add	r2, r0
    589c:	601a      	str	r2, [r3, #0]
    589e:	4770      	bx	lr
    58a0:	20000614 	.word	0x20000614
    58a4:	20011cb8 	.word	0x20011cb8

000058a8 <__NVIC_DisableIRQ>:
    58a8:	2800      	cmp	r0, #0
    58aa:	db0d      	blt.n	58c8 <__NVIC_DisableIRQ+0x20>
    58ac:	0943      	lsrs	r3, r0, #5
    58ae:	2201      	movs	r2, #1
    58b0:	f000 001f 	and.w	r0, r0, #31
    58b4:	fa02 f000 	lsl.w	r0, r2, r0
    58b8:	3320      	adds	r3, #32
    58ba:	4a04      	ldr	r2, [pc, #16]	; (58cc <__NVIC_DisableIRQ+0x24>)
    58bc:	f842 0023 	str.w	r0, [r2, r3, lsl #2]
    58c0:	f3bf 8f4f 	dsb	sy
    58c4:	f3bf 8f6f 	isb	sy
    58c8:	4770      	bx	lr
    58ca:	bf00      	nop
    58cc:	e000e100 	.word	0xe000e100

000058d0 <__NVIC_ClearPendingIRQ>:
    58d0:	2800      	cmp	r0, #0
    58d2:	db09      	blt.n	58e8 <__NVIC_ClearPendingIRQ+0x18>
    58d4:	0943      	lsrs	r3, r0, #5
    58d6:	2201      	movs	r2, #1
    58d8:	f000 001f 	and.w	r0, r0, #31
    58dc:	fa02 f000 	lsl.w	r0, r2, r0
    58e0:	3360      	adds	r3, #96	; 0x60
    58e2:	4a02      	ldr	r2, [pc, #8]	; (58ec <__NVIC_ClearPendingIRQ+0x1c>)
    58e4:	f842 0023 	str.w	r0, [r2, r3, lsl #2]
    58e8:	4770      	bx	lr
    58ea:	bf00      	nop
    58ec:	e000e100 	.word	0xe000e100

000058f0 <hri_adc_wait_for_sync>:
    58f0:	6b03      	ldr	r3, [r0, #48]	; 0x30
    58f2:	420b      	tst	r3, r1
    58f4:	d1fc      	bne.n	58f0 <hri_adc_wait_for_sync>
    58f6:	4770      	bx	lr

000058f8 <hri_adc_set_CTRLA_ENABLE_bit>:
    58f8:	8803      	ldrh	r3, [r0, #0]
    58fa:	b29b      	uxth	r3, r3
    58fc:	f043 0302 	orr.w	r3, r3, #2
    5900:	8003      	strh	r3, [r0, #0]
    5902:	2103      	movs	r1, #3
    5904:	4b00      	ldr	r3, [pc, #0]	; (5908 <hri_adc_set_CTRLA_ENABLE_bit+0x10>)
    5906:	4718      	bx	r3
    5908:	000058f1 	.word	0x000058f1

0000590c <hri_adc_clear_CTRLA_ENABLE_bit>:
    590c:	8803      	ldrh	r3, [r0, #0]
    590e:	f023 0302 	bic.w	r3, r3, #2
    5912:	041b      	lsls	r3, r3, #16
    5914:	0c1b      	lsrs	r3, r3, #16
    5916:	8003      	strh	r3, [r0, #0]
    5918:	2103      	movs	r1, #3
    591a:	4b01      	ldr	r3, [pc, #4]	; (5920 <hri_adc_clear_CTRLA_ENABLE_bit+0x14>)
    591c:	4718      	bx	r3
    591e:	bf00      	nop
    5920:	000058f1 	.word	0x000058f1

00005924 <_adc_get_regs>:
    5924:	f100 403d 	add.w	r0, r0, #3170893824	; 0xbd000000
    5928:	f5a0 50e0 	sub.w	r0, r0, #7168	; 0x1c00
    592c:	f3c0 2087 	ubfx	r0, r0, #10, #8
    5930:	1e43      	subs	r3, r0, #1
    5932:	4258      	negs	r0, r3
    5934:	4158      	adcs	r0, r3
    5936:	4770      	bx	lr

00005938 <_adc_interrupt_handler>:
    5938:	b430      	push	{r4, r5}
    593a:	6942      	ldr	r2, [r0, #20]
    593c:	f892 102e 	ldrb.w	r1, [r2, #46]	; 0x2e
    5940:	f892 302d 	ldrb.w	r3, [r2, #45]	; 0x2d
    5944:	400b      	ands	r3, r1
    5946:	f013 0501 	ands.w	r5, r3, #1
    594a:	d009      	beq.n	5960 <_adc_interrupt_handler+0x28>
    594c:	2301      	movs	r3, #1
    594e:	f882 302e 	strb.w	r3, [r2, #46]	; 0x2e
    5952:	f8b2 2040 	ldrh.w	r2, [r2, #64]	; 0x40
    5956:	6883      	ldr	r3, [r0, #8]
    5958:	b292      	uxth	r2, r2
    595a:	2100      	movs	r1, #0
    595c:	bc30      	pop	{r4, r5}
    595e:	4718      	bx	r3
    5960:	f013 0102 	ands.w	r1, r3, #2
    5964:	d006      	beq.n	5974 <_adc_interrupt_handler+0x3c>
    5966:	2302      	movs	r3, #2
    5968:	f882 302e 	strb.w	r3, [r2, #46]	; 0x2e
    596c:	6843      	ldr	r3, [r0, #4]
    596e:	4629      	mov	r1, r5
    5970:	bc30      	pop	{r4, r5}
    5972:	4718      	bx	r3
    5974:	075b      	lsls	r3, r3, #29
    5976:	d504      	bpl.n	5982 <_adc_interrupt_handler+0x4a>
    5978:	2304      	movs	r3, #4
    597a:	f882 302e 	strb.w	r3, [r2, #46]	; 0x2e
    597e:	6803      	ldr	r3, [r0, #0]
    5980:	e7f6      	b.n	5970 <_adc_interrupt_handler+0x38>
    5982:	bc30      	pop	{r4, r5}
    5984:	4770      	bx	lr

00005986 <_adc_get_irq_num.isra.0>:
    5986:	f100 403d 	add.w	r0, r0, #3170893824	; 0xbd000000
    598a:	f5a0 50e0 	sub.w	r0, r0, #7168	; 0x1c00
    598e:	0a80      	lsrs	r0, r0, #10
    5990:	0040      	lsls	r0, r0, #1
    5992:	3076      	adds	r0, #118	; 0x76
    5994:	f000 00fe 	and.w	r0, r0, #254	; 0xfe
    5998:	4770      	bx	lr
	...

0000599c <_adc_init>:
    599c:	b538      	push	{r3, r4, r5, lr}
    599e:	6b03      	ldr	r3, [r0, #48]	; 0x30
    59a0:	4c2d      	ldr	r4, [pc, #180]	; (5a58 <_adc_init+0xbc>)
    59a2:	f013 0f01 	tst.w	r3, #1
    59a6:	4602      	mov	r2, r0
    59a8:	460d      	mov	r5, r1
    59aa:	d10d      	bne.n	59c8 <_adc_init+0x2c>
    59ac:	2103      	movs	r1, #3
    59ae:	47a0      	blx	r4
    59b0:	8803      	ldrh	r3, [r0, #0]
    59b2:	079b      	lsls	r3, r3, #30
    59b4:	d503      	bpl.n	59be <_adc_init+0x22>
    59b6:	4b29      	ldr	r3, [pc, #164]	; (5a5c <_adc_init+0xc0>)
    59b8:	4798      	blx	r3
    59ba:	2102      	movs	r1, #2
    59bc:	47a0      	blx	r4
    59be:	2301      	movs	r3, #1
    59c0:	8013      	strh	r3, [r2, #0]
    59c2:	2103      	movs	r1, #3
    59c4:	4610      	mov	r0, r2
    59c6:	47a0      	blx	r4
    59c8:	4610      	mov	r0, r2
    59ca:	2101      	movs	r1, #1
    59cc:	47a0      	blx	r4
    59ce:	4b24      	ldr	r3, [pc, #144]	; (5a60 <_adc_init+0xc4>)
    59d0:	2116      	movs	r1, #22
    59d2:	fb01 3505 	mla	r5, r1, r5, r3
    59d6:	4610      	mov	r0, r2
    59d8:	88ab      	ldrh	r3, [r5, #4]
    59da:	80d3      	strh	r3, [r2, #6]
    59dc:	f640 71ff 	movw	r1, #4095	; 0xfff
    59e0:	47a0      	blx	r4
    59e2:	79ab      	ldrb	r3, [r5, #6]
    59e4:	7213      	strb	r3, [r2, #8]
    59e6:	4610      	mov	r0, r2
    59e8:	f640 71ff 	movw	r1, #4095	; 0xfff
    59ec:	47a0      	blx	r4
    59ee:	79eb      	ldrb	r3, [r5, #7]
    59f0:	7093      	strb	r3, [r2, #2]
    59f2:	892b      	ldrh	r3, [r5, #8]
    59f4:	8093      	strh	r3, [r2, #4]
    59f6:	4610      	mov	r0, r2
    59f8:	f640 71ff 	movw	r1, #4095	; 0xfff
    59fc:	47a0      	blx	r4
    59fe:	7aab      	ldrb	r3, [r5, #10]
    5a00:	7293      	strb	r3, [r2, #10]
    5a02:	4610      	mov	r0, r2
    5a04:	f640 71ff 	movw	r1, #4095	; 0xfff
    5a08:	47a0      	blx	r4
    5a0a:	7aeb      	ldrb	r3, [r5, #11]
    5a0c:	72d3      	strb	r3, [r2, #11]
    5a0e:	4610      	mov	r0, r2
    5a10:	f640 71ff 	movw	r1, #4095	; 0xfff
    5a14:	47a0      	blx	r4
    5a16:	89ab      	ldrh	r3, [r5, #12]
    5a18:	8193      	strh	r3, [r2, #12]
    5a1a:	4610      	mov	r0, r2
    5a1c:	2180      	movs	r1, #128	; 0x80
    5a1e:	47a0      	blx	r4
    5a20:	89eb      	ldrh	r3, [r5, #14]
    5a22:	81d3      	strh	r3, [r2, #14]
    5a24:	4610      	mov	r0, r2
    5a26:	f44f 7180 	mov.w	r1, #256	; 0x100
    5a2a:	47a0      	blx	r4
    5a2c:	8a2b      	ldrh	r3, [r5, #16]
    5a2e:	8213      	strh	r3, [r2, #16]
    5a30:	4610      	mov	r0, r2
    5a32:	f44f 7100 	mov.w	r1, #512	; 0x200
    5a36:	47a0      	blx	r4
    5a38:	8a6b      	ldrh	r3, [r5, #18]
    5a3a:	8253      	strh	r3, [r2, #18]
    5a3c:	4610      	mov	r0, r2
    5a3e:	f44f 6180 	mov.w	r1, #1024	; 0x400
    5a42:	47a0      	blx	r4
    5a44:	7d2b      	ldrb	r3, [r5, #20]
    5a46:	70d3      	strb	r3, [r2, #3]
    5a48:	886b      	ldrh	r3, [r5, #2]
    5a4a:	8013      	strh	r3, [r2, #0]
    5a4c:	4610      	mov	r0, r2
    5a4e:	2103      	movs	r1, #3
    5a50:	47a0      	blx	r4
    5a52:	2000      	movs	r0, #0
    5a54:	bd38      	pop	{r3, r4, r5, pc}
    5a56:	bf00      	nop
    5a58:	000058f1 	.word	0x000058f1
    5a5c:	0000590d 	.word	0x0000590d
    5a60:	00009d82 	.word	0x00009d82

00005a64 <_adc_async_init>:
    5a64:	e92d 43f8 	stmdb	sp!, {r3, r4, r5, r6, r7, r8, r9, lr}
    5a68:	4b22      	ldr	r3, [pc, #136]	; (5af4 <_adc_async_init+0x90>)
    5a6a:	4604      	mov	r4, r0
    5a6c:	4608      	mov	r0, r1
    5a6e:	460d      	mov	r5, r1
    5a70:	4798      	blx	r3
    5a72:	4b21      	ldr	r3, [pc, #132]	; (5af8 <_adc_async_init+0x94>)
    5a74:	4601      	mov	r1, r0
    5a76:	4628      	mov	r0, r5
    5a78:	4798      	blx	r3
    5a7a:	4606      	mov	r6, r0
    5a7c:	2800      	cmp	r0, #0
    5a7e:	d130      	bne.n	5ae2 <_adc_async_init+0x7e>
    5a80:	4b1e      	ldr	r3, [pc, #120]	; (5afc <_adc_async_init+0x98>)
    5a82:	6165      	str	r5, [r4, #20]
    5a84:	429d      	cmp	r5, r3
    5a86:	d12f      	bne.n	5ae8 <_adc_async_init+0x84>
    5a88:	4b1d      	ldr	r3, [pc, #116]	; (5b00 <_adc_async_init+0x9c>)
    5a8a:	601c      	str	r4, [r3, #0]
    5a8c:	491d      	ldr	r1, [pc, #116]	; (5b04 <_adc_async_init+0xa0>)
    5a8e:	f8df 9080 	ldr.w	r9, [pc, #128]	; 5b10 <_adc_async_init+0xac>
    5a92:	f8df 8080 	ldr.w	r8, [pc, #128]	; 5b14 <_adc_async_init+0xb0>
    5a96:	4f1c      	ldr	r7, [pc, #112]	; (5b08 <_adc_async_init+0xa4>)
    5a98:	4628      	mov	r0, r5
    5a9a:	4788      	blx	r1
    5a9c:	b200      	sxth	r0, r0
    5a9e:	47c8      	blx	r9
    5aa0:	6960      	ldr	r0, [r4, #20]
    5aa2:	4788      	blx	r1
    5aa4:	b200      	sxth	r0, r0
    5aa6:	47c0      	blx	r8
    5aa8:	6960      	ldr	r0, [r4, #20]
    5aaa:	4788      	blx	r1
    5aac:	2501      	movs	r5, #1
    5aae:	0942      	lsrs	r2, r0, #5
    5ab0:	f000 031f 	and.w	r3, r0, #31
    5ab4:	fa05 f303 	lsl.w	r3, r5, r3
    5ab8:	4428      	add	r0, r5
    5aba:	f847 3022 	str.w	r3, [r7, r2, lsl #2]
    5abe:	b200      	sxth	r0, r0
    5ac0:	47c8      	blx	r9
    5ac2:	6960      	ldr	r0, [r4, #20]
    5ac4:	4788      	blx	r1
    5ac6:	4428      	add	r0, r5
    5ac8:	b200      	sxth	r0, r0
    5aca:	47c0      	blx	r8
    5acc:	6960      	ldr	r0, [r4, #20]
    5ace:	4788      	blx	r1
    5ad0:	4428      	add	r0, r5
    5ad2:	b280      	uxth	r0, r0
    5ad4:	0943      	lsrs	r3, r0, #5
    5ad6:	f000 001f 	and.w	r0, r0, #31
    5ada:	fa05 f000 	lsl.w	r0, r5, r0
    5ade:	f847 0023 	str.w	r0, [r7, r3, lsl #2]
    5ae2:	4630      	mov	r0, r6
    5ae4:	e8bd 83f8 	ldmia.w	sp!, {r3, r4, r5, r6, r7, r8, r9, pc}
    5ae8:	4b08      	ldr	r3, [pc, #32]	; (5b0c <_adc_async_init+0xa8>)
    5aea:	429d      	cmp	r5, r3
    5aec:	bf04      	itt	eq
    5aee:	4b04      	ldreq	r3, [pc, #16]	; (5b00 <_adc_async_init+0x9c>)
    5af0:	605c      	streq	r4, [r3, #4]
    5af2:	e7cb      	b.n	5a8c <_adc_async_init+0x28>
    5af4:	00005925 	.word	0x00005925
    5af8:	0000599d 	.word	0x0000599d
    5afc:	43001c00 	.word	0x43001c00
    5b00:	20000618 	.word	0x20000618
    5b04:	00005987 	.word	0x00005987
    5b08:	e000e100 	.word	0xe000e100
    5b0c:	43002000 	.word	0x43002000
    5b10:	000058a9 	.word	0x000058a9
    5b14:	000058d1 	.word	0x000058d1

00005b18 <_adc_async_enable_channel>:
    5b18:	6940      	ldr	r0, [r0, #20]
    5b1a:	4b01      	ldr	r3, [pc, #4]	; (5b20 <_adc_async_enable_channel+0x8>)
    5b1c:	4718      	bx	r3
    5b1e:	bf00      	nop
    5b20:	000058f9 	.word	0x000058f9

00005b24 <_adc_async_get_data_size>:
    5b24:	6943      	ldr	r3, [r0, #20]
    5b26:	88db      	ldrh	r3, [r3, #6]
    5b28:	f3c3 03c1 	ubfx	r3, r3, #3, #2
    5b2c:	2b03      	cmp	r3, #3
    5b2e:	bf0c      	ite	eq
    5b30:	2001      	moveq	r0, #1
    5b32:	2002      	movne	r0, #2
    5b34:	4770      	bx	lr
	...

00005b38 <_adc_async_convert>:
    5b38:	6940      	ldr	r0, [r0, #20]
    5b3a:	7d03      	ldrb	r3, [r0, #20]
    5b3c:	f043 0302 	orr.w	r3, r3, #2
    5b40:	7503      	strb	r3, [r0, #20]
    5b42:	f640 71ff 	movw	r1, #4095	; 0xfff
    5b46:	4b01      	ldr	r3, [pc, #4]	; (5b4c <_adc_async_convert+0x14>)
    5b48:	4718      	bx	r3
    5b4a:	bf00      	nop
    5b4c:	000058f1 	.word	0x000058f1

00005b50 <_adc_async_set_irq_state>:
    5b50:	2a01      	cmp	r2, #1
    5b52:	6941      	ldr	r1, [r0, #20]
    5b54:	d104      	bne.n	5b60 <_adc_async_set_irq_state+0x10>
    5b56:	2204      	movs	r2, #4
    5b58:	b93b      	cbnz	r3, 5b6a <_adc_async_set_irq_state+0x1a>
    5b5a:	f881 202c 	strb.w	r2, [r1, #44]	; 0x2c
    5b5e:	4770      	bx	lr
    5b60:	2a02      	cmp	r2, #2
    5b62:	d0f9      	beq.n	5b58 <_adc_async_set_irq_state+0x8>
    5b64:	b91a      	cbnz	r2, 5b6e <_adc_async_set_irq_state+0x1e>
    5b66:	2201      	movs	r2, #1
    5b68:	e7f6      	b.n	5b58 <_adc_async_set_irq_state+0x8>
    5b6a:	f881 202d 	strb.w	r2, [r1, #45]	; 0x2d
    5b6e:	4770      	bx	lr

00005b70 <ADC0_1_Handler>:
    5b70:	4b01      	ldr	r3, [pc, #4]	; (5b78 <ADC0_1_Handler+0x8>)
    5b72:	6818      	ldr	r0, [r3, #0]
    5b74:	4b01      	ldr	r3, [pc, #4]	; (5b7c <ADC0_1_Handler+0xc>)
    5b76:	4718      	bx	r3
    5b78:	20000618 	.word	0x20000618
    5b7c:	00005939 	.word	0x00005939

00005b80 <ADC0_0_Handler>:
    5b80:	4b00      	ldr	r3, [pc, #0]	; (5b84 <ADC0_0_Handler+0x4>)
    5b82:	4718      	bx	r3
    5b84:	00005b71 	.word	0x00005b71

00005b88 <ADC1_1_Handler>:
    5b88:	4b01      	ldr	r3, [pc, #4]	; (5b90 <ADC1_1_Handler+0x8>)
    5b8a:	6858      	ldr	r0, [r3, #4]
    5b8c:	4b01      	ldr	r3, [pc, #4]	; (5b94 <ADC1_1_Handler+0xc>)
    5b8e:	4718      	bx	r3
    5b90:	20000618 	.word	0x20000618
    5b94:	00005939 	.word	0x00005939

00005b98 <ADC1_0_Handler>:
    5b98:	4b00      	ldr	r3, [pc, #0]	; (5b9c <ADC1_0_Handler+0x4>)
    5b9a:	4718      	bx	r3
    5b9c:	00005b89 	.word	0x00005b89

00005ba0 <_get_cycles_for_us>:
    5ba0:	2378      	movs	r3, #120	; 0x78
    5ba2:	4358      	muls	r0, r3
    5ba4:	4770      	bx	lr
	...

00005ba8 <_get_cycles_for_ms>:
    5ba8:	4b01      	ldr	r3, [pc, #4]	; (5bb0 <_get_cycles_for_ms+0x8>)
    5baa:	4358      	muls	r0, r3
    5bac:	4770      	bx	lr
    5bae:	bf00      	nop
    5bb0:	0001d4c0 	.word	0x0001d4c0

00005bb4 <_init_chip>:
    5bb4:	b510      	push	{r4, lr}
    5bb6:	4a0e      	ldr	r2, [pc, #56]	; (5bf0 <_init_chip+0x3c>)
    5bb8:	4c0e      	ldr	r4, [pc, #56]	; (5bf4 <_init_chip+0x40>)
    5bba:	8813      	ldrh	r3, [r2, #0]
    5bbc:	b29b      	uxth	r3, r3
    5bbe:	f443 63a0 	orr.w	r3, r3, #1280	; 0x500
    5bc2:	8013      	strh	r3, [r2, #0]
    5bc4:	4b0c      	ldr	r3, [pc, #48]	; (5bf8 <_init_chip+0x44>)
    5bc6:	4798      	blx	r3
    5bc8:	4b0c      	ldr	r3, [pc, #48]	; (5bfc <_init_chip+0x48>)
    5bca:	4798      	blx	r3
    5bcc:	4b0c      	ldr	r3, [pc, #48]	; (5c00 <_init_chip+0x4c>)
    5bce:	4798      	blx	r3
    5bd0:	2008      	movs	r0, #8
    5bd2:	47a0      	blx	r4
    5bd4:	4b0b      	ldr	r3, [pc, #44]	; (5c04 <_init_chip+0x50>)
    5bd6:	4798      	blx	r3
    5bd8:	f640 70f7 	movw	r0, #4087	; 0xff7
    5bdc:	47a0      	blx	r4
    5bde:	4a0a      	ldr	r2, [pc, #40]	; (5c08 <_init_chip+0x54>)
    5be0:	6913      	ldr	r3, [r2, #16]
    5be2:	f443 7300 	orr.w	r3, r3, #512	; 0x200
    5be6:	6113      	str	r3, [r2, #16]
    5be8:	e8bd 4010 	ldmia.w	sp!, {r4, lr}
    5bec:	4b07      	ldr	r3, [pc, #28]	; (5c0c <_init_chip+0x58>)
    5bee:	4718      	bx	r3
    5bf0:	41004000 	.word	0x41004000
    5bf4:	00005e69 	.word	0x00005e69
    5bf8:	00005f4d 	.word	0x00005f4d
    5bfc:	00005f6d 	.word	0x00005f6d
    5c00:	00005ec1 	.word	0x00005ec1
    5c04:	00005f71 	.word	0x00005f71
    5c08:	40000800 	.word	0x40000800
    5c0c:	00005c61 	.word	0x00005c61

00005c10 <_dmac_handler>:
    5c10:	b410      	push	{r4}
    5c12:	4b11      	ldr	r3, [pc, #68]	; (5c58 <_dmac_handler+0x48>)
    5c14:	4c11      	ldr	r4, [pc, #68]	; (5c5c <_dmac_handler+0x4c>)
    5c16:	8c19      	ldrh	r1, [r3, #32]
    5c18:	f001 011f 	and.w	r1, r1, #31
    5c1c:	eb03 1301 	add.w	r3, r3, r1, lsl #4
    5c20:	220c      	movs	r2, #12
    5c22:	434a      	muls	r2, r1
    5c24:	f893 104e 	ldrb.w	r1, [r3, #78]	; 0x4e
    5c28:	07c9      	lsls	r1, r1, #31
    5c2a:	eb04 0002 	add.w	r0, r4, r2
    5c2e:	d506      	bpl.n	5c3e <_dmac_handler+0x2e>
    5c30:	2201      	movs	r2, #1
    5c32:	f883 204e 	strb.w	r2, [r3, #78]	; 0x4e
    5c36:	6843      	ldr	r3, [r0, #4]
    5c38:	f85d 4b04 	ldr.w	r4, [sp], #4
    5c3c:	4718      	bx	r3
    5c3e:	f893 104e 	ldrb.w	r1, [r3, #78]	; 0x4e
    5c42:	0789      	lsls	r1, r1, #30
    5c44:	d504      	bpl.n	5c50 <_dmac_handler+0x40>
    5c46:	2102      	movs	r1, #2
    5c48:	f883 104e 	strb.w	r1, [r3, #78]	; 0x4e
    5c4c:	58a3      	ldr	r3, [r4, r2]
    5c4e:	e7f3      	b.n	5c38 <_dmac_handler+0x28>
    5c50:	f85d 4b04 	ldr.w	r4, [sp], #4
    5c54:	4770      	bx	lr
    5c56:	bf00      	nop
    5c58:	4100a000 	.word	0x4100a000
    5c5c:	20000620 	.word	0x20000620

00005c60 <_dma_init>:
    5c60:	b570      	push	{r4, r5, r6, lr}
    5c62:	4b2e      	ldr	r3, [pc, #184]	; (5d1c <_dma_init+0xbc>)
    5c64:	881a      	ldrh	r2, [r3, #0]
    5c66:	f022 0202 	bic.w	r2, r2, #2
    5c6a:	0412      	lsls	r2, r2, #16
    5c6c:	0c12      	lsrs	r2, r2, #16
    5c6e:	801a      	strh	r2, [r3, #0]
    5c70:	885a      	ldrh	r2, [r3, #2]
    5c72:	f422 527c 	bic.w	r2, r2, #16128	; 0x3f00
    5c76:	0412      	lsls	r2, r2, #16
    5c78:	0c12      	lsrs	r2, r2, #16
    5c7a:	805a      	strh	r2, [r3, #2]
    5c7c:	881a      	ldrh	r2, [r3, #0]
    5c7e:	b292      	uxth	r2, r2
    5c80:	f042 0201 	orr.w	r2, r2, #1
    5c84:	801a      	strh	r2, [r3, #0]
    5c86:	881a      	ldrh	r2, [r3, #0]
    5c88:	f012 0201 	ands.w	r2, r2, #1
    5c8c:	d1fb      	bne.n	5c86 <_dma_init+0x26>
    5c8e:	f44f 6170 	mov.w	r1, #3840	; 0xf00
    5c92:	8019      	strh	r1, [r3, #0]
    5c94:	7b59      	ldrb	r1, [r3, #13]
    5c96:	4822      	ldr	r0, [pc, #136]	; (5d20 <_dma_init+0xc0>)
    5c98:	f001 01fe 	and.w	r1, r1, #254	; 0xfe
    5c9c:	7359      	strb	r1, [r3, #13]
    5c9e:	4921      	ldr	r1, [pc, #132]	; (5d24 <_dma_init+0xc4>)
    5ca0:	615a      	str	r2, [r3, #20]
    5ca2:	6358      	str	r0, [r3, #52]	; 0x34
    5ca4:	6399      	str	r1, [r3, #56]	; 0x38
    5ca6:	4613      	mov	r3, r2
    5ca8:	491f      	ldr	r1, [pc, #124]	; (5d28 <_dma_init+0xc8>)
    5caa:	4602      	mov	r2, r0
    5cac:	461d      	mov	r5, r3
    5cae:	011c      	lsls	r4, r3, #4
    5cb0:	f104 4082 	add.w	r0, r4, #1090519040	; 0x41000000
    5cb4:	f500 4020 	add.w	r0, r0, #40960	; 0xa000
    5cb8:	680e      	ldr	r6, [r1, #0]
    5cba:	6406      	str	r6, [r0, #64]	; 0x40
    5cbc:	790e      	ldrb	r6, [r1, #4]
    5cbe:	f880 6045 	strb.w	r6, [r0, #69]	; 0x45
    5cc2:	794e      	ldrb	r6, [r1, #5]
    5cc4:	f880 6046 	strb.w	r6, [r0, #70]	; 0x46
    5cc8:	3301      	adds	r3, #1
    5cca:	1910      	adds	r0, r2, r4
    5ccc:	88ce      	ldrh	r6, [r1, #6]
    5cce:	5316      	strh	r6, [r2, r4]
    5cd0:	2b20      	cmp	r3, #32
    5cd2:	60c5      	str	r5, [r0, #12]
    5cd4:	f101 0108 	add.w	r1, r1, #8
    5cd8:	d1e9      	bne.n	5cae <_dma_init+0x4e>
    5cda:	221f      	movs	r2, #31
    5cdc:	2001      	movs	r0, #1
    5cde:	0953      	lsrs	r3, r2, #5
    5ce0:	009b      	lsls	r3, r3, #2
    5ce2:	f103 4360 	add.w	r3, r3, #3758096384	; 0xe0000000
    5ce6:	f002 011f 	and.w	r1, r2, #31
    5cea:	f503 4361 	add.w	r3, r3, #57600	; 0xe100
    5cee:	fa00 f101 	lsl.w	r1, r0, r1
    5cf2:	f8c3 1080 	str.w	r1, [r3, #128]	; 0x80
    5cf6:	f3bf 8f4f 	dsb	sy
    5cfa:	f3bf 8f6f 	isb	sy
    5cfe:	3201      	adds	r2, #1
    5d00:	2a24      	cmp	r2, #36	; 0x24
    5d02:	f8c3 1180 	str.w	r1, [r3, #384]	; 0x180
    5d06:	6019      	str	r1, [r3, #0]
    5d08:	d1e9      	bne.n	5cde <_dma_init+0x7e>
    5d0a:	4a04      	ldr	r2, [pc, #16]	; (5d1c <_dma_init+0xbc>)
    5d0c:	8813      	ldrh	r3, [r2, #0]
    5d0e:	b29b      	uxth	r3, r3
    5d10:	f043 0302 	orr.w	r3, r3, #2
    5d14:	8013      	strh	r3, [r2, #0]
    5d16:	2000      	movs	r0, #0
    5d18:	bd70      	pop	{r4, r5, r6, pc}
    5d1a:	bf00      	nop
    5d1c:	4100a000 	.word	0x4100a000
    5d20:	20001380 	.word	0x20001380
    5d24:	20001580 	.word	0x20001580
    5d28:	00009db0 	.word	0x00009db0

00005d2c <_dma_set_irq_state>:
    5d2c:	b939      	cbnz	r1, 5d3e <_dma_set_irq_state+0x12>
    5d2e:	4b08      	ldr	r3, [pc, #32]	; (5d50 <_dma_set_irq_state+0x24>)
    5d30:	0100      	lsls	r0, r0, #4
    5d32:	2102      	movs	r1, #2
    5d34:	4418      	add	r0, r3
    5d36:	b93a      	cbnz	r2, 5d48 <_dma_set_irq_state+0x1c>
    5d38:	f880 104c 	strb.w	r1, [r0, #76]	; 0x4c
    5d3c:	4770      	bx	lr
    5d3e:	2901      	cmp	r1, #1
    5d40:	d104      	bne.n	5d4c <_dma_set_irq_state+0x20>
    5d42:	4b03      	ldr	r3, [pc, #12]	; (5d50 <_dma_set_irq_state+0x24>)
    5d44:	0100      	lsls	r0, r0, #4
    5d46:	e7f5      	b.n	5d34 <_dma_set_irq_state+0x8>
    5d48:	f880 104d 	strb.w	r1, [r0, #77]	; 0x4d
    5d4c:	4770      	bx	lr
    5d4e:	bf00      	nop
    5d50:	4100a000 	.word	0x4100a000

00005d54 <_dma_set_destination_address>:
    5d54:	4b02      	ldr	r3, [pc, #8]	; (5d60 <_dma_set_destination_address+0xc>)
    5d56:	eb03 1000 	add.w	r0, r3, r0, lsl #4
    5d5a:	6081      	str	r1, [r0, #8]
    5d5c:	2000      	movs	r0, #0
    5d5e:	4770      	bx	lr
    5d60:	20001380 	.word	0x20001380

00005d64 <_dma_set_source_address>:
    5d64:	4b02      	ldr	r3, [pc, #8]	; (5d70 <_dma_set_source_address+0xc>)
    5d66:	eb03 1000 	add.w	r0, r3, r0, lsl #4
    5d6a:	6041      	str	r1, [r0, #4]
    5d6c:	2000      	movs	r0, #0
    5d6e:	4770      	bx	lr
    5d70:	20001380 	.word	0x20001380

00005d74 <_dma_srcinc_enable>:
    5d74:	4a05      	ldr	r2, [pc, #20]	; (5d8c <_dma_srcinc_enable+0x18>)
    5d76:	0100      	lsls	r0, r0, #4
    5d78:	5a13      	ldrh	r3, [r2, r0]
    5d7a:	b29b      	uxth	r3, r3
    5d7c:	f423 6380 	bic.w	r3, r3, #1024	; 0x400
    5d80:	ea43 2181 	orr.w	r1, r3, r1, lsl #10
    5d84:	b289      	uxth	r1, r1
    5d86:	5211      	strh	r1, [r2, r0]
    5d88:	2000      	movs	r0, #0
    5d8a:	4770      	bx	lr
    5d8c:	20001380 	.word	0x20001380

00005d90 <_dma_set_data_amount>:
    5d90:	b570      	push	{r4, r5, r6, lr}
    5d92:	4b0f      	ldr	r3, [pc, #60]	; (5dd0 <_dma_set_data_amount+0x40>)
    5d94:	0100      	lsls	r0, r0, #4
    5d96:	181d      	adds	r5, r3, r0
    5d98:	68ae      	ldr	r6, [r5, #8]
    5d9a:	5a1a      	ldrh	r2, [r3, r0]
    5d9c:	5a1c      	ldrh	r4, [r3, r0]
    5d9e:	f3c2 2201 	ubfx	r2, r2, #8, #2
    5da2:	0524      	lsls	r4, r4, #20
    5da4:	bf42      	ittt	mi
    5da6:	fa01 f402 	lslmi.w	r4, r1, r2
    5daa:	19a4      	addmi	r4, r4, r6
    5dac:	60ac      	strmi	r4, [r5, #8]
    5dae:	181c      	adds	r4, r3, r0
    5db0:	6865      	ldr	r5, [r4, #4]
    5db2:	5a1e      	ldrh	r6, [r3, r0]
    5db4:	0576      	lsls	r6, r6, #21
    5db6:	bf48      	it	mi
    5db8:	fa01 f202 	lslmi.w	r2, r1, r2
    5dbc:	4403      	add	r3, r0
    5dbe:	bf48      	it	mi
    5dc0:	1952      	addmi	r2, r2, r5
    5dc2:	b289      	uxth	r1, r1
    5dc4:	bf48      	it	mi
    5dc6:	6062      	strmi	r2, [r4, #4]
    5dc8:	8059      	strh	r1, [r3, #2]
    5dca:	2000      	movs	r0, #0
    5dcc:	bd70      	pop	{r4, r5, r6, pc}
    5dce:	bf00      	nop
    5dd0:	20001380 	.word	0x20001380

00005dd4 <_dma_enable_transaction>:
    5dd4:	b510      	push	{r4, lr}
    5dd6:	0102      	lsls	r2, r0, #4
    5dd8:	4c0b      	ldr	r4, [pc, #44]	; (5e08 <_dma_enable_transaction+0x34>)
    5dda:	5aa3      	ldrh	r3, [r4, r2]
    5ddc:	b29b      	uxth	r3, r3
    5dde:	f043 0301 	orr.w	r3, r3, #1
    5de2:	52a3      	strh	r3, [r4, r2]
    5de4:	f102 4382 	add.w	r3, r2, #1090519040	; 0x41000000
    5de8:	f503 4320 	add.w	r3, r3, #40960	; 0xa000
    5dec:	6c1a      	ldr	r2, [r3, #64]	; 0x40
    5dee:	f042 0202 	orr.w	r2, r2, #2
    5df2:	641a      	str	r2, [r3, #64]	; 0x40
    5df4:	b131      	cbz	r1, 5e04 <_dma_enable_transaction+0x30>
    5df6:	4a05      	ldr	r2, [pc, #20]	; (5e0c <_dma_enable_transaction+0x38>)
    5df8:	2301      	movs	r3, #1
    5dfa:	6911      	ldr	r1, [r2, #16]
    5dfc:	fa03 f000 	lsl.w	r0, r3, r0
    5e00:	4308      	orrs	r0, r1
    5e02:	6110      	str	r0, [r2, #16]
    5e04:	2000      	movs	r0, #0
    5e06:	bd10      	pop	{r4, pc}
    5e08:	20001380 	.word	0x20001380
    5e0c:	4100a000 	.word	0x4100a000

00005e10 <_dma_get_channel_resource>:
    5e10:	4b03      	ldr	r3, [pc, #12]	; (5e20 <_dma_get_channel_resource+0x10>)
    5e12:	eb01 0141 	add.w	r1, r1, r1, lsl #1
    5e16:	eb03 0181 	add.w	r1, r3, r1, lsl #2
    5e1a:	6001      	str	r1, [r0, #0]
    5e1c:	2000      	movs	r0, #0
    5e1e:	4770      	bx	lr
    5e20:	20000620 	.word	0x20000620

00005e24 <DMAC_0_Handler>:
    5e24:	4b00      	ldr	r3, [pc, #0]	; (5e28 <DMAC_0_Handler+0x4>)
    5e26:	4718      	bx	r3
    5e28:	00005c11 	.word	0x00005c11

00005e2c <DMAC_1_Handler>:
    5e2c:	4b00      	ldr	r3, [pc, #0]	; (5e30 <DMAC_1_Handler+0x4>)
    5e2e:	4718      	bx	r3
    5e30:	00005c11 	.word	0x00005c11

00005e34 <DMAC_2_Handler>:
    5e34:	4b00      	ldr	r3, [pc, #0]	; (5e38 <DMAC_2_Handler+0x4>)
    5e36:	4718      	bx	r3
    5e38:	00005c11 	.word	0x00005c11

00005e3c <DMAC_3_Handler>:
    5e3c:	4b00      	ldr	r3, [pc, #0]	; (5e40 <DMAC_3_Handler+0x4>)
    5e3e:	4718      	bx	r3
    5e40:	00005c11 	.word	0x00005c11

00005e44 <DMAC_4_Handler>:
    5e44:	4b00      	ldr	r3, [pc, #0]	; (5e48 <DMAC_4_Handler+0x4>)
    5e46:	4718      	bx	r3
    5e48:	00005c11 	.word	0x00005c11

00005e4c <_crc_sync_init>:
    5e4c:	6001      	str	r1, [r0, #0]
    5e4e:	2000      	movs	r0, #0
    5e50:	4770      	bx	lr
	...

00005e54 <hri_gclk_wait_for_sync.constprop.0>:
    5e54:	4903      	ldr	r1, [pc, #12]	; (5e64 <hri_gclk_wait_for_sync.constprop.0+0x10>)
    5e56:	f643 73fd 	movw	r3, #16381	; 0x3ffd
    5e5a:	684a      	ldr	r2, [r1, #4]
    5e5c:	421a      	tst	r2, r3
    5e5e:	d1fc      	bne.n	5e5a <hri_gclk_wait_for_sync.constprop.0+0x6>
    5e60:	4770      	bx	lr
    5e62:	bf00      	nop
    5e64:	40001c00 	.word	0x40001c00

00005e68 <_gclk_init_generators_by_fref>:
    5e68:	b510      	push	{r4, lr}
    5e6a:	07c4      	lsls	r4, r0, #31
    5e6c:	d504      	bpl.n	5e78 <_gclk_init_generators_by_fref+0x10>
    5e6e:	4b0e      	ldr	r3, [pc, #56]	; (5ea8 <_gclk_init_generators_by_fref+0x40>)
    5e70:	4a0e      	ldr	r2, [pc, #56]	; (5eac <_gclk_init_generators_by_fref+0x44>)
    5e72:	621a      	str	r2, [r3, #32]
    5e74:	4b0e      	ldr	r3, [pc, #56]	; (5eb0 <_gclk_init_generators_by_fref+0x48>)
    5e76:	4798      	blx	r3
    5e78:	0781      	lsls	r1, r0, #30
    5e7a:	d504      	bpl.n	5e86 <_gclk_init_generators_by_fref+0x1e>
    5e7c:	4b0a      	ldr	r3, [pc, #40]	; (5ea8 <_gclk_init_generators_by_fref+0x40>)
    5e7e:	4a0d      	ldr	r2, [pc, #52]	; (5eb4 <_gclk_init_generators_by_fref+0x4c>)
    5e80:	625a      	str	r2, [r3, #36]	; 0x24
    5e82:	4b0b      	ldr	r3, [pc, #44]	; (5eb0 <_gclk_init_generators_by_fref+0x48>)
    5e84:	4798      	blx	r3
    5e86:	0742      	lsls	r2, r0, #29
    5e88:	d504      	bpl.n	5e94 <_gclk_init_generators_by_fref+0x2c>
    5e8a:	4b07      	ldr	r3, [pc, #28]	; (5ea8 <_gclk_init_generators_by_fref+0x40>)
    5e8c:	4a0a      	ldr	r2, [pc, #40]	; (5eb8 <_gclk_init_generators_by_fref+0x50>)
    5e8e:	629a      	str	r2, [r3, #40]	; 0x28
    5e90:	4b07      	ldr	r3, [pc, #28]	; (5eb0 <_gclk_init_generators_by_fref+0x48>)
    5e92:	4798      	blx	r3
    5e94:	0703      	lsls	r3, r0, #28
    5e96:	d506      	bpl.n	5ea6 <_gclk_init_generators_by_fref+0x3e>
    5e98:	4b03      	ldr	r3, [pc, #12]	; (5ea8 <_gclk_init_generators_by_fref+0x40>)
    5e9a:	4a08      	ldr	r2, [pc, #32]	; (5ebc <_gclk_init_generators_by_fref+0x54>)
    5e9c:	62da      	str	r2, [r3, #44]	; 0x2c
    5e9e:	e8bd 4010 	ldmia.w	sp!, {r4, lr}
    5ea2:	4b03      	ldr	r3, [pc, #12]	; (5eb0 <_gclk_init_generators_by_fref+0x48>)
    5ea4:	4718      	bx	r3
    5ea6:	bd10      	pop	{r4, pc}
    5ea8:	40001c00 	.word	0x40001c00
    5eac:	00010107 	.word	0x00010107
    5eb0:	00005e55 	.word	0x00005e55
    5eb4:	00010106 	.word	0x00010106
    5eb8:	00100106 	.word	0x00100106
    5ebc:	00010105 	.word	0x00010105

00005ec0 <_mclk_init>:
    5ec0:	4b01      	ldr	r3, [pc, #4]	; (5ec8 <_mclk_init+0x8>)
    5ec2:	2201      	movs	r2, #1
    5ec4:	715a      	strb	r2, [r3, #5]
    5ec6:	4770      	bx	lr
    5ec8:	40000800 	.word	0x40000800

00005ecc <_flash_init>:
    5ecc:	6101      	str	r1, [r0, #16]
    5ece:	880b      	ldrh	r3, [r1, #0]
    5ed0:	f023 03c0 	bic.w	r3, r3, #192	; 0xc0
    5ed4:	049b      	lsls	r3, r3, #18
    5ed6:	0c9b      	lsrs	r3, r3, #18
    5ed8:	800b      	strh	r3, [r1, #0]
    5eda:	4b0d      	ldr	r3, [pc, #52]	; (5f10 <_flash_init+0x44>)
    5edc:	6018      	str	r0, [r3, #0]
    5ede:	4b0d      	ldr	r3, [pc, #52]	; (5f14 <_flash_init+0x48>)
    5ee0:	f04f 5100 	mov.w	r1, #536870912	; 0x20000000
    5ee4:	f8c3 1080 	str.w	r1, [r3, #128]	; 0x80
    5ee8:	f3bf 8f4f 	dsb	sy
    5eec:	f3bf 8f6f 	isb	sy
    5ef0:	f04f 4280 	mov.w	r2, #1073741824	; 0x40000000
    5ef4:	f8c3 2080 	str.w	r2, [r3, #128]	; 0x80
    5ef8:	f3bf 8f4f 	dsb	sy
    5efc:	f3bf 8f6f 	isb	sy
    5f00:	2000      	movs	r0, #0
    5f02:	f8c3 1180 	str.w	r1, [r3, #384]	; 0x180
    5f06:	f8c3 2180 	str.w	r2, [r3, #384]	; 0x180
    5f0a:	6019      	str	r1, [r3, #0]
    5f0c:	601a      	str	r2, [r3, #0]
    5f0e:	4770      	bx	lr
    5f10:	200007a0 	.word	0x200007a0
    5f14:	e000e100 	.word	0xe000e100

00005f18 <NVMCTRL_1_Handler>:
    5f18:	4b09      	ldr	r3, [pc, #36]	; (5f40 <NVMCTRL_1_Handler+0x28>)
    5f1a:	6818      	ldr	r0, [r3, #0]
    5f1c:	6903      	ldr	r3, [r0, #16]
    5f1e:	8a1a      	ldrh	r2, [r3, #16]
    5f20:	07d2      	lsls	r2, r2, #31
    5f22:	d504      	bpl.n	5f2e <NVMCTRL_1_Handler+0x16>
    5f24:	2201      	movs	r2, #1
    5f26:	821a      	strh	r2, [r3, #16]
    5f28:	6803      	ldr	r3, [r0, #0]
    5f2a:	b143      	cbz	r3, 5f3e <NVMCTRL_1_Handler+0x26>
    5f2c:	4718      	bx	r3
    5f2e:	8a1a      	ldrh	r2, [r3, #16]
    5f30:	b292      	uxth	r2, r2
    5f32:	b122      	cbz	r2, 5f3e <NVMCTRL_1_Handler+0x26>
    5f34:	f240 225e 	movw	r2, #606	; 0x25e
    5f38:	821a      	strh	r2, [r3, #16]
    5f3a:	6843      	ldr	r3, [r0, #4]
    5f3c:	e7f5      	b.n	5f2a <NVMCTRL_1_Handler+0x12>
    5f3e:	4770      	bx	lr
    5f40:	200007a0 	.word	0x200007a0

00005f44 <NVMCTRL_0_Handler>:
    5f44:	4b00      	ldr	r3, [pc, #0]	; (5f48 <NVMCTRL_0_Handler+0x4>)
    5f46:	4718      	bx	r3
    5f48:	00005f19 	.word	0x00005f19

00005f4c <_osc32kctrl_init_sources>:
    5f4c:	4b06      	ldr	r3, [pc, #24]	; (5f68 <_osc32kctrl_init_sources+0x1c>)
    5f4e:	f242 328e 	movw	r2, #9102	; 0x238e
    5f52:	829a      	strh	r2, [r3, #20]
    5f54:	2200      	movs	r2, #0
    5f56:	759a      	strb	r2, [r3, #22]
    5f58:	75da      	strb	r2, [r3, #23]
    5f5a:	69da      	ldr	r2, [r3, #28]
    5f5c:	f402 527c 	and.w	r2, r2, #16128	; 0x3f00
    5f60:	61da      	str	r2, [r3, #28]
    5f62:	2201      	movs	r2, #1
    5f64:	741a      	strb	r2, [r3, #16]
    5f66:	4770      	bx	lr
    5f68:	40001400 	.word	0x40001400

00005f6c <_oscctrl_init_sources>:
    5f6c:	4770      	bx	lr
	...

00005f70 <_oscctrl_init_referenced_generators>:
    5f70:	4b39      	ldr	r3, [pc, #228]	; (6058 <_oscctrl_init_referenced_generators+0xe8>)
    5f72:	6a1a      	ldr	r2, [r3, #32]
    5f74:	f022 020f 	bic.w	r2, r2, #15
    5f78:	f042 0204 	orr.w	r2, r2, #4
    5f7c:	621a      	str	r2, [r3, #32]
    5f7e:	f643 72fd 	movw	r2, #16381	; 0x3ffd
    5f82:	6859      	ldr	r1, [r3, #4]
    5f84:	4211      	tst	r1, r2
    5f86:	d1fc      	bne.n	5f82 <_oscctrl_init_referenced_generators+0x12>
    5f88:	685a      	ldr	r2, [r3, #4]
    5f8a:	f012 0204 	ands.w	r2, r2, #4
    5f8e:	d1fb      	bne.n	5f88 <_oscctrl_init_referenced_generators+0x18>
    5f90:	4b32      	ldr	r3, [pc, #200]	; (605c <_oscctrl_init_referenced_generators+0xec>)
    5f92:	771a      	strb	r2, [r3, #28]
    5f94:	4a32      	ldr	r2, [pc, #200]	; (6060 <_oscctrl_init_referenced_generators+0xf0>)
    5f96:	629a      	str	r2, [r3, #40]	; 0x28
    5f98:	f893 202c 	ldrb.w	r2, [r3, #44]	; 0x2c
    5f9c:	f012 0210 	ands.w	r2, r2, #16
    5fa0:	d1fa      	bne.n	5f98 <_oscctrl_init_referenced_generators+0x28>
    5fa2:	f883 2020 	strb.w	r2, [r3, #32]
    5fa6:	4a2d      	ldr	r2, [pc, #180]	; (605c <_oscctrl_init_referenced_generators+0xec>)
    5fa8:	4613      	mov	r3, r2
    5faa:	f892 102c 	ldrb.w	r1, [r2, #44]	; 0x2c
    5fae:	0749      	lsls	r1, r1, #29
    5fb0:	d4fb      	bmi.n	5faa <_oscctrl_init_referenced_generators+0x3a>
    5fb2:	2102      	movs	r1, #2
    5fb4:	7711      	strb	r1, [r2, #28]
    5fb6:	f893 202c 	ldrb.w	r2, [r3, #44]	; 0x2c
    5fba:	0792      	lsls	r2, r2, #30
    5fbc:	d4fb      	bmi.n	5fb6 <_oscctrl_init_referenced_generators+0x46>
    5fbe:	6a5a      	ldr	r2, [r3, #36]	; 0x24
    5fc0:	625a      	str	r2, [r3, #36]	; 0x24
    5fc2:	4b26      	ldr	r3, [pc, #152]	; (605c <_oscctrl_init_referenced_generators+0xec>)
    5fc4:	461a      	mov	r2, r3
    5fc6:	f893 102c 	ldrb.w	r1, [r3, #44]	; 0x2c
    5fca:	0708      	lsls	r0, r1, #28
    5fcc:	d4fb      	bmi.n	5fc6 <_oscctrl_init_referenced_generators+0x56>
    5fce:	2180      	movs	r1, #128	; 0x80
    5fd0:	f883 1020 	strb.w	r1, [r3, #32]
    5fd4:	f892 302c 	ldrb.w	r3, [r2, #44]	; 0x2c
    5fd8:	0759      	lsls	r1, r3, #29
    5fda:	d4fb      	bmi.n	5fd4 <_oscctrl_init_referenced_generators+0x64>
    5fdc:	4b21      	ldr	r3, [pc, #132]	; (6064 <_oscctrl_init_referenced_generators+0xf4>)
    5fde:	6353      	str	r3, [r2, #52]	; 0x34
    5fe0:	4b1e      	ldr	r3, [pc, #120]	; (605c <_oscctrl_init_referenced_generators+0xec>)
    5fe2:	461a      	mov	r2, r3
    5fe4:	6bd9      	ldr	r1, [r3, #60]	; 0x3c
    5fe6:	f011 0f06 	tst.w	r1, #6
    5fea:	d1fb      	bne.n	5fe4 <_oscctrl_init_referenced_generators+0x74>
    5fec:	f44f 6102 	mov.w	r1, #2080	; 0x820
    5ff0:	6399      	str	r1, [r3, #56]	; 0x38
    5ff2:	2102      	movs	r1, #2
    5ff4:	f883 1030 	strb.w	r1, [r3, #48]	; 0x30
    5ff8:	6bd3      	ldr	r3, [r2, #60]	; 0x3c
    5ffa:	079b      	lsls	r3, r3, #30
    5ffc:	d4fc      	bmi.n	5ff8 <_oscctrl_init_referenced_generators+0x88>
    5ffe:	f892 3020 	ldrb.w	r3, [r2, #32]
    6002:	4a16      	ldr	r2, [pc, #88]	; (605c <_oscctrl_init_referenced_generators+0xec>)
    6004:	f013 0f01 	tst.w	r3, #1
    6008:	d021      	beq.n	604e <_oscctrl_init_referenced_generators+0xde>
    600a:	6913      	ldr	r3, [r2, #16]
    600c:	f403 6310 	and.w	r3, r3, #2304	; 0x900
    6010:	f5b3 6f10 	cmp.w	r3, #2304	; 0x900
    6014:	d1f9      	bne.n	600a <_oscctrl_init_referenced_generators+0x9a>
    6016:	4b11      	ldr	r3, [pc, #68]	; (605c <_oscctrl_init_referenced_generators+0xec>)
    6018:	6c1a      	ldr	r2, [r3, #64]	; 0x40
    601a:	07d1      	lsls	r1, r2, #31
    601c:	d402      	bmi.n	6024 <_oscctrl_init_referenced_generators+0xb4>
    601e:	6c1a      	ldr	r2, [r3, #64]	; 0x40
    6020:	0792      	lsls	r2, r2, #30
    6022:	d5f9      	bpl.n	6018 <_oscctrl_init_referenced_generators+0xa8>
    6024:	4a0c      	ldr	r2, [pc, #48]	; (6058 <_oscctrl_init_referenced_generators+0xe8>)
    6026:	4611      	mov	r1, r2
    6028:	6853      	ldr	r3, [r2, #4]
    602a:	2b00      	cmp	r3, #0
    602c:	d1fc      	bne.n	6028 <_oscctrl_init_referenced_generators+0xb8>
    602e:	6a13      	ldr	r3, [r2, #32]
    6030:	f023 030f 	bic.w	r3, r3, #15
    6034:	f043 0307 	orr.w	r3, r3, #7
    6038:	6213      	str	r3, [r2, #32]
    603a:	f643 73fd 	movw	r3, #16381	; 0x3ffd
    603e:	684a      	ldr	r2, [r1, #4]
    6040:	421a      	tst	r2, r3
    6042:	d1fc      	bne.n	603e <_oscctrl_init_referenced_generators+0xce>
    6044:	4a04      	ldr	r2, [pc, #16]	; (6058 <_oscctrl_init_referenced_generators+0xe8>)
    6046:	6853      	ldr	r3, [r2, #4]
    6048:	075b      	lsls	r3, r3, #29
    604a:	d4fc      	bmi.n	6046 <_oscctrl_init_referenced_generators+0xd6>
    604c:	4770      	bx	lr
    604e:	6913      	ldr	r3, [r2, #16]
    6050:	05d8      	lsls	r0, r3, #23
    6052:	d5fc      	bpl.n	604e <_oscctrl_init_referenced_generators+0xde>
    6054:	e7df      	b.n	6016 <_oscctrl_init_referenced_generators+0xa6>
    6056:	bf00      	nop
    6058:	40001c00 	.word	0x40001c00
    605c:	40001000 	.word	0x40001000
    6060:	04010000 	.word	0x04010000
    6064:	000d0e4e 	.word	0x000d0e4e

00006068 <RAMECC_Handler>:
    6068:	b507      	push	{r0, r1, r2, lr}
    606a:	4a0c      	ldr	r2, [pc, #48]	; (609c <RAMECC_Handler+0x34>)
    606c:	7893      	ldrb	r3, [r2, #2]
    606e:	b2db      	uxtb	r3, r3
    6070:	9301      	str	r3, [sp, #4]
    6072:	9b01      	ldr	r3, [sp, #4]
    6074:	0799      	lsls	r1, r3, #30
    6076:	d507      	bpl.n	6088 <RAMECC_Handler+0x20>
    6078:	4b09      	ldr	r3, [pc, #36]	; (60a0 <RAMECC_Handler+0x38>)
    607a:	681b      	ldr	r3, [r3, #0]
    607c:	b123      	cbz	r3, 6088 <RAMECC_Handler+0x20>
    607e:	6850      	ldr	r0, [r2, #4]
    6080:	4798      	blx	r3
    6082:	b003      	add	sp, #12
    6084:	f85d fb04 	ldr.w	pc, [sp], #4
    6088:	9b01      	ldr	r3, [sp, #4]
    608a:	07db      	lsls	r3, r3, #31
    608c:	d5f9      	bpl.n	6082 <RAMECC_Handler+0x1a>
    608e:	4b04      	ldr	r3, [pc, #16]	; (60a0 <RAMECC_Handler+0x38>)
    6090:	685b      	ldr	r3, [r3, #4]
    6092:	2b00      	cmp	r3, #0
    6094:	d0f5      	beq.n	6082 <RAMECC_Handler+0x1a>
    6096:	4a01      	ldr	r2, [pc, #4]	; (609c <RAMECC_Handler+0x34>)
    6098:	e7f1      	b.n	607e <RAMECC_Handler+0x16>
    609a:	bf00      	nop
    609c:	41020000 	.word	0x41020000
    60a0:	20001780 	.word	0x20001780

000060a4 <hri_rtcmode0_wait_for_sync>:
    60a4:	6903      	ldr	r3, [r0, #16]
    60a6:	420b      	tst	r3, r1
    60a8:	d1fc      	bne.n	60a4 <hri_rtcmode0_wait_for_sync>
    60aa:	4770      	bx	lr

000060ac <_timer_init>:
    60ac:	4602      	mov	r2, r0
    60ae:	b538      	push	{r3, r4, r5, lr}
    60b0:	2501      	movs	r5, #1
    60b2:	60d1      	str	r1, [r2, #12]
    60b4:	4c0d      	ldr	r4, [pc, #52]	; (60ec <_timer_init+0x40>)
    60b6:	800d      	strh	r5, [r1, #0]
    60b8:	4608      	mov	r0, r1
    60ba:	f248 0103 	movw	r1, #32771	; 0x8003
    60be:	47a0      	blx	r4
    60c0:	4629      	mov	r1, r5
    60c2:	68d0      	ldr	r0, [r2, #12]
    60c4:	47a0      	blx	r4
    60c6:	68d0      	ldr	r0, [r2, #12]
    60c8:	f248 0380 	movw	r3, #32896	; 0x8080
    60cc:	8003      	strh	r3, [r0, #0]
    60ce:	f248 0103 	movw	r1, #32771	; 0x8003
    60d2:	47a0      	blx	r4
    60d4:	68d0      	ldr	r0, [r2, #12]
    60d6:	2160      	movs	r1, #96	; 0x60
    60d8:	6205      	str	r5, [r0, #32]
    60da:	47a0      	blx	r4
    60dc:	68d3      	ldr	r3, [r2, #12]
    60de:	f44f 7180 	mov.w	r1, #256	; 0x100
    60e2:	8159      	strh	r1, [r3, #10]
    60e4:	4b02      	ldr	r3, [pc, #8]	; (60f0 <_timer_init+0x44>)
    60e6:	2000      	movs	r0, #0
    60e8:	601a      	str	r2, [r3, #0]
    60ea:	bd38      	pop	{r3, r4, r5, pc}
    60ec:	000060a5 	.word	0x000060a5
    60f0:	200007a4 	.word	0x200007a4

000060f4 <_timer_start>:
    60f4:	4b0c      	ldr	r3, [pc, #48]	; (6128 <_timer_start+0x34>)
    60f6:	b510      	push	{r4, lr}
    60f8:	f44f 6200 	mov.w	r2, #2048	; 0x800
    60fc:	4604      	mov	r4, r0
    60fe:	68c0      	ldr	r0, [r0, #12]
    6100:	601a      	str	r2, [r3, #0]
    6102:	2300      	movs	r3, #0
    6104:	6183      	str	r3, [r0, #24]
    6106:	2108      	movs	r1, #8
    6108:	4a08      	ldr	r2, [pc, #32]	; (612c <_timer_start+0x38>)
    610a:	4790      	blx	r2
    610c:	68e0      	ldr	r0, [r4, #12]
    610e:	2108      	movs	r1, #8
    6110:	4790      	blx	r2
    6112:	68e0      	ldr	r0, [r4, #12]
    6114:	8803      	ldrh	r3, [r0, #0]
    6116:	b29b      	uxth	r3, r3
    6118:	f043 0302 	orr.w	r3, r3, #2
    611c:	8003      	strh	r3, [r0, #0]
    611e:	f248 0103 	movw	r1, #32771	; 0x8003
    6122:	e8bd 4010 	ldmia.w	sp!, {r4, lr}
    6126:	4710      	bx	r2
    6128:	e000e100 	.word	0xe000e100
    612c:	000060a5 	.word	0x000060a5

00006130 <_timer_is_started>:
    6130:	68c2      	ldr	r2, [r0, #12]
    6132:	b508      	push	{r3, lr}
    6134:	4610      	mov	r0, r2
    6136:	f248 0103 	movw	r1, #32771	; 0x8003
    613a:	4b03      	ldr	r3, [pc, #12]	; (6148 <_timer_is_started+0x18>)
    613c:	4798      	blx	r3
    613e:	8810      	ldrh	r0, [r2, #0]
    6140:	f3c0 0040 	ubfx	r0, r0, #1, #1
    6144:	bd08      	pop	{r3, pc}
    6146:	bf00      	nop
    6148:	000060a5 	.word	0x000060a5

0000614c <_timer_set_irq>:
    614c:	4770      	bx	lr

0000614e <_rtc_get_timer>:
    614e:	2000      	movs	r0, #0
    6150:	4770      	bx	lr
	...

00006154 <RTC_Handler>:
    6154:	4b07      	ldr	r3, [pc, #28]	; (6174 <RTC_Handler+0x20>)
    6156:	b510      	push	{r4, lr}
    6158:	681c      	ldr	r4, [r3, #0]
    615a:	68e3      	ldr	r3, [r4, #12]
    615c:	899b      	ldrh	r3, [r3, #12]
    615e:	05db      	lsls	r3, r3, #23
    6160:	d507      	bpl.n	6172 <RTC_Handler+0x1e>
    6162:	6823      	ldr	r3, [r4, #0]
    6164:	b10b      	cbz	r3, 616a <RTC_Handler+0x16>
    6166:	4620      	mov	r0, r4
    6168:	4798      	blx	r3
    616a:	68e3      	ldr	r3, [r4, #12]
    616c:	f44f 7280 	mov.w	r2, #256	; 0x100
    6170:	819a      	strh	r2, [r3, #12]
    6172:	bd10      	pop	{r4, pc}
    6174:	200007a4 	.word	0x200007a4

00006178 <__NVIC_EnableIRQ>:
    6178:	2800      	cmp	r0, #0
    617a:	db08      	blt.n	618e <__NVIC_EnableIRQ+0x16>
    617c:	0942      	lsrs	r2, r0, #5
    617e:	2301      	movs	r3, #1
    6180:	f000 001f 	and.w	r0, r0, #31
    6184:	fa03 f000 	lsl.w	r0, r3, r0
    6188:	4b01      	ldr	r3, [pc, #4]	; (6190 <__NVIC_EnableIRQ+0x18>)
    618a:	f843 0022 	str.w	r0, [r3, r2, lsl #2]
    618e:	4770      	bx	lr
    6190:	e000e100 	.word	0xe000e100

00006194 <__NVIC_DisableIRQ>:
    6194:	2800      	cmp	r0, #0
    6196:	db0d      	blt.n	61b4 <__NVIC_DisableIRQ+0x20>
    6198:	0943      	lsrs	r3, r0, #5
    619a:	2201      	movs	r2, #1
    619c:	f000 001f 	and.w	r0, r0, #31
    61a0:	fa02 f000 	lsl.w	r0, r2, r0
    61a4:	3320      	adds	r3, #32
    61a6:	4a04      	ldr	r2, [pc, #16]	; (61b8 <__NVIC_DisableIRQ+0x24>)
    61a8:	f842 0023 	str.w	r0, [r2, r3, lsl #2]
    61ac:	f3bf 8f4f 	dsb	sy
    61b0:	f3bf 8f6f 	isb	sy
    61b4:	4770      	bx	lr
    61b6:	bf00      	nop
    61b8:	e000e100 	.word	0xe000e100

000061bc <__NVIC_ClearPendingIRQ>:
    61bc:	2800      	cmp	r0, #0
    61be:	db09      	blt.n	61d4 <__NVIC_ClearPendingIRQ+0x18>
    61c0:	0943      	lsrs	r3, r0, #5
    61c2:	2201      	movs	r2, #1
    61c4:	f000 001f 	and.w	r0, r0, #31
    61c8:	fa02 f000 	lsl.w	r0, r2, r0
    61cc:	3360      	adds	r3, #96	; 0x60
    61ce:	4a02      	ldr	r2, [pc, #8]	; (61d8 <__NVIC_ClearPendingIRQ+0x1c>)
    61d0:	f842 0023 	str.w	r0, [r2, r3, lsl #2]
    61d4:	4770      	bx	lr
    61d6:	bf00      	nop
    61d8:	e000e100 	.word	0xe000e100

000061dc <hri_sercomi2cm_wait_for_sync>:
    61dc:	69c3      	ldr	r3, [r0, #28]
    61de:	420b      	tst	r3, r1
    61e0:	d1fc      	bne.n	61dc <hri_sercomi2cm_wait_for_sync>
    61e2:	4770      	bx	lr

000061e4 <hri_sercomspi_wait_for_sync>:
    61e4:	69c3      	ldr	r3, [r0, #28]
    61e6:	420b      	tst	r3, r1
    61e8:	d1fc      	bne.n	61e4 <hri_sercomspi_wait_for_sync>
    61ea:	4770      	bx	lr

000061ec <hri_sercomusart_wait_for_sync>:
    61ec:	69c3      	ldr	r3, [r0, #28]
    61ee:	420b      	tst	r3, r1
    61f0:	d1fc      	bne.n	61ec <hri_sercomusart_wait_for_sync>
    61f2:	4770      	bx	lr

000061f4 <hri_sercomi2cm_clear_CTRLA_ENABLE_bit>:
    61f4:	6803      	ldr	r3, [r0, #0]
    61f6:	f023 0302 	bic.w	r3, r3, #2
    61fa:	6003      	str	r3, [r0, #0]
    61fc:	2103      	movs	r1, #3
    61fe:	4b01      	ldr	r3, [pc, #4]	; (6204 <hri_sercomi2cm_clear_CTRLA_ENABLE_bit+0x10>)
    6200:	4718      	bx	r3
    6202:	bf00      	nop
    6204:	000061dd 	.word	0x000061dd

00006208 <hri_sercomspi_clear_CTRLA_ENABLE_bit>:
    6208:	6803      	ldr	r3, [r0, #0]
    620a:	f023 0302 	bic.w	r3, r3, #2
    620e:	6003      	str	r3, [r0, #0]
    6210:	2103      	movs	r1, #3
    6212:	4b01      	ldr	r3, [pc, #4]	; (6218 <hri_sercomspi_clear_CTRLA_ENABLE_bit+0x10>)
    6214:	4718      	bx	r3
    6216:	bf00      	nop
    6218:	000061e5 	.word	0x000061e5

0000621c <hri_sercomusart_clear_CTRLA_ENABLE_bit>:
    621c:	6803      	ldr	r3, [r0, #0]
    621e:	f023 0302 	bic.w	r3, r3, #2
    6222:	6003      	str	r3, [r0, #0]
    6224:	2103      	movs	r1, #3
    6226:	4b01      	ldr	r3, [pc, #4]	; (622c <hri_sercomusart_clear_CTRLA_ENABLE_bit+0x10>)
    6228:	4718      	bx	r3
    622a:	bf00      	nop
    622c:	000061ed 	.word	0x000061ed

00006230 <_sercom_get_hardware_index>:
    6230:	b570      	push	{r4, r5, r6, lr}
    6232:	4d0b      	ldr	r5, [pc, #44]	; (6260 <_sercom_get_hardware_index+0x30>)
    6234:	4606      	mov	r6, r0
    6236:	cd0f      	ldmia	r5!, {r0, r1, r2, r3}
    6238:	b088      	sub	sp, #32
    623a:	466c      	mov	r4, sp
    623c:	c40f      	stmia	r4!, {r0, r1, r2, r3}
    623e:	e895 000f 	ldmia.w	r5, {r0, r1, r2, r3}
    6242:	e884 000f 	stmia.w	r4, {r0, r1, r2, r3}
    6246:	2000      	movs	r0, #0
    6248:	f85d 3020 	ldr.w	r3, [sp, r0, lsl #2]
    624c:	42b3      	cmp	r3, r6
    624e:	d102      	bne.n	6256 <_sercom_get_hardware_index+0x26>
    6250:	b2c0      	uxtb	r0, r0
    6252:	b008      	add	sp, #32
    6254:	bd70      	pop	{r4, r5, r6, pc}
    6256:	3001      	adds	r0, #1
    6258:	2808      	cmp	r0, #8
    625a:	d1f5      	bne.n	6248 <_sercom_get_hardware_index+0x18>
    625c:	2000      	movs	r0, #0
    625e:	e7f8      	b.n	6252 <_sercom_get_hardware_index+0x22>
    6260:	00009eb0 	.word	0x00009eb0

00006264 <_sercom_usart_interrupt_handler>:
    6264:	b510      	push	{r4, lr}
    6266:	6984      	ldr	r4, [r0, #24]
    6268:	7e22      	ldrb	r2, [r4, #24]
    626a:	07d1      	lsls	r1, r2, #31
    626c:	4603      	mov	r3, r0
    626e:	d508      	bpl.n	6282 <_sercom_usart_interrupt_handler+0x1e>
    6270:	7da2      	ldrb	r2, [r4, #22]
    6272:	07d2      	lsls	r2, r2, #31
    6274:	d505      	bpl.n	6282 <_sercom_usart_interrupt_handler+0x1e>
    6276:	2201      	movs	r2, #1
    6278:	7522      	strb	r2, [r4, #20]
    627a:	6803      	ldr	r3, [r0, #0]
    627c:	e8bd 4010 	ldmia.w	sp!, {r4, lr}
    6280:	4718      	bx	r3
    6282:	7e22      	ldrb	r2, [r4, #24]
    6284:	0790      	lsls	r0, r2, #30
    6286:	d509      	bpl.n	629c <_sercom_usart_interrupt_handler+0x38>
    6288:	7da2      	ldrb	r2, [r4, #22]
    628a:	0791      	lsls	r1, r2, #30
    628c:	d506      	bpl.n	629c <_sercom_usart_interrupt_handler+0x38>
    628e:	2202      	movs	r2, #2
    6290:	7522      	strb	r2, [r4, #20]
    6292:	689a      	ldr	r2, [r3, #8]
    6294:	4618      	mov	r0, r3
    6296:	e8bd 4010 	ldmia.w	sp!, {r4, lr}
    629a:	4710      	bx	r2
    629c:	7e22      	ldrb	r2, [r4, #24]
    629e:	0752      	lsls	r2, r2, #29
    62a0:	d50d      	bpl.n	62be <_sercom_usart_interrupt_handler+0x5a>
    62a2:	8b62      	ldrh	r2, [r4, #26]
    62a4:	f002 0237 	and.w	r2, r2, #55	; 0x37
    62a8:	b112      	cbz	r2, 62b0 <_sercom_usart_interrupt_handler+0x4c>
    62aa:	23ff      	movs	r3, #255	; 0xff
    62ac:	8363      	strh	r3, [r4, #26]
    62ae:	bd10      	pop	{r4, pc}
    62b0:	6aa1      	ldr	r1, [r4, #40]	; 0x28
    62b2:	685a      	ldr	r2, [r3, #4]
    62b4:	b2c9      	uxtb	r1, r1
    62b6:	4618      	mov	r0, r3
    62b8:	e8bd 4010 	ldmia.w	sp!, {r4, lr}
    62bc:	4710      	bx	r2
    62be:	7e22      	ldrb	r2, [r4, #24]
    62c0:	09d2      	lsrs	r2, r2, #7
    62c2:	d0f4      	beq.n	62ae <_sercom_usart_interrupt_handler+0x4a>
    62c4:	2280      	movs	r2, #128	; 0x80
    62c6:	7622      	strb	r2, [r4, #24]
    62c8:	68da      	ldr	r2, [r3, #12]
    62ca:	4618      	mov	r0, r3
    62cc:	4790      	blx	r2
    62ce:	8b63      	ldrh	r3, [r4, #26]
    62d0:	b29b      	uxth	r3, r3
    62d2:	e7eb      	b.n	62ac <_sercom_usart_interrupt_handler+0x48>

000062d4 <_sercom_init_irq_param>:
    62d4:	4b11      	ldr	r3, [pc, #68]	; (631c <_sercom_init_irq_param+0x48>)
    62d6:	4298      	cmp	r0, r3
    62d8:	d107      	bne.n	62ea <_sercom_init_irq_param+0x16>
    62da:	4b11      	ldr	r3, [pc, #68]	; (6320 <_sercom_init_irq_param+0x4c>)
    62dc:	6019      	str	r1, [r3, #0]
    62de:	4b11      	ldr	r3, [pc, #68]	; (6324 <_sercom_init_irq_param+0x50>)
    62e0:	4298      	cmp	r0, r3
    62e2:	bf04      	itt	eq
    62e4:	4b0e      	ldreq	r3, [pc, #56]	; (6320 <_sercom_init_irq_param+0x4c>)
    62e6:	6159      	streq	r1, [r3, #20]
    62e8:	4770      	bx	lr
    62ea:	4b0f      	ldr	r3, [pc, #60]	; (6328 <_sercom_init_irq_param+0x54>)
    62ec:	4298      	cmp	r0, r3
    62ee:	d102      	bne.n	62f6 <_sercom_init_irq_param+0x22>
    62f0:	4b0b      	ldr	r3, [pc, #44]	; (6320 <_sercom_init_irq_param+0x4c>)
    62f2:	6059      	str	r1, [r3, #4]
    62f4:	e7f3      	b.n	62de <_sercom_init_irq_param+0xa>
    62f6:	4b0d      	ldr	r3, [pc, #52]	; (632c <_sercom_init_irq_param+0x58>)
    62f8:	4298      	cmp	r0, r3
    62fa:	d102      	bne.n	6302 <_sercom_init_irq_param+0x2e>
    62fc:	4b08      	ldr	r3, [pc, #32]	; (6320 <_sercom_init_irq_param+0x4c>)
    62fe:	6099      	str	r1, [r3, #8]
    6300:	4770      	bx	lr
    6302:	f1b0 4f86 	cmp.w	r0, #1124073472	; 0x43000000
    6306:	d102      	bne.n	630e <_sercom_init_irq_param+0x3a>
    6308:	4b05      	ldr	r3, [pc, #20]	; (6320 <_sercom_init_irq_param+0x4c>)
    630a:	60d9      	str	r1, [r3, #12]
    630c:	4770      	bx	lr
    630e:	4b08      	ldr	r3, [pc, #32]	; (6330 <_sercom_init_irq_param+0x5c>)
    6310:	4298      	cmp	r0, r3
    6312:	d1e4      	bne.n	62de <_sercom_init_irq_param+0xa>
    6314:	4b02      	ldr	r3, [pc, #8]	; (6320 <_sercom_init_irq_param+0x4c>)
    6316:	6119      	str	r1, [r3, #16]
    6318:	4770      	bx	lr
    631a:	bf00      	nop
    631c:	40003000 	.word	0x40003000
    6320:	200007a8 	.word	0x200007a8
    6324:	43000800 	.word	0x43000800
    6328:	40003400 	.word	0x40003400
    632c:	41012000 	.word	0x41012000
    6330:	43000400 	.word	0x43000400

00006334 <_get_i2cm_index>:
    6334:	b508      	push	{r3, lr}
    6336:	4b03      	ldr	r3, [pc, #12]	; (6344 <_get_i2cm_index+0x10>)
    6338:	4798      	blx	r3
    633a:	3805      	subs	r0, #5
    633c:	bf18      	it	ne
    633e:	f04f 30ff 	movne.w	r0, #4294967295
    6342:	bd08      	pop	{r3, pc}
    6344:	00006231 	.word	0x00006231

00006348 <_sercom_get_irq_num>:
    6348:	b508      	push	{r3, lr}
    634a:	4b03      	ldr	r3, [pc, #12]	; (6358 <_sercom_get_irq_num+0x10>)
    634c:	4798      	blx	r3
    634e:	0080      	lsls	r0, r0, #2
    6350:	302e      	adds	r0, #46	; 0x2e
    6352:	f000 00fe 	and.w	r0, r0, #254	; 0xfe
    6356:	bd08      	pop	{r3, pc}
    6358:	00006231 	.word	0x00006231

0000635c <_spi_sync_enable>:
    635c:	b508      	push	{r3, lr}
    635e:	69c2      	ldr	r2, [r0, #28]
    6360:	f012 0201 	ands.w	r2, r2, #1
    6364:	d108      	bne.n	6378 <_spi_sync_enable+0x1c>
    6366:	6803      	ldr	r3, [r0, #0]
    6368:	f043 0302 	orr.w	r3, r3, #2
    636c:	6003      	str	r3, [r0, #0]
    636e:	2103      	movs	r1, #3
    6370:	4b03      	ldr	r3, [pc, #12]	; (6380 <_spi_sync_enable+0x24>)
    6372:	4798      	blx	r3
    6374:	4610      	mov	r0, r2
    6376:	bd08      	pop	{r3, pc}
    6378:	f06f 0003 	mvn.w	r0, #3
    637c:	bd08      	pop	{r3, pc}
    637e:	bf00      	nop
    6380:	000061e5 	.word	0x000061e5

00006384 <_spi_get_regs>:
    6384:	b508      	push	{r3, lr}
    6386:	4b03      	ldr	r3, [pc, #12]	; (6394 <_spi_get_regs+0x10>)
    6388:	4798      	blx	r3
    638a:	2807      	cmp	r0, #7
    638c:	4802      	ldr	r0, [pc, #8]	; (6398 <_spi_get_regs+0x14>)
    638e:	bf18      	it	ne
    6390:	2000      	movne	r0, #0
    6392:	bd08      	pop	{r3, pc}
    6394:	00006231 	.word	0x00006231
    6398:	00009ed0 	.word	0x00009ed0

0000639c <_spi_get_rx_dma_channel>:
    639c:	b508      	push	{r3, lr}
    639e:	4b03      	ldr	r3, [pc, #12]	; (63ac <_spi_get_rx_dma_channel+0x10>)
    63a0:	4798      	blx	r3
    63a2:	2807      	cmp	r0, #7
    63a4:	bf8c      	ite	hi
    63a6:	2000      	movhi	r0, #0
    63a8:	2001      	movls	r0, #1
    63aa:	bd08      	pop	{r3, pc}
    63ac:	00006231 	.word	0x00006231

000063b0 <_spi_dma_rx_complete>:
    63b0:	6883      	ldr	r3, [r0, #8]
    63b2:	689b      	ldr	r3, [r3, #8]
    63b4:	b103      	cbz	r3, 63b8 <_spi_dma_rx_complete+0x8>
    63b6:	4718      	bx	r3
    63b8:	4770      	bx	lr

000063ba <_spi_dma_tx_complete>:
    63ba:	6883      	ldr	r3, [r0, #8]
    63bc:	685b      	ldr	r3, [r3, #4]
    63be:	b103      	cbz	r3, 63c2 <_spi_dma_tx_complete+0x8>
    63c0:	4718      	bx	r3
    63c2:	4770      	bx	lr

000063c4 <_spi_dma_error_occured>:
    63c4:	6883      	ldr	r3, [r0, #8]
    63c6:	68db      	ldr	r3, [r3, #12]
    63c8:	b103      	cbz	r3, 63cc <_spi_dma_error_occured+0x8>
    63ca:	4718      	bx	r3
    63cc:	4770      	bx	lr
	...

000063d0 <_sercom_i2c_send_stop>:
    63d0:	6843      	ldr	r3, [r0, #4]
    63d2:	f443 3340 	orr.w	r3, r3, #196608	; 0x30000
    63d6:	6043      	str	r3, [r0, #4]
    63d8:	2104      	movs	r1, #4
    63da:	4b01      	ldr	r3, [pc, #4]	; (63e0 <_sercom_i2c_send_stop+0x10>)
    63dc:	4718      	bx	r3
    63de:	bf00      	nop
    63e0:	000061dd 	.word	0x000061dd

000063e4 <_sercom_i2c_sync_analyse_flags>:
    63e4:	e92d 41f0 	stmdb	sp!, {r4, r5, r6, r7, r8, lr}
    63e8:	460d      	mov	r5, r1
    63ea:	4e57      	ldr	r6, [pc, #348]	; (6548 <_sercom_i2c_sync_analyse_flags+0x164>)
    63ec:	f8d0 8000 	ldr.w	r8, [r0]
    63f0:	2104      	movs	r1, #4
    63f2:	4604      	mov	r4, r0
    63f4:	47b0      	blx	r6
    63f6:	8b43      	ldrh	r3, [r0, #26]
    63f8:	f015 0f01 	tst.w	r5, #1
    63fc:	b29b      	uxth	r3, r3
    63fe:	4637      	mov	r7, r6
    6400:	d064      	beq.n	64cc <_sercom_i2c_sync_analyse_flags+0xe8>
    6402:	0799      	lsls	r1, r3, #30
    6404:	d517      	bpl.n	6436 <_sercom_i2c_sync_analyse_flags+0x52>
    6406:	2101      	movs	r1, #1
    6408:	7601      	strb	r1, [r0, #24]
    640a:	8851      	ldrh	r1, [r2, #2]
    640c:	b289      	uxth	r1, r1
    640e:	f441 5180 	orr.w	r1, r1, #4096	; 0x1000
    6412:	8051      	strh	r1, [r2, #2]
    6414:	8851      	ldrh	r1, [r2, #2]
    6416:	f421 7180 	bic.w	r1, r1, #256	; 0x100
    641a:	0409      	lsls	r1, r1, #16
    641c:	f013 0f01 	tst.w	r3, #1
    6420:	ea4f 4111 	mov.w	r1, r1, lsr #16
    6424:	8051      	strh	r1, [r2, #2]
    6426:	bf14      	ite	ne
    6428:	f06f 0504 	mvnne.w	r5, #4
    642c:	f06f 0503 	mvneq.w	r5, #3
    6430:	4628      	mov	r0, r5
    6432:	e8bd 81f0 	ldmia.w	sp!, {r4, r5, r6, r7, r8, pc}
    6436:	f013 0504 	ands.w	r5, r3, #4
    643a:	d015      	beq.n	6468 <_sercom_i2c_sync_analyse_flags+0x84>
    643c:	6853      	ldr	r3, [r2, #4]
    643e:	2b00      	cmp	r3, #0
    6440:	bfc1      	itttt	gt
    6442:	8853      	ldrhgt	r3, [r2, #2]
    6444:	b29b      	uxthgt	r3, r3
    6446:	f443 5380 	orrgt.w	r3, r3, #4096	; 0x1000
    644a:	8053      	strhgt	r3, [r2, #2]
    644c:	8853      	ldrh	r3, [r2, #2]
    644e:	041f      	lsls	r7, r3, #16
    6450:	d501      	bpl.n	6456 <_sercom_i2c_sync_analyse_flags+0x72>
    6452:	4b3e      	ldr	r3, [pc, #248]	; (654c <_sercom_i2c_sync_analyse_flags+0x168>)
    6454:	4798      	blx	r3
    6456:	8853      	ldrh	r3, [r2, #2]
    6458:	f423 7380 	bic.w	r3, r3, #256	; 0x100
    645c:	041b      	lsls	r3, r3, #16
    645e:	0c1b      	lsrs	r3, r3, #16
    6460:	8053      	strh	r3, [r2, #2]
    6462:	f06f 0501 	mvn.w	r5, #1
    6466:	e7e3      	b.n	6430 <_sercom_i2c_sync_analyse_flags+0x4c>
    6468:	8853      	ldrh	r3, [r2, #2]
    646a:	f413 6780 	ands.w	r7, r3, #1024	; 0x400
    646e:	d015      	beq.n	649c <_sercom_i2c_sync_analyse_flags+0xb8>
    6470:	8813      	ldrh	r3, [r2, #0]
    6472:	2104      	movs	r1, #4
    6474:	09db      	lsrs	r3, r3, #7
    6476:	f003 0706 	and.w	r7, r3, #6
    647a:	47b0      	blx	r6
    647c:	6a43      	ldr	r3, [r0, #36]	; 0x24
    647e:	f403 4380 	and.w	r3, r3, #16384	; 0x4000
    6482:	f043 03f1 	orr.w	r3, r3, #241	; 0xf1
    6486:	433b      	orrs	r3, r7
    6488:	6243      	str	r3, [r0, #36]	; 0x24
    648a:	2104      	movs	r1, #4
    648c:	47b0      	blx	r6
    648e:	8853      	ldrh	r3, [r2, #2]
    6490:	f423 6380 	bic.w	r3, r3, #1024	; 0x400
    6494:	041b      	lsls	r3, r3, #16
    6496:	0c1b      	lsrs	r3, r3, #16
    6498:	8053      	strh	r3, [r2, #2]
    649a:	e7c9      	b.n	6430 <_sercom_i2c_sync_analyse_flags+0x4c>
    649c:	6855      	ldr	r5, [r2, #4]
    649e:	b945      	cbnz	r5, 64b2 <_sercom_i2c_sync_analyse_flags+0xce>
    64a0:	8853      	ldrh	r3, [r2, #2]
    64a2:	041e      	lsls	r6, r3, #16
    64a4:	d501      	bpl.n	64aa <_sercom_i2c_sync_analyse_flags+0xc6>
    64a6:	4b29      	ldr	r3, [pc, #164]	; (654c <_sercom_i2c_sync_analyse_flags+0x168>)
    64a8:	4798      	blx	r3
    64aa:	8853      	ldrh	r3, [r2, #2]
    64ac:	f423 7380 	bic.w	r3, r3, #256	; 0x100
    64b0:	e7f0      	b.n	6494 <_sercom_i2c_sync_analyse_flags+0xb0>
    64b2:	6893      	ldr	r3, [r2, #8]
    64b4:	781b      	ldrb	r3, [r3, #0]
    64b6:	6283      	str	r3, [r0, #40]	; 0x28
    64b8:	2104      	movs	r1, #4
    64ba:	47b0      	blx	r6
    64bc:	6893      	ldr	r3, [r2, #8]
    64be:	3301      	adds	r3, #1
    64c0:	6093      	str	r3, [r2, #8]
    64c2:	6853      	ldr	r3, [r2, #4]
    64c4:	3b01      	subs	r3, #1
    64c6:	6053      	str	r3, [r2, #4]
    64c8:	2500      	movs	r5, #0
    64ca:	e7b1      	b.n	6430 <_sercom_i2c_sync_analyse_flags+0x4c>
    64cc:	f015 0502 	ands.w	r5, r5, #2
    64d0:	d0ae      	beq.n	6430 <_sercom_i2c_sync_analyse_flags+0x4c>
    64d2:	6851      	ldr	r1, [r2, #4]
    64d4:	2900      	cmp	r1, #0
    64d6:	d033      	beq.n	6540 <_sercom_i2c_sync_analyse_flags+0x15c>
    64d8:	0758      	lsls	r0, r3, #29
    64da:	d431      	bmi.n	6540 <_sercom_i2c_sync_analyse_flags+0x15c>
    64dc:	3901      	subs	r1, #1
    64de:	f3c8 60c0 	ubfx	r0, r8, #27, #1
    64e2:	6051      	str	r1, [r2, #4]
    64e4:	b941      	cbnz	r1, 64f8 <_sercom_i2c_sync_analyse_flags+0x114>
    64e6:	b958      	cbnz	r0, 6500 <_sercom_i2c_sync_analyse_flags+0x11c>
    64e8:	6863      	ldr	r3, [r4, #4]
    64ea:	f443 2380 	orr.w	r3, r3, #262144	; 0x40000
    64ee:	6063      	str	r3, [r4, #4]
    64f0:	2104      	movs	r1, #4
    64f2:	4620      	mov	r0, r4
    64f4:	47b8      	blx	r7
    64f6:	e003      	b.n	6500 <_sercom_i2c_sync_analyse_flags+0x11c>
    64f8:	2901      	cmp	r1, #1
    64fa:	d101      	bne.n	6500 <_sercom_i2c_sync_analyse_flags+0x11c>
    64fc:	2800      	cmp	r0, #0
    64fe:	d1f3      	bne.n	64e8 <_sercom_i2c_sync_analyse_flags+0x104>
    6500:	6853      	ldr	r3, [r2, #4]
    6502:	b993      	cbnz	r3, 652a <_sercom_i2c_sync_analyse_flags+0x146>
    6504:	8853      	ldrh	r3, [r2, #2]
    6506:	041b      	lsls	r3, r3, #16
    6508:	d509      	bpl.n	651e <_sercom_i2c_sync_analyse_flags+0x13a>
    650a:	6863      	ldr	r3, [r4, #4]
    650c:	f423 7380 	bic.w	r3, r3, #256	; 0x100
    6510:	6063      	str	r3, [r4, #4]
    6512:	4620      	mov	r0, r4
    6514:	2104      	movs	r1, #4
    6516:	47b8      	blx	r7
    6518:	4620      	mov	r0, r4
    651a:	4b0c      	ldr	r3, [pc, #48]	; (654c <_sercom_i2c_sync_analyse_flags+0x168>)
    651c:	4798      	blx	r3
    651e:	8853      	ldrh	r3, [r2, #2]
    6520:	f423 7380 	bic.w	r3, r3, #256	; 0x100
    6524:	041b      	lsls	r3, r3, #16
    6526:	0c1b      	lsrs	r3, r3, #16
    6528:	8053      	strh	r3, [r2, #2]
    652a:	6895      	ldr	r5, [r2, #8]
    652c:	1c6b      	adds	r3, r5, #1
    652e:	6093      	str	r3, [r2, #8]
    6530:	2104      	movs	r1, #4
    6532:	4620      	mov	r0, r4
    6534:	47b8      	blx	r7
    6536:	6aa3      	ldr	r3, [r4, #40]	; 0x28
    6538:	702b      	strb	r3, [r5, #0]
    653a:	2302      	movs	r3, #2
    653c:	7623      	strb	r3, [r4, #24]
    653e:	e7c3      	b.n	64c8 <_sercom_i2c_sync_analyse_flags+0xe4>
    6540:	2302      	movs	r3, #2
    6542:	7623      	strb	r3, [r4, #24]
    6544:	e78d      	b.n	6462 <_sercom_i2c_sync_analyse_flags+0x7e>
    6546:	bf00      	nop
    6548:	000061dd 	.word	0x000061dd
    654c:	000063d1 	.word	0x000063d1

00006550 <_spi_load_regs_master>:
    6550:	b538      	push	{r3, r4, r5, lr}
    6552:	680b      	ldr	r3, [r1, #0]
    6554:	4d0c      	ldr	r5, [pc, #48]	; (6588 <_spi_load_regs_master+0x38>)
    6556:	f423 7381 	bic.w	r3, r3, #258	; 0x102
    655a:	460c      	mov	r4, r1
    655c:	f023 0301 	bic.w	r3, r3, #1
    6560:	6003      	str	r3, [r0, #0]
    6562:	2103      	movs	r1, #3
    6564:	47a8      	blx	r5
    6566:	6863      	ldr	r3, [r4, #4]
    6568:	f423 3338 	bic.w	r3, r3, #188416	; 0x2e000
    656c:	f423 7310 	bic.w	r3, r3, #576	; 0x240
    6570:	f443 3300 	orr.w	r3, r3, #131072	; 0x20000
    6574:	6043      	str	r3, [r0, #4]
    6576:	2117      	movs	r1, #23
    6578:	47a8      	blx	r5
    657a:	7b23      	ldrb	r3, [r4, #12]
    657c:	7303      	strb	r3, [r0, #12]
    657e:	7b63      	ldrb	r3, [r4, #13]
    6580:	f880 3030 	strb.w	r3, [r0, #48]	; 0x30
    6584:	bd38      	pop	{r3, r4, r5, pc}
    6586:	bf00      	nop
    6588:	000061e5 	.word	0x000061e5

0000658c <_i2c_m_sync_init_impl>:
    658c:	e92d 41f0 	stmdb	sp!, {r4, r5, r6, r7, r8, lr}
    6590:	460c      	mov	r4, r1
    6592:	4b26      	ldr	r3, [pc, #152]	; (662c <_i2c_m_sync_init_impl+0xa0>)
    6594:	4e26      	ldr	r6, [pc, #152]	; (6630 <_i2c_m_sync_init_impl+0xa4>)
    6596:	4607      	mov	r7, r0
    6598:	4608      	mov	r0, r1
    659a:	4798      	blx	r3
    659c:	69e3      	ldr	r3, [r4, #28]
    659e:	4a25      	ldr	r2, [pc, #148]	; (6634 <_i2c_m_sync_init_impl+0xa8>)
    65a0:	f013 0f01 	tst.w	r3, #1
    65a4:	fa5f f880 	uxtb.w	r8, r0
    65a8:	d117      	bne.n	65da <_i2c_m_sync_init_impl+0x4e>
    65aa:	2318      	movs	r3, #24
    65ac:	fb03 6308 	mla	r3, r3, r8, r6
    65b0:	2103      	movs	r1, #3
    65b2:	4620      	mov	r0, r4
    65b4:	6b9d      	ldr	r5, [r3, #56]	; 0x38
    65b6:	4790      	blx	r2
    65b8:	6823      	ldr	r3, [r4, #0]
    65ba:	079b      	lsls	r3, r3, #30
    65bc:	f005 051c 	and.w	r5, r5, #28
    65c0:	d505      	bpl.n	65ce <_i2c_m_sync_init_impl+0x42>
    65c2:	4620      	mov	r0, r4
    65c4:	4b1c      	ldr	r3, [pc, #112]	; (6638 <_i2c_m_sync_init_impl+0xac>)
    65c6:	4798      	blx	r3
    65c8:	2102      	movs	r1, #2
    65ca:	4620      	mov	r0, r4
    65cc:	4790      	blx	r2
    65ce:	f045 0501 	orr.w	r5, r5, #1
    65d2:	6025      	str	r5, [r4, #0]
    65d4:	2103      	movs	r1, #3
    65d6:	4620      	mov	r0, r4
    65d8:	4790      	blx	r2
    65da:	4620      	mov	r0, r4
    65dc:	2101      	movs	r1, #1
    65de:	4790      	blx	r2
    65e0:	2318      	movs	r3, #24
    65e2:	fb03 6608 	mla	r6, r3, r8, r6
    65e6:	4620      	mov	r0, r4
    65e8:	6bb5      	ldr	r5, [r6, #56]	; 0x38
    65ea:	6025      	str	r5, [r4, #0]
    65ec:	2103      	movs	r1, #3
    65ee:	4790      	blx	r2
    65f0:	6bf3      	ldr	r3, [r6, #60]	; 0x3c
    65f2:	6063      	str	r3, [r4, #4]
    65f4:	4620      	mov	r0, r4
    65f6:	2104      	movs	r1, #4
    65f8:	4790      	blx	r2
    65fa:	f3c5 6501 	ubfx	r5, r5, #24, #2
    65fe:	6c33      	ldr	r3, [r6, #64]	; 0x40
    6600:	60e3      	str	r3, [r4, #12]
    6602:	81bd      	strh	r5, [r7, #12]
    6604:	6a63      	ldr	r3, [r4, #36]	; 0x24
    6606:	2d01      	cmp	r5, #1
    6608:	f423 4380 	bic.w	r3, r3, #16384	; 0x4000
    660c:	bf94      	ite	ls
    660e:	2500      	movls	r5, #0
    6610:	2501      	movhi	r5, #1
    6612:	ea43 3585 	orr.w	r5, r3, r5, lsl #14
    6616:	4620      	mov	r0, r4
    6618:	6265      	str	r5, [r4, #36]	; 0x24
    661a:	2104      	movs	r1, #4
    661c:	4790      	blx	r2
    661e:	f8b6 3046 	ldrh.w	r3, [r6, #70]	; 0x46
    6622:	81fb      	strh	r3, [r7, #14]
    6624:	2000      	movs	r0, #0
    6626:	e8bd 81f0 	ldmia.w	sp!, {r4, r5, r6, r7, r8, pc}
    662a:	bf00      	nop
    662c:	00006335 	.word	0x00006335
    6630:	00009eb0 	.word	0x00009eb0
    6634:	000061dd 	.word	0x000061dd
    6638:	000061f5 	.word	0x000061f5

0000663c <_usart_init>:
    663c:	e92d 41f0 	stmdb	sp!, {r4, r5, r6, r7, r8, lr}
    6640:	4b31      	ldr	r3, [pc, #196]	; (6708 <_usart_init+0xcc>)
    6642:	4604      	mov	r4, r0
    6644:	4798      	blx	r3
    6646:	4605      	mov	r5, r0
    6648:	b148      	cbz	r0, 665e <_usart_init+0x22>
    664a:	2801      	cmp	r0, #1
    664c:	d007      	beq.n	665e <_usart_init+0x22>
    664e:	2802      	cmp	r0, #2
    6650:	d005      	beq.n	665e <_usart_init+0x22>
    6652:	2804      	cmp	r0, #4
    6654:	d056      	beq.n	6704 <_usart_init+0xc8>
    6656:	2806      	cmp	r0, #6
    6658:	bf14      	ite	ne
    665a:	2500      	movne	r5, #0
    665c:	2504      	moveq	r5, #4
    665e:	69e3      	ldr	r3, [r4, #28]
    6660:	4f2a      	ldr	r7, [pc, #168]	; (670c <_usart_init+0xd0>)
    6662:	4e2b      	ldr	r6, [pc, #172]	; (6710 <_usart_init+0xd4>)
    6664:	f013 0f01 	tst.w	r3, #1
    6668:	d117      	bne.n	669a <_usart_init+0x5e>
    666a:	2318      	movs	r3, #24
    666c:	fb03 7305 	mla	r3, r3, r5, r7
    6670:	2103      	movs	r1, #3
    6672:	6d1a      	ldr	r2, [r3, #80]	; 0x50
    6674:	4620      	mov	r0, r4
    6676:	f002 021c 	and.w	r2, r2, #28
    667a:	47b0      	blx	r6
    667c:	6823      	ldr	r3, [r4, #0]
    667e:	079b      	lsls	r3, r3, #30
    6680:	d505      	bpl.n	668e <_usart_init+0x52>
    6682:	4620      	mov	r0, r4
    6684:	4b23      	ldr	r3, [pc, #140]	; (6714 <_usart_init+0xd8>)
    6686:	4798      	blx	r3
    6688:	2102      	movs	r1, #2
    668a:	4620      	mov	r0, r4
    668c:	47b0      	blx	r6
    668e:	f042 0201 	orr.w	r2, r2, #1
    6692:	6022      	str	r2, [r4, #0]
    6694:	2103      	movs	r1, #3
    6696:	4620      	mov	r0, r4
    6698:	47b0      	blx	r6
    669a:	4620      	mov	r0, r4
    669c:	2101      	movs	r1, #1
    669e:	47b0      	blx	r6
    66a0:	2218      	movs	r2, #24
    66a2:	fb02 7205 	mla	r2, r2, r5, r7
    66a6:	4620      	mov	r0, r4
    66a8:	f8d2 8050 	ldr.w	r8, [r2, #80]	; 0x50
    66ac:	f8c4 8000 	str.w	r8, [r4]
    66b0:	2103      	movs	r1, #3
    66b2:	47b0      	blx	r6
    66b4:	6d53      	ldr	r3, [r2, #84]	; 0x54
    66b6:	6063      	str	r3, [r4, #4]
    66b8:	211f      	movs	r1, #31
    66ba:	4620      	mov	r0, r4
    66bc:	47b0      	blx	r6
    66be:	6d93      	ldr	r3, [r2, #88]	; 0x58
    66c0:	60a3      	str	r3, [r4, #8]
    66c2:	f418 4fc0 	tst.w	r8, #24576	; 0x6000
    66c6:	bf1d      	ittte	ne
    66c8:	89a3      	ldrhne	r3, [r4, #12]
    66ca:	f8b2 105c 	ldrhne.w	r1, [r2, #92]	; 0x5c
    66ce:	f892 205e 	ldrbne.w	r2, [r2, #94]	; 0x5e
    66d2:	f8b2 305c 	ldrheq.w	r3, [r2, #92]	; 0x5c
    66d6:	bf1e      	ittt	ne
    66d8:	f361 030c 	bfine	r3, r1, #0, #13
    66dc:	81a3      	strhne	r3, [r4, #12]
    66de:	89a3      	ldrhne	r3, [r4, #12]
    66e0:	f04f 0018 	mov.w	r0, #24
    66e4:	fb00 7005 	mla	r0, r0, r5, r7
    66e8:	bf18      	it	ne
    66ea:	f362 334f 	bfine	r3, r2, #13, #3
    66ee:	81a3      	strh	r3, [r4, #12]
    66f0:	f890 305f 	ldrb.w	r3, [r0, #95]	; 0x5f
    66f4:	73a3      	strb	r3, [r4, #14]
    66f6:	f890 3060 	ldrb.w	r3, [r0, #96]	; 0x60
    66fa:	f884 3030 	strb.w	r3, [r4, #48]	; 0x30
    66fe:	2000      	movs	r0, #0
    6700:	e8bd 81f0 	ldmia.w	sp!, {r4, r5, r6, r7, r8, pc}
    6704:	2503      	movs	r5, #3
    6706:	e7aa      	b.n	665e <_usart_init+0x22>
    6708:	00006231 	.word	0x00006231
    670c:	00009eb0 	.word	0x00009eb0
    6710:	000061ed 	.word	0x000061ed
    6714:	0000621d 	.word	0x0000621d

00006718 <_usart_async_init>:
    6718:	e92d 43f8 	stmdb	sp!, {r3, r4, r5, r6, r7, r8, r9, lr}
    671c:	4606      	mov	r6, r0
    671e:	4b11      	ldr	r3, [pc, #68]	; (6764 <_usart_async_init+0x4c>)
    6720:	4608      	mov	r0, r1
    6722:	460c      	mov	r4, r1
    6724:	4798      	blx	r3
    6726:	4605      	mov	r5, r0
    6728:	b9c8      	cbnz	r0, 675e <_usart_async_init+0x46>
    672a:	61b4      	str	r4, [r6, #24]
    672c:	4631      	mov	r1, r6
    672e:	4620      	mov	r0, r4
    6730:	4b0d      	ldr	r3, [pc, #52]	; (6768 <_usart_async_init+0x50>)
    6732:	f8df 8044 	ldr.w	r8, [pc, #68]	; 6778 <_usart_async_init+0x60>
    6736:	4f0d      	ldr	r7, [pc, #52]	; (676c <_usart_async_init+0x54>)
    6738:	4e0d      	ldr	r6, [pc, #52]	; (6770 <_usart_async_init+0x58>)
    673a:	4798      	blx	r3
    673c:	4620      	mov	r0, r4
    673e:	4b0d      	ldr	r3, [pc, #52]	; (6774 <_usart_async_init+0x5c>)
    6740:	4798      	blx	r3
    6742:	462c      	mov	r4, r5
    6744:	4681      	mov	r9, r0
    6746:	eb09 0104 	add.w	r1, r9, r4
    674a:	b2c9      	uxtb	r1, r1
    674c:	4608      	mov	r0, r1
    674e:	47c0      	blx	r8
    6750:	4608      	mov	r0, r1
    6752:	47b8      	blx	r7
    6754:	3401      	adds	r4, #1
    6756:	4608      	mov	r0, r1
    6758:	47b0      	blx	r6
    675a:	2c04      	cmp	r4, #4
    675c:	d1f3      	bne.n	6746 <_usart_async_init+0x2e>
    675e:	4628      	mov	r0, r5
    6760:	e8bd 83f8 	ldmia.w	sp!, {r3, r4, r5, r6, r7, r8, r9, pc}
    6764:	0000663d 	.word	0x0000663d
    6768:	000062d5 	.word	0x000062d5
    676c:	000061bd 	.word	0x000061bd
    6770:	00006179 	.word	0x00006179
    6774:	00006349 	.word	0x00006349
    6778:	00006195 	.word	0x00006195

0000677c <_usart_async_enable>:
    677c:	6980      	ldr	r0, [r0, #24]
    677e:	6803      	ldr	r3, [r0, #0]
    6780:	f043 0302 	orr.w	r3, r3, #2
    6784:	6003      	str	r3, [r0, #0]
    6786:	2103      	movs	r1, #3
    6788:	4b00      	ldr	r3, [pc, #0]	; (678c <_usart_async_enable+0x10>)
    678a:	4718      	bx	r3
    678c:	000061ed 	.word	0x000061ed

00006790 <_usart_async_write_byte>:
    6790:	6983      	ldr	r3, [r0, #24]
    6792:	6299      	str	r1, [r3, #40]	; 0x28
    6794:	4770      	bx	lr

00006796 <_usart_async_enable_byte_sent_irq>:
    6796:	6983      	ldr	r3, [r0, #24]
    6798:	2201      	movs	r2, #1
    679a:	759a      	strb	r2, [r3, #22]
    679c:	4770      	bx	lr

0000679e <_usart_async_enable_tx_done_irq>:
    679e:	6983      	ldr	r3, [r0, #24]
    67a0:	2202      	movs	r2, #2
    67a2:	759a      	strb	r2, [r3, #22]
    67a4:	4770      	bx	lr

000067a6 <_usart_async_set_irq_state>:
    67a6:	f011 0ffd 	tst.w	r1, #253	; 0xfd
    67aa:	d109      	bne.n	67c0 <_usart_async_set_irq_state+0x1a>
    67ac:	6983      	ldr	r3, [r0, #24]
    67ae:	2102      	movs	r1, #2
    67b0:	2001      	movs	r0, #1
    67b2:	b912      	cbnz	r2, 67ba <_usart_async_set_irq_state+0x14>
    67b4:	7518      	strb	r0, [r3, #20]
    67b6:	7519      	strb	r1, [r3, #20]
    67b8:	4770      	bx	lr
    67ba:	7598      	strb	r0, [r3, #22]
    67bc:	7599      	strb	r1, [r3, #22]
    67be:	4770      	bx	lr
    67c0:	2901      	cmp	r1, #1
    67c2:	d104      	bne.n	67ce <_usart_async_set_irq_state+0x28>
    67c4:	6983      	ldr	r3, [r0, #24]
    67c6:	2104      	movs	r1, #4
    67c8:	2a00      	cmp	r2, #0
    67ca:	d1f7      	bne.n	67bc <_usart_async_set_irq_state+0x16>
    67cc:	e7f3      	b.n	67b6 <_usart_async_set_irq_state+0x10>
    67ce:	2903      	cmp	r1, #3
    67d0:	d1f5      	bne.n	67be <_usart_async_set_irq_state+0x18>
    67d2:	6983      	ldr	r3, [r0, #24]
    67d4:	2180      	movs	r1, #128	; 0x80
    67d6:	e7f7      	b.n	67c8 <_usart_async_set_irq_state+0x22>

000067d8 <_i2c_m_async_init>:
    67d8:	e92d 43f8 	stmdb	sp!, {r3, r4, r5, r6, r7, r8, r9, lr}
    67dc:	4606      	mov	r6, r0
    67de:	4b11      	ldr	r3, [pc, #68]	; (6824 <_i2c_m_async_init+0x4c>)
    67e0:	6131      	str	r1, [r6, #16]
    67e2:	460c      	mov	r4, r1
    67e4:	4798      	blx	r3
    67e6:	4605      	mov	r5, r0
    67e8:	b9c0      	cbnz	r0, 681c <_i2c_m_async_init+0x44>
    67ea:	4631      	mov	r1, r6
    67ec:	4620      	mov	r0, r4
    67ee:	4b0e      	ldr	r3, [pc, #56]	; (6828 <_i2c_m_async_init+0x50>)
    67f0:	f8df 8044 	ldr.w	r8, [pc, #68]	; 6838 <_i2c_m_async_init+0x60>
    67f4:	4f0d      	ldr	r7, [pc, #52]	; (682c <_i2c_m_async_init+0x54>)
    67f6:	4e0e      	ldr	r6, [pc, #56]	; (6830 <_i2c_m_async_init+0x58>)
    67f8:	4798      	blx	r3
    67fa:	4620      	mov	r0, r4
    67fc:	4b0d      	ldr	r3, [pc, #52]	; (6834 <_i2c_m_async_init+0x5c>)
    67fe:	4798      	blx	r3
    6800:	462c      	mov	r4, r5
    6802:	4681      	mov	r9, r0
    6804:	eb09 0104 	add.w	r1, r9, r4
    6808:	b2c9      	uxtb	r1, r1
    680a:	4608      	mov	r0, r1
    680c:	47c0      	blx	r8
    680e:	4608      	mov	r0, r1
    6810:	47b8      	blx	r7
    6812:	3401      	adds	r4, #1
    6814:	4608      	mov	r0, r1
    6816:	47b0      	blx	r6
    6818:	2c04      	cmp	r4, #4
    681a:	d1f3      	bne.n	6804 <_i2c_m_async_init+0x2c>
    681c:	4628      	mov	r0, r5
    681e:	e8bd 83f8 	ldmia.w	sp!, {r3, r4, r5, r6, r7, r8, r9, pc}
    6822:	bf00      	nop
    6824:	0000658d 	.word	0x0000658d
    6828:	000062d5 	.word	0x000062d5
    682c:	000061bd 	.word	0x000061bd
    6830:	00006179 	.word	0x00006179
    6834:	00006349 	.word	0x00006349
    6838:	00006195 	.word	0x00006195

0000683c <_i2c_m_async_transfer>:
    683c:	b5f8      	push	{r3, r4, r5, r6, r7, lr}
    683e:	4604      	mov	r4, r0
    6840:	6848      	ldr	r0, [r1, #4]
    6842:	2800      	cmp	r0, #0
    6844:	d056      	beq.n	68f4 <_i2c_m_async_transfer+0xb8>
    6846:	8863      	ldrh	r3, [r4, #2]
    6848:	05d8      	lsls	r0, r3, #23
    684a:	d451      	bmi.n	68f0 <_i2c_m_async_transfer+0xb4>
    684c:	884b      	ldrh	r3, [r1, #2]
    684e:	4e2a      	ldr	r6, [pc, #168]	; (68f8 <_i2c_m_async_transfer+0xbc>)
    6850:	b29b      	uxth	r3, r3
    6852:	f443 7380 	orr.w	r3, r3, #256	; 0x100
    6856:	804b      	strh	r3, [r1, #2]
    6858:	c907      	ldmia	r1, {r0, r1, r2}
    685a:	e884 0007 	stmia.w	r4, {r0, r1, r2}
    685e:	6920      	ldr	r0, [r4, #16]
    6860:	6843      	ldr	r3, [r0, #4]
    6862:	f443 7380 	orr.w	r3, r3, #256	; 0x100
    6866:	6043      	str	r3, [r0, #4]
    6868:	2104      	movs	r1, #4
    686a:	47b0      	blx	r6
    686c:	6862      	ldr	r2, [r4, #4]
    686e:	6925      	ldr	r5, [r4, #16]
    6870:	2a01      	cmp	r2, #1
    6872:	682b      	ldr	r3, [r5, #0]
    6874:	d129      	bne.n	68ca <_i2c_m_async_transfer+0x8e>
    6876:	011a      	lsls	r2, r3, #4
    6878:	d527      	bpl.n	68ca <_i2c_m_async_transfer+0x8e>
    687a:	686b      	ldr	r3, [r5, #4]
    687c:	f443 2380 	orr.w	r3, r3, #262144	; 0x40000
    6880:	606b      	str	r3, [r5, #4]
    6882:	2104      	movs	r1, #4
    6884:	4628      	mov	r0, r5
    6886:	47b0      	blx	r6
    6888:	8822      	ldrh	r2, [r4, #0]
    688a:	f412 6780 	ands.w	r7, r2, #1024	; 0x400
    688e:	ea4f 0242 	mov.w	r2, r2, lsl #1
    6892:	d01e      	beq.n	68d2 <_i2c_m_async_transfer+0x96>
    6894:	8863      	ldrh	r3, [r4, #2]
    6896:	07db      	lsls	r3, r3, #31
    6898:	bf41      	itttt	mi
    689a:	8863      	ldrhmi	r3, [r4, #2]
    689c:	b29b      	uxthmi	r3, r3
    689e:	f443 6380 	orrmi.w	r3, r3, #1024	; 0x400
    68a2:	8063      	strhmi	r3, [r4, #2]
    68a4:	2104      	movs	r1, #4
    68a6:	4628      	mov	r0, r5
    68a8:	47b0      	blx	r6
    68aa:	6a6b      	ldr	r3, [r5, #36]	; 0x24
    68ac:	f022 0201 	bic.w	r2, r2, #1
    68b0:	0552      	lsls	r2, r2, #21
    68b2:	f403 4380 	and.w	r3, r3, #16384	; 0x4000
    68b6:	0d52      	lsrs	r2, r2, #21
    68b8:	f443 4300 	orr.w	r3, r3, #32768	; 0x8000
    68bc:	4313      	orrs	r3, r2
    68be:	626b      	str	r3, [r5, #36]	; 0x24
    68c0:	4628      	mov	r0, r5
    68c2:	2104      	movs	r1, #4
    68c4:	47b0      	blx	r6
    68c6:	2000      	movs	r0, #0
    68c8:	bdf8      	pop	{r3, r4, r5, r6, r7, pc}
    68ca:	686b      	ldr	r3, [r5, #4]
    68cc:	f423 2380 	bic.w	r3, r3, #262144	; 0x40000
    68d0:	e7d6      	b.n	6880 <_i2c_m_async_transfer+0x44>
    68d2:	2104      	movs	r1, #4
    68d4:	4628      	mov	r0, r5
    68d6:	8864      	ldrh	r4, [r4, #2]
    68d8:	47b0      	blx	r6
    68da:	b2a4      	uxth	r4, r4
    68dc:	6a6b      	ldr	r3, [r5, #36]	; 0x24
    68de:	b2d2      	uxtb	r2, r2
    68e0:	f004 0401 	and.w	r4, r4, #1
    68e4:	4322      	orrs	r2, r4
    68e6:	f403 4380 	and.w	r3, r3, #16384	; 0x4000
    68ea:	431a      	orrs	r2, r3
    68ec:	626a      	str	r2, [r5, #36]	; 0x24
    68ee:	e7e7      	b.n	68c0 <_i2c_m_async_transfer+0x84>
    68f0:	f06f 0003 	mvn.w	r0, #3
    68f4:	bdf8      	pop	{r3, r4, r5, r6, r7, pc}
    68f6:	bf00      	nop
    68f8:	000061dd 	.word	0x000061dd

000068fc <_i2c_m_async_register_callback>:
    68fc:	2901      	cmp	r1, #1
    68fe:	d006      	beq.n	690e <_i2c_m_async_register_callback+0x12>
    6900:	d303      	bcc.n	690a <_i2c_m_async_register_callback+0xe>
    6902:	2902      	cmp	r1, #2
    6904:	d005      	beq.n	6912 <_i2c_m_async_register_callback+0x16>
    6906:	2000      	movs	r0, #0
    6908:	4770      	bx	lr
    690a:	6142      	str	r2, [r0, #20]
    690c:	e7fb      	b.n	6906 <_i2c_m_async_register_callback+0xa>
    690e:	6182      	str	r2, [r0, #24]
    6910:	e7f9      	b.n	6906 <_i2c_m_async_register_callback+0xa>
    6912:	61c2      	str	r2, [r0, #28]
    6914:	e7f7      	b.n	6906 <_i2c_m_async_register_callback+0xa>
	...

00006918 <SERCOM0_3_Handler>:
    6918:	4b01      	ldr	r3, [pc, #4]	; (6920 <SERCOM0_3_Handler+0x8>)
    691a:	6818      	ldr	r0, [r3, #0]
    691c:	4b01      	ldr	r3, [pc, #4]	; (6924 <SERCOM0_3_Handler+0xc>)
    691e:	4718      	bx	r3
    6920:	200007a8 	.word	0x200007a8
    6924:	00006265 	.word	0x00006265

00006928 <SERCOM0_2_Handler>:
    6928:	4b00      	ldr	r3, [pc, #0]	; (692c <SERCOM0_2_Handler+0x4>)
    692a:	4718      	bx	r3
    692c:	00006919 	.word	0x00006919

00006930 <SERCOM0_1_Handler>:
    6930:	4b00      	ldr	r3, [pc, #0]	; (6934 <SERCOM0_1_Handler+0x4>)
    6932:	4718      	bx	r3
    6934:	00006919 	.word	0x00006919

00006938 <SERCOM0_0_Handler>:
    6938:	4b00      	ldr	r3, [pc, #0]	; (693c <SERCOM0_0_Handler+0x4>)
    693a:	4718      	bx	r3
    693c:	00006919 	.word	0x00006919

00006940 <SERCOM1_3_Handler>:
    6940:	4b01      	ldr	r3, [pc, #4]	; (6948 <SERCOM1_3_Handler+0x8>)
    6942:	6858      	ldr	r0, [r3, #4]
    6944:	4b01      	ldr	r3, [pc, #4]	; (694c <SERCOM1_3_Handler+0xc>)
    6946:	4718      	bx	r3
    6948:	200007a8 	.word	0x200007a8
    694c:	00006265 	.word	0x00006265

00006950 <SERCOM1_2_Handler>:
    6950:	4b00      	ldr	r3, [pc, #0]	; (6954 <SERCOM1_2_Handler+0x4>)
    6952:	4718      	bx	r3
    6954:	00006941 	.word	0x00006941

00006958 <SERCOM1_1_Handler>:
    6958:	4b00      	ldr	r3, [pc, #0]	; (695c <SERCOM1_1_Handler+0x4>)
    695a:	4718      	bx	r3
    695c:	00006941 	.word	0x00006941

00006960 <SERCOM1_0_Handler>:
    6960:	4b00      	ldr	r3, [pc, #0]	; (6964 <SERCOM1_0_Handler+0x4>)
    6962:	4718      	bx	r3
    6964:	00006941 	.word	0x00006941

00006968 <SERCOM2_3_Handler>:
    6968:	4b01      	ldr	r3, [pc, #4]	; (6970 <SERCOM2_3_Handler+0x8>)
    696a:	6898      	ldr	r0, [r3, #8]
    696c:	4b01      	ldr	r3, [pc, #4]	; (6974 <SERCOM2_3_Handler+0xc>)
    696e:	4718      	bx	r3
    6970:	200007a8 	.word	0x200007a8
    6974:	00006265 	.word	0x00006265

00006978 <SERCOM2_2_Handler>:
    6978:	4b00      	ldr	r3, [pc, #0]	; (697c <SERCOM2_2_Handler+0x4>)
    697a:	4718      	bx	r3
    697c:	00006969 	.word	0x00006969

00006980 <SERCOM2_1_Handler>:
    6980:	4b00      	ldr	r3, [pc, #0]	; (6984 <SERCOM2_1_Handler+0x4>)
    6982:	4718      	bx	r3
    6984:	00006969 	.word	0x00006969

00006988 <SERCOM2_0_Handler>:
    6988:	4b00      	ldr	r3, [pc, #0]	; (698c <SERCOM2_0_Handler+0x4>)
    698a:	4718      	bx	r3
    698c:	00006969 	.word	0x00006969

00006990 <SERCOM4_3_Handler>:
    6990:	4b01      	ldr	r3, [pc, #4]	; (6998 <SERCOM4_3_Handler+0x8>)
    6992:	68d8      	ldr	r0, [r3, #12]
    6994:	4b01      	ldr	r3, [pc, #4]	; (699c <SERCOM4_3_Handler+0xc>)
    6996:	4718      	bx	r3
    6998:	200007a8 	.word	0x200007a8
    699c:	00006265 	.word	0x00006265

000069a0 <SERCOM4_2_Handler>:
    69a0:	4b00      	ldr	r3, [pc, #0]	; (69a4 <SERCOM4_2_Handler+0x4>)
    69a2:	4718      	bx	r3
    69a4:	00006991 	.word	0x00006991

000069a8 <SERCOM4_1_Handler>:
    69a8:	4b00      	ldr	r3, [pc, #0]	; (69ac <SERCOM4_1_Handler+0x4>)
    69aa:	4718      	bx	r3
    69ac:	00006991 	.word	0x00006991

000069b0 <SERCOM4_0_Handler>:
    69b0:	4b00      	ldr	r3, [pc, #0]	; (69b4 <SERCOM4_0_Handler+0x4>)
    69b2:	4718      	bx	r3
    69b4:	00006991 	.word	0x00006991

000069b8 <SERCOM5_3_Handler>:
    69b8:	4b16      	ldr	r3, [pc, #88]	; (6a14 <SERCOM5_3_Handler+0x5c>)
    69ba:	b570      	push	{r4, r5, r6, lr}
    69bc:	691c      	ldr	r4, [r3, #16]
    69be:	6920      	ldr	r0, [r4, #16]
    69c0:	7e05      	ldrb	r5, [r0, #24]
    69c2:	b2ed      	uxtb	r5, r5
    69c4:	0629      	lsls	r1, r5, #24
    69c6:	d413      	bmi.n	69f0 <SERCOM5_3_Handler+0x38>
    69c8:	4629      	mov	r1, r5
    69ca:	4622      	mov	r2, r4
    69cc:	4b12      	ldr	r3, [pc, #72]	; (6a18 <SERCOM5_3_Handler+0x60>)
    69ce:	4798      	blx	r3
    69d0:	4601      	mov	r1, r0
    69d2:	b970      	cbnz	r0, 69f2 <SERCOM5_3_Handler+0x3a>
    69d4:	07ea      	lsls	r2, r5, #31
    69d6:	d505      	bpl.n	69e4 <SERCOM5_3_Handler+0x2c>
    69d8:	69a3      	ldr	r3, [r4, #24]
    69da:	b11b      	cbz	r3, 69e4 <SERCOM5_3_Handler+0x2c>
    69dc:	4620      	mov	r0, r4
    69de:	e8bd 4070 	ldmia.w	sp!, {r4, r5, r6, lr}
    69e2:	4718      	bx	r3
    69e4:	07ab      	lsls	r3, r5, #30
    69e6:	d502      	bpl.n	69ee <SERCOM5_3_Handler+0x36>
    69e8:	69e3      	ldr	r3, [r4, #28]
    69ea:	2b00      	cmp	r3, #0
    69ec:	d1f6      	bne.n	69dc <SERCOM5_3_Handler+0x24>
    69ee:	bd70      	pop	{r4, r5, r6, pc}
    69f0:	2100      	movs	r1, #0
    69f2:	8863      	ldrh	r3, [r4, #2]
    69f4:	f423 7380 	bic.w	r3, r3, #256	; 0x100
    69f8:	041b      	lsls	r3, r3, #16
    69fa:	0c1b      	lsrs	r3, r3, #16
    69fc:	8063      	strh	r3, [r4, #2]
    69fe:	6963      	ldr	r3, [r4, #20]
    6a00:	2b00      	cmp	r3, #0
    6a02:	d0f4      	beq.n	69ee <SERCOM5_3_Handler+0x36>
    6a04:	b119      	cbz	r1, 6a0e <SERCOM5_3_Handler+0x56>
    6a06:	4620      	mov	r0, r4
    6a08:	e8bd 4070 	ldmia.w	sp!, {r4, r5, r6, lr}
    6a0c:	4718      	bx	r3
    6a0e:	f06f 0104 	mvn.w	r1, #4
    6a12:	e7f8      	b.n	6a06 <SERCOM5_3_Handler+0x4e>
    6a14:	200007a8 	.word	0x200007a8
    6a18:	000063e5 	.word	0x000063e5

00006a1c <SERCOM5_2_Handler>:
    6a1c:	4b00      	ldr	r3, [pc, #0]	; (6a20 <SERCOM5_2_Handler+0x4>)
    6a1e:	4718      	bx	r3
    6a20:	000069b9 	.word	0x000069b9

00006a24 <SERCOM5_1_Handler>:
    6a24:	4b00      	ldr	r3, [pc, #0]	; (6a28 <SERCOM5_1_Handler+0x4>)
    6a26:	4718      	bx	r3
    6a28:	000069b9 	.word	0x000069b9

00006a2c <SERCOM5_0_Handler>:
    6a2c:	4b00      	ldr	r3, [pc, #0]	; (6a30 <SERCOM5_0_Handler+0x4>)
    6a2e:	4718      	bx	r3
    6a30:	000069b9 	.word	0x000069b9

00006a34 <SERCOM6_3_Handler>:
    6a34:	4b01      	ldr	r3, [pc, #4]	; (6a3c <SERCOM6_3_Handler+0x8>)
    6a36:	6958      	ldr	r0, [r3, #20]
    6a38:	4b01      	ldr	r3, [pc, #4]	; (6a40 <SERCOM6_3_Handler+0xc>)
    6a3a:	4718      	bx	r3
    6a3c:	200007a8 	.word	0x200007a8
    6a40:	00006265 	.word	0x00006265

00006a44 <SERCOM6_2_Handler>:
    6a44:	4b00      	ldr	r3, [pc, #0]	; (6a48 <SERCOM6_2_Handler+0x4>)
    6a46:	4718      	bx	r3
    6a48:	00006a35 	.word	0x00006a35

00006a4c <SERCOM6_1_Handler>:
    6a4c:	4b00      	ldr	r3, [pc, #0]	; (6a50 <SERCOM6_1_Handler+0x4>)
    6a4e:	4718      	bx	r3
    6a50:	00006a35 	.word	0x00006a35

00006a54 <SERCOM6_0_Handler>:
    6a54:	4b00      	ldr	r3, [pc, #0]	; (6a58 <SERCOM6_0_Handler+0x4>)
    6a56:	4718      	bx	r3
    6a58:	00006a35 	.word	0x00006a35

00006a5c <_spi_m_dma_init>:
    6a5c:	b5f8      	push	{r3, r4, r5, r6, r7, lr}
    6a5e:	4605      	mov	r5, r0
    6a60:	4b22      	ldr	r3, [pc, #136]	; (6aec <_spi_m_dma_init+0x90>)
    6a62:	4608      	mov	r0, r1
    6a64:	460c      	mov	r4, r1
    6a66:	4798      	blx	r3
    6a68:	4607      	mov	r7, r0
    6a6a:	2800      	cmp	r0, #0
    6a6c:	d03a      	beq.n	6ae4 <_spi_m_dma_init+0x88>
    6a6e:	69e3      	ldr	r3, [r4, #28]
    6a70:	4e1f      	ldr	r6, [pc, #124]	; (6af0 <_spi_m_dma_init+0x94>)
    6a72:	f013 0f01 	tst.w	r3, #1
    6a76:	d114      	bne.n	6aa2 <_spi_m_dma_init+0x46>
    6a78:	6802      	ldr	r2, [r0, #0]
    6a7a:	2103      	movs	r1, #3
    6a7c:	4620      	mov	r0, r4
    6a7e:	f002 021c 	and.w	r2, r2, #28
    6a82:	47b0      	blx	r6
    6a84:	6823      	ldr	r3, [r4, #0]
    6a86:	079b      	lsls	r3, r3, #30
    6a88:	d505      	bpl.n	6a96 <_spi_m_dma_init+0x3a>
    6a8a:	4620      	mov	r0, r4
    6a8c:	4b19      	ldr	r3, [pc, #100]	; (6af4 <_spi_m_dma_init+0x98>)
    6a8e:	4798      	blx	r3
    6a90:	2102      	movs	r1, #2
    6a92:	4620      	mov	r0, r4
    6a94:	47b0      	blx	r6
    6a96:	f042 0201 	orr.w	r2, r2, #1
    6a9a:	6022      	str	r2, [r4, #0]
    6a9c:	2103      	movs	r1, #3
    6a9e:	4620      	mov	r0, r4
    6aa0:	47b0      	blx	r6
    6aa2:	4620      	mov	r0, r4
    6aa4:	2101      	movs	r1, #1
    6aa6:	47b0      	blx	r6
    6aa8:	462e      	mov	r6, r5
    6aaa:	4639      	mov	r1, r7
    6aac:	f846 4b18 	str.w	r4, [r6], #24
    6ab0:	4620      	mov	r0, r4
    6ab2:	4b11      	ldr	r3, [pc, #68]	; (6af8 <_spi_m_dma_init+0x9c>)
    6ab4:	4f11      	ldr	r7, [pc, #68]	; (6afc <_spi_m_dma_init+0xa0>)
    6ab6:	4798      	blx	r3
    6ab8:	4b11      	ldr	r3, [pc, #68]	; (6b00 <_spi_m_dma_init+0xa4>)
    6aba:	4620      	mov	r0, r4
    6abc:	4798      	blx	r3
    6abe:	4601      	mov	r1, r0
    6ac0:	4630      	mov	r0, r6
    6ac2:	47b8      	blx	r7
    6ac4:	69ab      	ldr	r3, [r5, #24]
    6ac6:	4a0f      	ldr	r2, [pc, #60]	; (6b04 <_spi_m_dma_init+0xa8>)
    6ac8:	4c0f      	ldr	r4, [pc, #60]	; (6b08 <_spi_m_dma_init+0xac>)
    6aca:	609d      	str	r5, [r3, #8]
    6acc:	601a      	str	r2, [r3, #0]
    6ace:	605c      	str	r4, [r3, #4]
    6ad0:	2100      	movs	r1, #0
    6ad2:	4630      	mov	r0, r6
    6ad4:	47b8      	blx	r7
    6ad6:	69ab      	ldr	r3, [r5, #24]
    6ad8:	4a0c      	ldr	r2, [pc, #48]	; (6b0c <_spi_m_dma_init+0xb0>)
    6ada:	609d      	str	r5, [r3, #8]
    6adc:	e883 0014 	stmia.w	r3, {r2, r4}
    6ae0:	2000      	movs	r0, #0
    6ae2:	bdf8      	pop	{r3, r4, r5, r6, r7, pc}
    6ae4:	f06f 000c 	mvn.w	r0, #12
    6ae8:	bdf8      	pop	{r3, r4, r5, r6, r7, pc}
    6aea:	bf00      	nop
    6aec:	00006385 	.word	0x00006385
    6af0:	000061e5 	.word	0x000061e5
    6af4:	00006209 	.word	0x00006209
    6af8:	00006551 	.word	0x00006551
    6afc:	00005e11 	.word	0x00005e11
    6b00:	0000639d 	.word	0x0000639d
    6b04:	000063b1 	.word	0x000063b1
    6b08:	000063c5 	.word	0x000063c5
    6b0c:	000063bb 	.word	0x000063bb

00006b10 <_spi_m_dma_enable>:
    6b10:	6800      	ldr	r0, [r0, #0]
    6b12:	4b01      	ldr	r3, [pc, #4]	; (6b18 <_spi_m_dma_enable+0x8>)
    6b14:	4718      	bx	r3
    6b16:	bf00      	nop
    6b18:	0000635d 	.word	0x0000635d

00006b1c <_spi_m_dma_register_callback>:
    6b1c:	2901      	cmp	r1, #1
    6b1e:	b570      	push	{r4, r5, r6, lr}
    6b20:	4614      	mov	r4, r2
    6b22:	d00d      	beq.n	6b40 <_spi_m_dma_register_callback+0x24>
    6b24:	d302      	bcc.n	6b2c <_spi_m_dma_register_callback+0x10>
    6b26:	2902      	cmp	r1, #2
    6b28:	d013      	beq.n	6b52 <_spi_m_dma_register_callback+0x36>
    6b2a:	bd70      	pop	{r4, r5, r6, pc}
    6b2c:	6042      	str	r2, [r0, #4]
    6b2e:	2100      	movs	r1, #0
    6b30:	3200      	adds	r2, #0
    6b32:	bf18      	it	ne
    6b34:	2201      	movne	r2, #1
    6b36:	4608      	mov	r0, r1
    6b38:	4b0e      	ldr	r3, [pc, #56]	; (6b74 <_spi_m_dma_register_callback+0x58>)
    6b3a:	e8bd 4070 	ldmia.w	sp!, {r4, r5, r6, lr}
    6b3e:	4718      	bx	r3
    6b40:	6082      	str	r2, [r0, #8]
    6b42:	4b0d      	ldr	r3, [pc, #52]	; (6b78 <_spi_m_dma_register_callback+0x5c>)
    6b44:	6800      	ldr	r0, [r0, #0]
    6b46:	4798      	blx	r3
    6b48:	1c22      	adds	r2, r4, #0
    6b4a:	bf18      	it	ne
    6b4c:	2201      	movne	r2, #1
    6b4e:	2100      	movs	r1, #0
    6b50:	e7f2      	b.n	6b38 <_spi_m_dma_register_callback+0x1c>
    6b52:	60c2      	str	r2, [r0, #12]
    6b54:	4b08      	ldr	r3, [pc, #32]	; (6b78 <_spi_m_dma_register_callback+0x5c>)
    6b56:	6800      	ldr	r0, [r0, #0]
    6b58:	4d06      	ldr	r5, [pc, #24]	; (6b74 <_spi_m_dma_register_callback+0x58>)
    6b5a:	4798      	blx	r3
    6b5c:	3400      	adds	r4, #0
    6b5e:	bf18      	it	ne
    6b60:	2401      	movne	r4, #1
    6b62:	4622      	mov	r2, r4
    6b64:	2101      	movs	r1, #1
    6b66:	47a8      	blx	r5
    6b68:	4622      	mov	r2, r4
    6b6a:	2101      	movs	r1, #1
    6b6c:	2000      	movs	r0, #0
    6b6e:	462b      	mov	r3, r5
    6b70:	e7e3      	b.n	6b3a <_spi_m_dma_register_callback+0x1e>
    6b72:	bf00      	nop
    6b74:	00005d2d 	.word	0x00005d2d
    6b78:	0000639d 	.word	0x0000639d

00006b7c <_spi_m_dma_transfer>:
    6b7c:	e92d 4ff7 	stmdb	sp!, {r0, r1, r2, r4, r5, r6, r7, r8, r9, sl, fp, lr}
    6b80:	f8d0 b000 	ldr.w	fp, [r0]
    6b84:	9200      	str	r2, [sp, #0]
    6b86:	4605      	mov	r5, r0
    6b88:	4a2f      	ldr	r2, [pc, #188]	; (6c48 <_spi_m_dma_transfer+0xcc>)
    6b8a:	f8df a0d4 	ldr.w	sl, [pc, #212]	; 6c60 <_spi_m_dma_transfer+0xe4>
    6b8e:	f8df 90d4 	ldr.w	r9, [pc, #212]	; 6c64 <_spi_m_dma_transfer+0xe8>
    6b92:	4f2e      	ldr	r7, [pc, #184]	; (6c4c <_spi_m_dma_transfer+0xd0>)
    6b94:	4658      	mov	r0, fp
    6b96:	4698      	mov	r8, r3
    6b98:	460c      	mov	r4, r1
    6b9a:	4790      	blx	r2
    6b9c:	4a2c      	ldr	r2, [pc, #176]	; (6c50 <_spi_m_dma_transfer+0xd4>)
    6b9e:	9001      	str	r0, [sp, #4]
    6ba0:	4658      	mov	r0, fp
    6ba2:	4790      	blx	r2
    6ba4:	9b00      	ldr	r3, [sp, #0]
    6ba6:	f8db 201c 	ldr.w	r2, [fp, #28]
    6baa:	4606      	mov	r6, r0
    6bac:	2b00      	cmp	r3, #0
    6bae:	d030      	beq.n	6c12 <_spi_m_dma_transfer+0x96>
    6bb0:	0752      	lsls	r2, r2, #29
    6bb2:	d409      	bmi.n	6bc8 <_spi_m_dma_transfer+0x4c>
    6bb4:	f8db 2004 	ldr.w	r2, [fp, #4]
    6bb8:	4b26      	ldr	r3, [pc, #152]	; (6c54 <_spi_m_dma_transfer+0xd8>)
    6bba:	f442 3200 	orr.w	r2, r2, #131072	; 0x20000
    6bbe:	f8cb 2004 	str.w	r2, [fp, #4]
    6bc2:	2117      	movs	r1, #23
    6bc4:	4658      	mov	r0, fp
    6bc6:	4798      	blx	r3
    6bc8:	6829      	ldr	r1, [r5, #0]
    6bca:	4630      	mov	r0, r6
    6bcc:	3128      	adds	r1, #40	; 0x28
    6bce:	47d0      	blx	sl
    6bd0:	9900      	ldr	r1, [sp, #0]
    6bd2:	4630      	mov	r0, r6
    6bd4:	47c8      	blx	r9
    6bd6:	4641      	mov	r1, r8
    6bd8:	4630      	mov	r0, r6
    6bda:	47b8      	blx	r7
    6bdc:	2100      	movs	r1, #0
    6bde:	4630      	mov	r0, r6
    6be0:	4b1d      	ldr	r3, [pc, #116]	; (6c58 <_spi_m_dma_transfer+0xdc>)
    6be2:	4798      	blx	r3
    6be4:	4e1d      	ldr	r6, [pc, #116]	; (6c5c <_spi_m_dma_transfer+0xe0>)
    6be6:	b30c      	cbz	r4, 6c2c <_spi_m_dma_transfer+0xb0>
    6be8:	4621      	mov	r1, r4
    6bea:	2000      	movs	r0, #0
    6bec:	47d0      	blx	sl
    6bee:	6829      	ldr	r1, [r5, #0]
    6bf0:	2000      	movs	r0, #0
    6bf2:	3128      	adds	r1, #40	; 0x28
    6bf4:	47c8      	blx	r9
    6bf6:	2101      	movs	r1, #1
    6bf8:	2000      	movs	r0, #0
    6bfa:	47b0      	blx	r6
    6bfc:	4641      	mov	r1, r8
    6bfe:	2000      	movs	r0, #0
    6c00:	47b8      	blx	r7
    6c02:	2100      	movs	r1, #0
    6c04:	4608      	mov	r0, r1
    6c06:	4b14      	ldr	r3, [pc, #80]	; (6c58 <_spi_m_dma_transfer+0xdc>)
    6c08:	4798      	blx	r3
    6c0a:	2000      	movs	r0, #0
    6c0c:	b003      	add	sp, #12
    6c0e:	e8bd 8ff0 	ldmia.w	sp!, {r4, r5, r6, r7, r8, r9, sl, fp, pc}
    6c12:	0753      	lsls	r3, r2, #29
    6c14:	d4e6      	bmi.n	6be4 <_spi_m_dma_transfer+0x68>
    6c16:	f8db 2004 	ldr.w	r2, [fp, #4]
    6c1a:	4b0e      	ldr	r3, [pc, #56]	; (6c54 <_spi_m_dma_transfer+0xd8>)
    6c1c:	f422 3200 	bic.w	r2, r2, #131072	; 0x20000
    6c20:	f8cb 2004 	str.w	r2, [fp, #4]
    6c24:	2117      	movs	r1, #23
    6c26:	4658      	mov	r0, fp
    6c28:	4798      	blx	r3
    6c2a:	e7db      	b.n	6be4 <_spi_m_dma_transfer+0x68>
    6c2c:	9901      	ldr	r1, [sp, #4]
    6c2e:	4620      	mov	r0, r4
    6c30:	310e      	adds	r1, #14
    6c32:	47d0      	blx	sl
    6c34:	6829      	ldr	r1, [r5, #0]
    6c36:	4620      	mov	r0, r4
    6c38:	3128      	adds	r1, #40	; 0x28
    6c3a:	47c8      	blx	r9
    6c3c:	4621      	mov	r1, r4
    6c3e:	4620      	mov	r0, r4
    6c40:	47b0      	blx	r6
    6c42:	4641      	mov	r1, r8
    6c44:	4620      	mov	r0, r4
    6c46:	e7db      	b.n	6c00 <_spi_m_dma_transfer+0x84>
    6c48:	00006385 	.word	0x00006385
    6c4c:	00005d91 	.word	0x00005d91
    6c50:	0000639d 	.word	0x0000639d
    6c54:	000061e5 	.word	0x000061e5
    6c58:	00005dd5 	.word	0x00005dd5
    6c5c:	00005d75 	.word	0x00005d75
    6c60:	00005d65 	.word	0x00005d65
    6c64:	00005d55 	.word	0x00005d55

00006c68 <_delay_init>:
    6c68:	4b03      	ldr	r3, [pc, #12]	; (6c78 <_delay_init+0x10>)
    6c6a:	f06f 427f 	mvn.w	r2, #4278190080	; 0xff000000
    6c6e:	605a      	str	r2, [r3, #4]
    6c70:	2205      	movs	r2, #5
    6c72:	601a      	str	r2, [r3, #0]
    6c74:	4770      	bx	lr
    6c76:	bf00      	nop
    6c78:	e000e010 	.word	0xe000e010

00006c7c <_delay_cycles>:
    6c7c:	0e0b      	lsrs	r3, r1, #24
    6c7e:	4a0c      	ldr	r2, [pc, #48]	; (6cb0 <_delay_cycles+0x34>)
    6c80:	b530      	push	{r4, r5, lr}
    6c82:	b2d8      	uxtb	r0, r3
    6c84:	f06f 447f 	mvn.w	r4, #4278190080	; 0xff000000
    6c88:	3801      	subs	r0, #1
    6c8a:	b2c0      	uxtb	r0, r0
    6c8c:	28ff      	cmp	r0, #255	; 0xff
    6c8e:	d108      	bne.n	6ca2 <_delay_cycles+0x26>
    6c90:	eba3 6303 	sub.w	r3, r3, r3, lsl #24
    6c94:	4419      	add	r1, r3
    6c96:	6051      	str	r1, [r2, #4]
    6c98:	6091      	str	r1, [r2, #8]
    6c9a:	6813      	ldr	r3, [r2, #0]
    6c9c:	03db      	lsls	r3, r3, #15
    6c9e:	d5fc      	bpl.n	6c9a <_delay_cycles+0x1e>
    6ca0:	bd30      	pop	{r4, r5, pc}
    6ca2:	6054      	str	r4, [r2, #4]
    6ca4:	6094      	str	r4, [r2, #8]
    6ca6:	6815      	ldr	r5, [r2, #0]
    6ca8:	03ed      	lsls	r5, r5, #15
    6caa:	d5fc      	bpl.n	6ca6 <_delay_cycles+0x2a>
    6cac:	e7ec      	b.n	6c88 <_delay_cycles+0xc>
    6cae:	bf00      	nop
    6cb0:	e000e010 	.word	0xe000e010

00006cb4 <_dummy_func_no_return>:
    6cb4:	2000      	movs	r0, #0
    6cb6:	4770      	bx	lr

00006cb8 <_usb_d_dev_wait_dfll_rdy>:
    6cb8:	4b07      	ldr	r3, [pc, #28]	; (6cd8 <_usb_d_dev_wait_dfll_rdy+0x20>)
    6cba:	f893 2020 	ldrb.w	r2, [r3, #32]
    6cbe:	07d1      	lsls	r1, r2, #31
    6cc0:	d506      	bpl.n	6cd0 <_usb_d_dev_wait_dfll_rdy+0x18>
    6cc2:	691a      	ldr	r2, [r3, #16]
    6cc4:	f402 6210 	and.w	r2, r2, #2304	; 0x900
    6cc8:	f5b2 6f10 	cmp.w	r2, #2304	; 0x900
    6ccc:	d1f9      	bne.n	6cc2 <_usb_d_dev_wait_dfll_rdy+0xa>
    6cce:	4770      	bx	lr
    6cd0:	691a      	ldr	r2, [r3, #16]
    6cd2:	05d2      	lsls	r2, r2, #23
    6cd4:	d5fc      	bpl.n	6cd0 <_usb_d_dev_wait_dfll_rdy+0x18>
    6cd6:	4770      	bx	lr
    6cd8:	40001000 	.word	0x40001000

00006cdc <_usb_d_dev_ept>:
    6cdc:	b110      	cbz	r0, 6ce4 <_usb_d_dev_ept+0x8>
    6cde:	b109      	cbz	r1, 6ce4 <_usb_d_dev_ept+0x8>
    6ce0:	3002      	adds	r0, #2
    6ce2:	b2c0      	uxtb	r0, r0
    6ce4:	2314      	movs	r3, #20
    6ce6:	fb00 3003 	mla	r0, r0, r3, r3
    6cea:	4b01      	ldr	r3, [pc, #4]	; (6cf0 <_usb_d_dev_ept+0x14>)
    6cec:	4418      	add	r0, r3
    6cee:	4770      	bx	lr
    6cf0:	200007c0 	.word	0x200007c0

00006cf4 <_usb_d_dev_handle_setup>:
    6cf4:	b430      	push	{r4, r5}
    6cf6:	7cc1      	ldrb	r1, [r0, #19]
    6cf8:	7c85      	ldrb	r5, [r0, #18]
    6cfa:	f001 0307 	and.w	r3, r1, #7
    6cfe:	f005 020f 	and.w	r2, r5, #15
    6d02:	2b01      	cmp	r3, #1
    6d04:	ea4f 1442 	mov.w	r4, r2, lsl #5
    6d08:	f102 0308 	add.w	r3, r2, #8
    6d0c:	d00a      	beq.n	6d24 <_usb_d_dev_handle_setup+0x30>
    6d0e:	015a      	lsls	r2, r3, #5
    6d10:	f102 4282 	add.w	r2, r2, #1090519040	; 0x41000000
    6d14:	f104 4382 	add.w	r3, r4, #1090519040	; 0x41000000
    6d18:	2110      	movs	r1, #16
    6d1a:	71d1      	strb	r1, [r2, #7]
    6d1c:	f883 1108 	strb.w	r1, [r3, #264]	; 0x108
    6d20:	bc30      	pop	{r4, r5}
    6d22:	4770      	bx	lr
    6d24:	f011 0f40 	tst.w	r1, #64	; 0x40
    6d28:	d00b      	beq.n	6d42 <_usb_d_dev_handle_setup+0x4e>
    6d2a:	0152      	lsls	r2, r2, #5
    6d2c:	f36f 1186 	bfc	r1, #6, #1
    6d30:	f102 4282 	add.w	r2, r2, #1090519040	; 0x41000000
    6d34:	74c1      	strb	r1, [r0, #19]
    6d36:	2180      	movs	r1, #128	; 0x80
    6d38:	f882 1104 	strb.w	r1, [r2, #260]	; 0x104
    6d3c:	2140      	movs	r1, #64	; 0x40
    6d3e:	f882 1105 	strb.w	r1, [r2, #261]	; 0x105
    6d42:	7cc2      	ldrb	r2, [r0, #19]
    6d44:	f36f 02c3 	bfc	r2, #3, #1
    6d48:	74c2      	strb	r2, [r0, #19]
    6d4a:	4a0a      	ldr	r2, [pc, #40]	; (6d74 <_usb_d_dev_handle_setup+0x80>)
    6d4c:	015b      	lsls	r3, r3, #5
    6d4e:	1911      	adds	r1, r2, r4
    6d50:	2000      	movs	r0, #0
    6d52:	f103 4382 	add.w	r3, r3, #1090519040	; 0x41000000
    6d56:	f881 023a 	strb.w	r0, [r1, #570]	; 0x23a
    6d5a:	f881 024a 	strb.w	r0, [r1, #586]	; 0x24a
    6d5e:	216f      	movs	r1, #111	; 0x6f
    6d60:	71d9      	strb	r1, [r3, #7]
    6d62:	f104 4382 	add.w	r3, r4, #1090519040	; 0x41000000
    6d66:	4628      	mov	r0, r5
    6d68:	f883 1108 	strb.w	r1, [r3, #264]	; 0x108
    6d6c:	6893      	ldr	r3, [r2, #8]
    6d6e:	bc30      	pop	{r4, r5}
    6d70:	4718      	bx	r3
    6d72:	bf00      	nop
    6d74:	200007c0 	.word	0x200007c0

00006d78 <_usb_d_dev_handle_stall>:
    6d78:	4602      	mov	r2, r0
    6d7a:	7c80      	ldrb	r0, [r0, #18]
    6d7c:	2320      	movs	r3, #32
    6d7e:	fa03 f101 	lsl.w	r1, r3, r1
    6d82:	f000 030f 	and.w	r3, r0, #15
    6d86:	015b      	lsls	r3, r3, #5
    6d88:	f103 4382 	add.w	r3, r3, #1090519040	; 0x41000000
    6d8c:	b2c9      	uxtb	r1, r1
    6d8e:	f883 1108 	strb.w	r1, [r3, #264]	; 0x108
    6d92:	4b02      	ldr	r3, [pc, #8]	; (6d9c <_usb_d_dev_handle_stall+0x24>)
    6d94:	6892      	ldr	r2, [r2, #8]
    6d96:	691b      	ldr	r3, [r3, #16]
    6d98:	2101      	movs	r1, #1
    6d9a:	4718      	bx	r3
    6d9c:	200007c0 	.word	0x200007c0

00006da0 <_usb_d_dev_trans_done>:
    6da0:	4602      	mov	r2, r0
    6da2:	7c80      	ldrb	r0, [r0, #18]
    6da4:	28ff      	cmp	r0, #255	; 0xff
    6da6:	d00a      	beq.n	6dbe <_usb_d_dev_trans_done+0x1e>
    6da8:	7cd3      	ldrb	r3, [r2, #19]
    6daa:	f013 0f40 	tst.w	r3, #64	; 0x40
    6dae:	d006      	beq.n	6dbe <_usb_d_dev_trans_done+0x1e>
    6db0:	f36f 1386 	bfc	r3, #6, #1
    6db4:	74d3      	strb	r3, [r2, #19]
    6db6:	4b02      	ldr	r3, [pc, #8]	; (6dc0 <_usb_d_dev_trans_done+0x20>)
    6db8:	6892      	ldr	r2, [r2, #8]
    6dba:	691b      	ldr	r3, [r3, #16]
    6dbc:	4718      	bx	r3
    6dbe:	4770      	bx	lr
    6dc0:	200007c0 	.word	0x200007c0

00006dc4 <_usb_d_dev_trans_stop>:
    6dc4:	b477      	push	{r0, r1, r2, r4, r5, r6}
    6dc6:	7c83      	ldrb	r3, [r0, #18]
    6dc8:	2425      	movs	r4, #37	; 0x25
    6dca:	f88d 4004 	strb.w	r4, [sp, #4]
    6dce:	2bff      	cmp	r3, #255	; 0xff
    6dd0:	f04f 044a 	mov.w	r4, #74	; 0x4a
    6dd4:	f88d 4005 	strb.w	r4, [sp, #5]
    6dd8:	d021      	beq.n	6e1e <_usb_d_dev_trans_stop+0x5a>
    6dda:	7cc4      	ldrb	r4, [r0, #19]
    6ddc:	0664      	lsls	r4, r4, #25
    6dde:	d51e      	bpl.n	6e1e <_usb_d_dev_trans_stop+0x5a>
    6de0:	f003 030f 	and.w	r3, r3, #15
    6de4:	f103 0408 	add.w	r4, r3, #8
    6de8:	0165      	lsls	r5, r4, #5
    6dea:	f105 4582 	add.w	r5, r5, #1090519040	; 0x41000000
    6dee:	b199      	cbz	r1, 6e18 <_usb_d_dev_trans_stop+0x54>
    6df0:	2680      	movs	r6, #128	; 0x80
    6df2:	712e      	strb	r6, [r5, #4]
    6df4:	ad02      	add	r5, sp, #8
    6df6:	440d      	add	r5, r1
    6df8:	0164      	lsls	r4, r4, #5
    6dfa:	015b      	lsls	r3, r3, #5
    6dfc:	f104 4482 	add.w	r4, r4, #1090519040	; 0x41000000
    6e00:	f103 4382 	add.w	r3, r3, #1090519040	; 0x41000000
    6e04:	f815 1c04 	ldrb.w	r1, [r5, #-4]
    6e08:	71e1      	strb	r1, [r4, #7]
    6e0a:	f883 1108 	strb.w	r1, [r3, #264]	; 0x108
    6e0e:	4b05      	ldr	r3, [pc, #20]	; (6e24 <_usb_d_dev_trans_stop+0x60>)
    6e10:	4611      	mov	r1, r2
    6e12:	b003      	add	sp, #12
    6e14:	bc70      	pop	{r4, r5, r6}
    6e16:	4718      	bx	r3
    6e18:	2640      	movs	r6, #64	; 0x40
    6e1a:	716e      	strb	r6, [r5, #5]
    6e1c:	e7ea      	b.n	6df4 <_usb_d_dev_trans_stop+0x30>
    6e1e:	b003      	add	sp, #12
    6e20:	bc70      	pop	{r4, r5, r6}
    6e22:	4770      	bx	lr
    6e24:	00006da1 	.word	0x00006da1

00006e28 <_usb_d_dev_handle_trfail>:
    6e28:	b4f3      	push	{r0, r1, r4, r5, r6, r7}
    6e2a:	7c86      	ldrb	r6, [r0, #18]
    6e2c:	2304      	movs	r3, #4
    6e2e:	f006 060f 	and.w	r6, r6, #15
    6e32:	f88d 3004 	strb.w	r3, [sp, #4]
    6e36:	2308      	movs	r3, #8
    6e38:	f88d 3005 	strb.w	r3, [sp, #5]
    6e3c:	18f3      	adds	r3, r6, r3
    6e3e:	015a      	lsls	r2, r3, #5
    6e40:	f102 4282 	add.w	r2, r2, #1090519040	; 0x41000000
    6e44:	0175      	lsls	r5, r6, #5
    6e46:	7812      	ldrb	r2, [r2, #0]
    6e48:	b339      	cbz	r1, 6e9a <_usb_d_dev_handle_trfail+0x72>
    6e4a:	f3c2 1202 	ubfx	r2, r2, #4, #3
    6e4e:	4c2e      	ldr	r4, [pc, #184]	; (6f08 <_usb_d_dev_handle_trfail+0xe0>)
    6e50:	eb05 1501 	add.w	r5, r5, r1, lsl #4
    6e54:	4425      	add	r5, r4
    6e56:	2a02      	cmp	r2, #2
    6e58:	7aac      	ldrb	r4, [r5, #10]
    6e5a:	aa02      	add	r2, sp, #8
    6e5c:	eb02 0701 	add.w	r7, r2, r1
    6e60:	b2e4      	uxtb	r4, r4
    6e62:	ea4f 1246 	mov.w	r2, r6, lsl #5
    6e66:	d11b      	bne.n	6ea0 <_usb_d_dev_handle_trfail+0x78>
    6e68:	f014 0f01 	tst.w	r4, #1
    6e6c:	d018      	beq.n	6ea0 <_usb_d_dev_handle_trfail+0x78>
    6e6e:	7aac      	ldrb	r4, [r5, #10]
    6e70:	015b      	lsls	r3, r3, #5
    6e72:	f36f 0400 	bfc	r4, #0, #1
    6e76:	f102 4282 	add.w	r2, r2, #1090519040	; 0x41000000
    6e7a:	f103 4382 	add.w	r3, r3, #1090519040	; 0x41000000
    6e7e:	72ac      	strb	r4, [r5, #10]
    6e80:	3100      	adds	r1, #0
    6e82:	f817 4c04 	ldrb.w	r4, [r7, #-4]
    6e86:	71dc      	strb	r4, [r3, #7]
    6e88:	bf18      	it	ne
    6e8a:	2101      	movne	r1, #1
    6e8c:	f882 4108 	strb.w	r4, [r2, #264]	; 0x108
    6e90:	2204      	movs	r2, #4
    6e92:	4b1e      	ldr	r3, [pc, #120]	; (6f0c <_usb_d_dev_handle_trfail+0xe4>)
    6e94:	b002      	add	sp, #8
    6e96:	bcf0      	pop	{r4, r5, r6, r7}
    6e98:	4718      	bx	r3
    6e9a:	f002 0207 	and.w	r2, r2, #7
    6e9e:	e7d6      	b.n	6e4e <_usb_d_dev_handle_trfail+0x26>
    6ea0:	f014 0402 	ands.w	r4, r4, #2
    6ea4:	d01b      	beq.n	6ede <_usb_d_dev_handle_trfail+0xb6>
    6ea6:	7aac      	ldrb	r4, [r5, #10]
    6ea8:	7cc6      	ldrb	r6, [r0, #19]
    6eaa:	015b      	lsls	r3, r3, #5
    6eac:	f36f 0441 	bfc	r4, #1, #1
    6eb0:	f103 4382 	add.w	r3, r3, #1090519040	; 0x41000000
    6eb4:	72ac      	strb	r4, [r5, #10]
    6eb6:	f817 4c04 	ldrb.w	r4, [r7, #-4]
    6eba:	71dc      	strb	r4, [r3, #7]
    6ebc:	f102 4282 	add.w	r2, r2, #1090519040	; 0x41000000
    6ec0:	f006 0307 	and.w	r3, r6, #7
    6ec4:	2b01      	cmp	r3, #1
    6ec6:	f882 4108 	strb.w	r4, [r2, #264]	; 0x108
    6eca:	d119      	bne.n	6f00 <_usb_d_dev_handle_trfail+0xd8>
    6ecc:	0673      	lsls	r3, r6, #25
    6ece:	d517      	bpl.n	6f00 <_usb_d_dev_handle_trfail+0xd8>
    6ed0:	7cc3      	ldrb	r3, [r0, #19]
    6ed2:	09db      	lsrs	r3, r3, #7
    6ed4:	4299      	cmp	r1, r3
    6ed6:	d013      	beq.n	6f00 <_usb_d_dev_handle_trfail+0xd8>
    6ed8:	2200      	movs	r2, #0
    6eda:	4619      	mov	r1, r3
    6edc:	e7d9      	b.n	6e92 <_usb_d_dev_handle_trfail+0x6a>
    6ede:	480c      	ldr	r0, [pc, #48]	; (6f10 <_usb_d_dev_handle_trfail+0xe8>)
    6ee0:	eb01 0146 	add.w	r1, r1, r6, lsl #1
    6ee4:	eb00 1101 	add.w	r1, r0, r1, lsl #4
    6ee8:	015b      	lsls	r3, r3, #5
    6eea:	f103 4382 	add.w	r3, r3, #1090519040	; 0x41000000
    6eee:	f102 4282 	add.w	r2, r2, #1090519040	; 0x41000000
    6ef2:	f881 423a 	strb.w	r4, [r1, #570]	; 0x23a
    6ef6:	f817 1c04 	ldrb.w	r1, [r7, #-4]
    6efa:	71d9      	strb	r1, [r3, #7]
    6efc:	f882 1108 	strb.w	r1, [r2, #264]	; 0x108
    6f00:	b002      	add	sp, #8
    6f02:	bcf0      	pop	{r4, r5, r6, r7}
    6f04:	4770      	bx	lr
    6f06:	bf00      	nop
    6f08:	200009f0 	.word	0x200009f0
    6f0c:	00006dc5 	.word	0x00006dc5
    6f10:	200007c0 	.word	0x200007c0

00006f14 <_usb_d_dev_reset_epts>:
    6f14:	e92d 41f0 	stmdb	sp!, {r4, r5, r6, r7, r8, lr}
    6f18:	4c09      	ldr	r4, [pc, #36]	; (6f40 <_usb_d_dev_reset_epts+0x2c>)
    6f1a:	4f0a      	ldr	r7, [pc, #40]	; (6f44 <_usb_d_dev_reset_epts+0x30>)
    6f1c:	f504 7507 	add.w	r5, r4, #540	; 0x21c
    6f20:	26ff      	movs	r6, #255	; 0xff
    6f22:	2103      	movs	r1, #3
    6f24:	4620      	mov	r0, r4
    6f26:	47b8      	blx	r7
    6f28:	2100      	movs	r1, #0
    6f2a:	74a6      	strb	r6, [r4, #18]
    6f2c:	74e1      	strb	r1, [r4, #19]
    6f2e:	3414      	adds	r4, #20
    6f30:	42ac      	cmp	r4, r5
    6f32:	d1f6      	bne.n	6f22 <_usb_d_dev_reset_epts+0xe>
    6f34:	2260      	movs	r2, #96	; 0x60
    6f36:	4804      	ldr	r0, [pc, #16]	; (6f48 <_usb_d_dev_reset_epts+0x34>)
    6f38:	4b04      	ldr	r3, [pc, #16]	; (6f4c <_usb_d_dev_reset_epts+0x38>)
    6f3a:	e8bd 41f0 	ldmia.w	sp!, {r4, r5, r6, r7, r8, lr}
    6f3e:	4718      	bx	r3
    6f40:	200007d4 	.word	0x200007d4
    6f44:	00006da1 	.word	0x00006da1
    6f48:	200009f0 	.word	0x200009f0
    6f4c:	0000949b 	.word	0x0000949b

00006f50 <_usb_d_dev_in_next>:
    6f50:	e92d 47f0 	stmdb	sp!, {r4, r5, r6, r7, r8, r9, sl, lr}
    6f54:	4604      	mov	r4, r0
    6f56:	7c80      	ldrb	r0, [r0, #18]
    6f58:	4689      	mov	r9, r1
    6f5a:	f000 080f 	and.w	r8, r0, #15
    6f5e:	2900      	cmp	r1, #0
    6f60:	d05a      	beq.n	7018 <_usb_d_dev_in_next+0xc8>
    6f62:	4b4c      	ldr	r3, [pc, #304]	; (7094 <_usb_d_dev_in_next+0x144>)
    6f64:	eb03 1348 	add.w	r3, r3, r8, lsl #5
    6f68:	695e      	ldr	r6, [r3, #20]
    6f6a:	f3c6 060d 	ubfx	r6, r6, #0, #14
    6f6e:	f8b4 e010 	ldrh.w	lr, [r4, #16]
    6f72:	f894 c013 	ldrb.w	ip, [r4, #19]
    6f76:	f240 33ff 	movw	r3, #1023	; 0x3ff
    6f7a:	459e      	cmp	lr, r3
    6f7c:	bf1a      	itte	ne
    6f7e:	f10e 32ff 	addne.w	r2, lr, #4294967295
    6f82:	b292      	uxthne	r2, r2
    6f84:	4672      	moveq	r2, lr
    6f86:	f00c 0a07 	and.w	sl, ip, #7
    6f8a:	f1b9 0f00 	cmp.w	r9, #0
    6f8e:	d006      	beq.n	6f9e <_usb_d_dev_in_next+0x4e>
    6f90:	ea4f 1348 	mov.w	r3, r8, lsl #5
    6f94:	f103 4382 	add.w	r3, r3, #1090519040	; 0x41000000
    6f98:	2102      	movs	r1, #2
    6f9a:	f883 1107 	strb.w	r1, [r3, #263]	; 0x107
    6f9e:	68a1      	ldr	r1, [r4, #8]
    6fa0:	6863      	ldr	r3, [r4, #4]
    6fa2:	4431      	add	r1, r6
    6fa4:	4299      	cmp	r1, r3
    6fa6:	60a1      	str	r1, [r4, #8]
    6fa8:	ea4f 1548 	mov.w	r5, r8, lsl #5
    6fac:	d240      	bcs.n	7030 <_usb_d_dev_in_next+0xe0>
    6fae:	1a5b      	subs	r3, r3, r1
    6fb0:	f01c 0f20 	tst.w	ip, #32
    6fb4:	b29f      	uxth	r7, r3
    6fb6:	4e38      	ldr	r6, [pc, #224]	; (7098 <_usb_d_dev_in_next+0x148>)
    6fb8:	6823      	ldr	r3, [r4, #0]
    6fba:	d02f      	beq.n	701c <_usb_d_dev_in_next+0xcc>
    6fbc:	4577      	cmp	r7, lr
    6fbe:	bf28      	it	cs
    6fc0:	4677      	movcs	r7, lr
    6fc2:	463a      	mov	r2, r7
    6fc4:	4419      	add	r1, r3
    6fc6:	68e0      	ldr	r0, [r4, #12]
    6fc8:	4b34      	ldr	r3, [pc, #208]	; (709c <_usb_d_dev_in_next+0x14c>)
    6fca:	4798      	blx	r3
    6fcc:	1973      	adds	r3, r6, r5
    6fce:	68e2      	ldr	r2, [r4, #12]
    6fd0:	f8c3 2240 	str.w	r2, [r3, #576]	; 0x240
    6fd4:	1972      	adds	r2, r6, r5
    6fd6:	f8d2 3244 	ldr.w	r3, [r2, #580]	; 0x244
    6fda:	f367 030d 	bfi	r3, r7, #0, #14
    6fde:	f8c2 3244 	str.w	r3, [r2, #580]	; 0x244
    6fe2:	f8d2 3244 	ldr.w	r3, [r2, #580]	; 0x244
    6fe6:	f36f 339b 	bfc	r3, #14, #14
    6fea:	f8c2 3244 	str.w	r3, [r2, #580]	; 0x244
    6fee:	f1b9 0f00 	cmp.w	r9, #0
    6ff2:	d108      	bne.n	7006 <_usb_d_dev_in_next+0xb6>
    6ff4:	f1ba 0f01 	cmp.w	sl, #1
    6ff8:	f105 4582 	add.w	r5, r5, #1090519040	; 0x41000000
    6ffc:	bf0c      	ite	eq
    6ffe:	234e      	moveq	r3, #78	; 0x4e
    7000:	234a      	movne	r3, #74	; 0x4a
    7002:	f885 3109 	strb.w	r3, [r5, #265]	; 0x109
    7006:	ea4f 1348 	mov.w	r3, r8, lsl #5
    700a:	f103 4382 	add.w	r3, r3, #1090519040	; 0x41000000
    700e:	2280      	movs	r2, #128	; 0x80
    7010:	f883 2105 	strb.w	r2, [r3, #261]	; 0x105
    7014:	e8bd 87f0 	ldmia.w	sp!, {r4, r5, r6, r7, r8, r9, sl, pc}
    7018:	460e      	mov	r6, r1
    701a:	e7a8      	b.n	6f6e <_usb_d_dev_in_next+0x1e>
    701c:	4419      	add	r1, r3
    701e:	1973      	adds	r3, r6, r5
    7020:	f5b7 5f00 	cmp.w	r7, #8192	; 0x2000
    7024:	bf28      	it	cs
    7026:	f44f 5700 	movcs.w	r7, #8192	; 0x2000
    702a:	f8c3 1240 	str.w	r1, [r3, #576]	; 0x240
    702e:	e7d1      	b.n	6fd4 <_usb_d_dev_in_next+0x84>
    7030:	f01c 0f10 	tst.w	ip, #16
    7034:	d00e      	beq.n	7054 <_usb_d_dev_in_next+0x104>
    7036:	7ce3      	ldrb	r3, [r4, #19]
    7038:	f36f 1304 	bfc	r3, #4, #1
    703c:	74e3      	strb	r3, [r4, #19]
    703e:	4b18      	ldr	r3, [pc, #96]	; (70a0 <_usb_d_dev_in_next+0x150>)
    7040:	442b      	add	r3, r5
    7042:	685a      	ldr	r2, [r3, #4]
    7044:	f36f 020d 	bfc	r2, #0, #14
    7048:	605a      	str	r2, [r3, #4]
    704a:	685a      	ldr	r2, [r3, #4]
    704c:	f36f 329b 	bfc	r2, #14, #14
    7050:	605a      	str	r2, [r3, #4]
    7052:	e7cc      	b.n	6fee <_usb_d_dev_in_next+0x9e>
    7054:	f1ba 0f01 	cmp.w	sl, #1
    7058:	f105 4582 	add.w	r5, r5, #1090519040	; 0x41000000
    705c:	ea02 0206 	and.w	r2, r2, r6
    7060:	bf0c      	ite	eq
    7062:	234b      	moveq	r3, #75	; 0x4b
    7064:	234a      	movne	r3, #74	; 0x4a
    7066:	4596      	cmp	lr, r2
    7068:	f885 3108 	strb.w	r3, [r5, #264]	; 0x108
    706c:	d10c      	bne.n	7088 <_usb_d_dev_in_next+0x138>
    706e:	7ce3      	ldrb	r3, [r4, #19]
    7070:	f36f 1386 	bfc	r3, #6, #1
    7074:	74e3      	strb	r3, [r4, #19]
    7076:	4b08      	ldr	r3, [pc, #32]	; (7098 <_usb_d_dev_in_next+0x148>)
    7078:	68db      	ldr	r3, [r3, #12]
    707a:	4798      	blx	r3
    707c:	2800      	cmp	r0, #0
    707e:	d1c9      	bne.n	7014 <_usb_d_dev_in_next+0xc4>
    7080:	7ce3      	ldrb	r3, [r4, #19]
    7082:	f043 0340 	orr.w	r3, r3, #64	; 0x40
    7086:	74e3      	strb	r3, [r4, #19]
    7088:	4620      	mov	r0, r4
    708a:	2100      	movs	r1, #0
    708c:	4b05      	ldr	r3, [pc, #20]	; (70a4 <_usb_d_dev_in_next+0x154>)
    708e:	e8bd 47f0 	ldmia.w	sp!, {r4, r5, r6, r7, r8, r9, sl, lr}
    7092:	4718      	bx	r3
    7094:	200009f0 	.word	0x200009f0
    7098:	200007c0 	.word	0x200007c0
    709c:	00009485 	.word	0x00009485
    70a0:	20000a00 	.word	0x20000a00
    70a4:	00006da1 	.word	0x00006da1

000070a8 <_usb_d_dev_out_next>:
    70a8:	e92d 4ff7 	stmdb	sp!, {r0, r1, r2, r4, r5, r6, r7, r8, r9, sl, fp, lr}
    70ac:	7c86      	ldrb	r6, [r0, #18]
    70ae:	f006 060f 	and.w	r6, r6, #15
    70b2:	4604      	mov	r4, r0
    70b4:	460f      	mov	r7, r1
    70b6:	0175      	lsls	r5, r6, #5
    70b8:	2900      	cmp	r1, #0
    70ba:	d062      	beq.n	7182 <_usb_d_dev_out_next+0xda>
    70bc:	4b61      	ldr	r3, [pc, #388]	; (7244 <_usb_d_dev_out_next+0x19c>)
    70be:	442b      	add	r3, r5
    70c0:	685a      	ldr	r2, [r3, #4]
    70c2:	685b      	ldr	r3, [r3, #4]
    70c4:	f3c2 398d 	ubfx	r9, r2, #14, #14
    70c8:	f3c3 0a0d 	ubfx	sl, r3, #0, #14
    70cc:	f8b4 8010 	ldrh.w	r8, [r4, #16]
    70d0:	7ce2      	ldrb	r2, [r4, #19]
    70d2:	f240 33ff 	movw	r3, #1023	; 0x3ff
    70d6:	4598      	cmp	r8, r3
    70d8:	bf1c      	itt	ne
    70da:	f108 38ff 	addne.w	r8, r8, #4294967295
    70de:	fa1f f888 	uxthne.w	r8, r8
    70e2:	f002 0307 	and.w	r3, r2, #7
    70e6:	ea0a 0b08 	and.w	fp, sl, r8
    70ea:	9301      	str	r3, [sp, #4]
    70ec:	b12f      	cbz	r7, 70fa <_usb_d_dev_out_next+0x52>
    70ee:	0173      	lsls	r3, r6, #5
    70f0:	f103 4382 	add.w	r3, r3, #1090519040	; 0x41000000
    70f4:	2101      	movs	r1, #1
    70f6:	f883 1107 	strb.w	r1, [r3, #263]	; 0x107
    70fa:	0690      	lsls	r0, r2, #26
    70fc:	d50c      	bpl.n	7118 <_usb_d_dev_out_next+0x70>
    70fe:	6862      	ldr	r2, [r4, #4]
    7100:	b152      	cbz	r2, 7118 <_usb_d_dev_out_next+0x70>
    7102:	68a0      	ldr	r0, [r4, #8]
    7104:	6823      	ldr	r3, [r4, #0]
    7106:	68e1      	ldr	r1, [r4, #12]
    7108:	1a12      	subs	r2, r2, r0
    710a:	b292      	uxth	r2, r2
    710c:	455a      	cmp	r2, fp
    710e:	4418      	add	r0, r3
    7110:	bf28      	it	cs
    7112:	465a      	movcs	r2, fp
    7114:	4b4c      	ldr	r3, [pc, #304]	; (7248 <_usb_d_dev_out_next+0x1a0>)
    7116:	4798      	blx	r3
    7118:	6862      	ldr	r2, [r4, #4]
    711a:	2a00      	cmp	r2, #0
    711c:	d134      	bne.n	7188 <_usb_d_dev_out_next+0xe0>
    711e:	7ce3      	ldrb	r3, [r4, #19]
    7120:	06d9      	lsls	r1, r3, #27
    7122:	f140 8089 	bpl.w	7238 <_usb_d_dev_out_next+0x190>
    7126:	f362 1304 	bfi	r3, r2, #4, #1
    712a:	4848      	ldr	r0, [pc, #288]	; (724c <_usb_d_dev_out_next+0x1a4>)
    712c:	68e1      	ldr	r1, [r4, #12]
    712e:	b2db      	uxtb	r3, r3
    7130:	4428      	add	r0, r5
    7132:	f043 0320 	orr.w	r3, r3, #32
    7136:	74e3      	strb	r3, [r4, #19]
    7138:	f500 730c 	add.w	r3, r0, #560	; 0x230
    713c:	f8c0 1230 	str.w	r1, [r0, #560]	; 0x230
    7140:	6859      	ldr	r1, [r3, #4]
    7142:	8a20      	ldrh	r0, [r4, #16]
    7144:	f360 319b 	bfi	r1, r0, #14, #14
    7148:	6059      	str	r1, [r3, #4]
    714a:	6859      	ldr	r1, [r3, #4]
    714c:	f362 010d 	bfi	r1, r2, #0, #14
    7150:	6059      	str	r1, [r3, #4]
    7152:	b96f      	cbnz	r7, 7170 <_usb_d_dev_out_next+0xc8>
    7154:	9b01      	ldr	r3, [sp, #4]
    7156:	2b01      	cmp	r3, #1
    7158:	bf04      	itt	eq
    715a:	4b3c      	ldreq	r3, [pc, #240]	; (724c <_usb_d_dev_out_next+0x1a4>)
    715c:	195b      	addeq	r3, r3, r5
    715e:	f105 4582 	add.w	r5, r5, #1090519040	; 0x41000000
    7162:	bf0a      	itet	eq
    7164:	f883 724a 	strbeq.w	r7, [r3, #586]	; 0x24a
    7168:	2325      	movne	r3, #37	; 0x25
    716a:	232d      	moveq	r3, #45	; 0x2d
    716c:	f885 3109 	strb.w	r3, [r5, #265]	; 0x109
    7170:	0176      	lsls	r6, r6, #5
    7172:	f106 4682 	add.w	r6, r6, #1090519040	; 0x41000000
    7176:	2340      	movs	r3, #64	; 0x40
    7178:	f886 3104 	strb.w	r3, [r6, #260]	; 0x104
    717c:	b003      	add	sp, #12
    717e:	e8bd 8ff0 	ldmia.w	sp!, {r4, r5, r6, r7, r8, r9, sl, fp, pc}
    7182:	4689      	mov	r9, r1
    7184:	468a      	mov	sl, r1
    7186:	e7a1      	b.n	70cc <_usb_d_dev_out_next+0x24>
    7188:	b1f7      	cbz	r7, 71c8 <_usb_d_dev_out_next+0x120>
    718a:	8a23      	ldrh	r3, [r4, #16]
    718c:	455b      	cmp	r3, fp
    718e:	d91b      	bls.n	71c8 <_usb_d_dev_out_next+0x120>
    7190:	7ce3      	ldrb	r3, [r4, #19]
    7192:	f36f 1304 	bfc	r3, #4, #1
    7196:	74e3      	strb	r3, [r4, #19]
    7198:	68a3      	ldr	r3, [r4, #8]
    719a:	4453      	add	r3, sl
    719c:	60a3      	str	r3, [r4, #8]
    719e:	9b01      	ldr	r3, [sp, #4]
    71a0:	f105 4582 	add.w	r5, r5, #1090519040	; 0x41000000
    71a4:	2b01      	cmp	r3, #1
    71a6:	bf0c      	ite	eq
    71a8:	232d      	moveq	r3, #45	; 0x2d
    71aa:	2325      	movne	r3, #37	; 0x25
    71ac:	f885 3108 	strb.w	r3, [r5, #264]	; 0x108
    71b0:	b91e      	cbnz	r6, 71ba <_usb_d_dev_out_next+0x112>
    71b2:	4b26      	ldr	r3, [pc, #152]	; (724c <_usb_d_dev_out_next+0x1a4>)
    71b4:	68e2      	ldr	r2, [r4, #12]
    71b6:	f8c3 2230 	str.w	r2, [r3, #560]	; 0x230
    71ba:	4b25      	ldr	r3, [pc, #148]	; (7250 <_usb_d_dev_out_next+0x1a8>)
    71bc:	2100      	movs	r1, #0
    71be:	4620      	mov	r0, r4
    71c0:	b003      	add	sp, #12
    71c2:	e8bd 4ff0 	ldmia.w	sp!, {r4, r5, r6, r7, r8, r9, sl, fp, lr}
    71c6:	4718      	bx	r3
    71c8:	68a1      	ldr	r1, [r4, #8]
    71ca:	4449      	add	r1, r9
    71cc:	428a      	cmp	r2, r1
    71ce:	60a1      	str	r1, [r4, #8]
    71d0:	d9e5      	bls.n	719e <_usb_d_dev_out_next+0xf6>
    71d2:	7ce0      	ldrb	r0, [r4, #19]
    71d4:	4b1d      	ldr	r3, [pc, #116]	; (724c <_usb_d_dev_out_next+0x1a4>)
    71d6:	f8b4 e010 	ldrh.w	lr, [r4, #16]
    71da:	1a52      	subs	r2, r2, r1
    71dc:	f010 0f20 	tst.w	r0, #32
    71e0:	b292      	uxth	r2, r2
    71e2:	d014      	beq.n	720e <_usb_d_dev_out_next+0x166>
    71e4:	1959      	adds	r1, r3, r5
    71e6:	4572      	cmp	r2, lr
    71e8:	68e0      	ldr	r0, [r4, #12]
    71ea:	f8c1 0230 	str.w	r0, [r1, #560]	; 0x230
    71ee:	bf28      	it	cs
    71f0:	4672      	movcs	r2, lr
    71f2:	442b      	add	r3, r5
    71f4:	f8d3 1234 	ldr.w	r1, [r3, #564]	; 0x234
    71f8:	f362 319b 	bfi	r1, r2, #14, #14
    71fc:	f8c3 1234 	str.w	r1, [r3, #564]	; 0x234
    7200:	f8d3 2234 	ldr.w	r2, [r3, #564]	; 0x234
    7204:	f36f 020d 	bfc	r2, #0, #14
    7208:	f8c3 2234 	str.w	r2, [r3, #564]	; 0x234
    720c:	e7a1      	b.n	7152 <_usb_d_dev_out_next+0xaa>
    720e:	4572      	cmp	r2, lr
    7210:	d90a      	bls.n	7228 <_usb_d_dev_out_next+0x180>
    7212:	f5b2 5f00 	cmp.w	r2, #8192	; 0x2000
    7216:	d80c      	bhi.n	7232 <_usb_d_dev_out_next+0x18a>
    7218:	ea22 0208 	bic.w	r2, r2, r8
    721c:	6820      	ldr	r0, [r4, #0]
    721e:	4401      	add	r1, r0
    7220:	1958      	adds	r0, r3, r5
    7222:	f8c0 1230 	str.w	r1, [r0, #560]	; 0x230
    7226:	e7e4      	b.n	71f2 <_usb_d_dev_out_next+0x14a>
    7228:	d2f8      	bcs.n	721c <_usb_d_dev_out_next+0x174>
    722a:	f040 0020 	orr.w	r0, r0, #32
    722e:	74e0      	strb	r0, [r4, #19]
    7230:	e7f4      	b.n	721c <_usb_d_dev_out_next+0x174>
    7232:	f44f 5200 	mov.w	r2, #8192	; 0x2000
    7236:	e7f1      	b.n	721c <_usb_d_dev_out_next+0x174>
    7238:	2f00      	cmp	r7, #0
    723a:	d1a6      	bne.n	718a <_usb_d_dev_out_next+0xe2>
    723c:	68a3      	ldr	r3, [r4, #8]
    723e:	444b      	add	r3, r9
    7240:	e7ac      	b.n	719c <_usb_d_dev_out_next+0xf4>
    7242:	bf00      	nop
    7244:	200009f0 	.word	0x200009f0
    7248:	00009485 	.word	0x00009485
    724c:	200007c0 	.word	0x200007c0
    7250:	00006da1 	.word	0x00006da1

00007254 <_usb_d_dev_handler>:
    7254:	e92d 47f0 	stmdb	sp!, {r4, r5, r6, r7, r8, r9, sl, lr}
    7258:	f04f 4382 	mov.w	r3, #1090519040	; 0x41000000
    725c:	8c1d      	ldrh	r5, [r3, #32]
    725e:	b2ad      	uxth	r5, r5
    7260:	2d00      	cmp	r5, #0
    7262:	d16e      	bne.n	7342 <_usb_d_dev_handler+0xee>
    7264:	8b99      	ldrh	r1, [r3, #28]
    7266:	8b1a      	ldrh	r2, [r3, #24]
    7268:	b292      	uxth	r2, r2
    726a:	400a      	ands	r2, r1
    726c:	f012 0004 	ands.w	r0, r2, #4
    7270:	d006      	beq.n	7280 <_usb_d_dev_handler+0x2c>
    7272:	2204      	movs	r2, #4
    7274:	839a      	strh	r2, [r3, #28]
    7276:	4b67      	ldr	r3, [pc, #412]	; (7414 <_usb_d_dev_handler+0x1c0>)
    7278:	e8bd 47f0 	ldmia.w	sp!, {r4, r5, r6, r7, r8, r9, sl, lr}
    727c:	681b      	ldr	r3, [r3, #0]
    727e:	4718      	bx	r3
    7280:	f412 7100 	ands.w	r1, r2, #512	; 0x200
    7284:	d025      	beq.n	72d2 <_usb_d_dev_handler+0x7e>
    7286:	f240 2201 	movw	r2, #513	; 0x201
    728a:	839a      	strh	r2, [r3, #28]
    728c:	829a      	strh	r2, [r3, #20]
    728e:	2270      	movs	r2, #112	; 0x70
    7290:	831a      	strh	r2, [r3, #24]
    7292:	4b60      	ldr	r3, [pc, #384]	; (7414 <_usb_d_dev_handler+0x1c0>)
    7294:	f8b3 2238 	ldrh.w	r2, [r3, #568]	; 0x238
    7298:	f002 020f 	and.w	r2, r2, #15
    729c:	2a03      	cmp	r2, #3
    729e:	d014      	beq.n	72ca <_usb_d_dev_handler+0x76>
    72a0:	f8b3 2258 	ldrh.w	r2, [r3, #600]	; 0x258
    72a4:	f002 020f 	and.w	r2, r2, #15
    72a8:	2a03      	cmp	r2, #3
    72aa:	d110      	bne.n	72ce <_usb_d_dev_handler+0x7a>
    72ac:	2101      	movs	r1, #1
    72ae:	eb03 1041 	add.w	r0, r3, r1, lsl #5
    72b2:	2200      	movs	r2, #0
    72b4:	f8b0 1238 	ldrh.w	r1, [r0, #568]	; 0x238
    72b8:	f8a0 2238 	strh.w	r2, [r0, #568]	; 0x238
    72bc:	f3c1 110a 	ubfx	r1, r1, #4, #11
    72c0:	685b      	ldr	r3, [r3, #4]
    72c2:	2003      	movs	r0, #3
    72c4:	e8bd 47f0 	ldmia.w	sp!, {r4, r5, r6, r7, r8, r9, sl, lr}
    72c8:	4718      	bx	r3
    72ca:	4601      	mov	r1, r0
    72cc:	e7ef      	b.n	72ae <_usb_d_dev_handler+0x5a>
    72ce:	4601      	mov	r1, r0
    72d0:	e7f6      	b.n	72c0 <_usb_d_dev_handler+0x6c>
    72d2:	f012 0080 	ands.w	r0, r2, #128	; 0x80
    72d6:	d005      	beq.n	72e4 <_usb_d_dev_handler+0x90>
    72d8:	2280      	movs	r2, #128	; 0x80
    72da:	839a      	strh	r2, [r3, #28]
    72dc:	4b4d      	ldr	r3, [pc, #308]	; (7414 <_usb_d_dev_handler+0x1c0>)
    72de:	2005      	movs	r0, #5
    72e0:	685b      	ldr	r3, [r3, #4]
    72e2:	e7ef      	b.n	72c4 <_usb_d_dev_handler+0x70>
    72e4:	f012 0470 	ands.w	r4, r2, #112	; 0x70
    72e8:	d00c      	beq.n	7304 <_usb_d_dev_handler+0xb0>
    72ea:	2270      	movs	r2, #112	; 0x70
    72ec:	839a      	strh	r2, [r3, #28]
    72ee:	829a      	strh	r2, [r3, #20]
    72f0:	f240 2201 	movw	r2, #513	; 0x201
    72f4:	831a      	strh	r2, [r3, #24]
    72f6:	4b48      	ldr	r3, [pc, #288]	; (7418 <_usb_d_dev_handler+0x1c4>)
    72f8:	4798      	blx	r3
    72fa:	4b46      	ldr	r3, [pc, #280]	; (7414 <_usb_d_dev_handler+0x1c0>)
    72fc:	4601      	mov	r1, r0
    72fe:	685b      	ldr	r3, [r3, #4]
    7300:	2002      	movs	r0, #2
    7302:	e7df      	b.n	72c4 <_usb_d_dev_handler+0x70>
    7304:	f012 0108 	ands.w	r1, r2, #8
    7308:	d00f      	beq.n	732a <_usb_d_dev_handler+0xd6>
    730a:	2208      	movs	r2, #8
    730c:	f883 4100 	strb.w	r4, [r3, #256]	; 0x100
    7310:	839a      	strh	r2, [r3, #28]
    7312:	2270      	movs	r2, #112	; 0x70
    7314:	829a      	strh	r2, [r3, #20]
    7316:	f240 2201 	movw	r2, #513	; 0x201
    731a:	831a      	strh	r2, [r3, #24]
    731c:	4b3f      	ldr	r3, [pc, #252]	; (741c <_usb_d_dev_handler+0x1c8>)
    731e:	4798      	blx	r3
    7320:	4b3c      	ldr	r3, [pc, #240]	; (7414 <_usb_d_dev_handler+0x1c0>)
    7322:	4621      	mov	r1, r4
    7324:	685b      	ldr	r3, [r3, #4]
    7326:	2001      	movs	r0, #1
    7328:	e7cc      	b.n	72c4 <_usb_d_dev_handler+0x70>
    732a:	07d0      	lsls	r0, r2, #31
    732c:	d509      	bpl.n	7342 <_usb_d_dev_handler+0xee>
    732e:	f240 2201 	movw	r2, #513	; 0x201
    7332:	839a      	strh	r2, [r3, #28]
    7334:	829a      	strh	r2, [r3, #20]
    7336:	2270      	movs	r2, #112	; 0x70
    7338:	831a      	strh	r2, [r3, #24]
    733a:	4b36      	ldr	r3, [pc, #216]	; (7414 <_usb_d_dev_handler+0x1c0>)
    733c:	2004      	movs	r0, #4
    733e:	685b      	ldr	r3, [r3, #4]
    7340:	e7c0      	b.n	72c4 <_usb_d_dev_handler+0x70>
    7342:	4c37      	ldr	r4, [pc, #220]	; (7420 <_usb_d_dev_handler+0x1cc>)
    7344:	f8df 80ec 	ldr.w	r8, [pc, #236]	; 7434 <_usb_d_dev_handler+0x1e0>
    7348:	4f36      	ldr	r7, [pc, #216]	; (7424 <_usb_d_dev_handler+0x1d0>)
    734a:	2600      	movs	r6, #0
    734c:	f1a4 0914 	sub.w	r9, r4, #20
    7350:	7ca2      	ldrb	r2, [r4, #18]
    7352:	2aff      	cmp	r2, #255	; 0xff
    7354:	d029      	beq.n	73aa <_usb_d_dev_handler+0x156>
    7356:	f002 020f 	and.w	r2, r2, #15
    735a:	2101      	movs	r1, #1
    735c:	fa01 f302 	lsl.w	r3, r1, r2
    7360:	422b      	tst	r3, r5
    7362:	d022      	beq.n	73aa <_usb_d_dev_handler+0x156>
    7364:	0153      	lsls	r3, r2, #5
    7366:	0152      	lsls	r2, r2, #5
    7368:	f103 4382 	add.w	r3, r3, #1090519040	; 0x41000000
    736c:	f102 4282 	add.w	r2, r2, #1090519040	; 0x41000000
    7370:	f893 0107 	ldrb.w	r0, [r3, #263]	; 0x107
    7374:	f892 3109 	ldrb.w	r3, [r2, #265]	; 0x109
    7378:	4003      	ands	r3, r0
    737a:	d016      	beq.n	73aa <_usb_d_dev_handler+0x156>
    737c:	2214      	movs	r2, #20
    737e:	fb02 9206 	mla	r2, r2, r6, r9
    7382:	f892 2027 	ldrb.w	r2, [r2, #39]	; 0x27
    7386:	f002 0047 	and.w	r0, r2, #71	; 0x47
    738a:	4288      	cmp	r0, r1
    738c:	d114      	bne.n	73b8 <_usb_d_dev_handler+0x164>
    738e:	06da      	lsls	r2, r3, #27
    7390:	d502      	bpl.n	7398 <_usb_d_dev_handler+0x144>
    7392:	4620      	mov	r0, r4
    7394:	47c0      	blx	r8
    7396:	e008      	b.n	73aa <_usb_d_dev_handler+0x156>
    7398:	f013 0140 	ands.w	r1, r3, #64	; 0x40
    739c:	d003      	beq.n	73a6 <_usb_d_dev_handler+0x152>
    739e:	4601      	mov	r1, r0
    73a0:	4620      	mov	r0, r4
    73a2:	4b21      	ldr	r3, [pc, #132]	; (7428 <_usb_d_dev_handler+0x1d4>)
    73a4:	e015      	b.n	73d2 <_usb_d_dev_handler+0x17e>
    73a6:	069b      	lsls	r3, r3, #26
    73a8:	d4fa      	bmi.n	73a0 <_usb_d_dev_handler+0x14c>
    73aa:	3601      	adds	r6, #1
    73ac:	2e1b      	cmp	r6, #27
    73ae:	f104 0414 	add.w	r4, r4, #20
    73b2:	d1cd      	bne.n	7350 <_usb_d_dev_handler+0xfc>
    73b4:	e8bd 87f0 	ldmia.w	sp!, {r4, r5, r6, r7, r8, r9, sl, pc}
    73b8:	0610      	lsls	r0, r2, #24
    73ba:	d514      	bpl.n	73e6 <_usb_d_dev_handler+0x192>
    73bc:	0658      	lsls	r0, r3, #25
    73be:	d4ef      	bmi.n	73a0 <_usb_d_dev_handler+0x14c>
    73c0:	0718      	lsls	r0, r3, #28
    73c2:	d502      	bpl.n	73ca <_usb_d_dev_handler+0x176>
    73c4:	4620      	mov	r0, r4
    73c6:	47b8      	blx	r7
    73c8:	e7ef      	b.n	73aa <_usb_d_dev_handler+0x156>
    73ca:	0798      	lsls	r0, r3, #30
    73cc:	d503      	bpl.n	73d6 <_usb_d_dev_handler+0x182>
    73ce:	4b17      	ldr	r3, [pc, #92]	; (742c <_usb_d_dev_handler+0x1d8>)
    73d0:	4620      	mov	r0, r4
    73d2:	4798      	blx	r3
    73d4:	e7e9      	b.n	73aa <_usb_d_dev_handler+0x156>
    73d6:	f002 0207 	and.w	r2, r2, #7
    73da:	2a01      	cmp	r2, #1
    73dc:	d1e5      	bne.n	73aa <_usb_d_dev_handler+0x156>
    73de:	075a      	lsls	r2, r3, #29
    73e0:	d515      	bpl.n	740e <_usb_d_dev_handler+0x1ba>
    73e2:	2100      	movs	r1, #0
    73e4:	e7ee      	b.n	73c4 <_usb_d_dev_handler+0x170>
    73e6:	f013 0020 	ands.w	r0, r3, #32
    73ea:	d001      	beq.n	73f0 <_usb_d_dev_handler+0x19c>
    73ec:	2100      	movs	r1, #0
    73ee:	e7d7      	b.n	73a0 <_usb_d_dev_handler+0x14c>
    73f0:	0758      	lsls	r0, r3, #29
    73f2:	d4f6      	bmi.n	73e2 <_usb_d_dev_handler+0x18e>
    73f4:	07d8      	lsls	r0, r3, #31
    73f6:	d502      	bpl.n	73fe <_usb_d_dev_handler+0x1aa>
    73f8:	4620      	mov	r0, r4
    73fa:	4b0d      	ldr	r3, [pc, #52]	; (7430 <_usb_d_dev_handler+0x1dc>)
    73fc:	e7e9      	b.n	73d2 <_usb_d_dev_handler+0x17e>
    73fe:	f002 0207 	and.w	r2, r2, #7
    7402:	2a01      	cmp	r2, #1
    7404:	d1d1      	bne.n	73aa <_usb_d_dev_handler+0x156>
    7406:	071a      	lsls	r2, r3, #28
    7408:	d501      	bpl.n	740e <_usb_d_dev_handler+0x1ba>
    740a:	2101      	movs	r1, #1
    740c:	e7da      	b.n	73c4 <_usb_d_dev_handler+0x170>
    740e:	06db      	lsls	r3, r3, #27
    7410:	d5cb      	bpl.n	73aa <_usb_d_dev_handler+0x156>
    7412:	e7be      	b.n	7392 <_usb_d_dev_handler+0x13e>
    7414:	200007c0 	.word	0x200007c0
    7418:	00006cb9 	.word	0x00006cb9
    741c:	00006f15 	.word	0x00006f15
    7420:	200007d4 	.word	0x200007d4
    7424:	00006e29 	.word	0x00006e29
    7428:	00006d79 	.word	0x00006d79
    742c:	00006f51 	.word	0x00006f51
    7430:	000070a9 	.word	0x000070a9
    7434:	00006cf5 	.word	0x00006cf5

00007438 <_usbd_ep_pcksize_size>:
    7438:	f5b0 7f00 	cmp.w	r0, #512	; 0x200
    743c:	d80f      	bhi.n	745e <_usbd_ep_pcksize_size+0x26>
    743e:	f5b0 7f80 	cmp.w	r0, #256	; 0x100
    7442:	d80e      	bhi.n	7462 <_usbd_ep_pcksize_size+0x2a>
    7444:	2880      	cmp	r0, #128	; 0x80
    7446:	d80e      	bhi.n	7466 <_usbd_ep_pcksize_size+0x2e>
    7448:	2840      	cmp	r0, #64	; 0x40
    744a:	d80e      	bhi.n	746a <_usbd_ep_pcksize_size+0x32>
    744c:	2820      	cmp	r0, #32
    744e:	d80e      	bhi.n	746e <_usbd_ep_pcksize_size+0x36>
    7450:	2810      	cmp	r0, #16
    7452:	d80e      	bhi.n	7472 <_usbd_ep_pcksize_size+0x3a>
    7454:	2808      	cmp	r0, #8
    7456:	bf94      	ite	ls
    7458:	2000      	movls	r0, #0
    745a:	2001      	movhi	r0, #1
    745c:	4770      	bx	lr
    745e:	2007      	movs	r0, #7
    7460:	4770      	bx	lr
    7462:	2006      	movs	r0, #6
    7464:	4770      	bx	lr
    7466:	2005      	movs	r0, #5
    7468:	4770      	bx	lr
    746a:	2004      	movs	r0, #4
    746c:	4770      	bx	lr
    746e:	2003      	movs	r0, #3
    7470:	4770      	bx	lr
    7472:	2002      	movs	r0, #2
    7474:	4770      	bx	lr
	...

00007478 <_usb_d_dev_init>:
    7478:	b508      	push	{r3, lr}
    747a:	f04f 4382 	mov.w	r3, #1090519040	; 0x41000000
    747e:	789a      	ldrb	r2, [r3, #2]
    7480:	07d0      	lsls	r0, r2, #31
    7482:	d540      	bpl.n	7506 <_usb_d_dev_init+0x8e>
    7484:	f04f 4282 	mov.w	r2, #1090519040	; 0x41000000
    7488:	7893      	ldrb	r3, [r2, #2]
    748a:	07db      	lsls	r3, r3, #31
    748c:	d4fc      	bmi.n	7488 <_usb_d_dev_init+0x10>
    748e:	4b2f      	ldr	r3, [pc, #188]	; (754c <_usb_d_dev_init+0xd4>)
    7490:	4a2f      	ldr	r2, [pc, #188]	; (7550 <_usb_d_dev_init+0xd8>)
    7492:	601a      	str	r2, [r3, #0]
    7494:	605a      	str	r2, [r3, #4]
    7496:	609a      	str	r2, [r3, #8]
    7498:	60da      	str	r2, [r3, #12]
    749a:	611a      	str	r2, [r3, #16]
    749c:	4b2d      	ldr	r3, [pc, #180]	; (7554 <_usb_d_dev_init+0xdc>)
    749e:	4798      	blx	r3
    74a0:	4b2d      	ldr	r3, [pc, #180]	; (7558 <_usb_d_dev_init+0xe0>)
    74a2:	6819      	ldr	r1, [r3, #0]
    74a4:	f3c1 1344 	ubfx	r3, r1, #5, #5
    74a8:	f3c1 2282 	ubfx	r2, r1, #10, #3
    74ac:	f011 011f 	ands.w	r1, r1, #31
    74b0:	d046      	beq.n	7540 <_usb_d_dev_init+0xc8>
    74b2:	291f      	cmp	r1, #31
    74b4:	bf08      	it	eq
    74b6:	2109      	moveq	r1, #9
    74b8:	2b00      	cmp	r3, #0
    74ba:	d043      	beq.n	7544 <_usb_d_dev_init+0xcc>
    74bc:	2b1f      	cmp	r3, #31
    74be:	bf08      	it	eq
    74c0:	2319      	moveq	r3, #25
    74c2:	2a00      	cmp	r2, #0
    74c4:	d040      	beq.n	7548 <_usb_d_dev_init+0xd0>
    74c6:	2a07      	cmp	r2, #7
    74c8:	bf08      	it	eq
    74ca:	2206      	moveq	r2, #6
    74cc:	0312      	lsls	r2, r2, #12
    74ce:	f402 42e0 	and.w	r2, r2, #28672	; 0x7000
    74d2:	ea43 1381 	orr.w	r3, r3, r1, lsl #6
    74d6:	4313      	orrs	r3, r2
    74d8:	f04f 4282 	mov.w	r2, #1090519040	; 0x41000000
    74dc:	b29b      	uxth	r3, r3
    74de:	8513      	strh	r3, [r2, #40]	; 0x28
    74e0:	78d3      	ldrb	r3, [r2, #3]
    74e2:	f043 0303 	orr.w	r3, r3, #3
    74e6:	70d3      	strb	r3, [r2, #3]
    74e8:	78d3      	ldrb	r3, [r2, #3]
    74ea:	f043 030c 	orr.w	r3, r3, #12
    74ee:	70d3      	strb	r3, [r2, #3]
    74f0:	2304      	movs	r3, #4
    74f2:	7013      	strb	r3, [r2, #0]
    74f4:	7890      	ldrb	r0, [r2, #2]
    74f6:	f010 0003 	ands.w	r0, r0, #3
    74fa:	d1fb      	bne.n	74f4 <_usb_d_dev_init+0x7c>
    74fc:	4b17      	ldr	r3, [pc, #92]	; (755c <_usb_d_dev_init+0xe4>)
    74fe:	6253      	str	r3, [r2, #36]	; 0x24
    7500:	2301      	movs	r3, #1
    7502:	8113      	strh	r3, [r2, #8]
    7504:	bd08      	pop	{r3, pc}
    7506:	789a      	ldrb	r2, [r3, #2]
    7508:	0791      	lsls	r1, r2, #30
    750a:	d1fc      	bne.n	7506 <_usb_d_dev_init+0x8e>
    750c:	781a      	ldrb	r2, [r3, #0]
    750e:	0792      	lsls	r2, r2, #30
    7510:	d407      	bmi.n	7522 <_usb_d_dev_init+0xaa>
    7512:	f04f 4382 	mov.w	r3, #1090519040	; 0x41000000
    7516:	2201      	movs	r2, #1
    7518:	701a      	strb	r2, [r3, #0]
    751a:	789a      	ldrb	r2, [r3, #2]
    751c:	0792      	lsls	r2, r2, #30
    751e:	d1fc      	bne.n	751a <_usb_d_dev_init+0xa2>
    7520:	e7b0      	b.n	7484 <_usb_d_dev_init+0xc>
    7522:	781a      	ldrb	r2, [r3, #0]
    7524:	f002 02fd 	and.w	r2, r2, #253	; 0xfd
    7528:	701a      	strb	r2, [r3, #0]
    752a:	f04f 4282 	mov.w	r2, #1090519040	; 0x41000000
    752e:	7893      	ldrb	r3, [r2, #2]
    7530:	0798      	lsls	r0, r3, #30
    7532:	d1fc      	bne.n	752e <_usb_d_dev_init+0xb6>
    7534:	f04f 4282 	mov.w	r2, #1090519040	; 0x41000000
    7538:	7893      	ldrb	r3, [r2, #2]
    753a:	0799      	lsls	r1, r3, #30
    753c:	d4fc      	bmi.n	7538 <_usb_d_dev_init+0xc0>
    753e:	e7e8      	b.n	7512 <_usb_d_dev_init+0x9a>
    7540:	2109      	movs	r1, #9
    7542:	e7b9      	b.n	74b8 <_usb_d_dev_init+0x40>
    7544:	2319      	movs	r3, #25
    7546:	e7bc      	b.n	74c2 <_usb_d_dev_init+0x4a>
    7548:	2206      	movs	r2, #6
    754a:	e7bf      	b.n	74cc <_usb_d_dev_init+0x54>
    754c:	200007c0 	.word	0x200007c0
    7550:	00006cb5 	.word	0x00006cb5
    7554:	00006f15 	.word	0x00006f15
    7558:	00800084 	.word	0x00800084
    755c:	200009f0 	.word	0x200009f0

00007560 <_usb_d_dev_enable>:
    7560:	f04f 4382 	mov.w	r3, #1090519040	; 0x41000000
    7564:	789a      	ldrb	r2, [r3, #2]
    7566:	0792      	lsls	r2, r2, #30
    7568:	d123      	bne.n	75b2 <_usb_d_dev_enable+0x52>
    756a:	789a      	ldrb	r2, [r3, #2]
    756c:	0790      	lsls	r0, r2, #30
    756e:	d1fc      	bne.n	756a <_usb_d_dev_enable+0xa>
    7570:	781a      	ldrb	r2, [r3, #0]
    7572:	b2d2      	uxtb	r2, r2
    7574:	0791      	lsls	r1, r2, #30
    7576:	d513      	bpl.n	75a0 <_usb_d_dev_enable+0x40>
    7578:	4b0f      	ldr	r3, [pc, #60]	; (75b8 <_usb_d_dev_enable+0x58>)
    757a:	f44f 3280 	mov.w	r2, #65536	; 0x10000
    757e:	609a      	str	r2, [r3, #8]
    7580:	f44f 3200 	mov.w	r2, #131072	; 0x20000
    7584:	609a      	str	r2, [r3, #8]
    7586:	f44f 2280 	mov.w	r2, #262144	; 0x40000
    758a:	609a      	str	r2, [r3, #8]
    758c:	f44f 2200 	mov.w	r2, #524288	; 0x80000
    7590:	609a      	str	r2, [r3, #8]
    7592:	f04f 4382 	mov.w	r3, #1090519040	; 0x41000000
    7596:	f240 228d 	movw	r2, #653	; 0x28d
    759a:	831a      	strh	r2, [r3, #24]
    759c:	2000      	movs	r0, #0
    759e:	4770      	bx	lr
    75a0:	f042 0202 	orr.w	r2, r2, #2
    75a4:	701a      	strb	r2, [r3, #0]
    75a6:	f04f 4282 	mov.w	r2, #1090519040	; 0x41000000
    75aa:	7893      	ldrb	r3, [r2, #2]
    75ac:	079b      	lsls	r3, r3, #30
    75ae:	d1fc      	bne.n	75aa <_usb_d_dev_enable+0x4a>
    75b0:	e7e2      	b.n	7578 <_usb_d_dev_enable+0x18>
    75b2:	f06f 0010 	mvn.w	r0, #16
    75b6:	4770      	bx	lr
    75b8:	e000e100 	.word	0xe000e100

000075bc <_usb_d_dev_attach>:
    75bc:	f04f 4282 	mov.w	r2, #1090519040	; 0x41000000
    75c0:	8913      	ldrh	r3, [r2, #8]
    75c2:	f023 0301 	bic.w	r3, r3, #1
    75c6:	041b      	lsls	r3, r3, #16
    75c8:	0c1b      	lsrs	r3, r3, #16
    75ca:	8113      	strh	r3, [r2, #8]
    75cc:	4770      	bx	lr

000075ce <_usb_d_dev_set_address>:
    75ce:	f04f 4382 	mov.w	r3, #1090519040	; 0x41000000
    75d2:	f040 0080 	orr.w	r0, r0, #128	; 0x80
    75d6:	7298      	strb	r0, [r3, #10]
    75d8:	4770      	bx	lr
	...

000075dc <_usb_d_dev_ep_init>:
    75dc:	e92d 43f8 	stmdb	sp!, {r3, r4, r5, r6, r7, r8, r9, lr}
    75e0:	f000 040f 	and.w	r4, r0, #15
    75e4:	b247      	sxtb	r7, r0
    75e6:	460d      	mov	r5, r1
    75e8:	4680      	mov	r8, r0
    75ea:	0ff9      	lsrs	r1, r7, #31
    75ec:	4620      	mov	r0, r4
    75ee:	f8df 90a8 	ldr.w	r9, [pc, #168]	; 7698 <_usb_d_dev_ep_init+0xbc>
    75f2:	47c8      	blx	r9
    75f4:	2c02      	cmp	r4, #2
    75f6:	4606      	mov	r6, r0
    75f8:	f005 0503 	and.w	r5, r5, #3
    75fc:	d83f      	bhi.n	767e <_usb_d_dev_ep_init+0xa2>
    75fe:	7c83      	ldrb	r3, [r0, #18]
    7600:	2bff      	cmp	r3, #255	; 0xff
    7602:	d140      	bne.n	7686 <_usb_d_dev_ep_init+0xaa>
    7604:	b985      	cbnz	r5, 7628 <_usb_d_dev_ep_init+0x4c>
    7606:	43f9      	mvns	r1, r7
    7608:	0fc9      	lsrs	r1, r1, #31
    760a:	4620      	mov	r0, r4
    760c:	47c8      	blx	r9
    760e:	7c83      	ldrb	r3, [r0, #18]
    7610:	2bff      	cmp	r3, #255	; 0xff
    7612:	d138      	bne.n	7686 <_usb_d_dev_ep_init+0xaa>
    7614:	230c      	movs	r3, #12
    7616:	4363      	muls	r3, r4
    7618:	491e      	ldr	r1, [pc, #120]	; (7694 <_usb_d_dev_ep_init+0xb8>)
    761a:	58cb      	ldr	r3, [r1, r3]
    761c:	2b00      	cmp	r3, #0
    761e:	d136      	bne.n	768e <_usb_d_dev_ep_init+0xb2>
    7620:	f06f 0012 	mvn.w	r0, #18
    7624:	e8bd 83f8 	ldmia.w	sp!, {r3, r4, r5, r6, r7, r8, r9, pc}
    7628:	2f00      	cmp	r7, #0
    762a:	da18      	bge.n	765e <_usb_d_dev_ep_init+0x82>
    762c:	4919      	ldr	r1, [pc, #100]	; (7694 <_usb_d_dev_ep_init+0xb8>)
    762e:	230c      	movs	r3, #12
    7630:	fb03 1304 	mla	r3, r3, r4, r1
    7634:	6859      	ldr	r1, [r3, #4]
    7636:	b9f1      	cbnz	r1, 7676 <_usb_d_dev_ep_init+0x9a>
    7638:	4916      	ldr	r1, [pc, #88]	; (7694 <_usb_d_dev_ep_init+0xb8>)
    763a:	f886 8012 	strb.w	r8, [r6, #18]
    763e:	230c      	movs	r3, #12
    7640:	435c      	muls	r4, r3
    7642:	190b      	adds	r3, r1, r4
    7644:	5909      	ldr	r1, [r1, r4]
    7646:	685b      	ldr	r3, [r3, #4]
    7648:	8232      	strh	r2, [r6, #16]
    764a:	3501      	adds	r5, #1
    764c:	ea13 0327 	ands.w	r3, r3, r7, asr #32
    7650:	bf38      	it	cc
    7652:	460b      	movcc	r3, r1
    7654:	74f5      	strb	r5, [r6, #19]
    7656:	60f3      	str	r3, [r6, #12]
    7658:	2000      	movs	r0, #0
    765a:	e8bd 83f8 	ldmia.w	sp!, {r3, r4, r5, r6, r7, r8, r9, pc}
    765e:	230c      	movs	r3, #12
    7660:	4363      	muls	r3, r4
    7662:	490c      	ldr	r1, [pc, #48]	; (7694 <_usb_d_dev_ep_init+0xb8>)
    7664:	58cb      	ldr	r3, [r1, r3]
    7666:	2b00      	cmp	r3, #0
    7668:	d0e6      	beq.n	7638 <_usb_d_dev_ep_init+0x5c>
    766a:	490a      	ldr	r1, [pc, #40]	; (7694 <_usb_d_dev_ep_init+0xb8>)
    766c:	230c      	movs	r3, #12
    766e:	fb03 1304 	mla	r3, r3, r4, r1
    7672:	891b      	ldrh	r3, [r3, #8]
    7674:	e000      	b.n	7678 <_usb_d_dev_ep_init+0x9c>
    7676:	895b      	ldrh	r3, [r3, #10]
    7678:	4293      	cmp	r3, r2
    767a:	dadd      	bge.n	7638 <_usb_d_dev_ep_init+0x5c>
    767c:	e7d0      	b.n	7620 <_usb_d_dev_ep_init+0x44>
    767e:	f06f 0011 	mvn.w	r0, #17
    7682:	e8bd 83f8 	ldmia.w	sp!, {r3, r4, r5, r6, r7, r8, r9, pc}
    7686:	f06f 0013 	mvn.w	r0, #19
    768a:	e8bd 83f8 	ldmia.w	sp!, {r3, r4, r5, r6, r7, r8, r9, pc}
    768e:	2f00      	cmp	r7, #0
    7690:	daeb      	bge.n	766a <_usb_d_dev_ep_init+0x8e>
    7692:	e7cb      	b.n	762c <_usb_d_dev_ep_init+0x50>
    7694:	00009f74 	.word	0x00009f74
    7698:	00006cdd 	.word	0x00006cdd

0000769c <_usb_d_dev_ep_deinit>:
    769c:	e92d 41f0 	stmdb	sp!, {r4, r5, r6, r7, r8, lr}
    76a0:	b247      	sxtb	r7, r0
    76a2:	f000 050f 	and.w	r5, r0, #15
    76a6:	ea4f 78d7 	mov.w	r8, r7, lsr #31
    76aa:	4604      	mov	r4, r0
    76ac:	4641      	mov	r1, r8
    76ae:	4628      	mov	r0, r5
    76b0:	4b19      	ldr	r3, [pc, #100]	; (7718 <_usb_d_dev_ep_deinit+0x7c>)
    76b2:	4798      	blx	r3
    76b4:	2d02      	cmp	r5, #2
    76b6:	4606      	mov	r6, r0
    76b8:	d815      	bhi.n	76e6 <_usb_d_dev_ep_deinit+0x4a>
    76ba:	7c83      	ldrb	r3, [r0, #18]
    76bc:	2bff      	cmp	r3, #255	; 0xff
    76be:	d012      	beq.n	76e6 <_usb_d_dev_ep_deinit+0x4a>
    76c0:	4b16      	ldr	r3, [pc, #88]	; (771c <_usb_d_dev_ep_deinit+0x80>)
    76c2:	2203      	movs	r2, #3
    76c4:	4641      	mov	r1, r8
    76c6:	4798      	blx	r3
    76c8:	7cf3      	ldrb	r3, [r6, #19]
    76ca:	f003 0307 	and.w	r3, r3, #7
    76ce:	2b01      	cmp	r3, #1
    76d0:	d10b      	bne.n	76ea <_usb_d_dev_ep_deinit+0x4e>
    76d2:	0164      	lsls	r4, r4, #5
    76d4:	f104 4482 	add.w	r4, r4, #1090519040	; 0x41000000
    76d8:	2300      	movs	r3, #0
    76da:	f884 3100 	strb.w	r3, [r4, #256]	; 0x100
    76de:	2300      	movs	r3, #0
    76e0:	74f3      	strb	r3, [r6, #19]
    76e2:	23ff      	movs	r3, #255	; 0xff
    76e4:	74b3      	strb	r3, [r6, #18]
    76e6:	e8bd 81f0 	ldmia.w	sp!, {r4, r5, r6, r7, r8, pc}
    76ea:	2f00      	cmp	r7, #0
    76ec:	da09      	bge.n	7702 <_usb_d_dev_ep_deinit+0x66>
    76ee:	0168      	lsls	r0, r5, #5
    76f0:	f100 4082 	add.w	r0, r0, #1090519040	; 0x41000000
    76f4:	f890 3100 	ldrb.w	r3, [r0, #256]	; 0x100
    76f8:	f003 038f 	and.w	r3, r3, #143	; 0x8f
    76fc:	f880 3100 	strb.w	r3, [r0, #256]	; 0x100
    7700:	e7ed      	b.n	76de <_usb_d_dev_ep_deinit+0x42>
    7702:	0164      	lsls	r4, r4, #5
    7704:	f104 4482 	add.w	r4, r4, #1090519040	; 0x41000000
    7708:	f894 3100 	ldrb.w	r3, [r4, #256]	; 0x100
    770c:	f003 03f8 	and.w	r3, r3, #248	; 0xf8
    7710:	f884 3100 	strb.w	r3, [r4, #256]	; 0x100
    7714:	e7e3      	b.n	76de <_usb_d_dev_ep_deinit+0x42>
    7716:	bf00      	nop
    7718:	00006cdd 	.word	0x00006cdd
    771c:	00006dc5 	.word	0x00006dc5

00007720 <_usb_d_dev_ep_enable>:
    7720:	e92d 43f8 	stmdb	sp!, {r3, r4, r5, r6, r7, r8, r9, lr}
    7724:	f000 050f 	and.w	r5, r0, #15
    7728:	fa4f f980 	sxtb.w	r9, r0
    772c:	4b57      	ldr	r3, [pc, #348]	; (788c <_usb_d_dev_ep_enable+0x16c>)
    772e:	ea4f 71d9 	mov.w	r1, r9, lsr #31
    7732:	4628      	mov	r0, r5
    7734:	4798      	blx	r3
    7736:	016f      	lsls	r7, r5, #5
    7738:	f107 4682 	add.w	r6, r7, #1090519040	; 0x41000000
    773c:	4680      	mov	r8, r0
    773e:	f896 0100 	ldrb.w	r0, [r6, #256]	; 0x100
    7742:	2d02      	cmp	r5, #2
    7744:	b2c3      	uxtb	r3, r0
    7746:	f200 8098 	bhi.w	787a <_usb_d_dev_ep_enable+0x15a>
    774a:	f898 2012 	ldrb.w	r2, [r8, #18]
    774e:	2aff      	cmp	r2, #255	; 0xff
    7750:	f000 8093 	beq.w	787a <_usb_d_dev_ep_enable+0x15a>
    7754:	4c4e      	ldr	r4, [pc, #312]	; (7890 <_usb_d_dev_ep_enable+0x170>)
    7756:	f504 710c 	add.w	r1, r4, #560	; 0x230
    775a:	440f      	add	r7, r1
    775c:	f898 1013 	ldrb.w	r1, [r8, #19]
    7760:	f001 0007 	and.w	r0, r1, #7
    7764:	2801      	cmp	r0, #1
    7766:	d148      	bne.n	77fa <_usb_d_dev_ep_enable+0xda>
    7768:	f013 0377 	ands.w	r3, r3, #119	; 0x77
    776c:	f040 8089 	bne.w	7882 <_usb_d_dev_ep_enable+0x162>
    7770:	2111      	movs	r1, #17
    7772:	f886 1100 	strb.w	r1, [r6, #256]	; 0x100
    7776:	f8b8 1010 	ldrh.w	r1, [r8, #16]
    777a:	f8df 9118 	ldr.w	r9, [pc, #280]	; 7894 <_usb_d_dev_ep_enable+0x174>
    777e:	4608      	mov	r0, r1
    7780:	47c8      	blx	r9
    7782:	f8df e114 	ldr.w	lr, [pc, #276]	; 7898 <_usb_d_dev_ep_enable+0x178>
    7786:	0700      	lsls	r0, r0, #28
    7788:	f000 40e0 	and.w	r0, r0, #1879048192	; 0x70000000
    778c:	ea0e 3e81 	and.w	lr, lr, r1, lsl #14
    7790:	f3c1 010d 	ubfx	r1, r1, #0, #14
    7794:	ea4e 0e00 	orr.w	lr, lr, r0
    7798:	4308      	orrs	r0, r1
    779a:	f8c7 e004 	str.w	lr, [r7, #4]
    779e:	eb04 1545 	add.w	r5, r4, r5, lsl #5
    77a2:	6178      	str	r0, [r7, #20]
    77a4:	f002 020f 	and.w	r2, r2, #15
    77a8:	2740      	movs	r7, #64	; 0x40
    77aa:	2080      	movs	r0, #128	; 0x80
    77ac:	f886 7105 	strb.w	r7, [r6, #261]	; 0x105
    77b0:	f886 0104 	strb.w	r0, [r6, #260]	; 0x104
    77b4:	0150      	lsls	r0, r2, #5
    77b6:	f885 323a 	strb.w	r3, [r5, #570]	; 0x23a
    77ba:	4404      	add	r4, r0
    77bc:	f885 324a 	strb.w	r3, [r5, #586]	; 0x24a
    77c0:	f8d8 600c 	ldr.w	r6, [r8, #12]
    77c4:	f8c4 6230 	str.w	r6, [r4, #560]	; 0x230
    77c8:	f504 750c 	add.w	r5, r4, #560	; 0x230
    77cc:	f8d4 4234 	ldr.w	r4, [r4, #564]	; 0x234
    77d0:	f361 349b 	bfi	r4, r1, #14, #14
    77d4:	606c      	str	r4, [r5, #4]
    77d6:	6869      	ldr	r1, [r5, #4]
    77d8:	f100 4282 	add.w	r2, r0, #1090519040	; 0x41000000
    77dc:	f363 010d 	bfi	r1, r3, #0, #14
    77e0:	6069      	str	r1, [r5, #4]
    77e2:	4610      	mov	r0, r2
    77e4:	21b0      	movs	r1, #176	; 0xb0
    77e6:	f882 1104 	strb.w	r1, [r2, #260]	; 0x104
    77ea:	f882 7105 	strb.w	r7, [r2, #261]	; 0x105
    77ee:	2210      	movs	r2, #16
    77f0:	f880 2109 	strb.w	r2, [r0, #265]	; 0x109
    77f4:	4618      	mov	r0, r3
    77f6:	e8bd 83f8 	ldmia.w	sp!, {r3, r4, r5, r6, r7, r8, r9, pc}
    77fa:	f1b9 0f00 	cmp.w	r9, #0
    77fe:	da1e      	bge.n	783e <_usb_d_dev_ep_enable+0x11e>
    7800:	f013 0270 	ands.w	r2, r3, #112	; 0x70
    7804:	d13d      	bne.n	7882 <_usb_d_dev_ep_enable+0x162>
    7806:	0108      	lsls	r0, r1, #4
    7808:	f000 0070 	and.w	r0, r0, #112	; 0x70
    780c:	4318      	orrs	r0, r3
    780e:	f8b8 3010 	ldrh.w	r3, [r8, #16]
    7812:	f886 0100 	strb.w	r0, [r6, #256]	; 0x100
    7816:	491f      	ldr	r1, [pc, #124]	; (7894 <_usb_d_dev_ep_enable+0x174>)
    7818:	4618      	mov	r0, r3
    781a:	4788      	blx	r1
    781c:	0700      	lsls	r0, r0, #28
    781e:	f3c3 030d 	ubfx	r3, r3, #0, #14
    7822:	f000 40e0 	and.w	r0, r0, #1879048192	; 0x70000000
    7826:	eb04 1445 	add.w	r4, r4, r5, lsl #5
    782a:	4318      	orrs	r0, r3
    782c:	2380      	movs	r3, #128	; 0x80
    782e:	6178      	str	r0, [r7, #20]
    7830:	f886 3104 	strb.w	r3, [r6, #260]	; 0x104
    7834:	f884 224a 	strb.w	r2, [r4, #586]	; 0x24a
    7838:	4610      	mov	r0, r2
    783a:	e8bd 83f8 	ldmia.w	sp!, {r3, r4, r5, r6, r7, r8, r9, pc}
    783e:	f013 0207 	ands.w	r2, r3, #7
    7842:	d11e      	bne.n	7882 <_usb_d_dev_ep_enable+0x162>
    7844:	f001 0107 	and.w	r1, r1, #7
    7848:	ea41 0003 	orr.w	r0, r1, r3
    784c:	f8b8 1010 	ldrh.w	r1, [r8, #16]
    7850:	f886 0100 	strb.w	r0, [r6, #256]	; 0x100
    7854:	4b0f      	ldr	r3, [pc, #60]	; (7894 <_usb_d_dev_ep_enable+0x174>)
    7856:	4608      	mov	r0, r1
    7858:	4798      	blx	r3
    785a:	4b0f      	ldr	r3, [pc, #60]	; (7898 <_usb_d_dev_ep_enable+0x178>)
    785c:	0700      	lsls	r0, r0, #28
    785e:	ea03 3381 	and.w	r3, r3, r1, lsl #14
    7862:	f000 40e0 	and.w	r0, r0, #1879048192	; 0x70000000
    7866:	4303      	orrs	r3, r0
    7868:	eb04 1445 	add.w	r4, r4, r5, lsl #5
    786c:	607b      	str	r3, [r7, #4]
    786e:	2340      	movs	r3, #64	; 0x40
    7870:	f886 3105 	strb.w	r3, [r6, #261]	; 0x105
    7874:	f884 223a 	strb.w	r2, [r4, #570]	; 0x23a
    7878:	e7de      	b.n	7838 <_usb_d_dev_ep_enable+0x118>
    787a:	f06f 0011 	mvn.w	r0, #17
    787e:	e8bd 83f8 	ldmia.w	sp!, {r3, r4, r5, r6, r7, r8, r9, pc}
    7882:	f06f 0013 	mvn.w	r0, #19
    7886:	e8bd 83f8 	ldmia.w	sp!, {r3, r4, r5, r6, r7, r8, r9, pc}
    788a:	bf00      	nop
    788c:	00006cdd 	.word	0x00006cdd
    7890:	200007c0 	.word	0x200007c0
    7894:	00007439 	.word	0x00007439
    7898:	0fffc000 	.word	0x0fffc000

0000789c <_usb_d_dev_ep_stall>:
    789c:	b538      	push	{r3, r4, r5, lr}
    789e:	09c2      	lsrs	r2, r0, #7
    78a0:	f000 050f 	and.w	r5, r0, #15
    78a4:	460c      	mov	r4, r1
    78a6:	4628      	mov	r0, r5
    78a8:	4611      	mov	r1, r2
    78aa:	4b34      	ldr	r3, [pc, #208]	; (797c <_usb_d_dev_ep_stall+0xe0>)
    78ac:	4798      	blx	r3
    78ae:	2d02      	cmp	r5, #2
    78b0:	d861      	bhi.n	7976 <_usb_d_dev_ep_stall+0xda>
    78b2:	2c01      	cmp	r4, #1
    78b4:	d119      	bne.n	78ea <_usb_d_dev_ep_stall+0x4e>
    78b6:	7c83      	ldrb	r3, [r0, #18]
    78b8:	f003 030f 	and.w	r3, r3, #15
    78bc:	0159      	lsls	r1, r3, #5
    78be:	2410      	movs	r4, #16
    78c0:	4094      	lsls	r4, r2
    78c2:	f101 4182 	add.w	r1, r1, #1090519040	; 0x41000000
    78c6:	b2e4      	uxtb	r4, r4
    78c8:	f881 4105 	strb.w	r4, [r1, #261]	; 0x105
    78cc:	015b      	lsls	r3, r3, #5
    78ce:	2120      	movs	r1, #32
    78d0:	f103 4382 	add.w	r3, r3, #1090519040	; 0x41000000
    78d4:	fa01 f202 	lsl.w	r2, r1, r2
    78d8:	b2d2      	uxtb	r2, r2
    78da:	f883 2109 	strb.w	r2, [r3, #265]	; 0x109
    78de:	7cc3      	ldrb	r3, [r0, #19]
    78e0:	f043 0308 	orr.w	r3, r3, #8
    78e4:	74c3      	strb	r3, [r0, #19]
    78e6:	2000      	movs	r0, #0
    78e8:	bd38      	pop	{r3, r4, r5, pc}
    78ea:	bb9c      	cbnz	r4, 7954 <_usb_d_dev_ep_stall+0xb8>
    78ec:	7c81      	ldrb	r1, [r0, #18]
    78ee:	f001 010f 	and.w	r1, r1, #15
    78f2:	014b      	lsls	r3, r1, #5
    78f4:	f103 4382 	add.w	r3, r3, #1090519040	; 0x41000000
    78f8:	2410      	movs	r4, #16
    78fa:	f893 5106 	ldrb.w	r5, [r3, #262]	; 0x106
    78fe:	4094      	lsls	r4, r2
    7900:	4225      	tst	r5, r4
    7902:	d0f0      	beq.n	78e6 <_usb_d_dev_ep_stall+0x4a>
    7904:	b2e4      	uxtb	r4, r4
    7906:	f883 4104 	strb.w	r4, [r3, #260]	; 0x104
    790a:	0149      	lsls	r1, r1, #5
    790c:	2420      	movs	r4, #32
    790e:	4094      	lsls	r4, r2
    7910:	f101 4182 	add.w	r1, r1, #1090519040	; 0x41000000
    7914:	b2e5      	uxtb	r5, r4
    7916:	f881 5108 	strb.w	r5, [r1, #264]	; 0x108
    791a:	f893 1107 	ldrb.w	r1, [r3, #263]	; 0x107
    791e:	4221      	tst	r1, r4
    7920:	d007      	beq.n	7932 <_usb_d_dev_ep_stall+0x96>
    7922:	2101      	movs	r1, #1
    7924:	fa01 f202 	lsl.w	r2, r1, r2
    7928:	b2d2      	uxtb	r2, r2
    792a:	f883 5107 	strb.w	r5, [r3, #263]	; 0x107
    792e:	f883 2104 	strb.w	r2, [r3, #260]	; 0x104
    7932:	7cc2      	ldrb	r2, [r0, #19]
    7934:	f002 0107 	and.w	r1, r2, #7
    7938:	2901      	cmp	r1, #1
    793a:	d108      	bne.n	794e <_usb_d_dev_ep_stall+0xb2>
    793c:	f893 3106 	ldrb.w	r3, [r3, #262]	; 0x106
    7940:	f013 0330 	ands.w	r3, r3, #48	; 0x30
    7944:	d1cf      	bne.n	78e6 <_usb_d_dev_ep_stall+0x4a>
    7946:	f363 02c3 	bfi	r2, r3, #3, #1
    794a:	74c2      	strb	r2, [r0, #19]
    794c:	e7cb      	b.n	78e6 <_usb_d_dev_ep_stall+0x4a>
    794e:	f36f 02c3 	bfc	r2, #3, #1
    7952:	e7fa      	b.n	794a <_usb_d_dev_ep_stall+0xae>
    7954:	7c83      	ldrb	r3, [r0, #18]
    7956:	f003 030f 	and.w	r3, r3, #15
    795a:	015b      	lsls	r3, r3, #5
    795c:	f103 4382 	add.w	r3, r3, #1090519040	; 0x41000000
    7960:	f503 7380 	add.w	r3, r3, #256	; 0x100
    7964:	2010      	movs	r0, #16
    7966:	799b      	ldrb	r3, [r3, #6]
    7968:	fa00 f202 	lsl.w	r2, r0, r2
    796c:	421a      	tst	r2, r3
    796e:	bf14      	ite	ne
    7970:	2001      	movne	r0, #1
    7972:	2000      	moveq	r0, #0
    7974:	bd38      	pop	{r3, r4, r5, pc}
    7976:	f06f 0011 	mvn.w	r0, #17
    797a:	bd38      	pop	{r3, r4, r5, pc}
    797c:	00006cdd 	.word	0x00006cdd

00007980 <_usb_d_dev_ep_read_req>:
    7980:	b530      	push	{r4, r5, lr}
    7982:	f000 000f 	and.w	r0, r0, #15
    7986:	4b12      	ldr	r3, [pc, #72]	; (79d0 <_usb_d_dev_ep_read_req+0x50>)
    7988:	0142      	lsls	r2, r0, #5
    798a:	189c      	adds	r4, r3, r2
    798c:	589d      	ldr	r5, [r3, r2]
    798e:	6864      	ldr	r4, [r4, #4]
    7990:	2802      	cmp	r0, #2
    7992:	f3c4 040d 	ubfx	r4, r4, #0, #14
    7996:	d814      	bhi.n	79c2 <_usb_d_dev_ep_read_req+0x42>
    7998:	b199      	cbz	r1, 79c2 <_usb_d_dev_ep_read_req+0x42>
    799a:	f102 4282 	add.w	r2, r2, #1090519040	; 0x41000000
    799e:	f892 3100 	ldrb.w	r3, [r2, #256]	; 0x100
    79a2:	2b11      	cmp	r3, #17
    79a4:	d110      	bne.n	79c8 <_usb_d_dev_ep_read_req+0x48>
    79a6:	f892 3107 	ldrb.w	r3, [r2, #263]	; 0x107
    79aa:	f013 0010 	ands.w	r0, r3, #16
    79ae:	d00d      	beq.n	79cc <_usb_d_dev_ep_read_req+0x4c>
    79b0:	682b      	ldr	r3, [r5, #0]
    79b2:	600b      	str	r3, [r1, #0]
    79b4:	686b      	ldr	r3, [r5, #4]
    79b6:	604b      	str	r3, [r1, #4]
    79b8:	2310      	movs	r3, #16
    79ba:	f882 3107 	strb.w	r3, [r2, #263]	; 0x107
    79be:	4620      	mov	r0, r4
    79c0:	bd30      	pop	{r4, r5, pc}
    79c2:	f06f 0011 	mvn.w	r0, #17
    79c6:	bd30      	pop	{r4, r5, pc}
    79c8:	f06f 0012 	mvn.w	r0, #18
    79cc:	bd30      	pop	{r4, r5, pc}
    79ce:	bf00      	nop
    79d0:	200009f0 	.word	0x200009f0

000079d4 <_usb_d_dev_ep_trans>:
    79d4:	e92d 47f3 	stmdb	sp!, {r0, r1, r4, r5, r6, r7, r8, r9, sl, lr}
    79d8:	7a07      	ldrb	r7, [r0, #8]
    79da:	4b3a      	ldr	r3, [pc, #232]	; (7ac4 <_usb_d_dev_ep_trans+0xf0>)
    79dc:	f007 050f 	and.w	r5, r7, #15
    79e0:	b27f      	sxtb	r7, r7
    79e2:	ea4f 79d7 	mov.w	r9, r7, lsr #31
    79e6:	4680      	mov	r8, r0
    79e8:	4649      	mov	r1, r9
    79ea:	4628      	mov	r0, r5
    79ec:	4798      	blx	r3
    79ee:	8a02      	ldrh	r2, [r0, #16]
    79f0:	f8d8 1004 	ldr.w	r1, [r8, #4]
    79f4:	f240 33ff 	movw	r3, #1023	; 0x3ff
    79f8:	429a      	cmp	r2, r3
    79fa:	bf1a      	itte	ne
    79fc:	f102 33ff 	addne.w	r3, r2, #4294967295
    7a00:	b29b      	uxthne	r3, r3
    7a02:	4613      	moveq	r3, r2
    7a04:	2d02      	cmp	r5, #2
    7a06:	4604      	mov	r4, r0
    7a08:	ea03 0601 	and.w	r6, r3, r1
    7a0c:	d828      	bhi.n	7a60 <_usb_d_dev_ep_trans+0x8c>
    7a0e:	f8d8 5000 	ldr.w	r5, [r8]
    7a12:	f1b5 5f00 	cmp.w	r5, #536870912	; 0x20000000
    7a16:	d30a      	bcc.n	7a2e <_usb_d_dev_ep_trans+0x5a>
    7a18:	4b2b      	ldr	r3, [pc, #172]	; (7ac8 <_usb_d_dev_ep_trans+0xf4>)
    7a1a:	1948      	adds	r0, r1, r5
    7a1c:	4298      	cmp	r0, r3
    7a1e:	d806      	bhi.n	7a2e <_usb_d_dev_ep_trans+0x5a>
    7a20:	f015 0503 	ands.w	r5, r5, #3
    7a24:	d103      	bne.n	7a2e <_usb_d_dev_ep_trans+0x5a>
    7a26:	2f00      	cmp	r7, #0
    7a28:	db05      	blt.n	7a36 <_usb_d_dev_ep_trans+0x62>
    7a2a:	4291      	cmp	r1, r2
    7a2c:	d214      	bcs.n	7a58 <_usb_d_dev_ep_trans+0x84>
    7a2e:	68e3      	ldr	r3, [r4, #12]
    7a30:	2b00      	cmp	r3, #0
    7a32:	d041      	beq.n	7ab8 <_usb_d_dev_ep_trans+0xe4>
    7a34:	2501      	movs	r5, #1
    7a36:	7ce3      	ldrb	r3, [r4, #19]
    7a38:	071b      	lsls	r3, r3, #28
    7a3a:	d440      	bmi.n	7abe <_usb_d_dev_ep_trans+0xea>
    7a3c:	4b23      	ldr	r3, [pc, #140]	; (7acc <_usb_d_dev_ep_trans+0xf8>)
    7a3e:	a801      	add	r0, sp, #4
    7a40:	4798      	blx	r3
    7a42:	7ce3      	ldrb	r3, [r4, #19]
    7a44:	4a22      	ldr	r2, [pc, #136]	; (7ad0 <_usb_d_dev_ep_trans+0xfc>)
    7a46:	f013 0a40 	ands.w	sl, r3, #64	; 0x40
    7a4a:	d00e      	beq.n	7a6a <_usb_d_dev_ep_trans+0x96>
    7a4c:	a801      	add	r0, sp, #4
    7a4e:	4790      	blx	r2
    7a50:	2001      	movs	r0, #1
    7a52:	b002      	add	sp, #8
    7a54:	e8bd 87f0 	ldmia.w	sp!, {r4, r5, r6, r7, r8, r9, sl, pc}
    7a58:	b12e      	cbz	r6, 7a66 <_usb_d_dev_ep_trans+0x92>
    7a5a:	68e3      	ldr	r3, [r4, #12]
    7a5c:	2b00      	cmp	r3, #0
    7a5e:	d1ea      	bne.n	7a36 <_usb_d_dev_ep_trans+0x62>
    7a60:	f06f 0011 	mvn.w	r0, #17
    7a64:	e7f5      	b.n	7a52 <_usb_d_dev_ep_trans+0x7e>
    7a66:	4635      	mov	r5, r6
    7a68:	e7e5      	b.n	7a36 <_usb_d_dev_ep_trans+0x62>
    7a6a:	f043 0340 	orr.w	r3, r3, #64	; 0x40
    7a6e:	74e3      	strb	r3, [r4, #19]
    7a70:	a801      	add	r0, sp, #4
    7a72:	4790      	blx	r2
    7a74:	f8d8 3000 	ldr.w	r3, [r8]
    7a78:	6023      	str	r3, [r4, #0]
    7a7a:	f8d8 3004 	ldr.w	r3, [r8, #4]
    7a7e:	6063      	str	r3, [r4, #4]
    7a80:	7ce3      	ldrb	r3, [r4, #19]
    7a82:	f8c4 a008 	str.w	sl, [r4, #8]
    7a86:	f369 13c7 	bfi	r3, r9, #7, #1
    7a8a:	f365 1345 	bfi	r3, r5, #5, #1
    7a8e:	74e3      	strb	r3, [r4, #19]
    7a90:	f898 3009 	ldrb.w	r3, [r8, #9]
    7a94:	b113      	cbz	r3, 7a9c <_usb_d_dev_ep_trans+0xc8>
    7a96:	fab6 f386 	clz	r3, r6
    7a9a:	095b      	lsrs	r3, r3, #5
    7a9c:	7ce2      	ldrb	r2, [r4, #19]
    7a9e:	2f00      	cmp	r7, #0
    7aa0:	f363 1204 	bfi	r2, r3, #4, #1
    7aa4:	4620      	mov	r0, r4
    7aa6:	74e2      	strb	r2, [r4, #19]
    7aa8:	f04f 0100 	mov.w	r1, #0
    7aac:	bfb4      	ite	lt
    7aae:	4b09      	ldrlt	r3, [pc, #36]	; (7ad4 <_usb_d_dev_ep_trans+0x100>)
    7ab0:	4b09      	ldrge	r3, [pc, #36]	; (7ad8 <_usb_d_dev_ep_trans+0x104>)
    7ab2:	4798      	blx	r3
    7ab4:	2000      	movs	r0, #0
    7ab6:	e7cc      	b.n	7a52 <_usb_d_dev_ep_trans+0x7e>
    7ab8:	f06f 0012 	mvn.w	r0, #18
    7abc:	e7c9      	b.n	7a52 <_usb_d_dev_ep_trans+0x7e>
    7abe:	2002      	movs	r0, #2
    7ac0:	e7c7      	b.n	7a52 <_usb_d_dev_ep_trans+0x7e>
    7ac2:	bf00      	nop
    7ac4:	00006cdd 	.word	0x00006cdd
    7ac8:	20041fff 	.word	0x20041fff
    7acc:	00004db1 	.word	0x00004db1
    7ad0:	00004dbf 	.word	0x00004dbf
    7ad4:	00006f51 	.word	0x00006f51
    7ad8:	000070a9 	.word	0x000070a9

00007adc <_usb_d_dev_register_callback>:
    7adc:	4b06      	ldr	r3, [pc, #24]	; (7af8 <_usb_d_dev_register_callback+0x1c>)
    7ade:	2900      	cmp	r1, #0
    7ae0:	bf08      	it	eq
    7ae2:	4619      	moveq	r1, r3
    7ae4:	2801      	cmp	r0, #1
    7ae6:	d102      	bne.n	7aee <_usb_d_dev_register_callback+0x12>
    7ae8:	4b04      	ldr	r3, [pc, #16]	; (7afc <_usb_d_dev_register_callback+0x20>)
    7aea:	6059      	str	r1, [r3, #4]
    7aec:	4770      	bx	lr
    7aee:	b908      	cbnz	r0, 7af4 <_usb_d_dev_register_callback+0x18>
    7af0:	4b02      	ldr	r3, [pc, #8]	; (7afc <_usb_d_dev_register_callback+0x20>)
    7af2:	6019      	str	r1, [r3, #0]
    7af4:	4770      	bx	lr
    7af6:	bf00      	nop
    7af8:	00006cb5 	.word	0x00006cb5
    7afc:	200007c0 	.word	0x200007c0

00007b00 <_usb_d_dev_register_ep_callback>:
    7b00:	4b08      	ldr	r3, [pc, #32]	; (7b24 <_usb_d_dev_register_ep_callback+0x24>)
    7b02:	2900      	cmp	r1, #0
    7b04:	bf08      	it	eq
    7b06:	4619      	moveq	r1, r3
    7b08:	b910      	cbnz	r0, 7b10 <_usb_d_dev_register_ep_callback+0x10>
    7b0a:	4b07      	ldr	r3, [pc, #28]	; (7b28 <_usb_d_dev_register_ep_callback+0x28>)
    7b0c:	6099      	str	r1, [r3, #8]
    7b0e:	4770      	bx	lr
    7b10:	2801      	cmp	r0, #1
    7b12:	d102      	bne.n	7b1a <_usb_d_dev_register_ep_callback+0x1a>
    7b14:	4b04      	ldr	r3, [pc, #16]	; (7b28 <_usb_d_dev_register_ep_callback+0x28>)
    7b16:	60d9      	str	r1, [r3, #12]
    7b18:	4770      	bx	lr
    7b1a:	2802      	cmp	r0, #2
    7b1c:	bf04      	itt	eq
    7b1e:	4b02      	ldreq	r3, [pc, #8]	; (7b28 <_usb_d_dev_register_ep_callback+0x28>)
    7b20:	6119      	streq	r1, [r3, #16]
    7b22:	4770      	bx	lr
    7b24:	00006cb5 	.word	0x00006cb5
    7b28:	200007c0 	.word	0x200007c0

00007b2c <USB_0_Handler>:
    7b2c:	4b00      	ldr	r3, [pc, #0]	; (7b30 <USB_0_Handler+0x4>)
    7b2e:	4718      	bx	r3
    7b30:	00007255 	.word	0x00007255

00007b34 <USB_1_Handler>:
    7b34:	4b00      	ldr	r3, [pc, #0]	; (7b38 <USB_1_Handler+0x4>)
    7b36:	4718      	bx	r3
    7b38:	00007255 	.word	0x00007255

00007b3c <USB_2_Handler>:
    7b3c:	4b00      	ldr	r3, [pc, #0]	; (7b40 <USB_2_Handler+0x4>)
    7b3e:	4718      	bx	r3
    7b40:	00007255 	.word	0x00007255

00007b44 <USB_3_Handler>:
    7b44:	4b00      	ldr	r3, [pc, #0]	; (7b48 <USB_3_Handler+0x4>)
    7b46:	4718      	bx	r3
    7b48:	00007255 	.word	0x00007255

00007b4c <convert_cb_ADC_0>:
    7b4c:	4b01      	ldr	r3, [pc, #4]	; (7b54 <convert_cb_ADC_0+0x8>)
    7b4e:	2201      	movs	r2, #1
    7b50:	701a      	strb	r2, [r3, #0]
    7b52:	4770      	bx	lr
    7b54:	20000b10 	.word	0x20000b10

00007b58 <tx_complete_cb_GRID_LED>:
    7b58:	4b01      	ldr	r3, [pc, #4]	; (7b60 <tx_complete_cb_GRID_LED+0x8>)
    7b5a:	2201      	movs	r2, #1
    7b5c:	605a      	str	r2, [r3, #4]
    7b5e:	4770      	bx	lr
    7b60:	20000b10 	.word	0x20000b10

00007b64 <RTC_Scheduler_tick_cb>:
    7b64:	4b05      	ldr	r3, [pc, #20]	; (7b7c <RTC_Scheduler_tick_cb+0x18>)
    7b66:	689a      	ldr	r2, [r3, #8]
    7b68:	3201      	adds	r2, #1
    7b6a:	609a      	str	r2, [r3, #8]
    7b6c:	7b1a      	ldrb	r2, [r3, #12]
    7b6e:	eb03 0382 	add.w	r3, r3, r2, lsl #2
    7b72:	691a      	ldr	r2, [r3, #16]
    7b74:	3201      	adds	r2, #1
    7b76:	611a      	str	r2, [r3, #16]
    7b78:	4770      	bx	lr
    7b7a:	bf00      	nop
    7b7c:	20000b10 	.word	0x20000b10

00007b80 <RTC_Scheduler_report_cb>:
    7b80:	4a05      	ldr	r2, [pc, #20]	; (7b98 <RTC_Scheduler_report_cb+0x18>)
    7b82:	f892 3030 	ldrb.w	r3, [r2, #48]	; 0x30
    7b86:	2bff      	cmp	r3, #255	; 0xff
    7b88:	bf1f      	itttt	ne
    7b8a:	f892 3030 	ldrbne.w	r3, [r2, #48]	; 0x30
    7b8e:	3301      	addne	r3, #1
    7b90:	b2db      	uxtbne	r3, r3
    7b92:	f882 3030 	strbne.w	r3, [r2, #48]	; 0x30
    7b96:	4770      	bx	lr
    7b98:	20000b10 	.word	0x20000b10

00007b9c <RTC_Scheduler_task2_cb>:
    7b9c:	4a05      	ldr	r2, [pc, #20]	; (7bb4 <RTC_Scheduler_task2_cb+0x18>)
    7b9e:	f892 3031 	ldrb.w	r3, [r2, #49]	; 0x31
    7ba2:	2bff      	cmp	r3, #255	; 0xff
    7ba4:	bf1f      	itttt	ne
    7ba6:	f892 3031 	ldrbne.w	r3, [r2, #49]	; 0x31
    7baa:	3301      	addne	r3, #1
    7bac:	b2db      	uxtbne	r3, r3
    7bae:	f882 3031 	strbne.w	r3, [r2, #49]	; 0x31
    7bb2:	4770      	bx	lr
    7bb4:	20000b10 	.word	0x20000b10

00007bb8 <_gpio_get_level>:
    7bb8:	b513      	push	{r0, r1, r4, lr}
    7bba:	4b09      	ldr	r3, [pc, #36]	; (7be0 <_gpio_get_level+0x28>)
    7bbc:	4604      	mov	r4, r0
    7bbe:	a801      	add	r0, sp, #4
    7bc0:	4798      	blx	r3
    7bc2:	4b08      	ldr	r3, [pc, #32]	; (7be4 <_gpio_get_level+0x2c>)
    7bc4:	01e0      	lsls	r0, r4, #7
    7bc6:	181a      	adds	r2, r3, r0
    7bc8:	5819      	ldr	r1, [r3, r0]
    7bca:	6a13      	ldr	r3, [r2, #32]
    7bcc:	6914      	ldr	r4, [r2, #16]
    7bce:	405c      	eors	r4, r3
    7bd0:	400c      	ands	r4, r1
    7bd2:	405c      	eors	r4, r3
    7bd4:	a801      	add	r0, sp, #4
    7bd6:	4b04      	ldr	r3, [pc, #16]	; (7be8 <_gpio_get_level+0x30>)
    7bd8:	4798      	blx	r3
    7bda:	4620      	mov	r0, r4
    7bdc:	b002      	add	sp, #8
    7bde:	bd10      	pop	{r4, pc}
    7be0:	00004db1 	.word	0x00004db1
    7be4:	41008000 	.word	0x41008000
    7be8:	00004dbf 	.word	0x00004dbf

00007bec <tx_cb_USART_GRID>:
    7bec:	4b07      	ldr	r3, [pc, #28]	; (7c0c <tx_cb_USART_GRID+0x20>)
    7bee:	4298      	cmp	r0, r3
    7bf0:	bf01      	itttt	eq
    7bf2:	4a07      	ldreq	r2, [pc, #28]	; (7c10 <tx_cb_USART_GRID+0x24>)
    7bf4:	6b93      	ldreq	r3, [r2, #56]	; 0x38
    7bf6:	3301      	addeq	r3, #1
    7bf8:	6393      	streq	r3, [r2, #56]	; 0x38
    7bfa:	4b06      	ldr	r3, [pc, #24]	; (7c14 <tx_cb_USART_GRID+0x28>)
    7bfc:	4298      	cmp	r0, r3
    7bfe:	bf01      	itttt	eq
    7c00:	4a03      	ldreq	r2, [pc, #12]	; (7c10 <tx_cb_USART_GRID+0x24>)
    7c02:	6c13      	ldreq	r3, [r2, #64]	; 0x40
    7c04:	3301      	addeq	r3, #1
    7c06:	6413      	streq	r3, [r2, #64]	; 0x40
    7c08:	4770      	bx	lr
    7c0a:	bf00      	nop
    7c0c:	200011cc 	.word	0x200011cc
    7c10:	20000b10 	.word	0x20000b10
    7c14:	200012b0 	.word	0x200012b0

00007c18 <rx_cb_USART_GRID>:
    7c18:	4b07      	ldr	r3, [pc, #28]	; (7c38 <rx_cb_USART_GRID+0x20>)
    7c1a:	4298      	cmp	r0, r3
    7c1c:	bf01      	itttt	eq
    7c1e:	4a07      	ldreq	r2, [pc, #28]	; (7c3c <rx_cb_USART_GRID+0x24>)
    7c20:	6c93      	ldreq	r3, [r2, #72]	; 0x48
    7c22:	3301      	addeq	r3, #1
    7c24:	6493      	streq	r3, [r2, #72]	; 0x48
    7c26:	4b06      	ldr	r3, [pc, #24]	; (7c40 <rx_cb_USART_GRID+0x28>)
    7c28:	4298      	cmp	r0, r3
    7c2a:	bf01      	itttt	eq
    7c2c:	4a03      	ldreq	r2, [pc, #12]	; (7c3c <rx_cb_USART_GRID+0x24>)
    7c2e:	6d13      	ldreq	r3, [r2, #80]	; 0x50
    7c30:	3301      	addeq	r3, #1
    7c32:	6513      	streq	r3, [r2, #80]	; 0x50
    7c34:	4770      	bx	lr
    7c36:	bf00      	nop
    7c38:	200011cc 	.word	0x200011cc
    7c3c:	20000b10 	.word	0x20000b10
    7c40:	200012b0 	.word	0x200012b0

00007c44 <grid_led_set_color>:
    7c44:	b570      	push	{r4, r5, r6, lr}
    7c46:	4c0c      	ldr	r4, [pc, #48]	; (7c78 <grid_led_set_color+0x34>)
    7c48:	6de5      	ldr	r5, [r4, #92]	; 0x5c
    7c4a:	4285      	cmp	r5, r0
    7c4c:	d911      	bls.n	7c72 <grid_led_set_color+0x2e>
    7c4e:	260c      	movs	r6, #12
    7c50:	eb04 0282 	add.w	r2, r4, r2, lsl #2
    7c54:	6e25      	ldr	r5, [r4, #96]	; 0x60
    7c56:	6e52      	ldr	r2, [r2, #100]	; 0x64
    7c58:	4370      	muls	r0, r6
    7c5a:	eb04 0181 	add.w	r1, r4, r1, lsl #2
    7c5e:	eb04 0483 	add.w	r4, r4, r3, lsl #2
    7c62:	502a      	str	r2, [r5, r0]
    7c64:	4428      	add	r0, r5
    7c66:	6e4a      	ldr	r2, [r1, #100]	; 0x64
    7c68:	6e63      	ldr	r3, [r4, #100]	; 0x64
    7c6a:	6042      	str	r2, [r0, #4]
    7c6c:	6083      	str	r3, [r0, #8]
    7c6e:	2000      	movs	r0, #0
    7c70:	bd70      	pop	{r4, r5, r6, pc}
    7c72:	20ff      	movs	r0, #255	; 0xff
    7c74:	bd70      	pop	{r4, r5, r6, pc}
    7c76:	bf00      	nop
    7c78:	20000b10 	.word	0x20000b10

00007c7c <grid_led_tick>:
    7c7c:	4b0d      	ldr	r3, [pc, #52]	; (7cb4 <grid_led_tick+0x38>)
    7c7e:	b5f0      	push	{r4, r5, r6, r7, lr}
    7c80:	6dde      	ldr	r6, [r3, #92]	; 0x5c
    7c82:	4b0d      	ldr	r3, [pc, #52]	; (7cb8 <grid_led_tick+0x3c>)
    7c84:	681c      	ldr	r4, [r3, #0]
    7c86:	2000      	movs	r0, #0
    7c88:	250d      	movs	r5, #13
    7c8a:	b2c3      	uxtb	r3, r0
    7c8c:	429e      	cmp	r6, r3
    7c8e:	f100 0001 	add.w	r0, r0, #1
    7c92:	d90d      	bls.n	7cb0 <grid_led_tick+0x34>
    7c94:	fb05 4203 	mla	r2, r5, r3, r4
    7c98:	4433      	add	r3, r6
    7c9a:	7ad7      	ldrb	r7, [r2, #11]
    7c9c:	7b11      	ldrb	r1, [r2, #12]
    7c9e:	fb05 4303 	mla	r3, r5, r3, r4
    7ca2:	4439      	add	r1, r7
    7ca4:	72d1      	strb	r1, [r2, #11]
    7ca6:	7ada      	ldrb	r2, [r3, #11]
    7ca8:	7b19      	ldrb	r1, [r3, #12]
    7caa:	440a      	add	r2, r1
    7cac:	72da      	strb	r2, [r3, #11]
    7cae:	e7ec      	b.n	7c8a <grid_led_tick+0xe>
    7cb0:	bdf0      	pop	{r4, r5, r6, r7, pc}
    7cb2:	bf00      	nop
    7cb4:	20000b10 	.word	0x20000b10
    7cb8:	20001790 	.word	0x20001790

00007cbc <grid_led_set_min>:
    7cbc:	b510      	push	{r4, lr}
    7cbe:	4c07      	ldr	r4, [pc, #28]	; (7cdc <grid_led_set_min+0x20>)
    7cc0:	6de4      	ldr	r4, [r4, #92]	; 0x5c
    7cc2:	fb04 0101 	mla	r1, r4, r1, r0
    7cc6:	4806      	ldr	r0, [pc, #24]	; (7ce0 <grid_led_set_min+0x24>)
    7cc8:	240d      	movs	r4, #13
    7cca:	4361      	muls	r1, r4
    7ccc:	6804      	ldr	r4, [r0, #0]
    7cce:	1860      	adds	r0, r4, r1
    7cd0:	5462      	strb	r2, [r4, r1]
    7cd2:	7043      	strb	r3, [r0, #1]
    7cd4:	f89d 3008 	ldrb.w	r3, [sp, #8]
    7cd8:	7083      	strb	r3, [r0, #2]
    7cda:	bd10      	pop	{r4, pc}
    7cdc:	20000b10 	.word	0x20000b10
    7ce0:	20001790 	.word	0x20001790

00007ce4 <grid_led_set_mid>:
    7ce4:	b510      	push	{r4, lr}
    7ce6:	4c07      	ldr	r4, [pc, #28]	; (7d04 <grid_led_set_mid+0x20>)
    7ce8:	6de4      	ldr	r4, [r4, #92]	; 0x5c
    7cea:	fb04 0101 	mla	r1, r4, r1, r0
    7cee:	4806      	ldr	r0, [pc, #24]	; (7d08 <grid_led_set_mid+0x24>)
    7cf0:	6800      	ldr	r0, [r0, #0]
    7cf2:	240d      	movs	r4, #13
    7cf4:	fb04 0101 	mla	r1, r4, r1, r0
    7cf8:	710b      	strb	r3, [r1, #4]
    7cfa:	f89d 3008 	ldrb.w	r3, [sp, #8]
    7cfe:	70ca      	strb	r2, [r1, #3]
    7d00:	714b      	strb	r3, [r1, #5]
    7d02:	bd10      	pop	{r4, pc}
    7d04:	20000b10 	.word	0x20000b10
    7d08:	20001790 	.word	0x20001790

00007d0c <grid_led_set_max>:
    7d0c:	b510      	push	{r4, lr}
    7d0e:	4c07      	ldr	r4, [pc, #28]	; (7d2c <grid_led_set_max+0x20>)
    7d10:	6de4      	ldr	r4, [r4, #92]	; 0x5c
    7d12:	fb04 0101 	mla	r1, r4, r1, r0
    7d16:	4806      	ldr	r0, [pc, #24]	; (7d30 <grid_led_set_max+0x24>)
    7d18:	6800      	ldr	r0, [r0, #0]
    7d1a:	240d      	movs	r4, #13
    7d1c:	fb04 0101 	mla	r1, r4, r1, r0
    7d20:	71cb      	strb	r3, [r1, #7]
    7d22:	f89d 3008 	ldrb.w	r3, [sp, #8]
    7d26:	718a      	strb	r2, [r1, #6]
    7d28:	720b      	strb	r3, [r1, #8]
    7d2a:	bd10      	pop	{r4, pc}
    7d2c:	20000b10 	.word	0x20000b10
    7d30:	20001790 	.word	0x20001790

00007d34 <grid_led_set_phase>:
    7d34:	4b05      	ldr	r3, [pc, #20]	; (7d4c <grid_led_set_phase+0x18>)
    7d36:	6ddb      	ldr	r3, [r3, #92]	; 0x5c
    7d38:	fb03 0101 	mla	r1, r3, r1, r0
    7d3c:	4b04      	ldr	r3, [pc, #16]	; (7d50 <grid_led_set_phase+0x1c>)
    7d3e:	681b      	ldr	r3, [r3, #0]
    7d40:	200d      	movs	r0, #13
    7d42:	fb00 3101 	mla	r1, r0, r1, r3
    7d46:	72ca      	strb	r2, [r1, #11]
    7d48:	4770      	bx	lr
    7d4a:	bf00      	nop
    7d4c:	20000b10 	.word	0x20000b10
    7d50:	20001790 	.word	0x20001790

00007d54 <grid_led_set_frequency>:
    7d54:	4b05      	ldr	r3, [pc, #20]	; (7d6c <grid_led_set_frequency+0x18>)
    7d56:	6ddb      	ldr	r3, [r3, #92]	; 0x5c
    7d58:	fb03 0101 	mla	r1, r3, r1, r0
    7d5c:	4b04      	ldr	r3, [pc, #16]	; (7d70 <grid_led_set_frequency+0x1c>)
    7d5e:	681b      	ldr	r3, [r3, #0]
    7d60:	200d      	movs	r0, #13
    7d62:	fb00 3101 	mla	r1, r0, r1, r3
    7d66:	730a      	strb	r2, [r1, #12]
    7d68:	4770      	bx	lr
    7d6a:	bf00      	nop
    7d6c:	20000b10 	.word	0x20000b10
    7d70:	20001790 	.word	0x20001790

00007d74 <grid_led_init>:
    7d74:	e92d 4ff0 	stmdb	sp!, {r4, r5, r6, r7, r8, r9, sl, fp, lr}
    7d78:	4c5f      	ldr	r4, [pc, #380]	; (7ef8 <grid_led_init+0x184>)
    7d7a:	4f60      	ldr	r7, [pc, #384]	; (7efc <grid_led_init+0x188>)
    7d7c:	65e0      	str	r0, [r4, #92]	; 0x5c
    7d7e:	4606      	mov	r6, r0
    7d80:	2390      	movs	r3, #144	; 0x90
    7d82:	200c      	movs	r0, #12
    7d84:	fb10 3006 	smlabb	r0, r0, r6, r3
    7d88:	b085      	sub	sp, #20
    7d8a:	65a0      	str	r0, [r4, #88]	; 0x58
    7d8c:	47b8      	blx	r7
    7d8e:	f100 0390 	add.w	r3, r0, #144	; 0x90
    7d92:	6560      	str	r0, [r4, #84]	; 0x54
    7d94:	4605      	mov	r5, r0
    7d96:	201a      	movs	r0, #26
    7d98:	4370      	muls	r0, r6
    7d9a:	6623      	str	r3, [r4, #96]	; 0x60
    7d9c:	47b8      	blx	r7
    7d9e:	4b58      	ldr	r3, [pc, #352]	; (7f00 <grid_led_init+0x18c>)
    7da0:	2200      	movs	r2, #0
    7da2:	6018      	str	r0, [r3, #0]
    7da4:	3464      	adds	r4, #100	; 0x64
    7da6:	b293      	uxth	r3, r2
    7da8:	f013 0f01 	tst.w	r3, #1
    7dac:	bf14      	ite	ne
    7dae:	f04f 6160 	movne.w	r1, #234881024	; 0xe000000
    7db2:	f04f 6100 	moveq.w	r1, #134217728	; 0x8000000
    7db6:	f013 0f02 	tst.w	r3, #2
    7dba:	bf0c      	ite	eq
    7dbc:	f04f 4000 	moveq.w	r0, #2147483648	; 0x80000000
    7dc0:	f04f 4060 	movne.w	r0, #3758096384	; 0xe0000000
    7dc4:	f013 0f04 	tst.w	r3, #4
    7dc8:	ea40 0001 	orr.w	r0, r0, r1
    7dcc:	bf0c      	ite	eq
    7dce:	f44f 2100 	moveq.w	r1, #524288	; 0x80000
    7dd2:	f44f 2160 	movne.w	r1, #917504	; 0xe0000
    7dd6:	f013 0f08 	tst.w	r3, #8
    7dda:	ea41 0100 	orr.w	r1, r1, r0
    7dde:	bf0c      	ite	eq
    7de0:	f44f 0000 	moveq.w	r0, #8388608	; 0x800000
    7de4:	f44f 0060 	movne.w	r0, #14680064	; 0xe00000
    7de8:	f013 0f10 	tst.w	r3, #16
    7dec:	ea41 0100 	orr.w	r1, r1, r0
    7df0:	bf0c      	ite	eq
    7df2:	f44f 6000 	moveq.w	r0, #2048	; 0x800
    7df6:	f44f 6060 	movne.w	r0, #3584	; 0xe00
    7dfa:	f013 0f20 	tst.w	r3, #32
    7dfe:	ea40 0001 	orr.w	r0, r0, r1
    7e02:	bf0c      	ite	eq
    7e04:	f44f 4100 	moveq.w	r1, #32768	; 0x8000
    7e08:	f44f 4160 	movne.w	r1, #57344	; 0xe000
    7e0c:	f013 0f40 	tst.w	r3, #64	; 0x40
    7e10:	ea40 0001 	orr.w	r0, r0, r1
    7e14:	bf0c      	ite	eq
    7e16:	2108      	moveq	r1, #8
    7e18:	210e      	movne	r1, #14
    7e1a:	09db      	lsrs	r3, r3, #7
    7e1c:	bf14      	ite	ne
    7e1e:	23e0      	movne	r3, #224	; 0xe0
    7e20:	2380      	moveq	r3, #128	; 0x80
    7e22:	4301      	orrs	r1, r0
    7e24:	430b      	orrs	r3, r1
    7e26:	f844 3022 	str.w	r3, [r4, r2, lsl #2]
    7e2a:	3201      	adds	r2, #1
    7e2c:	f5b2 7f80 	cmp.w	r2, #256	; 0x100
    7e30:	d1b9      	bne.n	7da6 <grid_led_init+0x32>
    7e32:	1e6b      	subs	r3, r5, #1
    7e34:	f105 008f 	add.w	r0, r5, #143	; 0x8f
    7e38:	2200      	movs	r2, #0
    7e3a:	f803 2f01 	strb.w	r2, [r3, #1]!
    7e3e:	4298      	cmp	r0, r3
    7e40:	d1fb      	bne.n	7e3a <grid_led_init+0xc6>
    7e42:	4d30      	ldr	r5, [pc, #192]	; (7f04 <grid_led_init+0x190>)
    7e44:	2400      	movs	r4, #0
    7e46:	42b4      	cmp	r4, r6
    7e48:	f04f 0300 	mov.w	r3, #0
    7e4c:	d310      	bcc.n	7e70 <grid_led_init+0xfc>
    7e4e:	f8df 80bc 	ldr.w	r8, [pc, #188]	; 7f0c <grid_led_init+0x198>
    7e52:	f8df 90bc 	ldr.w	r9, [pc, #188]	; 7f10 <grid_led_init+0x19c>
    7e56:	9303      	str	r3, [sp, #12]
    7e58:	f89d 500c 	ldrb.w	r5, [sp, #12]
    7e5c:	9b03      	ldr	r3, [sp, #12]
    7e5e:	42ae      	cmp	r6, r5
    7e60:	f103 0301 	add.w	r3, r3, #1
    7e64:	9303      	str	r3, [sp, #12]
    7e66:	d809      	bhi.n	7e7c <grid_led_init+0x108>
    7e68:	2000      	movs	r0, #0
    7e6a:	b005      	add	sp, #20
    7e6c:	e8bd 8ff0 	ldmia.w	sp!, {r4, r5, r6, r7, r8, r9, sl, fp, pc}
    7e70:	4620      	mov	r0, r4
    7e72:	461a      	mov	r2, r3
    7e74:	4619      	mov	r1, r3
    7e76:	47a8      	blx	r5
    7e78:	3401      	adds	r4, #1
    7e7a:	e7e4      	b.n	7e46 <grid_led_init+0xd2>
    7e7c:	2400      	movs	r4, #0
    7e7e:	4623      	mov	r3, r4
    7e80:	4622      	mov	r2, r4
    7e82:	4621      	mov	r1, r4
    7e84:	4628      	mov	r0, r5
    7e86:	4f20      	ldr	r7, [pc, #128]	; (7f08 <grid_led_init+0x194>)
    7e88:	9400      	str	r4, [sp, #0]
    7e8a:	47b8      	blx	r7
    7e8c:	237f      	movs	r3, #127	; 0x7f
    7e8e:	9300      	str	r3, [sp, #0]
    7e90:	4622      	mov	r2, r4
    7e92:	4623      	mov	r3, r4
    7e94:	4621      	mov	r1, r4
    7e96:	4628      	mov	r0, r5
    7e98:	47c0      	blx	r8
    7e9a:	23ff      	movs	r3, #255	; 0xff
    7e9c:	9300      	str	r3, [sp, #0]
    7e9e:	4622      	mov	r2, r4
    7ea0:	4623      	mov	r3, r4
    7ea2:	4621      	mov	r1, r4
    7ea4:	4628      	mov	r0, r5
    7ea6:	47c8      	blx	r9
    7ea8:	f8df b068 	ldr.w	fp, [pc, #104]	; 7f14 <grid_led_init+0x1a0>
    7eac:	f8df a068 	ldr.w	sl, [pc, #104]	; 7f18 <grid_led_init+0x1a4>
    7eb0:	4622      	mov	r2, r4
    7eb2:	4621      	mov	r1, r4
    7eb4:	4628      	mov	r0, r5
    7eb6:	47d8      	blx	fp
    7eb8:	4622      	mov	r2, r4
    7eba:	4621      	mov	r1, r4
    7ebc:	4628      	mov	r0, r5
    7ebe:	47d0      	blx	sl
    7ec0:	2302      	movs	r3, #2
    7ec2:	9300      	str	r3, [sp, #0]
    7ec4:	461a      	mov	r2, r3
    7ec6:	4628      	mov	r0, r5
    7ec8:	2101      	movs	r1, #1
    7eca:	47b8      	blx	r7
    7ecc:	4623      	mov	r3, r4
    7ece:	4622      	mov	r2, r4
    7ed0:	4628      	mov	r0, r5
    7ed2:	9400      	str	r4, [sp, #0]
    7ed4:	2101      	movs	r1, #1
    7ed6:	47c0      	blx	r8
    7ed8:	4623      	mov	r3, r4
    7eda:	4622      	mov	r2, r4
    7edc:	4628      	mov	r0, r5
    7ede:	9400      	str	r4, [sp, #0]
    7ee0:	2101      	movs	r1, #1
    7ee2:	47c8      	blx	r9
    7ee4:	4622      	mov	r2, r4
    7ee6:	4628      	mov	r0, r5
    7ee8:	2101      	movs	r1, #1
    7eea:	47d8      	blx	fp
    7eec:	4622      	mov	r2, r4
    7eee:	2101      	movs	r1, #1
    7ef0:	4628      	mov	r0, r5
    7ef2:	47d0      	blx	sl
    7ef4:	e7b0      	b.n	7e58 <grid_led_init+0xe4>
    7ef6:	bf00      	nop
    7ef8:	20000b10 	.word	0x20000b10
    7efc:	00009475 	.word	0x00009475
    7f00:	20001790 	.word	0x20001790
    7f04:	00007c45 	.word	0x00007c45
    7f08:	00007cbd 	.word	0x00007cbd
    7f0c:	00007ce5 	.word	0x00007ce5
    7f10:	00007d0d 	.word	0x00007d0d
    7f14:	00007d55 	.word	0x00007d55
    7f18:	00007d35 	.word	0x00007d35

00007f1c <grid_led_render>:
    7f1c:	4b28      	ldr	r3, [pc, #160]	; (7fc0 <grid_led_render+0xa4>)
    7f1e:	6ddb      	ldr	r3, [r3, #92]	; 0x5c
    7f20:	e92d 47f0 	stmdb	sp!, {r4, r5, r6, r7, r8, r9, sl, lr}
    7f24:	240d      	movs	r4, #13
    7f26:	fb04 fc03 	mul.w	ip, r4, r3
    7f2a:	4b26      	ldr	r3, [pc, #152]	; (7fc4 <grid_led_render+0xa8>)
    7f2c:	f8df 809c 	ldr.w	r8, [pc, #156]	; 7fcc <grid_led_render+0xb0>
    7f30:	681b      	ldr	r3, [r3, #0]
    7f32:	fb04 3400 	mla	r4, r4, r0, r3
    7f36:	2300      	movs	r3, #0
    7f38:	2502      	movs	r5, #2
    7f3a:	461a      	mov	r2, r3
    7f3c:	4619      	mov	r1, r3
    7f3e:	f894 e00b 	ldrb.w	lr, [r4, #11]
    7f42:	f894 a003 	ldrb.w	sl, [r4, #3]
    7f46:	f818 700e 	ldrb.w	r7, [r8, lr]
    7f4a:	44c6      	add	lr, r8
    7f4c:	3d01      	subs	r5, #1
    7f4e:	f89e 9100 	ldrb.w	r9, [lr, #256]	; 0x100
    7f52:	f89e 6200 	ldrb.w	r6, [lr, #512]	; 0x200
    7f56:	f894 e000 	ldrb.w	lr, [r4]
    7f5a:	fb1a fa09 	smulbb	sl, sl, r9
    7f5e:	fb0e aa07 	mla	sl, lr, r7, sl
    7f62:	f894 e006 	ldrb.w	lr, [r4, #6]
    7f66:	fb0e ae06 	mla	lr, lr, r6, sl
    7f6a:	f894 a004 	ldrb.w	sl, [r4, #4]
    7f6e:	4471      	add	r1, lr
    7f70:	f894 e001 	ldrb.w	lr, [r4, #1]
    7f74:	fb1a fa09 	smulbb	sl, sl, r9
    7f78:	fb0e aa07 	mla	sl, lr, r7, sl
    7f7c:	f894 e007 	ldrb.w	lr, [r4, #7]
    7f80:	fb0e ae06 	mla	lr, lr, r6, sl
    7f84:	4472      	add	r2, lr
    7f86:	f894 e005 	ldrb.w	lr, [r4, #5]
    7f8a:	f894 a002 	ldrb.w	sl, [r4, #2]
    7f8e:	fb1e fe09 	smulbb	lr, lr, r9
    7f92:	fb0a e707 	mla	r7, sl, r7, lr
    7f96:	f894 e008 	ldrb.w	lr, [r4, #8]
    7f9a:	f015 05ff 	ands.w	r5, r5, #255	; 0xff
    7f9e:	fb0e 7606 	mla	r6, lr, r6, r7
    7fa2:	4433      	add	r3, r6
    7fa4:	4464      	add	r4, ip
    7fa6:	d1ca      	bne.n	7f3e <grid_led_render+0x22>
    7fa8:	4c07      	ldr	r4, [pc, #28]	; (7fc8 <grid_led_render+0xac>)
    7faa:	f3c3 2347 	ubfx	r3, r3, #9, #8
    7fae:	46a4      	mov	ip, r4
    7fb0:	f3c2 2247 	ubfx	r2, r2, #9, #8
    7fb4:	f3c1 2147 	ubfx	r1, r1, #9, #8
    7fb8:	e8bd 47f0 	ldmia.w	sp!, {r4, r5, r6, r7, r8, r9, sl, lr}
    7fbc:	4760      	bx	ip
    7fbe:	bf00      	nop
    7fc0:	20000b10 	.word	0x20000b10
    7fc4:	20001790 	.word	0x20001790
    7fc8:	00007c45 	.word	0x00007c45
    7fcc:	20000000 	.word	0x20000000

00007fd0 <grid_led_render_all>:
    7fd0:	b570      	push	{r4, r5, r6, lr}
    7fd2:	4d05      	ldr	r5, [pc, #20]	; (7fe8 <grid_led_render_all+0x18>)
    7fd4:	4e05      	ldr	r6, [pc, #20]	; (7fec <grid_led_render_all+0x1c>)
    7fd6:	2400      	movs	r4, #0
    7fd8:	6deb      	ldr	r3, [r5, #92]	; 0x5c
    7fda:	429c      	cmp	r4, r3
    7fdc:	d300      	bcc.n	7fe0 <grid_led_render_all+0x10>
    7fde:	bd70      	pop	{r4, r5, r6, pc}
    7fe0:	4620      	mov	r0, r4
    7fe2:	47b0      	blx	r6
    7fe4:	3401      	adds	r4, #1
    7fe6:	e7f7      	b.n	7fd8 <grid_led_render_all+0x8>
    7fe8:	20000b10 	.word	0x20000b10
    7fec:	00007f1d 	.word	0x00007f1d

00007ff0 <grid_ain_channel_init>:
    7ff0:	b570      	push	{r4, r5, r6, lr}
    7ff2:	004d      	lsls	r5, r1, #1
    7ff4:	2600      	movs	r6, #0
    7ff6:	7183      	strb	r3, [r0, #6]
    7ff8:	4604      	mov	r4, r0
    7ffa:	7101      	strb	r1, [r0, #4]
    7ffc:	7142      	strb	r2, [r0, #5]
    7ffe:	8146      	strh	r6, [r0, #10]
    8000:	4b07      	ldr	r3, [pc, #28]	; (8020 <grid_ain_channel_init+0x30>)
    8002:	4628      	mov	r0, r5
    8004:	4798      	blx	r3
    8006:	4633      	mov	r3, r6
    8008:	6020      	str	r0, [r4, #0]
    800a:	4405      	add	r5, r0
    800c:	42a8      	cmp	r0, r5
    800e:	d103      	bne.n	8018 <grid_ain_channel_init+0x28>
    8010:	81a3      	strh	r3, [r4, #12]
    8012:	8123      	strh	r3, [r4, #8]
    8014:	2000      	movs	r0, #0
    8016:	bd70      	pop	{r4, r5, r6, pc}
    8018:	f820 3b02 	strh.w	r3, [r0], #2
    801c:	e7f6      	b.n	800c <grid_ain_channel_init+0x1c>
    801e:	bf00      	nop
    8020:	00009475 	.word	0x00009475

00008024 <grid_ain_init>:
    8024:	e92d 43f8 	stmdb	sp!, {r3, r4, r5, r6, r7, r8, r9, lr}
    8028:	4c0e      	ldr	r4, [pc, #56]	; (8064 <grid_ain_init+0x40>)
    802a:	f8df 9040 	ldr.w	r9, [pc, #64]	; 806c <grid_ain_init+0x48>
    802e:	f884 0464 	strb.w	r0, [r4, #1124]	; 0x464
    8032:	0105      	lsls	r5, r0, #4
    8034:	4628      	mov	r0, r5
    8036:	4698      	mov	r8, r3
    8038:	4b0b      	ldr	r3, [pc, #44]	; (8068 <grid_ain_init+0x44>)
    803a:	f884 1465 	strb.w	r1, [r4, #1125]	; 0x465
    803e:	460e      	mov	r6, r1
    8040:	4617      	mov	r7, r2
    8042:	4798      	blx	r3
    8044:	f8c4 0468 	str.w	r0, [r4, #1128]	; 0x468
    8048:	4405      	add	r5, r0
    804a:	4604      	mov	r4, r0
    804c:	42ac      	cmp	r4, r5
    804e:	d102      	bne.n	8056 <grid_ain_init+0x32>
    8050:	2000      	movs	r0, #0
    8052:	e8bd 83f8 	ldmia.w	sp!, {r3, r4, r5, r6, r7, r8, r9, pc}
    8056:	4620      	mov	r0, r4
    8058:	4643      	mov	r3, r8
    805a:	463a      	mov	r2, r7
    805c:	4631      	mov	r1, r6
    805e:	47c8      	blx	r9
    8060:	3410      	adds	r4, #16
    8062:	e7f3      	b.n	804c <grid_ain_init+0x28>
    8064:	20000b10 	.word	0x20000b10
    8068:	00009475 	.word	0x00009475
    806c:	00007ff1 	.word	0x00007ff1

00008070 <grid_ain_add_sample>:
    8070:	4b32      	ldr	r3, [pc, #200]	; (813c <grid_ain_add_sample+0xcc>)
    8072:	e92d 47f0 	stmdb	sp!, {r4, r5, r6, r7, r8, r9, sl, lr}
    8076:	f8d3 8468 	ldr.w	r8, [r3, #1128]	; 0x468
    807a:	ea4f 1c00 	mov.w	ip, r0, lsl #4
    807e:	eb08 020c 	add.w	r2, r8, ip
    8082:	2400      	movs	r4, #0
    8084:	7915      	ldrb	r5, [r2, #4]
    8086:	4620      	mov	r0, r4
    8088:	4626      	mov	r6, r4
    808a:	46a2      	mov	sl, r4
    808c:	f64f 79ff 	movw	r9, #65535	; 0xffff
    8090:	4623      	mov	r3, r4
    8092:	fa5f fe84 	uxtb.w	lr, r4
    8096:	45ae      	cmp	lr, r5
    8098:	d33f      	bcc.n	811a <grid_ain_add_sample+0xaa>
    809a:	fbb3 f5f5 	udiv	r5, r3, r5
    809e:	b2ad      	uxth	r5, r5
    80a0:	428d      	cmp	r5, r1
    80a2:	bf38      	it	cc
    80a4:	b230      	sxthcc	r0, r6
    80a6:	f858 400c 	ldr.w	r4, [r8, ip]
    80aa:	bf28      	it	cs
    80ac:	b200      	sxthcs	r0, r0
    80ae:	440b      	add	r3, r1
    80b0:	f834 5010 	ldrh.w	r5, [r4, r0, lsl #1]
    80b4:	f824 1010 	strh.w	r1, [r4, r0, lsl #1]
    80b8:	7990      	ldrb	r0, [r2, #6]
    80ba:	7954      	ldrb	r4, [r2, #5]
    80bc:	7911      	ldrb	r1, [r2, #4]
    80be:	8957      	ldrh	r7, [r2, #10]
    80c0:	f8b2 c008 	ldrh.w	ip, [r2, #8]
    80c4:	1b5b      	subs	r3, r3, r5
    80c6:	f1c0 0510 	rsb	r5, r0, #16
    80ca:	fbb3 f3f1 	udiv	r3, r3, r1
    80ce:	b2ed      	uxtb	r5, r5
    80d0:	b29e      	uxth	r6, r3
    80d2:	fa46 f105 	asr.w	r1, r6, r5
    80d6:	1a20      	subs	r0, r4, r0
    80d8:	b2c0      	uxtb	r0, r0
    80da:	b289      	uxth	r1, r1
    80dc:	1bbf      	subs	r7, r7, r6
    80de:	4081      	lsls	r1, r0
    80e0:	2f00      	cmp	r7, #0
    80e2:	fa1f fe81 	uxth.w	lr, r1
    80e6:	bfb8      	it	lt
    80e8:	427f      	neglt	r7, r7
    80ea:	2601      	movs	r6, #1
    80ec:	45f4      	cmp	ip, lr
    80ee:	fa06 f505 	lsl.w	r5, r6, r5
    80f2:	d020      	beq.n	8136 <grid_ain_add_sample+0xc6>
    80f4:	42af      	cmp	r7, r5
    80f6:	dc09      	bgt.n	810c <grid_ain_add_sample+0x9c>
    80f8:	fa06 f404 	lsl.w	r4, r6, r4
    80fc:	fa06 f000 	lsl.w	r0, r6, r0
    8100:	1a24      	subs	r4, r4, r0
    8102:	45a6      	cmp	lr, r4
    8104:	d002      	beq.n	810c <grid_ain_add_sample+0x9c>
    8106:	f1be 0f00 	cmp.w	lr, #0
    810a:	d114      	bne.n	8136 <grid_ain_add_sample+0xc6>
    810c:	2001      	movs	r0, #1
    810e:	8153      	strh	r3, [r2, #10]
    8110:	f8a2 e008 	strh.w	lr, [r2, #8]
    8114:	8190      	strh	r0, [r2, #12]
    8116:	e8bd 87f0 	ldmia.w	sp!, {r4, r5, r6, r7, r8, r9, sl, pc}
    811a:	6817      	ldr	r7, [r2, #0]
    811c:	f837 7014 	ldrh.w	r7, [r7, r4, lsl #1]
    8120:	45ba      	cmp	sl, r7
    8122:	bf3c      	itt	cc
    8124:	4670      	movcc	r0, lr
    8126:	46ba      	movcc	sl, r7
    8128:	45b9      	cmp	r9, r7
    812a:	443b      	add	r3, r7
    812c:	bf84      	itt	hi
    812e:	4676      	movhi	r6, lr
    8130:	46b9      	movhi	r9, r7
    8132:	3401      	adds	r4, #1
    8134:	e7ad      	b.n	8092 <grid_ain_add_sample+0x22>
    8136:	2000      	movs	r0, #0
    8138:	e8bd 87f0 	ldmia.w	sp!, {r4, r5, r6, r7, r8, r9, sl, pc}
    813c:	20000b10 	.word	0x20000b10

00008140 <convert_cb_ADC_1>:
    8140:	e92d 41f3 	stmdb	sp!, {r0, r1, r4, r5, r6, r7, r8, lr}
    8144:	4c44      	ldr	r4, [pc, #272]	; (8258 <convert_cb_ADC_1+0x118>)
    8146:	2301      	movs	r3, #1
    8148:	f884 346c 	strb.w	r3, [r4, #1132]	; 0x46c
    814c:	7823      	ldrb	r3, [r4, #0]
    814e:	2b00      	cmp	r3, #0
    8150:	d0fc      	beq.n	814c <convert_cb_ADC_1+0xc>
    8152:	f894 346c 	ldrb.w	r3, [r4, #1132]	; 0x46c
    8156:	2b00      	cmp	r3, #0
    8158:	d0fb      	beq.n	8152 <convert_cb_ADC_1+0x12>
    815a:	f894 346d 	ldrb.w	r3, [r4, #1133]	; 0x46d
    815e:	4a3f      	ldr	r2, [pc, #252]	; (825c <convert_cb_ADC_1+0x11c>)
    8160:	f8df 8110 	ldr.w	r8, [pc, #272]	; 8274 <convert_cb_ADC_1+0x134>
    8164:	5cd6      	ldrb	r6, [r2, r3]
    8166:	483e      	ldr	r0, [pc, #248]	; (8260 <convert_cb_ADC_1+0x120>)
    8168:	18d1      	adds	r1, r2, r3
    816a:	2500      	movs	r5, #0
    816c:	7a0f      	ldrb	r7, [r1, #8]
    816e:	f8ad 5004 	strh.w	r5, [sp, #4]
    8172:	4629      	mov	r1, r5
    8174:	2302      	movs	r3, #2
    8176:	aa01      	add	r2, sp, #4
    8178:	f8ad 5006 	strh.w	r5, [sp, #6]
    817c:	47c0      	blx	r8
    817e:	4629      	mov	r1, r5
    8180:	2302      	movs	r3, #2
    8182:	f10d 0206 	add.w	r2, sp, #6
    8186:	4837      	ldr	r0, [pc, #220]	; (8264 <convert_cb_ADC_1+0x124>)
    8188:	47c0      	blx	r8
    818a:	19e3      	adds	r3, r4, r7
    818c:	f993 146e 	ldrsb.w	r1, [r3, #1134]	; 0x46e
    8190:	07cd      	lsls	r5, r1, #31
    8192:	bf42      	ittt	mi
    8194:	f8bd 3004 	ldrhmi.w	r3, [sp, #4]
    8198:	43db      	mvnmi	r3, r3
    819a:	f8ad 3004 	strhmi.w	r3, [sp, #4]
    819e:	19a3      	adds	r3, r4, r6
    81a0:	f993 246e 	ldrsb.w	r2, [r3, #1134]	; 0x46e
    81a4:	07d0      	lsls	r0, r2, #31
    81a6:	bf42      	ittt	mi
    81a8:	f8bd 3006 	ldrhmi.w	r3, [sp, #6]
    81ac:	43db      	mvnmi	r3, r3
    81ae:	f8ad 3006 	strhmi.w	r3, [sp, #6]
    81b2:	0789      	lsls	r1, r1, #30
    81b4:	d50a      	bpl.n	81cc <convert_cb_ADC_1+0x8c>
    81b6:	f8bd 3004 	ldrh.w	r3, [sp, #4]
    81ba:	f242 7110 	movw	r1, #10000	; 0x2710
    81be:	428b      	cmp	r3, r1
    81c0:	f04f 33ff 	mov.w	r3, #4294967295
    81c4:	bf98      	it	ls
    81c6:	2300      	movls	r3, #0
    81c8:	f8ad 3004 	strh.w	r3, [sp, #4]
    81cc:	0793      	lsls	r3, r2, #30
    81ce:	d50a      	bpl.n	81e6 <convert_cb_ADC_1+0xa6>
    81d0:	f8bd 3006 	ldrh.w	r3, [sp, #6]
    81d4:	f242 7210 	movw	r2, #10000	; 0x2710
    81d8:	4293      	cmp	r3, r2
    81da:	f04f 33ff 	mov.w	r3, #4294967295
    81de:	bf98      	it	ls
    81e0:	2300      	movls	r3, #0
    81e2:	f8ad 3006 	strh.w	r3, [sp, #6]
    81e6:	f8bd 1004 	ldrh.w	r1, [sp, #4]
    81ea:	4d1f      	ldr	r5, [pc, #124]	; (8268 <convert_cb_ADC_1+0x128>)
    81ec:	4638      	mov	r0, r7
    81ee:	47a8      	blx	r5
    81f0:	f8bd 1006 	ldrh.w	r1, [sp, #6]
    81f4:	4630      	mov	r0, r6
    81f6:	47a8      	blx	r5
    81f8:	f894 346d 	ldrb.w	r3, [r4, #1133]	; 0x46d
    81fc:	4818      	ldr	r0, [pc, #96]	; (8260 <convert_cb_ADC_1+0x120>)
    81fe:	3301      	adds	r3, #1
    8200:	b2db      	uxtb	r3, r3
    8202:	f003 0207 	and.w	r2, r3, #7
    8206:	f013 0f01 	tst.w	r3, #1
    820a:	4b18      	ldr	r3, [pc, #96]	; (826c <convert_cb_ADC_1+0x12c>)
    820c:	f884 246d 	strb.w	r2, [r4, #1133]	; 0x46d
    8210:	f44f 2100 	mov.w	r1, #524288	; 0x80000
    8214:	bf14      	ite	ne
    8216:	f8c3 1118 	strne.w	r1, [r3, #280]	; 0x118
    821a:	f8c3 1114 	streq.w	r1, [r3, #276]	; 0x114
    821e:	4b13      	ldr	r3, [pc, #76]	; (826c <convert_cb_ADC_1+0x12c>)
    8220:	f44f 1180 	mov.w	r1, #1048576	; 0x100000
    8224:	f012 0f02 	tst.w	r2, #2
    8228:	bf14      	ite	ne
    822a:	f8c3 1118 	strne.w	r1, [r3, #280]	; 0x118
    822e:	f8c3 1114 	streq.w	r1, [r3, #276]	; 0x114
    8232:	0892      	lsrs	r2, r2, #2
    8234:	f44f 1200 	mov.w	r2, #2097152	; 0x200000
    8238:	bf14      	ite	ne
    823a:	f8c3 2118 	strne.w	r2, [r3, #280]	; 0x118
    823e:	f8c3 2114 	streq.w	r2, [r3, #276]	; 0x114
    8242:	2300      	movs	r3, #0
    8244:	7023      	strb	r3, [r4, #0]
    8246:	f884 346c 	strb.w	r3, [r4, #1132]	; 0x46c
    824a:	4c09      	ldr	r4, [pc, #36]	; (8270 <convert_cb_ADC_1+0x130>)
    824c:	47a0      	blx	r4
    824e:	4805      	ldr	r0, [pc, #20]	; (8264 <convert_cb_ADC_1+0x124>)
    8250:	47a0      	blx	r4
    8252:	b002      	add	sp, #8
    8254:	e8bd 81f0 	ldmia.w	sp!, {r4, r5, r6, r7, r8, pc}
    8258:	20000b10 	.word	0x20000b10
    825c:	00009f98 	.word	0x00009f98
    8260:	200011a0 	.word	0x200011a0
    8264:	20001350 	.word	0x20001350
    8268:	00008071 	.word	0x00008071
    826c:	41008000 	.word	0x41008000
    8270:	00004da1 	.word	0x00004da1
    8274:	00004d2d 	.word	0x00004d2d

00008278 <grid_ain_get_changed>:
    8278:	4b03      	ldr	r3, [pc, #12]	; (8288 <grid_ain_get_changed+0x10>)
    827a:	f8d3 3468 	ldr.w	r3, [r3, #1128]	; 0x468
    827e:	eb03 1000 	add.w	r0, r3, r0, lsl #4
    8282:	7b00      	ldrb	r0, [r0, #12]
    8284:	4770      	bx	lr
    8286:	bf00      	nop
    8288:	20000b10 	.word	0x20000b10

0000828c <grid_ain_get_average>:
    828c:	4b04      	ldr	r3, [pc, #16]	; (82a0 <grid_ain_get_average+0x14>)
    828e:	f8d3 3468 	ldr.w	r3, [r3, #1128]	; 0x468
    8292:	eb03 1000 	add.w	r0, r3, r0, lsl #4
    8296:	2300      	movs	r3, #0
    8298:	8183      	strh	r3, [r0, #12]
    829a:	8900      	ldrh	r0, [r0, #8]
    829c:	4770      	bx	lr
    829e:	bf00      	nop
    82a0:	20000b10 	.word	0x20000b10

000082a4 <grid_tel_event_register>:
    82a4:	b538      	push	{r3, r4, r5, lr}
    82a6:	4604      	mov	r4, r0
    82a8:	4b0c      	ldr	r3, [pc, #48]	; (82dc <grid_tel_event_register+0x38>)
    82aa:	2018      	movs	r0, #24
    82ac:	460d      	mov	r5, r1
    82ae:	4798      	blx	r3
    82b0:	b190      	cbz	r0, 82d8 <grid_tel_event_register+0x34>
    82b2:	4a0b      	ldr	r2, [pc, #44]	; (82e0 <grid_tel_event_register+0x3c>)
    82b4:	60c5      	str	r5, [r0, #12]
    82b6:	2300      	movs	r3, #0
    82b8:	6143      	str	r3, [r0, #20]
    82ba:	6003      	str	r3, [r0, #0]
    82bc:	6103      	str	r3, [r0, #16]
    82be:	6043      	str	r3, [r0, #4]
    82c0:	f8d2 3480 	ldr.w	r3, [r2, #1152]	; 0x480
    82c4:	6084      	str	r4, [r0, #8]
    82c6:	b91b      	cbnz	r3, 82d0 <grid_tel_event_register+0x2c>
    82c8:	f8c2 0480 	str.w	r0, [r2, #1152]	; 0x480
    82cc:	bd38      	pop	{r3, r4, r5, pc}
    82ce:	4613      	mov	r3, r2
    82d0:	695a      	ldr	r2, [r3, #20]
    82d2:	2a00      	cmp	r2, #0
    82d4:	d1fb      	bne.n	82ce <grid_tel_event_register+0x2a>
    82d6:	6158      	str	r0, [r3, #20]
    82d8:	bd38      	pop	{r3, r4, r5, pc}
    82da:	bf00      	nop
    82dc:	00009475 	.word	0x00009475
    82e0:	20000b10 	.word	0x20000b10

000082e4 <grid_tel_calculate_event_frequency>:
    82e4:	6843      	ldr	r3, [r0, #4]
    82e6:	6882      	ldr	r2, [r0, #8]
    82e8:	6103      	str	r3, [r0, #16]
    82ea:	4293      	cmp	r3, r2
    82ec:	bf2c      	ite	cs
    82ee:	1a9b      	subcs	r3, r3, r2
    82f0:	2300      	movcc	r3, #0
    82f2:	6043      	str	r3, [r0, #4]
    82f4:	6842      	ldr	r2, [r0, #4]
    82f6:	68c0      	ldr	r0, [r0, #12]
    82f8:	4282      	cmp	r2, r0
    82fa:	bf94      	ite	ls
    82fc:	2000      	movls	r0, #0
    82fe:	2001      	movhi	r0, #1
    8300:	4770      	bx	lr
	...

00008304 <grid_tel_frequency_tick>:
    8304:	4b05      	ldr	r3, [pc, #20]	; (831c <grid_tel_frequency_tick+0x18>)
    8306:	b510      	push	{r4, lr}
    8308:	f8d3 1480 	ldr.w	r1, [r3, #1152]	; 0x480
    830c:	4c04      	ldr	r4, [pc, #16]	; (8320 <grid_tel_frequency_tick+0x1c>)
    830e:	b901      	cbnz	r1, 8312 <grid_tel_frequency_tick+0xe>
    8310:	bd10      	pop	{r4, pc}
    8312:	4608      	mov	r0, r1
    8314:	47a0      	blx	r4
    8316:	6949      	ldr	r1, [r1, #20]
    8318:	e7f9      	b.n	830e <grid_tel_frequency_tick+0xa>
    831a:	bf00      	nop
    831c:	20000b10 	.word	0x20000b10
    8320:	000082e5 	.word	0x000082e5

00008324 <grid_sys_get_id>:
    8324:	4b06      	ldr	r3, [pc, #24]	; (8340 <grid_sys_get_id+0x1c>)
    8326:	681b      	ldr	r3, [r3, #0]
    8328:	6003      	str	r3, [r0, #0]
    832a:	4b06      	ldr	r3, [pc, #24]	; (8344 <grid_sys_get_id+0x20>)
    832c:	681b      	ldr	r3, [r3, #0]
    832e:	6043      	str	r3, [r0, #4]
    8330:	4b05      	ldr	r3, [pc, #20]	; (8348 <grid_sys_get_id+0x24>)
    8332:	681b      	ldr	r3, [r3, #0]
    8334:	6083      	str	r3, [r0, #8]
    8336:	4b05      	ldr	r3, [pc, #20]	; (834c <grid_sys_get_id+0x28>)
    8338:	681b      	ldr	r3, [r3, #0]
    833a:	60c3      	str	r3, [r0, #12]
    833c:	2001      	movs	r0, #1
    833e:	4770      	bx	lr
    8340:	008061fc 	.word	0x008061fc
    8344:	00806010 	.word	0x00806010
    8348:	00806014 	.word	0x00806014
    834c:	00806018 	.word	0x00806018

00008350 <grid_sys_get_hwcfg>:
    8350:	e92d 4ff8 	stmdb	sp!, {r3, r4, r5, r6, r7, r8, r9, sl, fp, lr}
    8354:	4e28      	ldr	r6, [pc, #160]	; (83f8 <grid_sys_get_hwcfg+0xa8>)
    8356:	f8d6 3300 	ldr.w	r3, [r6, #768]	; 0x300
    835a:	3301      	adds	r3, #1
    835c:	d147      	bne.n	83ee <grid_sys_get_hwcfg+0x9e>
    835e:	4c27      	ldr	r4, [pc, #156]	; (83fc <grid_sys_get_hwcfg+0xac>)
    8360:	4b27      	ldr	r3, [pc, #156]	; (8400 <grid_sys_get_hwcfg+0xb0>)
    8362:	4f28      	ldr	r7, [pc, #160]	; (8404 <grid_sys_get_hwcfg+0xb4>)
    8364:	f44f 5800 	mov.w	r8, #8192	; 0x2000
    8368:	f8c4 8088 	str.w	r8, [r4, #136]	; 0x88
    836c:	f44f 4280 	mov.w	r2, #16384	; 0x4000
    8370:	f8c4 30a8 	str.w	r3, [r4, #168]	; 0xa8
    8374:	f04f 4340 	mov.w	r3, #3221225472	; 0xc0000000
    8378:	f8c4 30a8 	str.w	r3, [r4, #168]	; 0xa8
    837c:	f8c4 2088 	str.w	r2, [r4, #136]	; 0x88
    8380:	f04f 2240 	mov.w	r2, #1073758208	; 0x40004000
    8384:	f8c4 20a8 	str.w	r2, [r4, #168]	; 0xa8
    8388:	f8c4 30a8 	str.w	r3, [r4, #168]	; 0xa8
    838c:	f44f 4300 	mov.w	r3, #32768	; 0x8000
    8390:	f8c4 3084 	str.w	r3, [r4, #132]	; 0x84
    8394:	4b1c      	ldr	r3, [pc, #112]	; (8408 <grid_sys_get_hwcfg+0xb8>)
    8396:	f8c4 30a8 	str.w	r3, [r4, #168]	; 0xa8
    839a:	f1a3 2380 	sub.w	r3, r3, #2147516416	; 0x80008000
    839e:	f8c4 30a8 	str.w	r3, [r4, #168]	; 0xa8
    83a2:	2001      	movs	r0, #1
    83a4:	f8c4 8094 	str.w	r8, [r4, #148]	; 0x94
    83a8:	47b8      	blx	r7
    83aa:	2500      	movs	r5, #0
    83ac:	46a9      	mov	r9, r5
    83ae:	f04f 0a01 	mov.w	sl, #1
    83b2:	2001      	movs	r0, #1
    83b4:	f8c4 8098 	str.w	r8, [r4, #152]	; 0x98
    83b8:	47b8      	blx	r7
    83ba:	4b14      	ldr	r3, [pc, #80]	; (840c <grid_sys_get_hwcfg+0xbc>)
    83bc:	2001      	movs	r0, #1
    83be:	4798      	blx	r3
    83c0:	0403      	lsls	r3, r0, #16
    83c2:	bf42      	ittt	mi
    83c4:	fa0a f305 	lslmi.w	r3, sl, r5
    83c8:	ea43 0909 	orrmi.w	r9, r3, r9
    83cc:	fa5f f989 	uxtbmi.w	r9, r9
    83d0:	2d07      	cmp	r5, #7
    83d2:	d007      	beq.n	83e4 <grid_sys_get_hwcfg+0x94>
    83d4:	f44f 4b80 	mov.w	fp, #16384	; 0x4000
    83d8:	f8c4 b098 	str.w	fp, [r4, #152]	; 0x98
    83dc:	2001      	movs	r0, #1
    83de:	47b8      	blx	r7
    83e0:	f8c4 b094 	str.w	fp, [r4, #148]	; 0x94
    83e4:	3501      	adds	r5, #1
    83e6:	2d08      	cmp	r5, #8
    83e8:	d1e3      	bne.n	83b2 <grid_sys_get_hwcfg+0x62>
    83ea:	f8c6 9300 	str.w	r9, [r6, #768]	; 0x300
    83ee:	f8d6 0300 	ldr.w	r0, [r6, #768]	; 0x300
    83f2:	e8bd 8ff8 	ldmia.w	sp!, {r3, r4, r5, r6, r7, r8, r9, sl, fp, pc}
    83f6:	bf00      	nop
    83f8:	20000000 	.word	0x20000000
    83fc:	41008000 	.word	0x41008000
    8400:	40002000 	.word	0x40002000
    8404:	00004e09 	.word	0x00004e09
    8408:	40028000 	.word	0x40028000
    840c:	00007bb9 	.word	0x00007bb9

00008410 <grid_sys_uart_init>:
    8410:	e92d 47f0 	stmdb	sp!, {r4, r5, r6, r7, r8, r9, sl, lr}
    8414:	4c13      	ldr	r4, [pc, #76]	; (8464 <grid_sys_uart_init+0x54>)
    8416:	f8df 9068 	ldr.w	r9, [pc, #104]	; 8480 <grid_sys_uart_init+0x70>
    841a:	f8df 8068 	ldr.w	r8, [pc, #104]	; 8484 <grid_sys_uart_init+0x74>
    841e:	4d12      	ldr	r5, [pc, #72]	; (8468 <grid_sys_uart_init+0x58>)
    8420:	4f12      	ldr	r7, [pc, #72]	; (846c <grid_sys_uart_init+0x5c>)
    8422:	4e13      	ldr	r6, [pc, #76]	; (8470 <grid_sys_uart_init+0x60>)
    8424:	464a      	mov	r2, r9
    8426:	2101      	movs	r1, #1
    8428:	4620      	mov	r0, r4
    842a:	47a8      	blx	r5
    842c:	4642      	mov	r2, r8
    842e:	2100      	movs	r1, #0
    8430:	4620      	mov	r0, r4
    8432:	47a8      	blx	r5
    8434:	4b0f      	ldr	r3, [pc, #60]	; (8474 <grid_sys_uart_init+0x64>)
    8436:	4620      	mov	r0, r4
    8438:	6819      	ldr	r1, [r3, #0]
    843a:	47b8      	blx	r7
    843c:	4620      	mov	r0, r4
    843e:	4c0e      	ldr	r4, [pc, #56]	; (8478 <grid_sys_uart_init+0x68>)
    8440:	47b0      	blx	r6
    8442:	464a      	mov	r2, r9
    8444:	2101      	movs	r1, #1
    8446:	4620      	mov	r0, r4
    8448:	47a8      	blx	r5
    844a:	4642      	mov	r2, r8
    844c:	2100      	movs	r1, #0
    844e:	4620      	mov	r0, r4
    8450:	47a8      	blx	r5
    8452:	4b0a      	ldr	r3, [pc, #40]	; (847c <grid_sys_uart_init+0x6c>)
    8454:	4620      	mov	r0, r4
    8456:	6819      	ldr	r1, [r3, #0]
    8458:	47b8      	blx	r7
    845a:	4620      	mov	r0, r4
    845c:	4633      	mov	r3, r6
    845e:	e8bd 47f0 	ldmia.w	sp!, {r4, r5, r6, r7, r8, r9, sl, lr}
    8462:	4718      	bx	r3
    8464:	200011cc 	.word	0x200011cc
    8468:	00005295 	.word	0x00005295
    846c:	0000528d 	.word	0x0000528d
    8470:	0000527d 	.word	0x0000527d
    8474:	20001c14 	.word	0x20001c14
    8478:	200012b0 	.word	0x200012b0
    847c:	20001c94 	.word	0x20001c94
    8480:	00007bed 	.word	0x00007bed
    8484:	00007c19 	.word	0x00007c19

00008488 <grid_msg_process>:
    8488:	b5f7      	push	{r0, r1, r2, r4, r5, r6, r7, lr}
    848a:	4b0e      	ldr	r3, [pc, #56]	; (84c4 <grid_msg_process+0x3c>)
    848c:	4606      	mov	r6, r0
    848e:	460f      	mov	r7, r1
    8490:	4798      	blx	r3
    8492:	b998      	cbnz	r0, 84bc <grid_msg_process+0x34>
    8494:	b003      	add	sp, #12
    8496:	bdf0      	pop	{r4, r5, r6, r7, pc}
    8498:	f89d 3007 	ldrb.w	r3, [sp, #7]
    849c:	2b50      	cmp	r3, #80	; 0x50
    849e:	d105      	bne.n	84ac <grid_msg_process+0x24>
    84a0:	f894 3484 	ldrb.w	r3, [r4, #1156]	; 0x484
    84a4:	3301      	adds	r3, #1
    84a6:	b2db      	uxtb	r3, r3
    84a8:	f884 3484 	strb.w	r3, [r4, #1156]	; 0x484
    84ac:	2201      	movs	r2, #1
    84ae:	f10d 0107 	add.w	r1, sp, #7
    84b2:	4630      	mov	r0, r6
    84b4:	47a8      	blx	r5
    84b6:	2801      	cmp	r0, #1
    84b8:	d0ee      	beq.n	8498 <grid_msg_process+0x10>
    84ba:	e7eb      	b.n	8494 <grid_msg_process+0xc>
    84bc:	4c02      	ldr	r4, [pc, #8]	; (84c8 <grid_msg_process+0x40>)
    84be:	4d03      	ldr	r5, [pc, #12]	; (84cc <grid_msg_process+0x44>)
    84c0:	443c      	add	r4, r7
    84c2:	e7f3      	b.n	84ac <grid_msg_process+0x24>
    84c4:	000052d9 	.word	0x000052d9
    84c8:	20000b10 	.word	0x20000b10
    84cc:	00004f35 	.word	0x00004f35

000084d0 <grid_msg_process_all>:
    84d0:	b510      	push	{r4, lr}
    84d2:	4c05      	ldr	r4, [pc, #20]	; (84e8 <grid_msg_process_all+0x18>)
    84d4:	4805      	ldr	r0, [pc, #20]	; (84ec <grid_msg_process_all+0x1c>)
    84d6:	2101      	movs	r1, #1
    84d8:	47a0      	blx	r4
    84da:	4623      	mov	r3, r4
    84dc:	2103      	movs	r1, #3
    84de:	4804      	ldr	r0, [pc, #16]	; (84f0 <grid_msg_process_all+0x20>)
    84e0:	e8bd 4010 	ldmia.w	sp!, {r4, lr}
    84e4:	4718      	bx	r3
    84e6:	bf00      	nop
    84e8:	00008489 	.word	0x00008489
    84ec:	200011cc 	.word	0x200011cc
    84f0:	200012b0 	.word	0x200012b0

000084f4 <grid_sys_ping>:
    84f4:	2201      	movs	r2, #1
    84f6:	4901      	ldr	r1, [pc, #4]	; (84fc <grid_sys_ping+0x8>)
    84f8:	4b01      	ldr	r3, [pc, #4]	; (8500 <grid_sys_ping+0xc>)
    84fa:	4718      	bx	r3
    84fc:	20000304 	.word	0x20000304
    8500:	00004f31 	.word	0x00004f31

00008504 <grid_sys_ping_all>:
    8504:	b510      	push	{r4, lr}
    8506:	4c04      	ldr	r4, [pc, #16]	; (8518 <grid_sys_ping_all+0x14>)
    8508:	4804      	ldr	r0, [pc, #16]	; (851c <grid_sys_ping_all+0x18>)
    850a:	47a0      	blx	r4
    850c:	4623      	mov	r3, r4
    850e:	4804      	ldr	r0, [pc, #16]	; (8520 <grid_sys_ping_all+0x1c>)
    8510:	e8bd 4010 	ldmia.w	sp!, {r4, lr}
    8514:	4718      	bx	r3
    8516:	bf00      	nop
    8518:	000084f5 	.word	0x000084f5
    851c:	200011cc 	.word	0x200011cc
    8520:	200012b0 	.word	0x200012b0

00008524 <RTC_Scheduler_ping_cb>:
    8524:	4b00      	ldr	r3, [pc, #0]	; (8528 <RTC_Scheduler_ping_cb+0x4>)
    8526:	4718      	bx	r3
    8528:	00008505 	.word	0x00008505

0000852c <grid_module_init>:
    852c:	e92d 4ff0 	stmdb	sp!, {r4, r5, r6, r7, r8, r9, sl, fp, lr}
    8530:	220e      	movs	r2, #14
    8532:	b085      	sub	sp, #20
    8534:	2103      	movs	r1, #3
    8536:	230a      	movs	r3, #10
    8538:	4c6b      	ldr	r4, [pc, #428]	; (86e8 <grid_module_init+0x1bc>)
    853a:	2010      	movs	r0, #16
    853c:	47a0      	blx	r4
    853e:	4b6b      	ldr	r3, [pc, #428]	; (86ec <grid_module_init+0x1c0>)
    8540:	4c6b      	ldr	r4, [pc, #428]	; (86f0 <grid_module_init+0x1c4>)
    8542:	2010      	movs	r0, #16
    8544:	4798      	blx	r3
    8546:	496b      	ldr	r1, [pc, #428]	; (86f4 <grid_module_init+0x1c8>)
    8548:	4b6b      	ldr	r3, [pc, #428]	; (86f8 <grid_module_init+0x1cc>)
    854a:	486c      	ldr	r0, [pc, #432]	; (86fc <grid_module_init+0x1d0>)
    854c:	4798      	blx	r3
    854e:	2100      	movs	r1, #0
    8550:	4a6b      	ldr	r2, [pc, #428]	; (8700 <grid_module_init+0x1d4>)
    8552:	486a      	ldr	r0, [pc, #424]	; (86fc <grid_module_init+0x1d0>)
    8554:	4b6b      	ldr	r3, [pc, #428]	; (8704 <grid_module_init+0x1d8>)
    8556:	4798      	blx	r3
    8558:	4b6b      	ldr	r3, [pc, #428]	; (8708 <grid_module_init+0x1dc>)
    855a:	4798      	blx	r3
    855c:	4b6b      	ldr	r3, [pc, #428]	; (870c <grid_module_init+0x1e0>)
    855e:	f44f 4280 	mov.w	r2, #16384	; 0x4000
    8562:	f8c3 2118 	str.w	r2, [r3, #280]	; 0x118
    8566:	47a0      	blx	r4
    8568:	47a0      	blx	r4
    856a:	2880      	cmp	r0, #128	; 0x80
    856c:	d166      	bne.n	863c <grid_module_init+0x110>
    856e:	4b68      	ldr	r3, [pc, #416]	; (8710 <grid_module_init+0x1e4>)
    8570:	f993 1479 	ldrsb.w	r1, [r3, #1145]	; 0x479
    8574:	f993 247a 	ldrsb.w	r2, [r3, #1146]	; 0x47a
    8578:	9203      	str	r2, [sp, #12]
    857a:	f041 0103 	orr.w	r1, r1, #3
    857e:	f993 a46f 	ldrsb.w	sl, [r3, #1135]	; 0x46f
    8582:	f993 9470 	ldrsb.w	r9, [r3, #1136]	; 0x470
    8586:	f993 8471 	ldrsb.w	r8, [r3, #1137]	; 0x471
    858a:	f993 c472 	ldrsb.w	ip, [r3, #1138]	; 0x472
    858e:	f993 e473 	ldrsb.w	lr, [r3, #1139]	; 0x473
    8592:	f993 7474 	ldrsb.w	r7, [r3, #1140]	; 0x474
    8596:	f993 6475 	ldrsb.w	r6, [r3, #1141]	; 0x475
    859a:	f993 5476 	ldrsb.w	r5, [r3, #1142]	; 0x476
    859e:	f993 4477 	ldrsb.w	r4, [r3, #1143]	; 0x477
    85a2:	f993 0478 	ldrsb.w	r0, [r3, #1144]	; 0x478
    85a6:	f893 b46e 	ldrb.w	fp, [r3, #1134]	; 0x46e
    85aa:	f883 1479 	strb.w	r1, [r3, #1145]	; 0x479
    85ae:	9903      	ldr	r1, [sp, #12]
    85b0:	f993 247b 	ldrsb.w	r2, [r3, #1147]	; 0x47b
    85b4:	9202      	str	r2, [sp, #8]
    85b6:	f041 0103 	orr.w	r1, r1, #3
    85ba:	f993 247c 	ldrsb.w	r2, [r3, #1148]	; 0x47c
    85be:	9201      	str	r2, [sp, #4]
    85c0:	f04b 0b03 	orr.w	fp, fp, #3
    85c4:	f04a 0a03 	orr.w	sl, sl, #3
    85c8:	f049 0903 	orr.w	r9, r9, #3
    85cc:	f048 0803 	orr.w	r8, r8, #3
    85d0:	f04c 0c03 	orr.w	ip, ip, #3
    85d4:	f04e 0e03 	orr.w	lr, lr, #3
    85d8:	f047 0703 	orr.w	r7, r7, #3
    85dc:	f046 0603 	orr.w	r6, r6, #3
    85e0:	f045 0503 	orr.w	r5, r5, #3
    85e4:	f044 0403 	orr.w	r4, r4, #3
    85e8:	f040 0003 	orr.w	r0, r0, #3
    85ec:	f993 247d 	ldrsb.w	r2, [r3, #1149]	; 0x47d
    85f0:	f883 b46e 	strb.w	fp, [r3, #1134]	; 0x46e
    85f4:	f883 a46f 	strb.w	sl, [r3, #1135]	; 0x46f
    85f8:	f883 9470 	strb.w	r9, [r3, #1136]	; 0x470
    85fc:	f883 8471 	strb.w	r8, [r3, #1137]	; 0x471
    8600:	f883 c472 	strb.w	ip, [r3, #1138]	; 0x472
    8604:	f883 e473 	strb.w	lr, [r3, #1139]	; 0x473
    8608:	f883 7474 	strb.w	r7, [r3, #1140]	; 0x474
    860c:	f883 6475 	strb.w	r6, [r3, #1141]	; 0x475
    8610:	f883 5476 	strb.w	r5, [r3, #1142]	; 0x476
    8614:	f883 4477 	strb.w	r4, [r3, #1143]	; 0x477
    8618:	f883 0478 	strb.w	r0, [r3, #1144]	; 0x478
    861c:	f883 147a 	strb.w	r1, [r3, #1146]	; 0x47a
    8620:	9902      	ldr	r1, [sp, #8]
    8622:	f041 0103 	orr.w	r1, r1, #3
    8626:	f883 147b 	strb.w	r1, [r3, #1147]	; 0x47b
    862a:	9901      	ldr	r1, [sp, #4]
    862c:	f042 0203 	orr.w	r2, r2, #3
    8630:	f041 0103 	orr.w	r1, r1, #3
    8634:	f883 147c 	strb.w	r1, [r3, #1148]	; 0x47c
    8638:	f883 247d 	strb.w	r2, [r3, #1149]	; 0x47d
    863c:	4b2c      	ldr	r3, [pc, #176]	; (86f0 <grid_module_init+0x1c4>)
    863e:	4798      	blx	r3
    8640:	2840      	cmp	r0, #64	; 0x40
    8642:	d130      	bne.n	86a6 <grid_module_init+0x17a>
    8644:	4b32      	ldr	r3, [pc, #200]	; (8710 <grid_module_init+0x1e4>)
    8646:	f893 246e 	ldrb.w	r2, [r3, #1134]	; 0x46e
    864a:	f993 047b 	ldrsb.w	r0, [r3, #1147]	; 0x47b
    864e:	f993 147c 	ldrsb.w	r1, [r3, #1148]	; 0x47c
    8652:	f893 447a 	ldrb.w	r4, [r3, #1146]	; 0x47a
    8656:	f042 0201 	orr.w	r2, r2, #1
    865a:	f883 246e 	strb.w	r2, [r3, #1134]	; 0x46e
    865e:	f893 246f 	ldrb.w	r2, [r3, #1135]	; 0x46f
    8662:	f042 0201 	orr.w	r2, r2, #1
    8666:	f883 246f 	strb.w	r2, [r3, #1135]	; 0x46f
    866a:	f893 2470 	ldrb.w	r2, [r3, #1136]	; 0x470
    866e:	f042 0201 	orr.w	r2, r2, #1
    8672:	f883 2470 	strb.w	r2, [r3, #1136]	; 0x470
    8676:	f893 2471 	ldrb.w	r2, [r3, #1137]	; 0x471
    867a:	f042 0201 	orr.w	r2, r2, #1
    867e:	f883 2471 	strb.w	r2, [r3, #1137]	; 0x471
    8682:	f993 247d 	ldrsb.w	r2, [r3, #1149]	; 0x47d
    8686:	f044 0403 	orr.w	r4, r4, #3
    868a:	f040 0003 	orr.w	r0, r0, #3
    868e:	f041 0103 	orr.w	r1, r1, #3
    8692:	f042 0203 	orr.w	r2, r2, #3
    8696:	f883 447a 	strb.w	r4, [r3, #1146]	; 0x47a
    869a:	f883 047b 	strb.w	r0, [r3, #1147]	; 0x47b
    869e:	f883 147c 	strb.w	r1, [r3, #1148]	; 0x47c
    86a2:	f883 247d 	strb.w	r2, [r3, #1149]	; 0x47d
    86a6:	2200      	movs	r2, #0
    86a8:	4611      	mov	r1, r2
    86aa:	4b1a      	ldr	r3, [pc, #104]	; (8714 <grid_module_init+0x1e8>)
    86ac:	4e1a      	ldr	r6, [pc, #104]	; (8718 <grid_module_init+0x1ec>)
    86ae:	481b      	ldr	r0, [pc, #108]	; (871c <grid_module_init+0x1f0>)
    86b0:	4d1b      	ldr	r5, [pc, #108]	; (8720 <grid_module_init+0x1f4>)
    86b2:	4c1c      	ldr	r4, [pc, #112]	; (8724 <grid_module_init+0x1f8>)
    86b4:	47b0      	blx	r6
    86b6:	2100      	movs	r1, #0
    86b8:	4818      	ldr	r0, [pc, #96]	; (871c <grid_module_init+0x1f0>)
    86ba:	47a8      	blx	r5
    86bc:	4817      	ldr	r0, [pc, #92]	; (871c <grid_module_init+0x1f0>)
    86be:	47a0      	blx	r4
    86c0:	2200      	movs	r2, #0
    86c2:	4611      	mov	r1, r2
    86c4:	4b18      	ldr	r3, [pc, #96]	; (8728 <grid_module_init+0x1fc>)
    86c6:	4819      	ldr	r0, [pc, #100]	; (872c <grid_module_init+0x200>)
    86c8:	47b0      	blx	r6
    86ca:	2100      	movs	r1, #0
    86cc:	4817      	ldr	r0, [pc, #92]	; (872c <grid_module_init+0x200>)
    86ce:	47a8      	blx	r5
    86d0:	4816      	ldr	r0, [pc, #88]	; (872c <grid_module_init+0x200>)
    86d2:	47a0      	blx	r4
    86d4:	4916      	ldr	r1, [pc, #88]	; (8730 <grid_module_init+0x204>)
    86d6:	4b17      	ldr	r3, [pc, #92]	; (8734 <grid_module_init+0x208>)
    86d8:	4817      	ldr	r0, [pc, #92]	; (8738 <grid_module_init+0x20c>)
    86da:	4798      	blx	r3
    86dc:	4816      	ldr	r0, [pc, #88]	; (8738 <grid_module_init+0x20c>)
    86de:	4b17      	ldr	r3, [pc, #92]	; (873c <grid_module_init+0x210>)
    86e0:	b005      	add	sp, #20
    86e2:	e8bd 4ff0 	ldmia.w	sp!, {r4, r5, r6, r7, r8, r9, sl, fp, lr}
    86e6:	4718      	bx	r3
    86e8:	00008025 	.word	0x00008025
    86ec:	00007d75 	.word	0x00007d75
    86f0:	00008351 	.word	0x00008351
    86f4:	20001c98 	.word	0x20001c98
    86f8:	00004fa5 	.word	0x00004fa5
    86fc:	2000126c 	.word	0x2000126c
    8700:	00007b59 	.word	0x00007b59
    8704:	00004f99 	.word	0x00004f99
    8708:	00008411 	.word	0x00008411
    870c:	41008000 	.word	0x41008000
    8710:	20000b10 	.word	0x20000b10
    8714:	00007b4d 	.word	0x00007b4d
    8718:	00004cf1 	.word	0x00004cf1
    871c:	200011a0 	.word	0x200011a0
    8720:	00004ce1 	.word	0x00004ce1
    8724:	00004da1 	.word	0x00004da1
    8728:	00008141 	.word	0x00008141
    872c:	20001350 	.word	0x20001350
    8730:	200017f8 	.word	0x200017f8
    8734:	0000528d 	.word	0x0000528d
    8738:	20001150 	.word	0x20001150
    873c:	0000527d 	.word	0x0000527d

00008740 <init_timer>:
    8740:	b570      	push	{r4, r5, r6, lr}
    8742:	4c1d      	ldr	r4, [pc, #116]	; (87b8 <init_timer+0x78>)
    8744:	4a1d      	ldr	r2, [pc, #116]	; (87bc <init_timer+0x7c>)
    8746:	f8c4 2494 	str.w	r2, [r4, #1172]	; 0x494
    874a:	f44f 4280 	mov.w	r2, #16384	; 0x4000
    874e:	f8c4 24a4 	str.w	r2, [r4, #1188]	; 0x4a4
    8752:	4a1b      	ldr	r2, [pc, #108]	; (87c0 <init_timer+0x80>)
    8754:	f8c4 24a8 	str.w	r2, [r4, #1192]	; 0x4a8
    8758:	f240 6266 	movw	r2, #1638	; 0x666
    875c:	4d19      	ldr	r5, [pc, #100]	; (87c4 <init_timer+0x84>)
    875e:	f8c4 24b8 	str.w	r2, [r4, #1208]	; 0x4b8
    8762:	4a19      	ldr	r2, [pc, #100]	; (87c8 <init_timer+0x88>)
    8764:	f8c4 24bc 	str.w	r2, [r4, #1212]	; 0x4bc
    8768:	f44f 22a0 	mov.w	r2, #327680	; 0x50000
    876c:	2301      	movs	r3, #1
    876e:	4e17      	ldr	r6, [pc, #92]	; (87cc <init_timer+0x8c>)
    8770:	f8c4 24cc 	str.w	r2, [r4, #1228]	; 0x4cc
    8774:	f504 6191 	add.w	r1, r4, #1160	; 0x488
    8778:	4a15      	ldr	r2, [pc, #84]	; (87d0 <init_timer+0x90>)
    877a:	f8c4 3490 	str.w	r3, [r4, #1168]	; 0x490
    877e:	4628      	mov	r0, r5
    8780:	f884 3498 	strb.w	r3, [r4, #1176]	; 0x498
    8784:	f884 34ac 	strb.w	r3, [r4, #1196]	; 0x4ac
    8788:	f884 34c0 	strb.w	r3, [r4, #1216]	; 0x4c0
    878c:	f884 34d4 	strb.w	r3, [r4, #1236]	; 0x4d4
    8790:	f8c4 24d0 	str.w	r2, [r4, #1232]	; 0x4d0
    8794:	47b0      	blx	r6
    8796:	f204 419c 	addw	r1, r4, #1180	; 0x49c
    879a:	4628      	mov	r0, r5
    879c:	47b0      	blx	r6
    879e:	f204 41c4 	addw	r1, r4, #1220	; 0x4c4
    87a2:	4628      	mov	r0, r5
    87a4:	47b0      	blx	r6
    87a6:	f504 6196 	add.w	r1, r4, #1200	; 0x4b0
    87aa:	4628      	mov	r0, r5
    87ac:	47b0      	blx	r6
    87ae:	4628      	mov	r0, r5
    87b0:	4b08      	ldr	r3, [pc, #32]	; (87d4 <init_timer+0x94>)
    87b2:	e8bd 4070 	ldmia.w	sp!, {r4, r5, r6, lr}
    87b6:	4718      	bx	r3
    87b8:	20000b10 	.word	0x20000b10
    87bc:	00007b65 	.word	0x00007b65
    87c0:	00007b81 	.word	0x00007b81
    87c4:	200010bc 	.word	0x200010bc
    87c8:	00008525 	.word	0x00008525
    87cc:	000050a5 	.word	0x000050a5
    87d0:	00007b9d 	.word	0x00007b9d
    87d4:	00005081 	.word	0x00005081

000087d8 <main>:
    87d8:	e92d 4ff0 	stmdb	sp!, {r4, r5, r6, r7, r8, r9, sl, fp, lr}
    87dc:	4b92      	ldr	r3, [pc, #584]	; (8a28 <main+0x250>)
    87de:	b0b7      	sub	sp, #220	; 0xdc
    87e0:	4798      	blx	r3
    87e2:	4b92      	ldr	r3, [pc, #584]	; (8a2c <main+0x254>)
    87e4:	4798      	blx	r3
    87e6:	4b92      	ldr	r3, [pc, #584]	; (8a30 <main+0x258>)
    87e8:	4798      	blx	r3
    87ea:	2132      	movs	r1, #50	; 0x32
    87ec:	2005      	movs	r0, #5
    87ee:	4b91      	ldr	r3, [pc, #580]	; (8a34 <main+0x25c>)
    87f0:	4798      	blx	r3
    87f2:	b900      	cbnz	r0, 87f6 <main+0x1e>
    87f4:	e7fe      	b.n	87f4 <main+0x1c>
    87f6:	4c90      	ldr	r4, [pc, #576]	; (8a38 <main+0x260>)
    87f8:	2700      	movs	r7, #0
    87fa:	970e      	str	r7, [sp, #56]	; 0x38
    87fc:	2601      	movs	r6, #1
    87fe:	46b9      	mov	r9, r7
    8800:	970c      	str	r7, [sp, #48]	; 0x30
    8802:	970d      	str	r7, [sp, #52]	; 0x34
    8804:	4625      	mov	r5, r4
    8806:	f894 3030 	ldrb.w	r3, [r4, #48]	; 0x30
    880a:	2b00      	cmp	r3, #0
    880c:	d04a      	beq.n	88a4 <main+0xcc>
    880e:	68a3      	ldr	r3, [r4, #8]
    8810:	930b      	str	r3, [sp, #44]	; 0x2c
    8812:	6922      	ldr	r2, [r4, #16]
    8814:	6961      	ldr	r1, [r4, #20]
    8816:	69a0      	ldr	r0, [r4, #24]
    8818:	f8d4 e01c 	ldr.w	lr, [r4, #28]
    881c:	f8d4 c020 	ldr.w	ip, [r4, #32]
    8820:	f8d4 8048 	ldr.w	r8, [r4, #72]	; 0x48
    8824:	6d23      	ldr	r3, [r4, #80]	; 0x50
    8826:	f8d4 a038 	ldr.w	sl, [r4, #56]	; 0x38
    882a:	f8d4 b040 	ldr.w	fp, [r4, #64]	; 0x40
    882e:	f8cd c010 	str.w	ip, [sp, #16]
    8832:	f8cd e00c 	str.w	lr, [sp, #12]
    8836:	9306      	str	r3, [sp, #24]
    8838:	9002      	str	r0, [sp, #8]
    883a:	9101      	str	r1, [sp, #4]
    883c:	9200      	str	r2, [sp, #0]
    883e:	497f      	ldr	r1, [pc, #508]	; (8a3c <main+0x264>)
    8840:	9b0b      	ldr	r3, [sp, #44]	; 0x2c
    8842:	f8cd b020 	str.w	fp, [sp, #32]
    8846:	463a      	mov	r2, r7
    8848:	f8cd a01c 	str.w	sl, [sp, #28]
    884c:	f8cd 8014 	str.w	r8, [sp, #20]
    8850:	a81d      	add	r0, sp, #116	; 0x74
    8852:	4f7b      	ldr	r7, [pc, #492]	; (8a40 <main+0x268>)
    8854:	47b8      	blx	r7
    8856:	4b7b      	ldr	r3, [pc, #492]	; (8a44 <main+0x26c>)
    8858:	a81d      	add	r0, sp, #116	; 0x74
    885a:	4798      	blx	r3
    885c:	4b7a      	ldr	r3, [pc, #488]	; (8a48 <main+0x270>)
    885e:	4601      	mov	r1, r0
    8860:	a81d      	add	r0, sp, #116	; 0x74
    8862:	4798      	blx	r3
    8864:	2300      	movs	r3, #0
    8866:	6463      	str	r3, [r4, #68]	; 0x44
    8868:	64a3      	str	r3, [r4, #72]	; 0x48
    886a:	64e3      	str	r3, [r4, #76]	; 0x4c
    886c:	6523      	str	r3, [r4, #80]	; 0x50
    886e:	6363      	str	r3, [r4, #52]	; 0x34
    8870:	63a3      	str	r3, [r4, #56]	; 0x38
    8872:	63e3      	str	r3, [r4, #60]	; 0x3c
    8874:	6423      	str	r3, [r4, #64]	; 0x40
    8876:	f884 3484 	strb.w	r3, [r4, #1156]	; 0x484
    887a:	f884 3485 	strb.w	r3, [r4, #1157]	; 0x485
    887e:	f884 3486 	strb.w	r3, [r4, #1158]	; 0x486
    8882:	f884 3487 	strb.w	r3, [r4, #1159]	; 0x487
    8886:	60a3      	str	r3, [r4, #8]
    8888:	f894 2030 	ldrb.w	r2, [r4, #48]	; 0x30
    888c:	3a01      	subs	r2, #1
    888e:	b2d2      	uxtb	r2, r2
    8890:	f884 2030 	strb.w	r2, [r4, #48]	; 0x30
    8894:	4619      	mov	r1, r3
    8896:	eb04 0283 	add.w	r2, r4, r3, lsl #2
    889a:	3301      	adds	r3, #1
    889c:	2b08      	cmp	r3, #8
    889e:	6111      	str	r1, [r2, #16]
    88a0:	d1f9      	bne.n	8896 <main+0xbe>
    88a2:	2700      	movs	r7, #0
    88a4:	f894 3031 	ldrb.w	r3, [r4, #49]	; 0x31
    88a8:	3701      	adds	r7, #1
    88aa:	b183      	cbz	r3, 88ce <main+0xf6>
    88ac:	4b67      	ldr	r3, [pc, #412]	; (8a4c <main+0x274>)
    88ae:	4798      	blx	r3
    88b0:	4967      	ldr	r1, [pc, #412]	; (8a50 <main+0x278>)
    88b2:	4b63      	ldr	r3, [pc, #396]	; (8a40 <main+0x268>)
    88b4:	4602      	mov	r2, r0
    88b6:	a81d      	add	r0, sp, #116	; 0x74
    88b8:	4798      	blx	r3
    88ba:	4b63      	ldr	r3, [pc, #396]	; (8a48 <main+0x270>)
    88bc:	210b      	movs	r1, #11
    88be:	a81d      	add	r0, sp, #116	; 0x74
    88c0:	4798      	blx	r3
    88c2:	f894 3031 	ldrb.w	r3, [r4, #49]	; 0x31
    88c6:	3b01      	subs	r3, #1
    88c8:	b2db      	uxtb	r3, r3
    88ca:	f884 3031 	strb.w	r3, [r4, #49]	; 0x31
    88ce:	68ab      	ldr	r3, [r5, #8]
    88d0:	9311      	str	r3, [sp, #68]	; 0x44
    88d2:	2002      	movs	r0, #2
    88d4:	4b5f      	ldr	r3, [pc, #380]	; (8a54 <main+0x27c>)
    88d6:	4798      	blx	r3
    88d8:	f3c0 2bc0 	ubfx	fp, r0, #11, #1
    88dc:	455e      	cmp	r6, fp
    88de:	d031      	beq.n	8944 <main+0x16c>
    88e0:	b91e      	cbnz	r6, 88ea <main+0x112>
    88e2:	9b0e      	ldr	r3, [sp, #56]	; 0x38
    88e4:	f083 0301 	eor.w	r3, r3, #1
    88e8:	930e      	str	r3, [sp, #56]	; 0x38
    88ea:	4b5b      	ldr	r3, [pc, #364]	; (8a58 <main+0x280>)
    88ec:	a814      	add	r0, sp, #80	; 0x50
    88ee:	4798      	blx	r3
    88f0:	4b56      	ldr	r3, [pc, #344]	; (8a4c <main+0x274>)
    88f2:	4798      	blx	r3
    88f4:	fab6 fb86 	clz	fp, r6
    88f8:	a913      	add	r1, sp, #76	; 0x4c
    88fa:	4606      	mov	r6, r0
    88fc:	4b57      	ldr	r3, [pc, #348]	; (8a5c <main+0x284>)
    88fe:	4858      	ldr	r0, [pc, #352]	; (8a60 <main+0x288>)
    8900:	4798      	blx	r3
    8902:	4b58      	ldr	r3, [pc, #352]	; (8a64 <main+0x28c>)
    8904:	4856      	ldr	r0, [pc, #344]	; (8a60 <main+0x288>)
    8906:	4798      	blx	r3
    8908:	9b17      	ldr	r3, [sp, #92]	; 0x5c
    890a:	9302      	str	r3, [sp, #8]
    890c:	9b16      	ldr	r3, [sp, #88]	; 0x58
    890e:	9301      	str	r3, [sp, #4]
    8910:	9b15      	ldr	r3, [sp, #84]	; 0x54
    8912:	9300      	str	r3, [sp, #0]
    8914:	4632      	mov	r2, r6
    8916:	9b14      	ldr	r3, [sp, #80]	; 0x50
    8918:	4953      	ldr	r1, [pc, #332]	; (8a68 <main+0x290>)
    891a:	4e49      	ldr	r6, [pc, #292]	; (8a40 <main+0x268>)
    891c:	a81d      	add	r0, sp, #116	; 0x74
    891e:	47b0      	blx	r6
    8920:	4b52      	ldr	r3, [pc, #328]	; (8a6c <main+0x294>)
    8922:	9813      	ldr	r0, [sp, #76]	; 0x4c
    8924:	2241      	movs	r2, #65	; 0x41
    8926:	a91d      	add	r1, sp, #116	; 0x74
    8928:	4798      	blx	r3
    892a:	4951      	ldr	r1, [pc, #324]	; (8a70 <main+0x298>)
    892c:	463a      	mov	r2, r7
    892e:	a818      	add	r0, sp, #96	; 0x60
    8930:	47b0      	blx	r6
    8932:	4b44      	ldr	r3, [pc, #272]	; (8a44 <main+0x26c>)
    8934:	a818      	add	r0, sp, #96	; 0x60
    8936:	4798      	blx	r3
    8938:	4b43      	ldr	r3, [pc, #268]	; (8a48 <main+0x270>)
    893a:	4601      	mov	r1, r0
    893c:	a818      	add	r0, sp, #96	; 0x60
    893e:	ea4f 1b5b 	mov.w	fp, fp, lsr #5
    8942:	4798      	blx	r3
    8944:	9b0d      	ldr	r3, [sp, #52]	; 0x34
    8946:	2b64      	cmp	r3, #100	; 0x64
    8948:	d903      	bls.n	8952 <main+0x17a>
    894a:	4b4a      	ldr	r3, [pc, #296]	; (8a74 <main+0x29c>)
    894c:	4798      	blx	r3
    894e:	2300      	movs	r3, #0
    8950:	930d      	str	r3, [sp, #52]	; 0x34
    8952:	9b0d      	ldr	r3, [sp, #52]	; 0x34
    8954:	3301      	adds	r3, #1
    8956:	930d      	str	r3, [sp, #52]	; 0x34
    8958:	2304      	movs	r3, #4
    895a:	732b      	strb	r3, [r5, #12]
    895c:	4b46      	ldr	r3, [pc, #280]	; (8a78 <main+0x2a0>)
    895e:	4798      	blx	r3
    8960:	2600      	movs	r6, #0
    8962:	2303      	movs	r3, #3
    8964:	732e      	strb	r6, [r5, #12]
    8966:	960b      	str	r6, [sp, #44]	; 0x2c
    8968:	732b      	strb	r3, [r5, #12]
    896a:	46b2      	mov	sl, r6
    896c:	f89d 802c 	ldrb.w	r8, [sp, #44]	; 0x2c
    8970:	4b42      	ldr	r3, [pc, #264]	; (8a7c <main+0x2a4>)
    8972:	4640      	mov	r0, r8
    8974:	4798      	blx	r3
    8976:	b310      	cbz	r0, 89be <main+0x1e6>
    8978:	4b41      	ldr	r3, [pc, #260]	; (8a80 <main+0x2a8>)
    897a:	4e31      	ldr	r6, [pc, #196]	; (8a40 <main+0x268>)
    897c:	4640      	mov	r0, r8
    897e:	4798      	blx	r3
    8980:	ab1d      	add	r3, sp, #116	; 0x74
    8982:	4453      	add	r3, sl
    8984:	930f      	str	r3, [sp, #60]	; 0x3c
    8986:	9a0b      	ldr	r2, [sp, #44]	; 0x2c
    8988:	493e      	ldr	r1, [pc, #248]	; (8a84 <main+0x2ac>)
    898a:	9010      	str	r0, [sp, #64]	; 0x40
    898c:	f3c0 138f 	ubfx	r3, r0, #6, #16
    8990:	980f      	ldr	r0, [sp, #60]	; 0x3c
    8992:	47b0      	blx	r6
    8994:	980f      	ldr	r0, [sp, #60]	; 0x3c
    8996:	4b2b      	ldr	r3, [pc, #172]	; (8a44 <main+0x26c>)
    8998:	4798      	blx	r3
    899a:	4b2c      	ldr	r3, [pc, #176]	; (8a4c <main+0x274>)
    899c:	4482      	add	sl, r0
    899e:	4798      	blx	r3
    89a0:	9b10      	ldr	r3, [sp, #64]	; 0x40
    89a2:	2840      	cmp	r0, #64	; 0x40
    89a4:	ea4f 12a3 	mov.w	r2, r3, asr #6
    89a8:	4b37      	ldr	r3, [pc, #220]	; (8a88 <main+0x2b0>)
    89aa:	d138      	bne.n	8a1e <main+0x246>
    89ac:	990b      	ldr	r1, [sp, #44]	; 0x2c
    89ae:	290b      	cmp	r1, #11
    89b0:	d935      	bls.n	8a1e <main+0x246>
    89b2:	f1a8 0004 	sub.w	r0, r8, #4
    89b6:	b2d2      	uxtb	r2, r2
    89b8:	2100      	movs	r1, #0
    89ba:	b2c0      	uxtb	r0, r0
    89bc:	4798      	blx	r3
    89be:	9b0b      	ldr	r3, [sp, #44]	; 0x2c
    89c0:	3301      	adds	r3, #1
    89c2:	2b10      	cmp	r3, #16
    89c4:	930b      	str	r3, [sp, #44]	; 0x2c
    89c6:	d1d1      	bne.n	896c <main+0x194>
    89c8:	4b1e      	ldr	r3, [pc, #120]	; (8a44 <main+0x26c>)
    89ca:	a81d      	add	r0, sp, #116	; 0x74
    89cc:	4798      	blx	r3
    89ce:	4b1e      	ldr	r3, [pc, #120]	; (8a48 <main+0x270>)
    89d0:	4601      	mov	r1, r0
    89d2:	a81d      	add	r0, sp, #116	; 0x74
    89d4:	4798      	blx	r3
    89d6:	9b0e      	ldr	r3, [sp, #56]	; 0x38
    89d8:	2600      	movs	r6, #0
    89da:	2b01      	cmp	r3, #1
    89dc:	7326      	strb	r6, [r4, #12]
    89de:	d15d      	bne.n	8a9c <main+0x2c4>
    89e0:	2302      	movs	r3, #2
    89e2:	7323      	strb	r3, [r4, #12]
    89e4:	4b29      	ldr	r3, [pc, #164]	; (8a8c <main+0x2b4>)
    89e6:	4798      	blx	r3
    89e8:	4b29      	ldr	r3, [pc, #164]	; (8a90 <main+0x2b8>)
    89ea:	4798      	blx	r3
    89ec:	4b29      	ldr	r3, [pc, #164]	; (8a94 <main+0x2bc>)
    89ee:	f8b4 2058 	ldrh.w	r2, [r4, #88]	; 0x58
    89f2:	6818      	ldr	r0, [r3, #0]
    89f4:	6d61      	ldr	r1, [r4, #84]	; 0x54
    89f6:	4b1d      	ldr	r3, [pc, #116]	; (8a6c <main+0x294>)
    89f8:	7326      	strb	r6, [r4, #12]
    89fa:	4798      	blx	r3
    89fc:	686b      	ldr	r3, [r5, #4]
    89fe:	2b00      	cmp	r3, #0
    8a00:	d0fc      	beq.n	89fc <main+0x224>
    8a02:	9e11      	ldr	r6, [sp, #68]	; 0x44
    8a04:	f8df 8090 	ldr.w	r8, [pc, #144]	; 8a98 <main+0x2c0>
    8a08:	2301      	movs	r3, #1
    8a0a:	732b      	strb	r3, [r5, #12]
    8a0c:	3610      	adds	r6, #16
    8a0e:	68ab      	ldr	r3, [r5, #8]
    8a10:	429e      	cmp	r6, r3
    8a12:	f200 8083 	bhi.w	8b1c <main+0x344>
    8a16:	2300      	movs	r3, #0
    8a18:	732b      	strb	r3, [r5, #12]
    8a1a:	465e      	mov	r6, fp
    8a1c:	e6f3      	b.n	8806 <main+0x2e>
    8a1e:	b2d2      	uxtb	r2, r2
    8a20:	2100      	movs	r1, #0
    8a22:	4640      	mov	r0, r8
    8a24:	e7ca      	b.n	89bc <main+0x1e4>
    8a26:	bf00      	nop
    8a28:	000042d1 	.word	0x000042d1
    8a2c:	0000852d 	.word	0x0000852d
    8a30:	00008741 	.word	0x00008741
    8a34:	000082a5 	.word	0x000082a5
    8a38:	20000b10 	.word	0x20000b10
    8a3c:	00009fa8 	.word	0x00009fa8
    8a40:	00009625 	.word	0x00009625
    8a44:	0000966d 	.word	0x0000966d
    8a48:	00008d95 	.word	0x00008d95
    8a4c:	00008351 	.word	0x00008351
    8a50:	0000a012 	.word	0x0000a012
    8a54:	00007bb9 	.word	0x00007bb9
    8a58:	00008325 	.word	0x00008325
    8a5c:	0000528d 	.word	0x0000528d
    8a60:	20001150 	.word	0x20001150
    8a64:	0000527d 	.word	0x0000527d
    8a68:	0000a01c 	.word	0x0000a01c
    8a6c:	00004f31 	.word	0x00004f31
    8a70:	0000a04a 	.word	0x0000a04a
    8a74:	00008305 	.word	0x00008305
    8a78:	000084d1 	.word	0x000084d1
    8a7c:	00008279 	.word	0x00008279
    8a80:	0000828d 	.word	0x0000828d
    8a84:	0000a056 	.word	0x0000a056
    8a88:	00007d35 	.word	0x00007d35
    8a8c:	00007c7d 	.word	0x00007c7d
    8a90:	00007fd1 	.word	0x00007fd1
    8a94:	20001c98 	.word	0x20001c98
    8a98:	00004de5 	.word	0x00004de5
    8a9c:	9b0c      	ldr	r3, [sp, #48]	; 0x30
    8a9e:	960b      	str	r6, [sp, #44]	; 0x2c
    8aa0:	f1b9 0f00 	cmp.w	r9, #0
    8aa4:	bf18      	it	ne
    8aa6:	2300      	movne	r3, #0
    8aa8:	4698      	mov	r8, r3
    8aaa:	9b0c      	ldr	r3, [sp, #48]	; 0x30
    8aac:	f1b9 0f01 	cmp.w	r9, #1
    8ab0:	bf18      	it	ne
    8ab2:	2300      	movne	r3, #0
    8ab4:	469a      	mov	sl, r3
    8ab6:	9b0c      	ldr	r3, [sp, #48]	; 0x30
    8ab8:	f1b9 0f02 	cmp.w	r9, #2
    8abc:	bf18      	it	ne
    8abe:	2300      	movne	r3, #0
    8ac0:	930f      	str	r3, [sp, #60]	; 0x3c
    8ac2:	9b0f      	ldr	r3, [sp, #60]	; 0x3c
    8ac4:	980b      	ldr	r0, [sp, #44]	; 0x2c
    8ac6:	4e17      	ldr	r6, [pc, #92]	; (8b24 <main+0x34c>)
    8ac8:	4652      	mov	r2, sl
    8aca:	4641      	mov	r1, r8
    8acc:	47b0      	blx	r6
    8ace:	9b0b      	ldr	r3, [sp, #44]	; 0x2c
    8ad0:	3301      	adds	r3, #1
    8ad2:	2b10      	cmp	r3, #16
    8ad4:	930b      	str	r3, [sp, #44]	; 0x2c
    8ad6:	d1f4      	bne.n	8ac2 <main+0x2ea>
    8ad8:	9b0c      	ldr	r3, [sp, #48]	; 0x30
    8ada:	3301      	adds	r3, #1
    8adc:	f013 03ff 	ands.w	r3, r3, #255	; 0xff
    8ae0:	930c      	str	r3, [sp, #48]	; 0x30
    8ae2:	bf04      	itt	eq
    8ae4:	f109 0301 	addeq.w	r3, r9, #1
    8ae8:	fa5f f983 	uxtbeq.w	r9, r3
    8aec:	9b0e      	ldr	r3, [sp, #56]	; 0x38
    8aee:	2002      	movs	r0, #2
    8af0:	f1b9 0f02 	cmp.w	r9, #2
    8af4:	bf88      	it	hi
    8af6:	4699      	movhi	r9, r3
    8af8:	4b0b      	ldr	r3, [pc, #44]	; (8b28 <main+0x350>)
    8afa:	4798      	blx	r3
    8afc:	2300      	movs	r3, #0
    8afe:	606b      	str	r3, [r5, #4]
    8b00:	480a      	ldr	r0, [pc, #40]	; (8b2c <main+0x354>)
    8b02:	4b0b      	ldr	r3, [pc, #44]	; (8b30 <main+0x358>)
    8b04:	4798      	blx	r3
    8b06:	4b0b      	ldr	r3, [pc, #44]	; (8b34 <main+0x35c>)
    8b08:	f8b5 2058 	ldrh.w	r2, [r5, #88]	; 0x58
    8b0c:	6818      	ldr	r0, [r3, #0]
    8b0e:	6d69      	ldr	r1, [r5, #84]	; 0x54
    8b10:	4b09      	ldr	r3, [pc, #36]	; (8b38 <main+0x360>)
    8b12:	4798      	blx	r3
    8b14:	686b      	ldr	r3, [r5, #4]
    8b16:	2b00      	cmp	r3, #0
    8b18:	d0fc      	beq.n	8b14 <main+0x33c>
    8b1a:	e772      	b.n	8a02 <main+0x22a>
    8b1c:	200a      	movs	r0, #10
    8b1e:	47c0      	blx	r8
    8b20:	e775      	b.n	8a0e <main+0x236>
    8b22:	bf00      	nop
    8b24:	00007c45 	.word	0x00007c45
    8b28:	00004e09 	.word	0x00004e09
    8b2c:	2000126c 	.word	0x2000126c
    8b30:	00004f8d 	.word	0x00004f8d
    8b34:	20001c98 	.word	0x20001c98
    8b38:	00004f31 	.word	0x00004f31

00008b3c <cdcdf_acm_req>:
    8b3c:	e92d 41f3 	stmdb	sp!, {r0, r1, r4, r5, r6, r7, r8, lr}
    8b40:	4616      	mov	r6, r2
    8b42:	780a      	ldrb	r2, [r1, #0]
    8b44:	f3c2 1341 	ubfx	r3, r2, #5, #2
    8b48:	2b01      	cmp	r3, #1
    8b4a:	4607      	mov	r7, r0
    8b4c:	460c      	mov	r4, r1
    8b4e:	d155      	bne.n	8bfc <cdcdf_acm_req+0xc0>
    8b50:	4b2d      	ldr	r3, [pc, #180]	; (8c08 <cdcdf_acm_req+0xcc>)
    8b52:	8889      	ldrh	r1, [r1, #4]
    8b54:	7818      	ldrb	r0, [r3, #0]
    8b56:	4288      	cmp	r0, r1
    8b58:	461d      	mov	r5, r3
    8b5a:	d002      	beq.n	8b62 <cdcdf_acm_req+0x26>
    8b5c:	785b      	ldrb	r3, [r3, #1]
    8b5e:	428b      	cmp	r3, r1
    8b60:	d14c      	bne.n	8bfc <cdcdf_acm_req+0xc0>
    8b62:	0613      	lsls	r3, r2, #24
    8b64:	d50f      	bpl.n	8b86 <cdcdf_acm_req+0x4a>
    8b66:	2e01      	cmp	r6, #1
    8b68:	d035      	beq.n	8bd6 <cdcdf_acm_req+0x9a>
    8b6a:	7863      	ldrb	r3, [r4, #1]
    8b6c:	2b21      	cmp	r3, #33	; 0x21
    8b6e:	d114      	bne.n	8b9a <cdcdf_acm_req+0x5e>
    8b70:	88e2      	ldrh	r2, [r4, #6]
    8b72:	2a07      	cmp	r2, #7
    8b74:	d145      	bne.n	8c02 <cdcdf_acm_req+0xc6>
    8b76:	4925      	ldr	r1, [pc, #148]	; (8c0c <cdcdf_acm_req+0xd0>)
    8b78:	2300      	movs	r3, #0
    8b7a:	4638      	mov	r0, r7
    8b7c:	4c24      	ldr	r4, [pc, #144]	; (8c10 <cdcdf_acm_req+0xd4>)
    8b7e:	47a0      	blx	r4
    8b80:	b002      	add	sp, #8
    8b82:	e8bd 81f0 	ldmia.w	sp!, {r4, r5, r6, r7, r8, pc}
    8b86:	4b23      	ldr	r3, [pc, #140]	; (8c14 <cdcdf_acm_req+0xd8>)
    8b88:	f8b4 8006 	ldrh.w	r8, [r4, #6]
    8b8c:	4798      	blx	r3
    8b8e:	7863      	ldrb	r3, [r4, #1]
    8b90:	2b20      	cmp	r3, #32
    8b92:	4601      	mov	r1, r0
    8b94:	d004      	beq.n	8ba0 <cdcdf_acm_req+0x64>
    8b96:	2b22      	cmp	r3, #34	; 0x22
    8b98:	d024      	beq.n	8be4 <cdcdf_acm_req+0xa8>
    8b9a:	f06f 000c 	mvn.w	r0, #12
    8b9e:	e7ef      	b.n	8b80 <cdcdf_acm_req+0x44>
    8ba0:	f1b8 0f07 	cmp.w	r8, #7
    8ba4:	d12d      	bne.n	8c02 <cdcdf_acm_req+0xc6>
    8ba6:	b916      	cbnz	r6, 8bae <cdcdf_acm_req+0x72>
    8ba8:	4633      	mov	r3, r6
    8baa:	4642      	mov	r2, r8
    8bac:	e7e5      	b.n	8b7a <cdcdf_acm_req+0x3e>
    8bae:	6800      	ldr	r0, [r0, #0]
    8bb0:	9000      	str	r0, [sp, #0]
    8bb2:	798b      	ldrb	r3, [r1, #6]
    8bb4:	888a      	ldrh	r2, [r1, #4]
    8bb6:	f88d 3006 	strb.w	r3, [sp, #6]
    8bba:	692b      	ldr	r3, [r5, #16]
    8bbc:	f8ad 2004 	strh.w	r2, [sp, #4]
    8bc0:	b95b      	cbnz	r3, 8bda <cdcdf_acm_req+0x9e>
    8bc2:	4b12      	ldr	r3, [pc, #72]	; (8c0c <cdcdf_acm_req+0xd0>)
    8bc4:	9800      	ldr	r0, [sp, #0]
    8bc6:	f8bd 1004 	ldrh.w	r1, [sp, #4]
    8bca:	f89d 2006 	ldrb.w	r2, [sp, #6]
    8bce:	f8c5 0006 	str.w	r0, [r5, #6]
    8bd2:	8099      	strh	r1, [r3, #4]
    8bd4:	719a      	strb	r2, [r3, #6]
    8bd6:	2000      	movs	r0, #0
    8bd8:	e7d2      	b.n	8b80 <cdcdf_acm_req+0x44>
    8bda:	4668      	mov	r0, sp
    8bdc:	4798      	blx	r3
    8bde:	2800      	cmp	r0, #0
    8be0:	d1ef      	bne.n	8bc2 <cdcdf_acm_req+0x86>
    8be2:	e7f8      	b.n	8bd6 <cdcdf_acm_req+0x9a>
    8be4:	2300      	movs	r3, #0
    8be6:	461a      	mov	r2, r3
    8be8:	4619      	mov	r1, r3
    8bea:	4618      	mov	r0, r3
    8bec:	4e08      	ldr	r6, [pc, #32]	; (8c10 <cdcdf_acm_req+0xd4>)
    8bee:	47b0      	blx	r6
    8bf0:	696b      	ldr	r3, [r5, #20]
    8bf2:	2b00      	cmp	r3, #0
    8bf4:	d0ef      	beq.n	8bd6 <cdcdf_acm_req+0x9a>
    8bf6:	8860      	ldrh	r0, [r4, #2]
    8bf8:	4798      	blx	r3
    8bfa:	e7ec      	b.n	8bd6 <cdcdf_acm_req+0x9a>
    8bfc:	f06f 0009 	mvn.w	r0, #9
    8c00:	e7be      	b.n	8b80 <cdcdf_acm_req+0x44>
    8c02:	f04f 30ff 	mov.w	r0, #4294967295
    8c06:	e7bb      	b.n	8b80 <cdcdf_acm_req+0x44>
    8c08:	20000ff0 	.word	0x20000ff0
    8c0c:	20000ff6 	.word	0x20000ff6
    8c10:	00008f29 	.word	0x00008f29
    8c14:	0000932d 	.word	0x0000932d

00008c18 <cdcdf_acm_ctrl>:
    8c18:	2901      	cmp	r1, #1
    8c1a:	e92d 4ff8 	stmdb	sp!, {r3, r4, r5, r6, r7, r8, r9, sl, fp, lr}
    8c1e:	4615      	mov	r5, r2
    8c20:	d054      	beq.n	8ccc <cdcdf_acm_ctrl+0xb4>
    8c22:	d307      	bcc.n	8c34 <cdcdf_acm_ctrl+0x1c>
    8c24:	2902      	cmp	r1, #2
    8c26:	bf0c      	ite	eq
    8c28:	f06f 001a 	mvneq.w	r0, #26
    8c2c:	f06f 000c 	mvnne.w	r0, #12
    8c30:	e8bd 8ff8 	ldmia.w	sp!, {r3, r4, r5, r6, r7, r8, r9, sl, fp, pc}
    8c34:	6887      	ldr	r7, [r0, #8]
    8c36:	f8df 8110 	ldr.w	r8, [pc, #272]	; 8d48 <cdcdf_acm_ctrl+0x130>
    8c3a:	6810      	ldr	r0, [r2, #0]
    8c3c:	1e7e      	subs	r6, r7, #1
    8c3e:	f107 0a01 	add.w	sl, r7, #1
    8c42:	b918      	cbnz	r0, 8c4c <cdcdf_acm_ctrl+0x34>
    8c44:	f06f 0009 	mvn.w	r0, #9
    8c48:	e8bd 8ff8 	ldmia.w	sp!, {r3, r4, r5, r6, r7, r8, r9, sl, fp, pc}
    8c4c:	7943      	ldrb	r3, [r0, #5]
    8c4e:	7882      	ldrb	r2, [r0, #2]
    8c50:	f003 03f7 	and.w	r3, r3, #247	; 0xf7
    8c54:	2b02      	cmp	r3, #2
    8c56:	d1f5      	bne.n	8c44 <cdcdf_acm_ctrl+0x2c>
    8c58:	f816 3f01 	ldrb.w	r3, [r6, #1]!
    8c5c:	429a      	cmp	r2, r3
    8c5e:	d05f      	beq.n	8d20 <cdcdf_acm_ctrl+0x108>
    8c60:	2bff      	cmp	r3, #255	; 0xff
    8c62:	d161      	bne.n	8d28 <cdcdf_acm_ctrl+0x110>
    8c64:	7032      	strb	r2, [r6, #0]
    8c66:	6869      	ldr	r1, [r5, #4]
    8c68:	f8df 90e0 	ldr.w	r9, [pc, #224]	; 8d4c <cdcdf_acm_ctrl+0x134>
    8c6c:	2205      	movs	r2, #5
    8c6e:	47c0      	blx	r8
    8c70:	4604      	mov	r4, r0
    8c72:	b96c      	cbnz	r4, 8c90 <cdcdf_acm_ctrl+0x78>
    8c74:	682b      	ldr	r3, [r5, #0]
    8c76:	6869      	ldr	r1, [r5, #4]
    8c78:	7818      	ldrb	r0, [r3, #0]
    8c7a:	2204      	movs	r2, #4
    8c7c:	4418      	add	r0, r3
    8c7e:	47c0      	blx	r8
    8c80:	45b2      	cmp	sl, r6
    8c82:	d1de      	bne.n	8c42 <cdcdf_acm_ctrl+0x2a>
    8c84:	4b2c      	ldr	r3, [pc, #176]	; (8d38 <cdcdf_acm_ctrl+0x120>)
    8c86:	2201      	movs	r2, #1
    8c88:	715a      	strb	r2, [r3, #5]
    8c8a:	4620      	mov	r0, r4
    8c8c:	e8bd 8ff8 	ldmia.w	sp!, {r3, r4, r5, r6, r7, r8, r9, sl, fp, pc}
    8c90:	7961      	ldrb	r1, [r4, #5]
    8c92:	7922      	ldrb	r2, [r4, #4]
    8c94:	f894 b002 	ldrb.w	fp, [r4, #2]
    8c98:	4b28      	ldr	r3, [pc, #160]	; (8d3c <cdcdf_acm_ctrl+0x124>)
    8c9a:	eb02 2201 	add.w	r2, r2, r1, lsl #8
    8c9e:	b292      	uxth	r2, r2
    8ca0:	78e1      	ldrb	r1, [r4, #3]
    8ca2:	4658      	mov	r0, fp
    8ca4:	4798      	blx	r3
    8ca6:	2800      	cmp	r0, #0
    8ca8:	d142      	bne.n	8d30 <cdcdf_acm_ctrl+0x118>
    8caa:	f01b 0f80 	tst.w	fp, #128	; 0x80
    8cae:	bf14      	ite	ne
    8cb0:	f886 b002 	strbne.w	fp, [r6, #2]
    8cb4:	f887 b004 	strbeq.w	fp, [r7, #4]
    8cb8:	4658      	mov	r0, fp
    8cba:	47c8      	blx	r9
    8cbc:	602c      	str	r4, [r5, #0]
    8cbe:	7820      	ldrb	r0, [r4, #0]
    8cc0:	6869      	ldr	r1, [r5, #4]
    8cc2:	4b1f      	ldr	r3, [pc, #124]	; (8d40 <cdcdf_acm_ctrl+0x128>)
    8cc4:	4420      	add	r0, r4
    8cc6:	4798      	blx	r3
    8cc8:	4604      	mov	r4, r0
    8cca:	e7d2      	b.n	8c72 <cdcdf_acm_ctrl+0x5a>
    8ccc:	6884      	ldr	r4, [r0, #8]
    8cce:	b12a      	cbz	r2, 8cdc <cdcdf_acm_ctrl+0xc4>
    8cd0:	6813      	ldr	r3, [r2, #0]
    8cd2:	795b      	ldrb	r3, [r3, #5]
    8cd4:	f003 03f7 	and.w	r3, r3, #247	; 0xf7
    8cd8:	2b02      	cmp	r3, #2
    8cda:	d1b3      	bne.n	8c44 <cdcdf_acm_ctrl+0x2c>
    8cdc:	7823      	ldrb	r3, [r4, #0]
    8cde:	2bff      	cmp	r3, #255	; 0xff
    8ce0:	d007      	beq.n	8cf2 <cdcdf_acm_ctrl+0xda>
    8ce2:	78a0      	ldrb	r0, [r4, #2]
    8ce4:	25ff      	movs	r5, #255	; 0xff
    8ce6:	42a8      	cmp	r0, r5
    8ce8:	7025      	strb	r5, [r4, #0]
    8cea:	d002      	beq.n	8cf2 <cdcdf_acm_ctrl+0xda>
    8cec:	4b15      	ldr	r3, [pc, #84]	; (8d44 <cdcdf_acm_ctrl+0x12c>)
    8cee:	4798      	blx	r3
    8cf0:	70a5      	strb	r5, [r4, #2]
    8cf2:	7863      	ldrb	r3, [r4, #1]
    8cf4:	2bff      	cmp	r3, #255	; 0xff
    8cf6:	d007      	beq.n	8d08 <cdcdf_acm_ctrl+0xf0>
    8cf8:	78e0      	ldrb	r0, [r4, #3]
    8cfa:	25ff      	movs	r5, #255	; 0xff
    8cfc:	42a8      	cmp	r0, r5
    8cfe:	7065      	strb	r5, [r4, #1]
    8d00:	d002      	beq.n	8d08 <cdcdf_acm_ctrl+0xf0>
    8d02:	4b10      	ldr	r3, [pc, #64]	; (8d44 <cdcdf_acm_ctrl+0x12c>)
    8d04:	4798      	blx	r3
    8d06:	70e5      	strb	r5, [r4, #3]
    8d08:	7920      	ldrb	r0, [r4, #4]
    8d0a:	28ff      	cmp	r0, #255	; 0xff
    8d0c:	d003      	beq.n	8d16 <cdcdf_acm_ctrl+0xfe>
    8d0e:	4b0d      	ldr	r3, [pc, #52]	; (8d44 <cdcdf_acm_ctrl+0x12c>)
    8d10:	4798      	blx	r3
    8d12:	23ff      	movs	r3, #255	; 0xff
    8d14:	7123      	strb	r3, [r4, #4]
    8d16:	4b08      	ldr	r3, [pc, #32]	; (8d38 <cdcdf_acm_ctrl+0x120>)
    8d18:	2000      	movs	r0, #0
    8d1a:	7158      	strb	r0, [r3, #5]
    8d1c:	e8bd 8ff8 	ldmia.w	sp!, {r3, r4, r5, r6, r7, r8, r9, sl, fp, pc}
    8d20:	f06f 0011 	mvn.w	r0, #17
    8d24:	e8bd 8ff8 	ldmia.w	sp!, {r3, r4, r5, r6, r7, r8, r9, sl, fp, pc}
    8d28:	f06f 001b 	mvn.w	r0, #27
    8d2c:	e8bd 8ff8 	ldmia.w	sp!, {r3, r4, r5, r6, r7, r8, r9, sl, fp, pc}
    8d30:	f06f 0013 	mvn.w	r0, #19
    8d34:	e8bd 8ff8 	ldmia.w	sp!, {r3, r4, r5, r6, r7, r8, r9, sl, fp, pc}
    8d38:	20000ff0 	.word	0x20000ff0
    8d3c:	0000556d 	.word	0x0000556d
    8d40:	00009367 	.word	0x00009367
    8d44:	000055cd 	.word	0x000055cd
    8d48:	0000934d 	.word	0x0000934d
    8d4c:	000055f9 	.word	0x000055f9

00008d50 <cdcdf_acm_init>:
    8d50:	b508      	push	{r3, lr}
    8d52:	4b0a      	ldr	r3, [pc, #40]	; (8d7c <cdcdf_acm_init+0x2c>)
    8d54:	4798      	blx	r3
    8d56:	2801      	cmp	r0, #1
    8d58:	d80c      	bhi.n	8d74 <cdcdf_acm_init+0x24>
    8d5a:	4809      	ldr	r0, [pc, #36]	; (8d80 <cdcdf_acm_init+0x30>)
    8d5c:	4b09      	ldr	r3, [pc, #36]	; (8d84 <cdcdf_acm_init+0x34>)
    8d5e:	61c3      	str	r3, [r0, #28]
    8d60:	6200      	str	r0, [r0, #32]
    8d62:	4b09      	ldr	r3, [pc, #36]	; (8d88 <cdcdf_acm_init+0x38>)
    8d64:	3018      	adds	r0, #24
    8d66:	4798      	blx	r3
    8d68:	4908      	ldr	r1, [pc, #32]	; (8d8c <cdcdf_acm_init+0x3c>)
    8d6a:	4b09      	ldr	r3, [pc, #36]	; (8d90 <cdcdf_acm_init+0x40>)
    8d6c:	2001      	movs	r0, #1
    8d6e:	4798      	blx	r3
    8d70:	2000      	movs	r0, #0
    8d72:	bd08      	pop	{r3, pc}
    8d74:	f06f 0010 	mvn.w	r0, #16
    8d78:	bd08      	pop	{r3, pc}
    8d7a:	bf00      	nop
    8d7c:	00009339 	.word	0x00009339
    8d80:	20000ff0 	.word	0x20000ff0
    8d84:	00008c19 	.word	0x00008c19
    8d88:	000092e1 	.word	0x000092e1
    8d8c:	2000030c 	.word	0x2000030c
    8d90:	00009271 	.word	0x00009271

00008d94 <cdcdf_acm_write>:
    8d94:	b410      	push	{r4}
    8d96:	4c08      	ldr	r4, [pc, #32]	; (8db8 <cdcdf_acm_write+0x24>)
    8d98:	7963      	ldrb	r3, [r4, #5]
    8d9a:	460a      	mov	r2, r1
    8d9c:	b13b      	cbz	r3, 8dae <cdcdf_acm_write+0x1a>
    8d9e:	4601      	mov	r1, r0
    8da0:	78e0      	ldrb	r0, [r4, #3]
    8da2:	4c06      	ldr	r4, [pc, #24]	; (8dbc <cdcdf_acm_write+0x28>)
    8da4:	2301      	movs	r3, #1
    8da6:	46a4      	mov	ip, r4
    8da8:	f85d 4b04 	ldr.w	r4, [sp], #4
    8dac:	4760      	bx	ip
    8dae:	f06f 0010 	mvn.w	r0, #16
    8db2:	f85d 4b04 	ldr.w	r4, [sp], #4
    8db6:	4770      	bx	lr
    8db8:	20000ff0 	.word	0x20000ff0
    8dbc:	00008f29 	.word	0x00008f29

00008dc0 <usbdc_unconfig>:
    8dc0:	4b05      	ldr	r3, [pc, #20]	; (8dd8 <usbdc_unconfig+0x18>)
    8dc2:	b510      	push	{r4, lr}
    8dc4:	691c      	ldr	r4, [r3, #16]
    8dc6:	b904      	cbnz	r4, 8dca <usbdc_unconfig+0xa>
    8dc8:	bd10      	pop	{r4, pc}
    8dca:	6863      	ldr	r3, [r4, #4]
    8dcc:	4620      	mov	r0, r4
    8dce:	2200      	movs	r2, #0
    8dd0:	2101      	movs	r1, #1
    8dd2:	4798      	blx	r3
    8dd4:	6824      	ldr	r4, [r4, #0]
    8dd6:	e7f6      	b.n	8dc6 <usbdc_unconfig+0x6>
    8dd8:	20001014 	.word	0x20001014

00008ddc <usbdc_change_notify>:
    8ddc:	4b06      	ldr	r3, [pc, #24]	; (8df8 <usbdc_change_notify+0x1c>)
    8dde:	b570      	push	{r4, r5, r6, lr}
    8de0:	68dc      	ldr	r4, [r3, #12]
    8de2:	4605      	mov	r5, r0
    8de4:	460e      	mov	r6, r1
    8de6:	b904      	cbnz	r4, 8dea <usbdc_change_notify+0xe>
    8de8:	bd70      	pop	{r4, r5, r6, pc}
    8dea:	6863      	ldr	r3, [r4, #4]
    8dec:	b113      	cbz	r3, 8df4 <usbdc_change_notify+0x18>
    8dee:	4631      	mov	r1, r6
    8df0:	4628      	mov	r0, r5
    8df2:	4798      	blx	r3
    8df4:	6824      	ldr	r4, [r4, #0]
    8df6:	e7f6      	b.n	8de6 <usbdc_change_notify+0xa>
    8df8:	20001014 	.word	0x20001014

00008dfc <usbdc_request_handler>:
    8dfc:	b5f8      	push	{r3, r4, r5, r6, r7, lr}
    8dfe:	4b0c      	ldr	r3, [pc, #48]	; (8e30 <usbdc_request_handler+0x34>)
    8e00:	689c      	ldr	r4, [r3, #8]
    8e02:	4605      	mov	r5, r0
    8e04:	460e      	mov	r6, r1
    8e06:	4617      	mov	r7, r2
    8e08:	b90c      	cbnz	r4, 8e0e <usbdc_request_handler+0x12>
    8e0a:	4620      	mov	r0, r4
    8e0c:	bdf8      	pop	{r3, r4, r5, r6, r7, pc}
    8e0e:	6863      	ldr	r3, [r4, #4]
    8e10:	b90b      	cbnz	r3, 8e16 <usbdc_request_handler+0x1a>
    8e12:	6824      	ldr	r4, [r4, #0]
    8e14:	e7f8      	b.n	8e08 <usbdc_request_handler+0xc>
    8e16:	463a      	mov	r2, r7
    8e18:	4631      	mov	r1, r6
    8e1a:	4628      	mov	r0, r5
    8e1c:	4798      	blx	r3
    8e1e:	b120      	cbz	r0, 8e2a <usbdc_request_handler+0x2e>
    8e20:	300a      	adds	r0, #10
    8e22:	d0f6      	beq.n	8e12 <usbdc_request_handler+0x16>
    8e24:	f04f 30ff 	mov.w	r0, #4294967295
    8e28:	bdf8      	pop	{r3, r4, r5, r6, r7, pc}
    8e2a:	2001      	movs	r0, #1
    8e2c:	bdf8      	pop	{r3, r4, r5, r6, r7, pc}
    8e2e:	bf00      	nop
    8e30:	20001014 	.word	0x20001014

00008e34 <usbd_sof_cb>:
    8e34:	4b04      	ldr	r3, [pc, #16]	; (8e48 <usbd_sof_cb+0x14>)
    8e36:	b510      	push	{r4, lr}
    8e38:	685c      	ldr	r4, [r3, #4]
    8e3a:	b904      	cbnz	r4, 8e3e <usbd_sof_cb+0xa>
    8e3c:	bd10      	pop	{r4, pc}
    8e3e:	6863      	ldr	r3, [r4, #4]
    8e40:	b103      	cbz	r3, 8e44 <usbd_sof_cb+0x10>
    8e42:	4798      	blx	r3
    8e44:	6824      	ldr	r4, [r4, #0]
    8e46:	e7f8      	b.n	8e3a <usbd_sof_cb+0x6>
    8e48:	20001014 	.word	0x20001014

00008e4c <usbdc_cb_ctl_done>:
    8e4c:	b510      	push	{r4, lr}
    8e4e:	4614      	mov	r4, r2
    8e50:	460a      	mov	r2, r1
    8e52:	b119      	cbz	r1, 8e5c <usbdc_cb_ctl_done+0x10>
    8e54:	2901      	cmp	r1, #1
    8e56:	d020      	beq.n	8e9a <usbdc_cb_ctl_done+0x4e>
    8e58:	2000      	movs	r0, #0
    8e5a:	bd10      	pop	{r4, pc}
    8e5c:	7823      	ldrb	r3, [r4, #0]
    8e5e:	2b00      	cmp	r3, #0
    8e60:	d1fa      	bne.n	8e58 <usbdc_cb_ctl_done+0xc>
    8e62:	7863      	ldrb	r3, [r4, #1]
    8e64:	2b05      	cmp	r3, #5
    8e66:	d00d      	beq.n	8e84 <usbdc_cb_ctl_done+0x38>
    8e68:	2b09      	cmp	r3, #9
    8e6a:	d1f5      	bne.n	8e58 <usbdc_cb_ctl_done+0xc>
    8e6c:	8862      	ldrh	r2, [r4, #2]
    8e6e:	4b0d      	ldr	r3, [pc, #52]	; (8ea4 <usbdc_cb_ctl_done+0x58>)
    8e70:	2a00      	cmp	r2, #0
    8e72:	76da      	strb	r2, [r3, #27]
    8e74:	bf14      	ite	ne
    8e76:	2104      	movne	r1, #4
    8e78:	2103      	moveq	r1, #3
    8e7a:	7699      	strb	r1, [r3, #26]
    8e7c:	2001      	movs	r0, #1
    8e7e:	4b0a      	ldr	r3, [pc, #40]	; (8ea8 <usbdc_cb_ctl_done+0x5c>)
    8e80:	4798      	blx	r3
    8e82:	e7e9      	b.n	8e58 <usbdc_cb_ctl_done+0xc>
    8e84:	8860      	ldrh	r0, [r4, #2]
    8e86:	4b09      	ldr	r3, [pc, #36]	; (8eac <usbdc_cb_ctl_done+0x60>)
    8e88:	b2c0      	uxtb	r0, r0
    8e8a:	4798      	blx	r3
    8e8c:	8863      	ldrh	r3, [r4, #2]
    8e8e:	2b00      	cmp	r3, #0
    8e90:	bf14      	ite	ne
    8e92:	2103      	movne	r1, #3
    8e94:	2102      	moveq	r1, #2
    8e96:	4b03      	ldr	r3, [pc, #12]	; (8ea4 <usbdc_cb_ctl_done+0x58>)
    8e98:	e7ef      	b.n	8e7a <usbdc_cb_ctl_done+0x2e>
    8e9a:	4621      	mov	r1, r4
    8e9c:	4b04      	ldr	r3, [pc, #16]	; (8eb0 <usbdc_cb_ctl_done+0x64>)
    8e9e:	2000      	movs	r0, #0
    8ea0:	4798      	blx	r3
    8ea2:	e7d9      	b.n	8e58 <usbdc_cb_ctl_done+0xc>
    8ea4:	20001014 	.word	0x20001014
    8ea8:	00008ddd 	.word	0x00008ddd
    8eac:	00005565 	.word	0x00005565
    8eb0:	00008dfd 	.word	0x00008dfd

00008eb4 <usbdc_reset>:
    8eb4:	b570      	push	{r4, r5, r6, lr}
    8eb6:	4b0e      	ldr	r3, [pc, #56]	; (8ef0 <usbdc_reset+0x3c>)
    8eb8:	4d0e      	ldr	r5, [pc, #56]	; (8ef4 <usbdc_reset+0x40>)
    8eba:	2400      	movs	r4, #0
    8ebc:	4798      	blx	r3
    8ebe:	2602      	movs	r6, #2
    8ec0:	4620      	mov	r0, r4
    8ec2:	4b0d      	ldr	r3, [pc, #52]	; (8ef8 <usbdc_reset+0x44>)
    8ec4:	76ae      	strb	r6, [r5, #26]
    8ec6:	76ec      	strb	r4, [r5, #27]
    8ec8:	776c      	strb	r4, [r5, #29]
    8eca:	4798      	blx	r3
    8ecc:	4b0b      	ldr	r3, [pc, #44]	; (8efc <usbdc_reset+0x48>)
    8ece:	7f28      	ldrb	r0, [r5, #28]
    8ed0:	4d0b      	ldr	r5, [pc, #44]	; (8f00 <usbdc_reset+0x4c>)
    8ed2:	4798      	blx	r3
    8ed4:	4621      	mov	r1, r4
    8ed6:	4620      	mov	r0, r4
    8ed8:	4a0a      	ldr	r2, [pc, #40]	; (8f04 <usbdc_reset+0x50>)
    8eda:	47a8      	blx	r5
    8edc:	4620      	mov	r0, r4
    8ede:	4631      	mov	r1, r6
    8ee0:	4a09      	ldr	r2, [pc, #36]	; (8f08 <usbdc_reset+0x54>)
    8ee2:	47a8      	blx	r5
    8ee4:	4620      	mov	r0, r4
    8ee6:	4b09      	ldr	r3, [pc, #36]	; (8f0c <usbdc_reset+0x58>)
    8ee8:	e8bd 4070 	ldmia.w	sp!, {r4, r5, r6, lr}
    8eec:	4718      	bx	r3
    8eee:	bf00      	nop
    8ef0:	00008dc1 	.word	0x00008dc1
    8ef4:	20001014 	.word	0x20001014
    8ef8:	000055cd 	.word	0x000055cd
    8efc:	000055bd 	.word	0x000055bd
    8f00:	00005795 	.word	0x00005795
    8f04:	00008f49 	.word	0x00008f49
    8f08:	00008e4d 	.word	0x00008e4d
    8f0c:	000055f9 	.word	0x000055f9

00008f10 <usbd_event_cb>:
    8f10:	b110      	cbz	r0, 8f18 <usbd_event_cb+0x8>
    8f12:	2801      	cmp	r0, #1
    8f14:	d002      	beq.n	8f1c <usbd_event_cb+0xc>
    8f16:	4770      	bx	lr
    8f18:	4b01      	ldr	r3, [pc, #4]	; (8f20 <usbd_event_cb+0x10>)
    8f1a:	4718      	bx	r3
    8f1c:	4b01      	ldr	r3, [pc, #4]	; (8f24 <usbd_event_cb+0x14>)
    8f1e:	4718      	bx	r3
    8f20:	00008ddd 	.word	0x00008ddd
    8f24:	00008eb5 	.word	0x00008eb5

00008f28 <usbdc_xfer>:
    8f28:	b51f      	push	{r0, r1, r2, r3, r4, lr}
    8f2a:	f88d 000c 	strb.w	r0, [sp, #12]
    8f2e:	f88d 300d 	strb.w	r3, [sp, #13]
    8f32:	a801      	add	r0, sp, #4
    8f34:	4b03      	ldr	r3, [pc, #12]	; (8f44 <usbdc_xfer+0x1c>)
    8f36:	9101      	str	r1, [sp, #4]
    8f38:	9202      	str	r2, [sp, #8]
    8f3a:	4798      	blx	r3
    8f3c:	b005      	add	sp, #20
    8f3e:	f85d fb04 	ldr.w	pc, [sp], #4
    8f42:	bf00      	nop
    8f44:	00005639 	.word	0x00005639

00008f48 <usbdc_cb_ctl_req>:
    8f48:	e92d 43f7 	stmdb	sp!, {r0, r1, r2, r4, r5, r6, r7, r8, r9, lr}
    8f4c:	4baa      	ldr	r3, [pc, #680]	; (91f8 <usbdc_cb_ctl_req+0x2b0>)
    8f4e:	2200      	movs	r2, #0
    8f50:	4605      	mov	r5, r0
    8f52:	460c      	mov	r4, r1
    8f54:	4798      	blx	r3
    8f56:	1c43      	adds	r3, r0, #1
    8f58:	d008      	beq.n	8f6c <usbdc_cb_ctl_req+0x24>
    8f5a:	2801      	cmp	r0, #1
    8f5c:	d075      	beq.n	904a <usbdc_cb_ctl_req+0x102>
    8f5e:	7821      	ldrb	r1, [r4, #0]
    8f60:	f011 03e0 	ands.w	r3, r1, #224	; 0xe0
    8f64:	d004      	beq.n	8f70 <usbdc_cb_ctl_req+0x28>
    8f66:	2b80      	cmp	r3, #128	; 0x80
    8f68:	f000 80c4 	beq.w	90f4 <usbdc_cb_ctl_req+0x1ac>
    8f6c:	2000      	movs	r0, #0
    8f6e:	e06c      	b.n	904a <usbdc_cb_ctl_req+0x102>
    8f70:	7863      	ldrb	r3, [r4, #1]
    8f72:	3b01      	subs	r3, #1
    8f74:	2b0a      	cmp	r3, #10
    8f76:	d8f9      	bhi.n	8f6c <usbdc_cb_ctl_req+0x24>
    8f78:	a201      	add	r2, pc, #4	; (adr r2, 8f80 <usbdc_cb_ctl_req+0x38>)
    8f7a:	f852 f023 	ldr.w	pc, [r2, r3, lsl #2]
    8f7e:	bf00      	nop
    8f80:	00009029 	.word	0x00009029
    8f84:	00008f6d 	.word	0x00008f6d
    8f88:	00009051 	.word	0x00009051
    8f8c:	00008f6d 	.word	0x00008f6d
    8f90:	00008fb7 	.word	0x00008fb7
    8f94:	00008f6d 	.word	0x00008f6d
    8f98:	00008f6d 	.word	0x00008f6d
    8f9c:	00008f6d 	.word	0x00008f6d
    8fa0:	00008fad 	.word	0x00008fad
    8fa4:	00008f6d 	.word	0x00008f6d
    8fa8:	00009061 	.word	0x00009061
    8fac:	8862      	ldrh	r2, [r4, #2]
    8fae:	b2d2      	uxtb	r2, r2
    8fb0:	b92a      	cbnz	r2, 8fbe <usbdc_cb_ctl_req+0x76>
    8fb2:	4b92      	ldr	r3, [pc, #584]	; (91fc <usbdc_cb_ctl_req+0x2b4>)
    8fb4:	4798      	blx	r3
    8fb6:	2200      	movs	r2, #0
    8fb8:	2301      	movs	r3, #1
    8fba:	4611      	mov	r1, r2
    8fbc:	e0ec      	b.n	9198 <usbdc_cb_ctl_req+0x250>
    8fbe:	4c90      	ldr	r4, [pc, #576]	; (9200 <usbdc_cb_ctl_req+0x2b8>)
    8fc0:	6823      	ldr	r3, [r4, #0]
    8fc2:	e893 0003 	ldmia.w	r3, {r0, r1}
    8fc6:	4b8f      	ldr	r3, [pc, #572]	; (9204 <usbdc_cb_ctl_req+0x2bc>)
    8fc8:	4798      	blx	r3
    8fca:	2800      	cmp	r0, #0
    8fcc:	d0ce      	beq.n	8f6c <usbdc_cb_ctl_req+0x24>
    8fce:	78c2      	ldrb	r2, [r0, #3]
    8fd0:	7883      	ldrb	r3, [r0, #2]
    8fd2:	4f8d      	ldr	r7, [pc, #564]	; (9208 <usbdc_cb_ctl_req+0x2c0>)
    8fd4:	eb03 2302 	add.w	r3, r3, r2, lsl #8
    8fd8:	fa10 f183 	uxtah	r1, r0, r3
    8fdc:	2204      	movs	r2, #4
    8fde:	9101      	str	r1, [sp, #4]
    8fe0:	47b8      	blx	r7
    8fe2:	f10d 0808 	add.w	r8, sp, #8
    8fe6:	23ff      	movs	r3, #255	; 0xff
    8fe8:	f848 0d08 	str.w	r0, [r8, #-8]!
    8fec:	9a00      	ldr	r2, [sp, #0]
    8fee:	2a00      	cmp	r2, #0
    8ff0:	d0e1      	beq.n	8fb6 <usbdc_cb_ctl_req+0x6e>
    8ff2:	f892 9002 	ldrb.w	r9, [r2, #2]
    8ff6:	4599      	cmp	r9, r3
    8ff8:	d014      	beq.n	9024 <usbdc_cb_ctl_req+0xdc>
    8ffa:	6926      	ldr	r6, [r4, #16]
    8ffc:	b94e      	cbnz	r6, 9012 <usbdc_cb_ctl_req+0xca>
    8ffe:	9800      	ldr	r0, [sp, #0]
    9000:	9901      	ldr	r1, [sp, #4]
    9002:	7803      	ldrb	r3, [r0, #0]
    9004:	2204      	movs	r2, #4
    9006:	4418      	add	r0, r3
    9008:	9000      	str	r0, [sp, #0]
    900a:	47b8      	blx	r7
    900c:	464b      	mov	r3, r9
    900e:	9000      	str	r0, [sp, #0]
    9010:	e7ec      	b.n	8fec <usbdc_cb_ctl_req+0xa4>
    9012:	6873      	ldr	r3, [r6, #4]
    9014:	4642      	mov	r2, r8
    9016:	2100      	movs	r1, #0
    9018:	4630      	mov	r0, r6
    901a:	4798      	blx	r3
    901c:	2800      	cmp	r0, #0
    901e:	d0ee      	beq.n	8ffe <usbdc_cb_ctl_req+0xb6>
    9020:	6836      	ldr	r6, [r6, #0]
    9022:	e7eb      	b.n	8ffc <usbdc_cb_ctl_req+0xb4>
    9024:	4699      	mov	r9, r3
    9026:	e7ea      	b.n	8ffe <usbdc_cb_ctl_req+0xb6>
    9028:	2902      	cmp	r1, #2
    902a:	d19f      	bne.n	8f6c <usbdc_cb_ctl_req+0x24>
    902c:	88e6      	ldrh	r6, [r4, #6]
    902e:	2e00      	cmp	r6, #0
    9030:	d19c      	bne.n	8f6c <usbdc_cb_ctl_req+0x24>
    9032:	88a0      	ldrh	r0, [r4, #4]
    9034:	4631      	mov	r1, r6
    9036:	4b75      	ldr	r3, [pc, #468]	; (920c <usbdc_cb_ctl_req+0x2c4>)
    9038:	b2c0      	uxtb	r0, r0
    903a:	4798      	blx	r3
    903c:	2301      	movs	r3, #1
    903e:	4632      	mov	r2, r6
    9040:	4631      	mov	r1, r6
    9042:	4628      	mov	r0, r5
    9044:	4c72      	ldr	r4, [pc, #456]	; (9210 <usbdc_cb_ctl_req+0x2c8>)
    9046:	47a0      	blx	r4
    9048:	2001      	movs	r0, #1
    904a:	b003      	add	sp, #12
    904c:	e8bd 83f0 	ldmia.w	sp!, {r4, r5, r6, r7, r8, r9, pc}
    9050:	2902      	cmp	r1, #2
    9052:	d18b      	bne.n	8f6c <usbdc_cb_ctl_req+0x24>
    9054:	88e6      	ldrh	r6, [r4, #6]
    9056:	2e00      	cmp	r6, #0
    9058:	d188      	bne.n	8f6c <usbdc_cb_ctl_req+0x24>
    905a:	88a0      	ldrh	r0, [r4, #4]
    905c:	2101      	movs	r1, #1
    905e:	e7ea      	b.n	9036 <usbdc_cb_ctl_req+0xee>
    9060:	4d67      	ldr	r5, [pc, #412]	; (9200 <usbdc_cb_ctl_req+0x2b8>)
    9062:	8866      	ldrh	r6, [r4, #2]
    9064:	682b      	ldr	r3, [r5, #0]
    9066:	7eea      	ldrb	r2, [r5, #27]
    9068:	88a7      	ldrh	r7, [r4, #4]
    906a:	e893 0003 	ldmia.w	r3, {r0, r1}
    906e:	4b65      	ldr	r3, [pc, #404]	; (9204 <usbdc_cb_ctl_req+0x2bc>)
    9070:	4798      	blx	r3
    9072:	2800      	cmp	r0, #0
    9074:	f43f af7a 	beq.w	8f6c <usbdc_cb_ctl_req+0x24>
    9078:	9000      	str	r0, [sp, #0]
    907a:	78c2      	ldrb	r2, [r0, #3]
    907c:	7881      	ldrb	r1, [r0, #2]
    907e:	4c62      	ldr	r4, [pc, #392]	; (9208 <usbdc_cb_ctl_req+0x2c0>)
    9080:	eb01 2102 	add.w	r1, r1, r2, lsl #8
    9084:	fa10 f181 	uxtah	r1, r0, r1
    9088:	9101      	str	r1, [sp, #4]
    908a:	2204      	movs	r2, #4
    908c:	47a0      	blx	r4
    908e:	2800      	cmp	r0, #0
    9090:	f43f af6c 	beq.w	8f6c <usbdc_cb_ctl_req+0x24>
    9094:	7883      	ldrb	r3, [r0, #2]
    9096:	42bb      	cmp	r3, r7
    9098:	d113      	bne.n	90c2 <usbdc_cb_ctl_req+0x17a>
    909a:	78c3      	ldrb	r3, [r0, #3]
    909c:	42b3      	cmp	r3, r6
    909e:	d110      	bne.n	90c2 <usbdc_cb_ctl_req+0x17a>
    90a0:	f10d 0808 	add.w	r8, sp, #8
    90a4:	692c      	ldr	r4, [r5, #16]
    90a6:	f848 0d08 	str.w	r0, [r8, #-8]!
    90aa:	2c00      	cmp	r4, #0
    90ac:	f43f af5e 	beq.w	8f6c <usbdc_cb_ctl_req+0x24>
    90b0:	2101      	movs	r1, #1
    90b2:	6863      	ldr	r3, [r4, #4]
    90b4:	4642      	mov	r2, r8
    90b6:	4620      	mov	r0, r4
    90b8:	4798      	blx	r3
    90ba:	4601      	mov	r1, r0
    90bc:	b140      	cbz	r0, 90d0 <usbdc_cb_ctl_req+0x188>
    90be:	6824      	ldr	r4, [r4, #0]
    90c0:	e7f3      	b.n	90aa <usbdc_cb_ctl_req+0x162>
    90c2:	9800      	ldr	r0, [sp, #0]
    90c4:	9901      	ldr	r1, [sp, #4]
    90c6:	7803      	ldrb	r3, [r0, #0]
    90c8:	4418      	add	r0, r3
    90ca:	9000      	str	r0, [sp, #0]
    90cc:	2204      	movs	r2, #4
    90ce:	e7dd      	b.n	908c <usbdc_cb_ctl_req+0x144>
    90d0:	6863      	ldr	r3, [r4, #4]
    90d2:	4642      	mov	r2, r8
    90d4:	4620      	mov	r0, r4
    90d6:	4798      	blx	r3
    90d8:	2800      	cmp	r0, #0
    90da:	f47f af47 	bne.w	8f6c <usbdc_cb_ctl_req+0x24>
    90de:	b126      	cbz	r6, 90ea <usbdc_cb_ctl_req+0x1a2>
    90e0:	2301      	movs	r3, #1
    90e2:	40bb      	lsls	r3, r7
    90e4:	7f6f      	ldrb	r7, [r5, #29]
    90e6:	431f      	orrs	r7, r3
    90e8:	776f      	strb	r7, [r5, #29]
    90ea:	2300      	movs	r3, #0
    90ec:	461a      	mov	r2, r3
    90ee:	4619      	mov	r1, r3
    90f0:	4618      	mov	r0, r3
    90f2:	e7a7      	b.n	9044 <usbdc_cb_ctl_req+0xfc>
    90f4:	7863      	ldrb	r3, [r4, #1]
    90f6:	2b0a      	cmp	r3, #10
    90f8:	f63f af38 	bhi.w	8f6c <usbdc_cb_ctl_req+0x24>
    90fc:	a201      	add	r2, pc, #4	; (adr r2, 9104 <usbdc_cb_ctl_req+0x1bc>)
    90fe:	f852 f023 	ldr.w	pc, [r2, r3, lsl #2]
    9102:	bf00      	nop
    9104:	000091d3 	.word	0x000091d3
    9108:	00008f6d 	.word	0x00008f6d
    910c:	00008f6d 	.word	0x00008f6d
    9110:	00008f6d 	.word	0x00008f6d
    9114:	00008f6d 	.word	0x00008f6d
    9118:	00008f6d 	.word	0x00008f6d
    911c:	00009131 	.word	0x00009131
    9120:	00008f6d 	.word	0x00008f6d
    9124:	000091c3 	.word	0x000091c3
    9128:	00008f6d 	.word	0x00008f6d
    912c:	0000922d 	.word	0x0000922d
    9130:	8863      	ldrh	r3, [r4, #2]
    9132:	0a1a      	lsrs	r2, r3, #8
    9134:	2a02      	cmp	r2, #2
    9136:	d014      	beq.n	9162 <usbdc_cb_ctl_req+0x21a>
    9138:	2a03      	cmp	r2, #3
    913a:	d034      	beq.n	91a6 <usbdc_cb_ctl_req+0x25e>
    913c:	2a01      	cmp	r2, #1
    913e:	f47f af15 	bne.w	8f6c <usbdc_cb_ctl_req+0x24>
    9142:	4b2f      	ldr	r3, [pc, #188]	; (9200 <usbdc_cb_ctl_req+0x2b8>)
    9144:	88e4      	ldrh	r4, [r4, #6]
    9146:	681b      	ldr	r3, [r3, #0]
    9148:	2c12      	cmp	r4, #18
    914a:	e893 0003 	ldmia.w	r3, {r0, r1}
    914e:	4b2e      	ldr	r3, [pc, #184]	; (9208 <usbdc_cb_ctl_req+0x2c0>)
    9150:	bf28      	it	cs
    9152:	2412      	movcs	r4, #18
    9154:	4798      	blx	r3
    9156:	4601      	mov	r1, r0
    9158:	2800      	cmp	r0, #0
    915a:	f43f af07 	beq.w	8f6c <usbdc_cb_ctl_req+0x24>
    915e:	2300      	movs	r3, #0
    9160:	e019      	b.n	9196 <usbdc_cb_ctl_req+0x24e>
    9162:	4a27      	ldr	r2, [pc, #156]	; (9200 <usbdc_cb_ctl_req+0x2b8>)
    9164:	88e4      	ldrh	r4, [r4, #6]
    9166:	6810      	ldr	r0, [r2, #0]
    9168:	7f16      	ldrb	r6, [r2, #28]
    916a:	1c5a      	adds	r2, r3, #1
    916c:	c803      	ldmia	r0, {r0, r1}
    916e:	b2d2      	uxtb	r2, r2
    9170:	4b24      	ldr	r3, [pc, #144]	; (9204 <usbdc_cb_ctl_req+0x2bc>)
    9172:	4798      	blx	r3
    9174:	4601      	mov	r1, r0
    9176:	2800      	cmp	r0, #0
    9178:	f43f aef8 	beq.w	8f6c <usbdc_cb_ctl_req+0x24>
    917c:	78c3      	ldrb	r3, [r0, #3]
    917e:	7882      	ldrb	r2, [r0, #2]
    9180:	eb02 2203 	add.w	r2, r2, r3, lsl #8
    9184:	b292      	uxth	r2, r2
    9186:	4294      	cmp	r4, r2
    9188:	d9e9      	bls.n	915e <usbdc_cb_ctl_req+0x216>
    918a:	3e01      	subs	r6, #1
    918c:	4226      	tst	r6, r4
    918e:	bf0c      	ite	eq
    9190:	2301      	moveq	r3, #1
    9192:	2300      	movne	r3, #0
    9194:	4614      	mov	r4, r2
    9196:	4622      	mov	r2, r4
    9198:	4628      	mov	r0, r5
    919a:	4c1d      	ldr	r4, [pc, #116]	; (9210 <usbdc_cb_ctl_req+0x2c8>)
    919c:	47a0      	blx	r4
    919e:	fab0 f080 	clz	r0, r0
    91a2:	0940      	lsrs	r0, r0, #5
    91a4:	e751      	b.n	904a <usbdc_cb_ctl_req+0x102>
    91a6:	4a16      	ldr	r2, [pc, #88]	; (9200 <usbdc_cb_ctl_req+0x2b8>)
    91a8:	88e4      	ldrh	r4, [r4, #6]
    91aa:	6810      	ldr	r0, [r2, #0]
    91ac:	7f16      	ldrb	r6, [r2, #28]
    91ae:	c803      	ldmia	r0, {r0, r1}
    91b0:	b2da      	uxtb	r2, r3
    91b2:	4b18      	ldr	r3, [pc, #96]	; (9214 <usbdc_cb_ctl_req+0x2cc>)
    91b4:	4798      	blx	r3
    91b6:	4601      	mov	r1, r0
    91b8:	2800      	cmp	r0, #0
    91ba:	f43f aed7 	beq.w	8f6c <usbdc_cb_ctl_req+0x24>
    91be:	7802      	ldrb	r2, [r0, #0]
    91c0:	e7e1      	b.n	9186 <usbdc_cb_ctl_req+0x23e>
    91c2:	490f      	ldr	r1, [pc, #60]	; (9200 <usbdc_cb_ctl_req+0x2b8>)
    91c4:	694b      	ldr	r3, [r1, #20]
    91c6:	7eca      	ldrb	r2, [r1, #27]
    91c8:	701a      	strb	r2, [r3, #0]
    91ca:	2300      	movs	r3, #0
    91cc:	2201      	movs	r2, #1
    91ce:	6949      	ldr	r1, [r1, #20]
    91d0:	e737      	b.n	9042 <usbdc_cb_ctl_req+0xfa>
    91d2:	f001 011f 	and.w	r1, r1, #31
    91d6:	2901      	cmp	r1, #1
    91d8:	d91e      	bls.n	9218 <usbdc_cb_ctl_req+0x2d0>
    91da:	2902      	cmp	r1, #2
    91dc:	f47f aec6 	bne.w	8f6c <usbdc_cb_ctl_req+0x24>
    91e0:	88a0      	ldrh	r0, [r4, #4]
    91e2:	4b0a      	ldr	r3, [pc, #40]	; (920c <usbdc_cb_ctl_req+0x2c4>)
    91e4:	b2c0      	uxtb	r0, r0
    91e6:	4798      	blx	r3
    91e8:	2800      	cmp	r0, #0
    91ea:	f6ff aebf 	blt.w	8f6c <usbdc_cb_ctl_req+0x24>
    91ee:	f000 0001 	and.w	r0, r0, #1
    91f2:	9000      	str	r0, [sp, #0]
    91f4:	e012      	b.n	921c <usbdc_cb_ctl_req+0x2d4>
    91f6:	bf00      	nop
    91f8:	00008dfd 	.word	0x00008dfd
    91fc:	00008dc1 	.word	0x00008dc1
    9200:	20001014 	.word	0x20001014
    9204:	00009385 	.word	0x00009385
    9208:	0000934d 	.word	0x0000934d
    920c:	00005731 	.word	0x00005731
    9210:	00008f29 	.word	0x00008f29
    9214:	000093c1 	.word	0x000093c1
    9218:	2300      	movs	r3, #0
    921a:	9300      	str	r3, [sp, #0]
    921c:	4913      	ldr	r1, [pc, #76]	; (926c <usbdc_cb_ctl_req+0x324>)
    921e:	f8bd 2000 	ldrh.w	r2, [sp]
    9222:	694b      	ldr	r3, [r1, #20]
    9224:	801a      	strh	r2, [r3, #0]
    9226:	2300      	movs	r3, #0
    9228:	2202      	movs	r2, #2
    922a:	e7d0      	b.n	91ce <usbdc_cb_ctl_req+0x286>
    922c:	490f      	ldr	r1, [pc, #60]	; (926c <usbdc_cb_ctl_req+0x324>)
    922e:	88a2      	ldrh	r2, [r4, #4]
    9230:	7f4b      	ldrb	r3, [r1, #29]
    9232:	4113      	asrs	r3, r2
    9234:	f013 0301 	ands.w	r3, r3, #1
    9238:	460e      	mov	r6, r1
    923a:	d115      	bne.n	9268 <usbdc_cb_ctl_req+0x320>
    923c:	694a      	ldr	r2, [r1, #20]
    923e:	7013      	strb	r3, [r2, #0]
    9240:	6949      	ldr	r1, [r1, #20]
    9242:	2201      	movs	r2, #1
    9244:	e754      	b.n	90f0 <usbdc_cb_ctl_req+0x1a8>
    9246:	686b      	ldr	r3, [r5, #4]
    9248:	4622      	mov	r2, r4
    924a:	2102      	movs	r1, #2
    924c:	4628      	mov	r0, r5
    924e:	4798      	blx	r3
    9250:	2800      	cmp	r0, #0
    9252:	da03      	bge.n	925c <usbdc_cb_ctl_req+0x314>
    9254:	682d      	ldr	r5, [r5, #0]
    9256:	2d00      	cmp	r5, #0
    9258:	d1f5      	bne.n	9246 <usbdc_cb_ctl_req+0x2fe>
    925a:	e687      	b.n	8f6c <usbdc_cb_ctl_req+0x24>
    925c:	6973      	ldr	r3, [r6, #20]
    925e:	7018      	strb	r0, [r3, #0]
    9260:	2201      	movs	r2, #1
    9262:	2300      	movs	r3, #0
    9264:	6971      	ldr	r1, [r6, #20]
    9266:	e743      	b.n	90f0 <usbdc_cb_ctl_req+0x1a8>
    9268:	690d      	ldr	r5, [r1, #16]
    926a:	e7f4      	b.n	9256 <usbdc_cb_ctl_req+0x30e>
    926c:	20001014 	.word	0x20001014

00009270 <usbdc_register_handler>:
    9270:	2801      	cmp	r0, #1
    9272:	d006      	beq.n	9282 <usbdc_register_handler+0x12>
    9274:	d302      	bcc.n	927c <usbdc_register_handler+0xc>
    9276:	2802      	cmp	r0, #2
    9278:	d005      	beq.n	9286 <usbdc_register_handler+0x16>
    927a:	4770      	bx	lr
    927c:	4803      	ldr	r0, [pc, #12]	; (928c <usbdc_register_handler+0x1c>)
    927e:	4b04      	ldr	r3, [pc, #16]	; (9290 <usbdc_register_handler+0x20>)
    9280:	4718      	bx	r3
    9282:	4804      	ldr	r0, [pc, #16]	; (9294 <usbdc_register_handler+0x24>)
    9284:	e7fb      	b.n	927e <usbdc_register_handler+0xe>
    9286:	4804      	ldr	r0, [pc, #16]	; (9298 <usbdc_register_handler+0x28>)
    9288:	e7f9      	b.n	927e <usbdc_register_handler+0xe>
    928a:	bf00      	nop
    928c:	20001018 	.word	0x20001018
    9290:	000057ff 	.word	0x000057ff
    9294:	2000101c 	.word	0x2000101c
    9298:	20001020 	.word	0x20001020

0000929c <usbdc_init>:
    929c:	b538      	push	{r3, r4, r5, lr}
    929e:	4b0a      	ldr	r3, [pc, #40]	; (92c8 <usbdc_init+0x2c>)
    92a0:	4605      	mov	r5, r0
    92a2:	4798      	blx	r3
    92a4:	2800      	cmp	r0, #0
    92a6:	db0e      	blt.n	92c6 <usbdc_init+0x2a>
    92a8:	4c08      	ldr	r4, [pc, #32]	; (92cc <usbdc_init+0x30>)
    92aa:	4b09      	ldr	r3, [pc, #36]	; (92d0 <usbdc_init+0x34>)
    92ac:	2220      	movs	r2, #32
    92ae:	2100      	movs	r1, #0
    92b0:	4620      	mov	r0, r4
    92b2:	4798      	blx	r3
    92b4:	6165      	str	r5, [r4, #20]
    92b6:	4907      	ldr	r1, [pc, #28]	; (92d4 <usbdc_init+0x38>)
    92b8:	4c07      	ldr	r4, [pc, #28]	; (92d8 <usbdc_init+0x3c>)
    92ba:	2000      	movs	r0, #0
    92bc:	47a0      	blx	r4
    92be:	2001      	movs	r0, #1
    92c0:	4906      	ldr	r1, [pc, #24]	; (92dc <usbdc_init+0x40>)
    92c2:	47a0      	blx	r4
    92c4:	2000      	movs	r0, #0
    92c6:	bd38      	pop	{r3, r4, r5, pc}
    92c8:	000054e5 	.word	0x000054e5
    92cc:	20001014 	.word	0x20001014
    92d0:	0000949b 	.word	0x0000949b
    92d4:	00008e35 	.word	0x00008e35
    92d8:	0000554d 	.word	0x0000554d
    92dc:	00008f11 	.word	0x00008f11

000092e0 <usbdc_register_function>:
    92e0:	4601      	mov	r1, r0
    92e2:	4b01      	ldr	r3, [pc, #4]	; (92e8 <usbdc_register_function+0x8>)
    92e4:	4801      	ldr	r0, [pc, #4]	; (92ec <usbdc_register_function+0xc>)
    92e6:	4718      	bx	r3
    92e8:	000057ff 	.word	0x000057ff
    92ec:	20001024 	.word	0x20001024

000092f0 <usbdc_start>:
    92f0:	b510      	push	{r4, lr}
    92f2:	4b0a      	ldr	r3, [pc, #40]	; (931c <usbdc_start+0x2c>)
    92f4:	7e9c      	ldrb	r4, [r3, #26]
    92f6:	b954      	cbnz	r4, 930e <usbdc_start+0x1e>
    92f8:	b160      	cbz	r0, 9314 <usbdc_start+0x24>
    92fa:	6802      	ldr	r2, [r0, #0]
    92fc:	6018      	str	r0, [r3, #0]
    92fe:	79d2      	ldrb	r2, [r2, #7]
    9300:	771a      	strb	r2, [r3, #28]
    9302:	2201      	movs	r2, #1
    9304:	769a      	strb	r2, [r3, #26]
    9306:	4b06      	ldr	r3, [pc, #24]	; (9320 <usbdc_start+0x30>)
    9308:	4798      	blx	r3
    930a:	4620      	mov	r0, r4
    930c:	bd10      	pop	{r4, pc}
    930e:	f06f 0003 	mvn.w	r0, #3
    9312:	bd10      	pop	{r4, pc}
    9314:	f06f 0008 	mvn.w	r0, #8
    9318:	bd10      	pop	{r4, pc}
    931a:	bf00      	nop
    931c:	20001014 	.word	0x20001014
    9320:	00005555 	.word	0x00005555

00009324 <usbdc_attach>:
    9324:	4b00      	ldr	r3, [pc, #0]	; (9328 <usbdc_attach+0x4>)
    9326:	4718      	bx	r3
    9328:	0000555d 	.word	0x0000555d

0000932c <usbdc_get_ctrl_buffer>:
    932c:	4b01      	ldr	r3, [pc, #4]	; (9334 <usbdc_get_ctrl_buffer+0x8>)
    932e:	6958      	ldr	r0, [r3, #20]
    9330:	4770      	bx	lr
    9332:	bf00      	nop
    9334:	20001014 	.word	0x20001014

00009338 <usbdc_get_state>:
    9338:	4b03      	ldr	r3, [pc, #12]	; (9348 <usbdc_get_state+0x10>)
    933a:	7e98      	ldrb	r0, [r3, #26]
    933c:	f010 0f10 	tst.w	r0, #16
    9340:	bf18      	it	ne
    9342:	2010      	movne	r0, #16
    9344:	4770      	bx	lr
    9346:	bf00      	nop
    9348:	20001014 	.word	0x20001014

0000934c <usb_find_desc>:
    934c:	b510      	push	{r4, lr}
    934e:	4288      	cmp	r0, r1
    9350:	d301      	bcc.n	9356 <usb_find_desc+0xa>
    9352:	2000      	movs	r0, #0
    9354:	bd10      	pop	{r4, pc}
    9356:	7803      	ldrb	r3, [r0, #0]
    9358:	2b01      	cmp	r3, #1
    935a:	d9fa      	bls.n	9352 <usb_find_desc+0x6>
    935c:	7844      	ldrb	r4, [r0, #1]
    935e:	4294      	cmp	r4, r2
    9360:	d0f8      	beq.n	9354 <usb_find_desc+0x8>
    9362:	4418      	add	r0, r3
    9364:	e7f3      	b.n	934e <usb_find_desc+0x2>

00009366 <usb_find_ep_desc>:
    9366:	4288      	cmp	r0, r1
    9368:	d301      	bcc.n	936e <usb_find_ep_desc+0x8>
    936a:	2000      	movs	r0, #0
    936c:	4770      	bx	lr
    936e:	7803      	ldrb	r3, [r0, #0]
    9370:	2b01      	cmp	r3, #1
    9372:	d9fa      	bls.n	936a <usb_find_ep_desc+0x4>
    9374:	7842      	ldrb	r2, [r0, #1]
    9376:	2a04      	cmp	r2, #4
    9378:	d0f7      	beq.n	936a <usb_find_ep_desc+0x4>
    937a:	2a05      	cmp	r2, #5
    937c:	d0f6      	beq.n	936c <usb_find_ep_desc+0x6>
    937e:	4418      	add	r0, r3
    9380:	e7f1      	b.n	9366 <usb_find_ep_desc>
	...

00009384 <usb_find_cfg_desc>:
    9384:	b538      	push	{r3, r4, r5, lr}
    9386:	4615      	mov	r5, r2
    9388:	4b0c      	ldr	r3, [pc, #48]	; (93bc <usb_find_cfg_desc+0x38>)
    938a:	2202      	movs	r2, #2
    938c:	460c      	mov	r4, r1
    938e:	4798      	blx	r3
    9390:	b978      	cbnz	r0, 93b2 <usb_find_cfg_desc+0x2e>
    9392:	bd38      	pop	{r3, r4, r5, pc}
    9394:	7803      	ldrb	r3, [r0, #0]
    9396:	2b01      	cmp	r3, #1
    9398:	d90d      	bls.n	93b6 <usb_find_cfg_desc+0x32>
    939a:	7843      	ldrb	r3, [r0, #1]
    939c:	2b02      	cmp	r3, #2
    939e:	d10a      	bne.n	93b6 <usb_find_cfg_desc+0x32>
    93a0:	7943      	ldrb	r3, [r0, #5]
    93a2:	42ab      	cmp	r3, r5
    93a4:	d008      	beq.n	93b8 <usb_find_cfg_desc+0x34>
    93a6:	78c2      	ldrb	r2, [r0, #3]
    93a8:	7883      	ldrb	r3, [r0, #2]
    93aa:	eb03 2302 	add.w	r3, r3, r2, lsl #8
    93ae:	fa10 f083 	uxtah	r0, r0, r3
    93b2:	42a0      	cmp	r0, r4
    93b4:	d3ee      	bcc.n	9394 <usb_find_cfg_desc+0x10>
    93b6:	2000      	movs	r0, #0
    93b8:	bd38      	pop	{r3, r4, r5, pc}
    93ba:	bf00      	nop
    93bc:	0000934d 	.word	0x0000934d

000093c0 <usb_find_str_desc>:
    93c0:	b5f8      	push	{r3, r4, r5, r6, r7, lr}
    93c2:	4f0a      	ldr	r7, [pc, #40]	; (93ec <usb_find_str_desc+0x2c>)
    93c4:	460d      	mov	r5, r1
    93c6:	4616      	mov	r6, r2
    93c8:	2400      	movs	r4, #0
    93ca:	42a8      	cmp	r0, r5
    93cc:	d301      	bcc.n	93d2 <usb_find_str_desc+0x12>
    93ce:	2000      	movs	r0, #0
    93d0:	bdf8      	pop	{r3, r4, r5, r6, r7, pc}
    93d2:	2203      	movs	r2, #3
    93d4:	4629      	mov	r1, r5
    93d6:	47b8      	blx	r7
    93d8:	2800      	cmp	r0, #0
    93da:	d0f9      	beq.n	93d0 <usb_find_str_desc+0x10>
    93dc:	7803      	ldrb	r3, [r0, #0]
    93de:	2b01      	cmp	r3, #1
    93e0:	d9f5      	bls.n	93ce <usb_find_str_desc+0xe>
    93e2:	42b4      	cmp	r4, r6
    93e4:	d0f4      	beq.n	93d0 <usb_find_str_desc+0x10>
    93e6:	4418      	add	r0, r3
    93e8:	3401      	adds	r4, #1
    93ea:	e7ee      	b.n	93ca <usb_find_str_desc+0xa>
    93ec:	0000934d 	.word	0x0000934d

000093f0 <cdc_device_acm_init>:
    93f0:	b510      	push	{r4, lr}
    93f2:	4b06      	ldr	r3, [pc, #24]	; (940c <cdc_device_acm_init+0x1c>)
    93f4:	4806      	ldr	r0, [pc, #24]	; (9410 <cdc_device_acm_init+0x20>)
    93f6:	4798      	blx	r3
    93f8:	4b06      	ldr	r3, [pc, #24]	; (9414 <cdc_device_acm_init+0x24>)
    93fa:	4798      	blx	r3
    93fc:	4b06      	ldr	r3, [pc, #24]	; (9418 <cdc_device_acm_init+0x28>)
    93fe:	4807      	ldr	r0, [pc, #28]	; (941c <cdc_device_acm_init+0x2c>)
    9400:	4798      	blx	r3
    9402:	4b07      	ldr	r3, [pc, #28]	; (9420 <cdc_device_acm_init+0x30>)
    9404:	e8bd 4010 	ldmia.w	sp!, {r4, lr}
    9408:	4718      	bx	r3
    940a:	bf00      	nop
    940c:	0000929d 	.word	0x0000929d
    9410:	20001074 	.word	0x20001074
    9414:	00008d51 	.word	0x00008d51
    9418:	000092f1 	.word	0x000092f1
    941c:	20000314 	.word	0x20000314
    9420:	00009325 	.word	0x00009325

00009424 <usb_init>:
    9424:	4b00      	ldr	r3, [pc, #0]	; (9428 <usb_init+0x4>)
    9426:	4718      	bx	r3
    9428:	000093f1 	.word	0x000093f1

0000942c <__libc_init_array>:
    942c:	b570      	push	{r4, r5, r6, lr}
    942e:	4e0d      	ldr	r6, [pc, #52]	; (9464 <__libc_init_array+0x38>)
    9430:	4c0d      	ldr	r4, [pc, #52]	; (9468 <__libc_init_array+0x3c>)
    9432:	1ba4      	subs	r4, r4, r6
    9434:	10a4      	asrs	r4, r4, #2
    9436:	2500      	movs	r5, #0
    9438:	42a5      	cmp	r5, r4
    943a:	d109      	bne.n	9450 <__libc_init_array+0x24>
    943c:	4e0b      	ldr	r6, [pc, #44]	; (946c <__libc_init_array+0x40>)
    943e:	4c0c      	ldr	r4, [pc, #48]	; (9470 <__libc_init_array+0x44>)
    9440:	f000 fe58 	bl	a0f4 <_init>
    9444:	1ba4      	subs	r4, r4, r6
    9446:	10a4      	asrs	r4, r4, #2
    9448:	2500      	movs	r5, #0
    944a:	42a5      	cmp	r5, r4
    944c:	d105      	bne.n	945a <__libc_init_array+0x2e>
    944e:	bd70      	pop	{r4, r5, r6, pc}
    9450:	f856 3025 	ldr.w	r3, [r6, r5, lsl #2]
    9454:	4798      	blx	r3
    9456:	3501      	adds	r5, #1
    9458:	e7ee      	b.n	9438 <__libc_init_array+0xc>
    945a:	f856 3025 	ldr.w	r3, [r6, r5, lsl #2]
    945e:	4798      	blx	r3
    9460:	3501      	adds	r5, #1
    9462:	e7f2      	b.n	944a <__libc_init_array+0x1e>
    9464:	0000a100 	.word	0x0000a100
    9468:	0000a100 	.word	0x0000a100
    946c:	0000a100 	.word	0x0000a100
    9470:	0000a104 	.word	0x0000a104

00009474 <malloc>:
    9474:	4b02      	ldr	r3, [pc, #8]	; (9480 <malloc+0xc>)
    9476:	4601      	mov	r1, r0
    9478:	6818      	ldr	r0, [r3, #0]
    947a:	f000 b865 	b.w	9548 <_malloc_r>
    947e:	bf00      	nop
    9480:	20000374 	.word	0x20000374

00009484 <memcpy>:
    9484:	b510      	push	{r4, lr}
    9486:	1e43      	subs	r3, r0, #1
    9488:	440a      	add	r2, r1
    948a:	4291      	cmp	r1, r2
    948c:	d100      	bne.n	9490 <memcpy+0xc>
    948e:	bd10      	pop	{r4, pc}
    9490:	f811 4b01 	ldrb.w	r4, [r1], #1
    9494:	f803 4f01 	strb.w	r4, [r3, #1]!
    9498:	e7f7      	b.n	948a <memcpy+0x6>

0000949a <memset>:
    949a:	4402      	add	r2, r0
    949c:	4603      	mov	r3, r0
    949e:	4293      	cmp	r3, r2
    94a0:	d100      	bne.n	94a4 <memset+0xa>
    94a2:	4770      	bx	lr
    94a4:	f803 1b01 	strb.w	r1, [r3], #1
    94a8:	e7f9      	b.n	949e <memset+0x4>
	...

000094ac <_free_r>:
    94ac:	b538      	push	{r3, r4, r5, lr}
    94ae:	4605      	mov	r5, r0
    94b0:	2900      	cmp	r1, #0
    94b2:	d045      	beq.n	9540 <_free_r+0x94>
    94b4:	f851 3c04 	ldr.w	r3, [r1, #-4]
    94b8:	1f0c      	subs	r4, r1, #4
    94ba:	2b00      	cmp	r3, #0
    94bc:	bfb8      	it	lt
    94be:	18e4      	addlt	r4, r4, r3
    94c0:	f000 f8dc 	bl	967c <__malloc_lock>
    94c4:	4a1f      	ldr	r2, [pc, #124]	; (9544 <_free_r+0x98>)
    94c6:	6813      	ldr	r3, [r2, #0]
    94c8:	4610      	mov	r0, r2
    94ca:	b933      	cbnz	r3, 94da <_free_r+0x2e>
    94cc:	6063      	str	r3, [r4, #4]
    94ce:	6014      	str	r4, [r2, #0]
    94d0:	4628      	mov	r0, r5
    94d2:	e8bd 4038 	ldmia.w	sp!, {r3, r4, r5, lr}
    94d6:	f000 b8d2 	b.w	967e <__malloc_unlock>
    94da:	42a3      	cmp	r3, r4
    94dc:	d90c      	bls.n	94f8 <_free_r+0x4c>
    94de:	6821      	ldr	r1, [r4, #0]
    94e0:	1862      	adds	r2, r4, r1
    94e2:	4293      	cmp	r3, r2
    94e4:	bf04      	itt	eq
    94e6:	681a      	ldreq	r2, [r3, #0]
    94e8:	685b      	ldreq	r3, [r3, #4]
    94ea:	6063      	str	r3, [r4, #4]
    94ec:	bf04      	itt	eq
    94ee:	1852      	addeq	r2, r2, r1
    94f0:	6022      	streq	r2, [r4, #0]
    94f2:	6004      	str	r4, [r0, #0]
    94f4:	e7ec      	b.n	94d0 <_free_r+0x24>
    94f6:	4613      	mov	r3, r2
    94f8:	685a      	ldr	r2, [r3, #4]
    94fa:	b10a      	cbz	r2, 9500 <_free_r+0x54>
    94fc:	42a2      	cmp	r2, r4
    94fe:	d9fa      	bls.n	94f6 <_free_r+0x4a>
    9500:	6819      	ldr	r1, [r3, #0]
    9502:	1858      	adds	r0, r3, r1
    9504:	42a0      	cmp	r0, r4
    9506:	d10b      	bne.n	9520 <_free_r+0x74>
    9508:	6820      	ldr	r0, [r4, #0]
    950a:	4401      	add	r1, r0
    950c:	1858      	adds	r0, r3, r1
    950e:	4282      	cmp	r2, r0
    9510:	6019      	str	r1, [r3, #0]
    9512:	d1dd      	bne.n	94d0 <_free_r+0x24>
    9514:	6810      	ldr	r0, [r2, #0]
    9516:	6852      	ldr	r2, [r2, #4]
    9518:	605a      	str	r2, [r3, #4]
    951a:	4401      	add	r1, r0
    951c:	6019      	str	r1, [r3, #0]
    951e:	e7d7      	b.n	94d0 <_free_r+0x24>
    9520:	d902      	bls.n	9528 <_free_r+0x7c>
    9522:	230c      	movs	r3, #12
    9524:	602b      	str	r3, [r5, #0]
    9526:	e7d3      	b.n	94d0 <_free_r+0x24>
    9528:	6820      	ldr	r0, [r4, #0]
    952a:	1821      	adds	r1, r4, r0
    952c:	428a      	cmp	r2, r1
    952e:	bf04      	itt	eq
    9530:	6811      	ldreq	r1, [r2, #0]
    9532:	6852      	ldreq	r2, [r2, #4]
    9534:	6062      	str	r2, [r4, #4]
    9536:	bf04      	itt	eq
    9538:	1809      	addeq	r1, r1, r0
    953a:	6021      	streq	r1, [r4, #0]
    953c:	605c      	str	r4, [r3, #4]
    953e:	e7c7      	b.n	94d0 <_free_r+0x24>
    9540:	bd38      	pop	{r3, r4, r5, pc}
    9542:	bf00      	nop
    9544:	200010b4 	.word	0x200010b4

00009548 <_malloc_r>:
    9548:	b570      	push	{r4, r5, r6, lr}
    954a:	1ccd      	adds	r5, r1, #3
    954c:	f025 0503 	bic.w	r5, r5, #3
    9550:	3508      	adds	r5, #8
    9552:	2d0c      	cmp	r5, #12
    9554:	bf38      	it	cc
    9556:	250c      	movcc	r5, #12
    9558:	2d00      	cmp	r5, #0
    955a:	4606      	mov	r6, r0
    955c:	db01      	blt.n	9562 <_malloc_r+0x1a>
    955e:	42a9      	cmp	r1, r5
    9560:	d903      	bls.n	956a <_malloc_r+0x22>
    9562:	230c      	movs	r3, #12
    9564:	6033      	str	r3, [r6, #0]
    9566:	2000      	movs	r0, #0
    9568:	bd70      	pop	{r4, r5, r6, pc}
    956a:	f000 f887 	bl	967c <__malloc_lock>
    956e:	4a23      	ldr	r2, [pc, #140]	; (95fc <_malloc_r+0xb4>)
    9570:	6814      	ldr	r4, [r2, #0]
    9572:	4621      	mov	r1, r4
    9574:	b991      	cbnz	r1, 959c <_malloc_r+0x54>
    9576:	4c22      	ldr	r4, [pc, #136]	; (9600 <_malloc_r+0xb8>)
    9578:	6823      	ldr	r3, [r4, #0]
    957a:	b91b      	cbnz	r3, 9584 <_malloc_r+0x3c>
    957c:	4630      	mov	r0, r6
    957e:	f000 f841 	bl	9604 <_sbrk_r>
    9582:	6020      	str	r0, [r4, #0]
    9584:	4629      	mov	r1, r5
    9586:	4630      	mov	r0, r6
    9588:	f000 f83c 	bl	9604 <_sbrk_r>
    958c:	1c43      	adds	r3, r0, #1
    958e:	d126      	bne.n	95de <_malloc_r+0x96>
    9590:	230c      	movs	r3, #12
    9592:	6033      	str	r3, [r6, #0]
    9594:	4630      	mov	r0, r6
    9596:	f000 f872 	bl	967e <__malloc_unlock>
    959a:	e7e4      	b.n	9566 <_malloc_r+0x1e>
    959c:	680b      	ldr	r3, [r1, #0]
    959e:	1b5b      	subs	r3, r3, r5
    95a0:	d41a      	bmi.n	95d8 <_malloc_r+0x90>
    95a2:	2b0b      	cmp	r3, #11
    95a4:	d90f      	bls.n	95c6 <_malloc_r+0x7e>
    95a6:	600b      	str	r3, [r1, #0]
    95a8:	50cd      	str	r5, [r1, r3]
    95aa:	18cc      	adds	r4, r1, r3
    95ac:	4630      	mov	r0, r6
    95ae:	f000 f866 	bl	967e <__malloc_unlock>
    95b2:	f104 000b 	add.w	r0, r4, #11
    95b6:	1d23      	adds	r3, r4, #4
    95b8:	f020 0007 	bic.w	r0, r0, #7
    95bc:	1ac3      	subs	r3, r0, r3
    95be:	d01b      	beq.n	95f8 <_malloc_r+0xb0>
    95c0:	425a      	negs	r2, r3
    95c2:	50e2      	str	r2, [r4, r3]
    95c4:	bd70      	pop	{r4, r5, r6, pc}
    95c6:	428c      	cmp	r4, r1
    95c8:	bf0d      	iteet	eq
    95ca:	6863      	ldreq	r3, [r4, #4]
    95cc:	684b      	ldrne	r3, [r1, #4]
    95ce:	6063      	strne	r3, [r4, #4]
    95d0:	6013      	streq	r3, [r2, #0]
    95d2:	bf18      	it	ne
    95d4:	460c      	movne	r4, r1
    95d6:	e7e9      	b.n	95ac <_malloc_r+0x64>
    95d8:	460c      	mov	r4, r1
    95da:	6849      	ldr	r1, [r1, #4]
    95dc:	e7ca      	b.n	9574 <_malloc_r+0x2c>
    95de:	1cc4      	adds	r4, r0, #3
    95e0:	f024 0403 	bic.w	r4, r4, #3
    95e4:	42a0      	cmp	r0, r4
    95e6:	d005      	beq.n	95f4 <_malloc_r+0xac>
    95e8:	1a21      	subs	r1, r4, r0
    95ea:	4630      	mov	r0, r6
    95ec:	f000 f80a 	bl	9604 <_sbrk_r>
    95f0:	3001      	adds	r0, #1
    95f2:	d0cd      	beq.n	9590 <_malloc_r+0x48>
    95f4:	6025      	str	r5, [r4, #0]
    95f6:	e7d9      	b.n	95ac <_malloc_r+0x64>
    95f8:	bd70      	pop	{r4, r5, r6, pc}
    95fa:	bf00      	nop
    95fc:	200010b4 	.word	0x200010b4
    9600:	200010b8 	.word	0x200010b8

00009604 <_sbrk_r>:
    9604:	b538      	push	{r3, r4, r5, lr}
    9606:	4c06      	ldr	r4, [pc, #24]	; (9620 <_sbrk_r+0x1c>)
    9608:	2300      	movs	r3, #0
    960a:	4605      	mov	r5, r0
    960c:	4608      	mov	r0, r1
    960e:	6023      	str	r3, [r4, #0]
    9610:	f7fc f93c 	bl	588c <_sbrk>
    9614:	1c43      	adds	r3, r0, #1
    9616:	d102      	bne.n	961e <_sbrk_r+0x1a>
    9618:	6823      	ldr	r3, [r4, #0]
    961a:	b103      	cbz	r3, 961e <_sbrk_r+0x1a>
    961c:	602b      	str	r3, [r5, #0]
    961e:	bd38      	pop	{r3, r4, r5, pc}
    9620:	20001cb4 	.word	0x20001cb4

00009624 <siprintf>:
    9624:	b40e      	push	{r1, r2, r3}
    9626:	b500      	push	{lr}
    9628:	b09c      	sub	sp, #112	; 0x70
    962a:	f44f 7102 	mov.w	r1, #520	; 0x208
    962e:	ab1d      	add	r3, sp, #116	; 0x74
    9630:	f8ad 1014 	strh.w	r1, [sp, #20]
    9634:	9002      	str	r0, [sp, #8]
    9636:	9006      	str	r0, [sp, #24]
    9638:	f06f 4100 	mvn.w	r1, #2147483648	; 0x80000000
    963c:	480a      	ldr	r0, [pc, #40]	; (9668 <siprintf+0x44>)
    963e:	9104      	str	r1, [sp, #16]
    9640:	9107      	str	r1, [sp, #28]
    9642:	f64f 71ff 	movw	r1, #65535	; 0xffff
    9646:	f853 2b04 	ldr.w	r2, [r3], #4
    964a:	f8ad 1016 	strh.w	r1, [sp, #22]
    964e:	6800      	ldr	r0, [r0, #0]
    9650:	9301      	str	r3, [sp, #4]
    9652:	a902      	add	r1, sp, #8
    9654:	f000 f870 	bl	9738 <_svfiprintf_r>
    9658:	9b02      	ldr	r3, [sp, #8]
    965a:	2200      	movs	r2, #0
    965c:	701a      	strb	r2, [r3, #0]
    965e:	b01c      	add	sp, #112	; 0x70
    9660:	f85d eb04 	ldr.w	lr, [sp], #4
    9664:	b003      	add	sp, #12
    9666:	4770      	bx	lr
    9668:	20000374 	.word	0x20000374

0000966c <strlen>:
    966c:	4603      	mov	r3, r0
    966e:	f813 2b01 	ldrb.w	r2, [r3], #1
    9672:	2a00      	cmp	r2, #0
    9674:	d1fb      	bne.n	966e <strlen+0x2>
    9676:	1a18      	subs	r0, r3, r0
    9678:	3801      	subs	r0, #1
    967a:	4770      	bx	lr

0000967c <__malloc_lock>:
    967c:	4770      	bx	lr

0000967e <__malloc_unlock>:
    967e:	4770      	bx	lr

00009680 <__ssputs_r>:
    9680:	e92d 47f0 	stmdb	sp!, {r4, r5, r6, r7, r8, r9, sl, lr}
    9684:	688e      	ldr	r6, [r1, #8]
    9686:	429e      	cmp	r6, r3
    9688:	4682      	mov	sl, r0
    968a:	460c      	mov	r4, r1
    968c:	4691      	mov	r9, r2
    968e:	4698      	mov	r8, r3
    9690:	d835      	bhi.n	96fe <__ssputs_r+0x7e>
    9692:	898a      	ldrh	r2, [r1, #12]
    9694:	f412 6f90 	tst.w	r2, #1152	; 0x480
    9698:	d031      	beq.n	96fe <__ssputs_r+0x7e>
    969a:	6825      	ldr	r5, [r4, #0]
    969c:	6909      	ldr	r1, [r1, #16]
    969e:	1a6f      	subs	r7, r5, r1
    96a0:	6965      	ldr	r5, [r4, #20]
    96a2:	2302      	movs	r3, #2
    96a4:	eb05 0545 	add.w	r5, r5, r5, lsl #1
    96a8:	fb95 f5f3 	sdiv	r5, r5, r3
    96ac:	f108 0301 	add.w	r3, r8, #1
    96b0:	443b      	add	r3, r7
    96b2:	429d      	cmp	r5, r3
    96b4:	bf38      	it	cc
    96b6:	461d      	movcc	r5, r3
    96b8:	0553      	lsls	r3, r2, #21
    96ba:	d531      	bpl.n	9720 <__ssputs_r+0xa0>
    96bc:	4629      	mov	r1, r5
    96be:	f7ff ff43 	bl	9548 <_malloc_r>
    96c2:	4606      	mov	r6, r0
    96c4:	b950      	cbnz	r0, 96dc <__ssputs_r+0x5c>
    96c6:	230c      	movs	r3, #12
    96c8:	f8ca 3000 	str.w	r3, [sl]
    96cc:	89a3      	ldrh	r3, [r4, #12]
    96ce:	f043 0340 	orr.w	r3, r3, #64	; 0x40
    96d2:	81a3      	strh	r3, [r4, #12]
    96d4:	f04f 30ff 	mov.w	r0, #4294967295
    96d8:	e8bd 87f0 	ldmia.w	sp!, {r4, r5, r6, r7, r8, r9, sl, pc}
    96dc:	463a      	mov	r2, r7
    96de:	6921      	ldr	r1, [r4, #16]
    96e0:	f7ff fed0 	bl	9484 <memcpy>
    96e4:	89a3      	ldrh	r3, [r4, #12]
    96e6:	f423 6390 	bic.w	r3, r3, #1152	; 0x480
    96ea:	f043 0380 	orr.w	r3, r3, #128	; 0x80
    96ee:	81a3      	strh	r3, [r4, #12]
    96f0:	6126      	str	r6, [r4, #16]
    96f2:	6165      	str	r5, [r4, #20]
    96f4:	443e      	add	r6, r7
    96f6:	1bed      	subs	r5, r5, r7
    96f8:	6026      	str	r6, [r4, #0]
    96fa:	60a5      	str	r5, [r4, #8]
    96fc:	4646      	mov	r6, r8
    96fe:	4546      	cmp	r6, r8
    9700:	bf28      	it	cs
    9702:	4646      	movcs	r6, r8
    9704:	4632      	mov	r2, r6
    9706:	4649      	mov	r1, r9
    9708:	6820      	ldr	r0, [r4, #0]
    970a:	f000 faf1 	bl	9cf0 <memmove>
    970e:	68a3      	ldr	r3, [r4, #8]
    9710:	1b9b      	subs	r3, r3, r6
    9712:	60a3      	str	r3, [r4, #8]
    9714:	6823      	ldr	r3, [r4, #0]
    9716:	441e      	add	r6, r3
    9718:	6026      	str	r6, [r4, #0]
    971a:	2000      	movs	r0, #0
    971c:	e8bd 87f0 	ldmia.w	sp!, {r4, r5, r6, r7, r8, r9, sl, pc}
    9720:	462a      	mov	r2, r5
    9722:	f000 faff 	bl	9d24 <_realloc_r>
    9726:	4606      	mov	r6, r0
    9728:	2800      	cmp	r0, #0
    972a:	d1e1      	bne.n	96f0 <__ssputs_r+0x70>
    972c:	6921      	ldr	r1, [r4, #16]
    972e:	4650      	mov	r0, sl
    9730:	f7ff febc 	bl	94ac <_free_r>
    9734:	e7c7      	b.n	96c6 <__ssputs_r+0x46>
	...

00009738 <_svfiprintf_r>:
    9738:	e92d 4ff0 	stmdb	sp!, {r4, r5, r6, r7, r8, r9, sl, fp, lr}
    973c:	b09d      	sub	sp, #116	; 0x74
    973e:	4680      	mov	r8, r0
    9740:	9303      	str	r3, [sp, #12]
    9742:	898b      	ldrh	r3, [r1, #12]
    9744:	061c      	lsls	r4, r3, #24
    9746:	460d      	mov	r5, r1
    9748:	4616      	mov	r6, r2
    974a:	d50f      	bpl.n	976c <_svfiprintf_r+0x34>
    974c:	690b      	ldr	r3, [r1, #16]
    974e:	b96b      	cbnz	r3, 976c <_svfiprintf_r+0x34>
    9750:	2140      	movs	r1, #64	; 0x40
    9752:	f7ff fef9 	bl	9548 <_malloc_r>
    9756:	6028      	str	r0, [r5, #0]
    9758:	6128      	str	r0, [r5, #16]
    975a:	b928      	cbnz	r0, 9768 <_svfiprintf_r+0x30>
    975c:	230c      	movs	r3, #12
    975e:	f8c8 3000 	str.w	r3, [r8]
    9762:	f04f 30ff 	mov.w	r0, #4294967295
    9766:	e0c5      	b.n	98f4 <_svfiprintf_r+0x1bc>
    9768:	2340      	movs	r3, #64	; 0x40
    976a:	616b      	str	r3, [r5, #20]
    976c:	2300      	movs	r3, #0
    976e:	9309      	str	r3, [sp, #36]	; 0x24
    9770:	2320      	movs	r3, #32
    9772:	f88d 3029 	strb.w	r3, [sp, #41]	; 0x29
    9776:	2330      	movs	r3, #48	; 0x30
    9778:	f88d 302a 	strb.w	r3, [sp, #42]	; 0x2a
    977c:	f04f 0b01 	mov.w	fp, #1
    9780:	4637      	mov	r7, r6
    9782:	463c      	mov	r4, r7
    9784:	f814 3b01 	ldrb.w	r3, [r4], #1
    9788:	2b00      	cmp	r3, #0
    978a:	d13c      	bne.n	9806 <_svfiprintf_r+0xce>
    978c:	ebb7 0a06 	subs.w	sl, r7, r6
    9790:	d00b      	beq.n	97aa <_svfiprintf_r+0x72>
    9792:	4653      	mov	r3, sl
    9794:	4632      	mov	r2, r6
    9796:	4629      	mov	r1, r5
    9798:	4640      	mov	r0, r8
    979a:	f7ff ff71 	bl	9680 <__ssputs_r>
    979e:	3001      	adds	r0, #1
    97a0:	f000 80a3 	beq.w	98ea <_svfiprintf_r+0x1b2>
    97a4:	9b09      	ldr	r3, [sp, #36]	; 0x24
    97a6:	4453      	add	r3, sl
    97a8:	9309      	str	r3, [sp, #36]	; 0x24
    97aa:	783b      	ldrb	r3, [r7, #0]
    97ac:	2b00      	cmp	r3, #0
    97ae:	f000 809c 	beq.w	98ea <_svfiprintf_r+0x1b2>
    97b2:	2300      	movs	r3, #0
    97b4:	f04f 32ff 	mov.w	r2, #4294967295
    97b8:	9304      	str	r3, [sp, #16]
    97ba:	9307      	str	r3, [sp, #28]
    97bc:	9205      	str	r2, [sp, #20]
    97be:	9306      	str	r3, [sp, #24]
    97c0:	f88d 3053 	strb.w	r3, [sp, #83]	; 0x53
    97c4:	931a      	str	r3, [sp, #104]	; 0x68
    97c6:	2205      	movs	r2, #5
    97c8:	7821      	ldrb	r1, [r4, #0]
    97ca:	4850      	ldr	r0, [pc, #320]	; (990c <_svfiprintf_r+0x1d4>)
    97cc:	f000 fa40 	bl	9c50 <memchr>
    97d0:	1c67      	adds	r7, r4, #1
    97d2:	9b04      	ldr	r3, [sp, #16]
    97d4:	b9d8      	cbnz	r0, 980e <_svfiprintf_r+0xd6>
    97d6:	06d9      	lsls	r1, r3, #27
    97d8:	bf44      	itt	mi
    97da:	2220      	movmi	r2, #32
    97dc:	f88d 2053 	strbmi.w	r2, [sp, #83]	; 0x53
    97e0:	071a      	lsls	r2, r3, #28
    97e2:	bf44      	itt	mi
    97e4:	222b      	movmi	r2, #43	; 0x2b
    97e6:	f88d 2053 	strbmi.w	r2, [sp, #83]	; 0x53
    97ea:	7822      	ldrb	r2, [r4, #0]
    97ec:	2a2a      	cmp	r2, #42	; 0x2a
    97ee:	d016      	beq.n	981e <_svfiprintf_r+0xe6>
    97f0:	9a07      	ldr	r2, [sp, #28]
    97f2:	2100      	movs	r1, #0
    97f4:	200a      	movs	r0, #10
    97f6:	4627      	mov	r7, r4
    97f8:	3401      	adds	r4, #1
    97fa:	783b      	ldrb	r3, [r7, #0]
    97fc:	3b30      	subs	r3, #48	; 0x30
    97fe:	2b09      	cmp	r3, #9
    9800:	d951      	bls.n	98a6 <_svfiprintf_r+0x16e>
    9802:	b1c9      	cbz	r1, 9838 <_svfiprintf_r+0x100>
    9804:	e011      	b.n	982a <_svfiprintf_r+0xf2>
    9806:	2b25      	cmp	r3, #37	; 0x25
    9808:	d0c0      	beq.n	978c <_svfiprintf_r+0x54>
    980a:	4627      	mov	r7, r4
    980c:	e7b9      	b.n	9782 <_svfiprintf_r+0x4a>
    980e:	4a3f      	ldr	r2, [pc, #252]	; (990c <_svfiprintf_r+0x1d4>)
    9810:	1a80      	subs	r0, r0, r2
    9812:	fa0b f000 	lsl.w	r0, fp, r0
    9816:	4318      	orrs	r0, r3
    9818:	9004      	str	r0, [sp, #16]
    981a:	463c      	mov	r4, r7
    981c:	e7d3      	b.n	97c6 <_svfiprintf_r+0x8e>
    981e:	9a03      	ldr	r2, [sp, #12]
    9820:	1d11      	adds	r1, r2, #4
    9822:	6812      	ldr	r2, [r2, #0]
    9824:	9103      	str	r1, [sp, #12]
    9826:	2a00      	cmp	r2, #0
    9828:	db01      	blt.n	982e <_svfiprintf_r+0xf6>
    982a:	9207      	str	r2, [sp, #28]
    982c:	e004      	b.n	9838 <_svfiprintf_r+0x100>
    982e:	4252      	negs	r2, r2
    9830:	f043 0302 	orr.w	r3, r3, #2
    9834:	9207      	str	r2, [sp, #28]
    9836:	9304      	str	r3, [sp, #16]
    9838:	783b      	ldrb	r3, [r7, #0]
    983a:	2b2e      	cmp	r3, #46	; 0x2e
    983c:	d10e      	bne.n	985c <_svfiprintf_r+0x124>
    983e:	787b      	ldrb	r3, [r7, #1]
    9840:	2b2a      	cmp	r3, #42	; 0x2a
    9842:	f107 0101 	add.w	r1, r7, #1
    9846:	d132      	bne.n	98ae <_svfiprintf_r+0x176>
    9848:	9b03      	ldr	r3, [sp, #12]
    984a:	1d1a      	adds	r2, r3, #4
    984c:	681b      	ldr	r3, [r3, #0]
    984e:	9203      	str	r2, [sp, #12]
    9850:	2b00      	cmp	r3, #0
    9852:	bfb8      	it	lt
    9854:	f04f 33ff 	movlt.w	r3, #4294967295
    9858:	3702      	adds	r7, #2
    985a:	9305      	str	r3, [sp, #20]
    985c:	4c2c      	ldr	r4, [pc, #176]	; (9910 <_svfiprintf_r+0x1d8>)
    985e:	7839      	ldrb	r1, [r7, #0]
    9860:	2203      	movs	r2, #3
    9862:	4620      	mov	r0, r4
    9864:	f000 f9f4 	bl	9c50 <memchr>
    9868:	b138      	cbz	r0, 987a <_svfiprintf_r+0x142>
    986a:	2340      	movs	r3, #64	; 0x40
    986c:	1b00      	subs	r0, r0, r4
    986e:	fa03 f000 	lsl.w	r0, r3, r0
    9872:	9b04      	ldr	r3, [sp, #16]
    9874:	4303      	orrs	r3, r0
    9876:	9304      	str	r3, [sp, #16]
    9878:	3701      	adds	r7, #1
    987a:	7839      	ldrb	r1, [r7, #0]
    987c:	4825      	ldr	r0, [pc, #148]	; (9914 <_svfiprintf_r+0x1dc>)
    987e:	f88d 1028 	strb.w	r1, [sp, #40]	; 0x28
    9882:	2206      	movs	r2, #6
    9884:	1c7e      	adds	r6, r7, #1
    9886:	f000 f9e3 	bl	9c50 <memchr>
    988a:	2800      	cmp	r0, #0
    988c:	d035      	beq.n	98fa <_svfiprintf_r+0x1c2>
    988e:	4b22      	ldr	r3, [pc, #136]	; (9918 <_svfiprintf_r+0x1e0>)
    9890:	b9fb      	cbnz	r3, 98d2 <_svfiprintf_r+0x19a>
    9892:	9b03      	ldr	r3, [sp, #12]
    9894:	3307      	adds	r3, #7
    9896:	f023 0307 	bic.w	r3, r3, #7
    989a:	3308      	adds	r3, #8
    989c:	9303      	str	r3, [sp, #12]
    989e:	9b09      	ldr	r3, [sp, #36]	; 0x24
    98a0:	444b      	add	r3, r9
    98a2:	9309      	str	r3, [sp, #36]	; 0x24
    98a4:	e76c      	b.n	9780 <_svfiprintf_r+0x48>
    98a6:	fb00 3202 	mla	r2, r0, r2, r3
    98aa:	2101      	movs	r1, #1
    98ac:	e7a3      	b.n	97f6 <_svfiprintf_r+0xbe>
    98ae:	2300      	movs	r3, #0
    98b0:	9305      	str	r3, [sp, #20]
    98b2:	4618      	mov	r0, r3
    98b4:	240a      	movs	r4, #10
    98b6:	460f      	mov	r7, r1
    98b8:	3101      	adds	r1, #1
    98ba:	783a      	ldrb	r2, [r7, #0]
    98bc:	3a30      	subs	r2, #48	; 0x30
    98be:	2a09      	cmp	r2, #9
    98c0:	d903      	bls.n	98ca <_svfiprintf_r+0x192>
    98c2:	2b00      	cmp	r3, #0
    98c4:	d0ca      	beq.n	985c <_svfiprintf_r+0x124>
    98c6:	9005      	str	r0, [sp, #20]
    98c8:	e7c8      	b.n	985c <_svfiprintf_r+0x124>
    98ca:	fb04 2000 	mla	r0, r4, r0, r2
    98ce:	2301      	movs	r3, #1
    98d0:	e7f1      	b.n	98b6 <_svfiprintf_r+0x17e>
    98d2:	ab03      	add	r3, sp, #12
    98d4:	9300      	str	r3, [sp, #0]
    98d6:	462a      	mov	r2, r5
    98d8:	4b10      	ldr	r3, [pc, #64]	; (991c <_svfiprintf_r+0x1e4>)
    98da:	a904      	add	r1, sp, #16
    98dc:	4640      	mov	r0, r8
    98de:	f3af 8000 	nop.w
    98e2:	f1b0 3fff 	cmp.w	r0, #4294967295
    98e6:	4681      	mov	r9, r0
    98e8:	d1d9      	bne.n	989e <_svfiprintf_r+0x166>
    98ea:	89ab      	ldrh	r3, [r5, #12]
    98ec:	065b      	lsls	r3, r3, #25
    98ee:	f53f af38 	bmi.w	9762 <_svfiprintf_r+0x2a>
    98f2:	9809      	ldr	r0, [sp, #36]	; 0x24
    98f4:	b01d      	add	sp, #116	; 0x74
    98f6:	e8bd 8ff0 	ldmia.w	sp!, {r4, r5, r6, r7, r8, r9, sl, fp, pc}
    98fa:	ab03      	add	r3, sp, #12
    98fc:	9300      	str	r3, [sp, #0]
    98fe:	462a      	mov	r2, r5
    9900:	4b06      	ldr	r3, [pc, #24]	; (991c <_svfiprintf_r+0x1e4>)
    9902:	a904      	add	r1, sp, #16
    9904:	4640      	mov	r0, r8
    9906:	f000 f881 	bl	9a0c <_printf_i>
    990a:	e7ea      	b.n	98e2 <_svfiprintf_r+0x1aa>
    990c:	0000a0c0 	.word	0x0000a0c0
    9910:	0000a0c6 	.word	0x0000a0c6
    9914:	0000a0ca 	.word	0x0000a0ca
    9918:	00000000 	.word	0x00000000
    991c:	00009681 	.word	0x00009681

00009920 <_printf_common>:
    9920:	e92d 47f0 	stmdb	sp!, {r4, r5, r6, r7, r8, r9, sl, lr}
    9924:	4691      	mov	r9, r2
    9926:	461f      	mov	r7, r3
    9928:	688a      	ldr	r2, [r1, #8]
    992a:	690b      	ldr	r3, [r1, #16]
    992c:	f8dd 8020 	ldr.w	r8, [sp, #32]
    9930:	4293      	cmp	r3, r2
    9932:	bfb8      	it	lt
    9934:	4613      	movlt	r3, r2
    9936:	f8c9 3000 	str.w	r3, [r9]
    993a:	f891 2043 	ldrb.w	r2, [r1, #67]	; 0x43
    993e:	4606      	mov	r6, r0
    9940:	460c      	mov	r4, r1
    9942:	b112      	cbz	r2, 994a <_printf_common+0x2a>
    9944:	3301      	adds	r3, #1
    9946:	f8c9 3000 	str.w	r3, [r9]
    994a:	6823      	ldr	r3, [r4, #0]
    994c:	0699      	lsls	r1, r3, #26
    994e:	bf42      	ittt	mi
    9950:	f8d9 3000 	ldrmi.w	r3, [r9]
    9954:	3302      	addmi	r3, #2
    9956:	f8c9 3000 	strmi.w	r3, [r9]
    995a:	6825      	ldr	r5, [r4, #0]
    995c:	f015 0506 	ands.w	r5, r5, #6
    9960:	d107      	bne.n	9972 <_printf_common+0x52>
    9962:	f104 0a19 	add.w	sl, r4, #25
    9966:	68e3      	ldr	r3, [r4, #12]
    9968:	f8d9 2000 	ldr.w	r2, [r9]
    996c:	1a9b      	subs	r3, r3, r2
    996e:	429d      	cmp	r5, r3
    9970:	db29      	blt.n	99c6 <_printf_common+0xa6>
    9972:	f894 3043 	ldrb.w	r3, [r4, #67]	; 0x43
    9976:	6822      	ldr	r2, [r4, #0]
    9978:	3300      	adds	r3, #0
    997a:	bf18      	it	ne
    997c:	2301      	movne	r3, #1
    997e:	0692      	lsls	r2, r2, #26
    9980:	d42e      	bmi.n	99e0 <_printf_common+0xc0>
    9982:	f104 0243 	add.w	r2, r4, #67	; 0x43
    9986:	4639      	mov	r1, r7
    9988:	4630      	mov	r0, r6
    998a:	47c0      	blx	r8
    998c:	3001      	adds	r0, #1
    998e:	d021      	beq.n	99d4 <_printf_common+0xb4>
    9990:	6823      	ldr	r3, [r4, #0]
    9992:	68e5      	ldr	r5, [r4, #12]
    9994:	f8d9 2000 	ldr.w	r2, [r9]
    9998:	f003 0306 	and.w	r3, r3, #6
    999c:	2b04      	cmp	r3, #4
    999e:	bf08      	it	eq
    99a0:	1aad      	subeq	r5, r5, r2
    99a2:	68a3      	ldr	r3, [r4, #8]
    99a4:	6922      	ldr	r2, [r4, #16]
    99a6:	bf0c      	ite	eq
    99a8:	ea25 75e5 	biceq.w	r5, r5, r5, asr #31
    99ac:	2500      	movne	r5, #0
    99ae:	4293      	cmp	r3, r2
    99b0:	bfc4      	itt	gt
    99b2:	1a9b      	subgt	r3, r3, r2
    99b4:	18ed      	addgt	r5, r5, r3
    99b6:	f04f 0900 	mov.w	r9, #0
    99ba:	341a      	adds	r4, #26
    99bc:	454d      	cmp	r5, r9
    99be:	d11b      	bne.n	99f8 <_printf_common+0xd8>
    99c0:	2000      	movs	r0, #0
    99c2:	e8bd 87f0 	ldmia.w	sp!, {r4, r5, r6, r7, r8, r9, sl, pc}
    99c6:	2301      	movs	r3, #1
    99c8:	4652      	mov	r2, sl
    99ca:	4639      	mov	r1, r7
    99cc:	4630      	mov	r0, r6
    99ce:	47c0      	blx	r8
    99d0:	3001      	adds	r0, #1
    99d2:	d103      	bne.n	99dc <_printf_common+0xbc>
    99d4:	f04f 30ff 	mov.w	r0, #4294967295
    99d8:	e8bd 87f0 	ldmia.w	sp!, {r4, r5, r6, r7, r8, r9, sl, pc}
    99dc:	3501      	adds	r5, #1
    99de:	e7c2      	b.n	9966 <_printf_common+0x46>
    99e0:	18e1      	adds	r1, r4, r3
    99e2:	1c5a      	adds	r2, r3, #1
    99e4:	2030      	movs	r0, #48	; 0x30
    99e6:	f881 0043 	strb.w	r0, [r1, #67]	; 0x43
    99ea:	4422      	add	r2, r4
    99ec:	f894 1045 	ldrb.w	r1, [r4, #69]	; 0x45
    99f0:	f882 1043 	strb.w	r1, [r2, #67]	; 0x43
    99f4:	3302      	adds	r3, #2
    99f6:	e7c4      	b.n	9982 <_printf_common+0x62>
    99f8:	2301      	movs	r3, #1
    99fa:	4622      	mov	r2, r4
    99fc:	4639      	mov	r1, r7
    99fe:	4630      	mov	r0, r6
    9a00:	47c0      	blx	r8
    9a02:	3001      	adds	r0, #1
    9a04:	d0e6      	beq.n	99d4 <_printf_common+0xb4>
    9a06:	f109 0901 	add.w	r9, r9, #1
    9a0a:	e7d7      	b.n	99bc <_printf_common+0x9c>

00009a0c <_printf_i>:
    9a0c:	e92d 43f0 	stmdb	sp!, {r4, r5, r6, r7, r8, r9, lr}
    9a10:	4617      	mov	r7, r2
    9a12:	7e0a      	ldrb	r2, [r1, #24]
    9a14:	b085      	sub	sp, #20
    9a16:	2a6e      	cmp	r2, #110	; 0x6e
    9a18:	4698      	mov	r8, r3
    9a1a:	4606      	mov	r6, r0
    9a1c:	460c      	mov	r4, r1
    9a1e:	9b0c      	ldr	r3, [sp, #48]	; 0x30
    9a20:	f101 0e43 	add.w	lr, r1, #67	; 0x43
    9a24:	f000 80bc 	beq.w	9ba0 <_printf_i+0x194>
    9a28:	d81a      	bhi.n	9a60 <_printf_i+0x54>
    9a2a:	2a63      	cmp	r2, #99	; 0x63
    9a2c:	d02e      	beq.n	9a8c <_printf_i+0x80>
    9a2e:	d80a      	bhi.n	9a46 <_printf_i+0x3a>
    9a30:	2a00      	cmp	r2, #0
    9a32:	f000 80c8 	beq.w	9bc6 <_printf_i+0x1ba>
    9a36:	2a58      	cmp	r2, #88	; 0x58
    9a38:	f000 808a 	beq.w	9b50 <_printf_i+0x144>
    9a3c:	f104 0542 	add.w	r5, r4, #66	; 0x42
    9a40:	f884 2042 	strb.w	r2, [r4, #66]	; 0x42
    9a44:	e02a      	b.n	9a9c <_printf_i+0x90>
    9a46:	2a64      	cmp	r2, #100	; 0x64
    9a48:	d001      	beq.n	9a4e <_printf_i+0x42>
    9a4a:	2a69      	cmp	r2, #105	; 0x69
    9a4c:	d1f6      	bne.n	9a3c <_printf_i+0x30>
    9a4e:	6821      	ldr	r1, [r4, #0]
    9a50:	681a      	ldr	r2, [r3, #0]
    9a52:	f011 0f80 	tst.w	r1, #128	; 0x80
    9a56:	d023      	beq.n	9aa0 <_printf_i+0x94>
    9a58:	1d11      	adds	r1, r2, #4
    9a5a:	6019      	str	r1, [r3, #0]
    9a5c:	6813      	ldr	r3, [r2, #0]
    9a5e:	e027      	b.n	9ab0 <_printf_i+0xa4>
    9a60:	2a73      	cmp	r2, #115	; 0x73
    9a62:	f000 80b4 	beq.w	9bce <_printf_i+0x1c2>
    9a66:	d808      	bhi.n	9a7a <_printf_i+0x6e>
    9a68:	2a6f      	cmp	r2, #111	; 0x6f
    9a6a:	d02a      	beq.n	9ac2 <_printf_i+0xb6>
    9a6c:	2a70      	cmp	r2, #112	; 0x70
    9a6e:	d1e5      	bne.n	9a3c <_printf_i+0x30>
    9a70:	680a      	ldr	r2, [r1, #0]
    9a72:	f042 0220 	orr.w	r2, r2, #32
    9a76:	600a      	str	r2, [r1, #0]
    9a78:	e003      	b.n	9a82 <_printf_i+0x76>
    9a7a:	2a75      	cmp	r2, #117	; 0x75
    9a7c:	d021      	beq.n	9ac2 <_printf_i+0xb6>
    9a7e:	2a78      	cmp	r2, #120	; 0x78
    9a80:	d1dc      	bne.n	9a3c <_printf_i+0x30>
    9a82:	2278      	movs	r2, #120	; 0x78
    9a84:	f884 2045 	strb.w	r2, [r4, #69]	; 0x45
    9a88:	496e      	ldr	r1, [pc, #440]	; (9c44 <_printf_i+0x238>)
    9a8a:	e064      	b.n	9b56 <_printf_i+0x14a>
    9a8c:	681a      	ldr	r2, [r3, #0]
    9a8e:	f101 0542 	add.w	r5, r1, #66	; 0x42
    9a92:	1d11      	adds	r1, r2, #4
    9a94:	6019      	str	r1, [r3, #0]
    9a96:	6813      	ldr	r3, [r2, #0]
    9a98:	f884 3042 	strb.w	r3, [r4, #66]	; 0x42
    9a9c:	2301      	movs	r3, #1
    9a9e:	e0a3      	b.n	9be8 <_printf_i+0x1dc>
    9aa0:	f011 0f40 	tst.w	r1, #64	; 0x40
    9aa4:	f102 0104 	add.w	r1, r2, #4
    9aa8:	6019      	str	r1, [r3, #0]
    9aaa:	d0d7      	beq.n	9a5c <_printf_i+0x50>
    9aac:	f9b2 3000 	ldrsh.w	r3, [r2]
    9ab0:	2b00      	cmp	r3, #0
    9ab2:	da03      	bge.n	9abc <_printf_i+0xb0>
    9ab4:	222d      	movs	r2, #45	; 0x2d
    9ab6:	425b      	negs	r3, r3
    9ab8:	f884 2043 	strb.w	r2, [r4, #67]	; 0x43
    9abc:	4962      	ldr	r1, [pc, #392]	; (9c48 <_printf_i+0x23c>)
    9abe:	220a      	movs	r2, #10
    9ac0:	e017      	b.n	9af2 <_printf_i+0xe6>
    9ac2:	6820      	ldr	r0, [r4, #0]
    9ac4:	6819      	ldr	r1, [r3, #0]
    9ac6:	f010 0f80 	tst.w	r0, #128	; 0x80
    9aca:	d003      	beq.n	9ad4 <_printf_i+0xc8>
    9acc:	1d08      	adds	r0, r1, #4
    9ace:	6018      	str	r0, [r3, #0]
    9ad0:	680b      	ldr	r3, [r1, #0]
    9ad2:	e006      	b.n	9ae2 <_printf_i+0xd6>
    9ad4:	f010 0f40 	tst.w	r0, #64	; 0x40
    9ad8:	f101 0004 	add.w	r0, r1, #4
    9adc:	6018      	str	r0, [r3, #0]
    9ade:	d0f7      	beq.n	9ad0 <_printf_i+0xc4>
    9ae0:	880b      	ldrh	r3, [r1, #0]
    9ae2:	4959      	ldr	r1, [pc, #356]	; (9c48 <_printf_i+0x23c>)
    9ae4:	2a6f      	cmp	r2, #111	; 0x6f
    9ae6:	bf14      	ite	ne
    9ae8:	220a      	movne	r2, #10
    9aea:	2208      	moveq	r2, #8
    9aec:	2000      	movs	r0, #0
    9aee:	f884 0043 	strb.w	r0, [r4, #67]	; 0x43
    9af2:	6865      	ldr	r5, [r4, #4]
    9af4:	60a5      	str	r5, [r4, #8]
    9af6:	2d00      	cmp	r5, #0
    9af8:	f2c0 809c 	blt.w	9c34 <_printf_i+0x228>
    9afc:	6820      	ldr	r0, [r4, #0]
    9afe:	f020 0004 	bic.w	r0, r0, #4
    9b02:	6020      	str	r0, [r4, #0]
    9b04:	2b00      	cmp	r3, #0
    9b06:	d13f      	bne.n	9b88 <_printf_i+0x17c>
    9b08:	2d00      	cmp	r5, #0
    9b0a:	f040 8095 	bne.w	9c38 <_printf_i+0x22c>
    9b0e:	4675      	mov	r5, lr
    9b10:	2a08      	cmp	r2, #8
    9b12:	d10b      	bne.n	9b2c <_printf_i+0x120>
    9b14:	6823      	ldr	r3, [r4, #0]
    9b16:	07da      	lsls	r2, r3, #31
    9b18:	d508      	bpl.n	9b2c <_printf_i+0x120>
    9b1a:	6923      	ldr	r3, [r4, #16]
    9b1c:	6862      	ldr	r2, [r4, #4]
    9b1e:	429a      	cmp	r2, r3
    9b20:	bfde      	ittt	le
    9b22:	2330      	movle	r3, #48	; 0x30
    9b24:	f805 3c01 	strble.w	r3, [r5, #-1]
    9b28:	f105 35ff 	addle.w	r5, r5, #4294967295
    9b2c:	ebae 0305 	sub.w	r3, lr, r5
    9b30:	6123      	str	r3, [r4, #16]
    9b32:	f8cd 8000 	str.w	r8, [sp]
    9b36:	463b      	mov	r3, r7
    9b38:	aa03      	add	r2, sp, #12
    9b3a:	4621      	mov	r1, r4
    9b3c:	4630      	mov	r0, r6
    9b3e:	f7ff feef 	bl	9920 <_printf_common>
    9b42:	3001      	adds	r0, #1
    9b44:	d155      	bne.n	9bf2 <_printf_i+0x1e6>
    9b46:	f04f 30ff 	mov.w	r0, #4294967295
    9b4a:	b005      	add	sp, #20
    9b4c:	e8bd 83f0 	ldmia.w	sp!, {r4, r5, r6, r7, r8, r9, pc}
    9b50:	f881 2045 	strb.w	r2, [r1, #69]	; 0x45
    9b54:	493c      	ldr	r1, [pc, #240]	; (9c48 <_printf_i+0x23c>)
    9b56:	6822      	ldr	r2, [r4, #0]
    9b58:	6818      	ldr	r0, [r3, #0]
    9b5a:	f012 0f80 	tst.w	r2, #128	; 0x80
    9b5e:	f100 0504 	add.w	r5, r0, #4
    9b62:	601d      	str	r5, [r3, #0]
    9b64:	d001      	beq.n	9b6a <_printf_i+0x15e>
    9b66:	6803      	ldr	r3, [r0, #0]
    9b68:	e002      	b.n	9b70 <_printf_i+0x164>
    9b6a:	0655      	lsls	r5, r2, #25
    9b6c:	d5fb      	bpl.n	9b66 <_printf_i+0x15a>
    9b6e:	8803      	ldrh	r3, [r0, #0]
    9b70:	07d0      	lsls	r0, r2, #31
    9b72:	bf44      	itt	mi
    9b74:	f042 0220 	orrmi.w	r2, r2, #32
    9b78:	6022      	strmi	r2, [r4, #0]
    9b7a:	b91b      	cbnz	r3, 9b84 <_printf_i+0x178>
    9b7c:	6822      	ldr	r2, [r4, #0]
    9b7e:	f022 0220 	bic.w	r2, r2, #32
    9b82:	6022      	str	r2, [r4, #0]
    9b84:	2210      	movs	r2, #16
    9b86:	e7b1      	b.n	9aec <_printf_i+0xe0>
    9b88:	4675      	mov	r5, lr
    9b8a:	fbb3 f0f2 	udiv	r0, r3, r2
    9b8e:	fb02 3310 	mls	r3, r2, r0, r3
    9b92:	5ccb      	ldrb	r3, [r1, r3]
    9b94:	f805 3d01 	strb.w	r3, [r5, #-1]!
    9b98:	4603      	mov	r3, r0
    9b9a:	2800      	cmp	r0, #0
    9b9c:	d1f5      	bne.n	9b8a <_printf_i+0x17e>
    9b9e:	e7b7      	b.n	9b10 <_printf_i+0x104>
    9ba0:	6808      	ldr	r0, [r1, #0]
    9ba2:	681a      	ldr	r2, [r3, #0]
    9ba4:	6949      	ldr	r1, [r1, #20]
    9ba6:	f010 0f80 	tst.w	r0, #128	; 0x80
    9baa:	d004      	beq.n	9bb6 <_printf_i+0x1aa>
    9bac:	1d10      	adds	r0, r2, #4
    9bae:	6018      	str	r0, [r3, #0]
    9bb0:	6813      	ldr	r3, [r2, #0]
    9bb2:	6019      	str	r1, [r3, #0]
    9bb4:	e007      	b.n	9bc6 <_printf_i+0x1ba>
    9bb6:	f010 0f40 	tst.w	r0, #64	; 0x40
    9bba:	f102 0004 	add.w	r0, r2, #4
    9bbe:	6018      	str	r0, [r3, #0]
    9bc0:	6813      	ldr	r3, [r2, #0]
    9bc2:	d0f6      	beq.n	9bb2 <_printf_i+0x1a6>
    9bc4:	8019      	strh	r1, [r3, #0]
    9bc6:	2300      	movs	r3, #0
    9bc8:	6123      	str	r3, [r4, #16]
    9bca:	4675      	mov	r5, lr
    9bcc:	e7b1      	b.n	9b32 <_printf_i+0x126>
    9bce:	681a      	ldr	r2, [r3, #0]
    9bd0:	1d11      	adds	r1, r2, #4
    9bd2:	6019      	str	r1, [r3, #0]
    9bd4:	6815      	ldr	r5, [r2, #0]
    9bd6:	6862      	ldr	r2, [r4, #4]
    9bd8:	2100      	movs	r1, #0
    9bda:	4628      	mov	r0, r5
    9bdc:	f000 f838 	bl	9c50 <memchr>
    9be0:	b108      	cbz	r0, 9be6 <_printf_i+0x1da>
    9be2:	1b40      	subs	r0, r0, r5
    9be4:	6060      	str	r0, [r4, #4]
    9be6:	6863      	ldr	r3, [r4, #4]
    9be8:	6123      	str	r3, [r4, #16]
    9bea:	2300      	movs	r3, #0
    9bec:	f884 3043 	strb.w	r3, [r4, #67]	; 0x43
    9bf0:	e79f      	b.n	9b32 <_printf_i+0x126>
    9bf2:	6923      	ldr	r3, [r4, #16]
    9bf4:	462a      	mov	r2, r5
    9bf6:	4639      	mov	r1, r7
    9bf8:	4630      	mov	r0, r6
    9bfa:	47c0      	blx	r8
    9bfc:	3001      	adds	r0, #1
    9bfe:	d0a2      	beq.n	9b46 <_printf_i+0x13a>
    9c00:	6823      	ldr	r3, [r4, #0]
    9c02:	079b      	lsls	r3, r3, #30
    9c04:	d507      	bpl.n	9c16 <_printf_i+0x20a>
    9c06:	2500      	movs	r5, #0
    9c08:	f104 0919 	add.w	r9, r4, #25
    9c0c:	68e3      	ldr	r3, [r4, #12]
    9c0e:	9a03      	ldr	r2, [sp, #12]
    9c10:	1a9b      	subs	r3, r3, r2
    9c12:	429d      	cmp	r5, r3
    9c14:	db05      	blt.n	9c22 <_printf_i+0x216>
    9c16:	68e0      	ldr	r0, [r4, #12]
    9c18:	9b03      	ldr	r3, [sp, #12]
    9c1a:	4298      	cmp	r0, r3
    9c1c:	bfb8      	it	lt
    9c1e:	4618      	movlt	r0, r3
    9c20:	e793      	b.n	9b4a <_printf_i+0x13e>
    9c22:	2301      	movs	r3, #1
    9c24:	464a      	mov	r2, r9
    9c26:	4639      	mov	r1, r7
    9c28:	4630      	mov	r0, r6
    9c2a:	47c0      	blx	r8
    9c2c:	3001      	adds	r0, #1
    9c2e:	d08a      	beq.n	9b46 <_printf_i+0x13a>
    9c30:	3501      	adds	r5, #1
    9c32:	e7eb      	b.n	9c0c <_printf_i+0x200>
    9c34:	2b00      	cmp	r3, #0
    9c36:	d1a7      	bne.n	9b88 <_printf_i+0x17c>
    9c38:	780b      	ldrb	r3, [r1, #0]
    9c3a:	f884 3042 	strb.w	r3, [r4, #66]	; 0x42
    9c3e:	f104 0542 	add.w	r5, r4, #66	; 0x42
    9c42:	e765      	b.n	9b10 <_printf_i+0x104>
    9c44:	0000a0e2 	.word	0x0000a0e2
    9c48:	0000a0d1 	.word	0x0000a0d1
    9c4c:	00000000 	.word	0x00000000

00009c50 <memchr>:
    9c50:	f001 01ff 	and.w	r1, r1, #255	; 0xff
    9c54:	2a10      	cmp	r2, #16
    9c56:	db2b      	blt.n	9cb0 <memchr+0x60>
    9c58:	f010 0f07 	tst.w	r0, #7
    9c5c:	d008      	beq.n	9c70 <memchr+0x20>
    9c5e:	f810 3b01 	ldrb.w	r3, [r0], #1
    9c62:	3a01      	subs	r2, #1
    9c64:	428b      	cmp	r3, r1
    9c66:	d02d      	beq.n	9cc4 <memchr+0x74>
    9c68:	f010 0f07 	tst.w	r0, #7
    9c6c:	b342      	cbz	r2, 9cc0 <memchr+0x70>
    9c6e:	d1f6      	bne.n	9c5e <memchr+0xe>
    9c70:	b4f0      	push	{r4, r5, r6, r7}
    9c72:	ea41 2101 	orr.w	r1, r1, r1, lsl #8
    9c76:	ea41 4101 	orr.w	r1, r1, r1, lsl #16
    9c7a:	f022 0407 	bic.w	r4, r2, #7
    9c7e:	f07f 0700 	mvns.w	r7, #0
    9c82:	2300      	movs	r3, #0
    9c84:	e8f0 5602 	ldrd	r5, r6, [r0], #8
    9c88:	3c08      	subs	r4, #8
    9c8a:	ea85 0501 	eor.w	r5, r5, r1
    9c8e:	ea86 0601 	eor.w	r6, r6, r1
    9c92:	fa85 f547 	uadd8	r5, r5, r7
    9c96:	faa3 f587 	sel	r5, r3, r7
    9c9a:	fa86 f647 	uadd8	r6, r6, r7
    9c9e:	faa5 f687 	sel	r6, r5, r7
    9ca2:	b98e      	cbnz	r6, 9cc8 <memchr+0x78>
    9ca4:	d1ee      	bne.n	9c84 <memchr+0x34>
    9ca6:	bcf0      	pop	{r4, r5, r6, r7}
    9ca8:	f001 01ff 	and.w	r1, r1, #255	; 0xff
    9cac:	f002 0207 	and.w	r2, r2, #7
    9cb0:	b132      	cbz	r2, 9cc0 <memchr+0x70>
    9cb2:	f810 3b01 	ldrb.w	r3, [r0], #1
    9cb6:	3a01      	subs	r2, #1
    9cb8:	ea83 0301 	eor.w	r3, r3, r1
    9cbc:	b113      	cbz	r3, 9cc4 <memchr+0x74>
    9cbe:	d1f8      	bne.n	9cb2 <memchr+0x62>
    9cc0:	2000      	movs	r0, #0
    9cc2:	4770      	bx	lr
    9cc4:	3801      	subs	r0, #1
    9cc6:	4770      	bx	lr
    9cc8:	2d00      	cmp	r5, #0
    9cca:	bf06      	itte	eq
    9ccc:	4635      	moveq	r5, r6
    9cce:	3803      	subeq	r0, #3
    9cd0:	3807      	subne	r0, #7
    9cd2:	f015 0f01 	tst.w	r5, #1
    9cd6:	d107      	bne.n	9ce8 <memchr+0x98>
    9cd8:	3001      	adds	r0, #1
    9cda:	f415 7f80 	tst.w	r5, #256	; 0x100
    9cde:	bf02      	ittt	eq
    9ce0:	3001      	addeq	r0, #1
    9ce2:	f415 3fc0 	tsteq.w	r5, #98304	; 0x18000
    9ce6:	3001      	addeq	r0, #1
    9ce8:	bcf0      	pop	{r4, r5, r6, r7}
    9cea:	3801      	subs	r0, #1
    9cec:	4770      	bx	lr
    9cee:	bf00      	nop

00009cf0 <memmove>:
    9cf0:	4288      	cmp	r0, r1
    9cf2:	b510      	push	{r4, lr}
    9cf4:	eb01 0302 	add.w	r3, r1, r2
    9cf8:	d803      	bhi.n	9d02 <memmove+0x12>
    9cfa:	1e42      	subs	r2, r0, #1
    9cfc:	4299      	cmp	r1, r3
    9cfe:	d10c      	bne.n	9d1a <memmove+0x2a>
    9d00:	bd10      	pop	{r4, pc}
    9d02:	4298      	cmp	r0, r3
    9d04:	d2f9      	bcs.n	9cfa <memmove+0xa>
    9d06:	1881      	adds	r1, r0, r2
    9d08:	1ad2      	subs	r2, r2, r3
    9d0a:	42d3      	cmn	r3, r2
    9d0c:	d100      	bne.n	9d10 <memmove+0x20>
    9d0e:	bd10      	pop	{r4, pc}
    9d10:	f813 4d01 	ldrb.w	r4, [r3, #-1]!
    9d14:	f801 4d01 	strb.w	r4, [r1, #-1]!
    9d18:	e7f7      	b.n	9d0a <memmove+0x1a>
    9d1a:	f811 4b01 	ldrb.w	r4, [r1], #1
    9d1e:	f802 4f01 	strb.w	r4, [r2, #1]!
    9d22:	e7eb      	b.n	9cfc <memmove+0xc>

00009d24 <_realloc_r>:
    9d24:	b5f8      	push	{r3, r4, r5, r6, r7, lr}
    9d26:	4607      	mov	r7, r0
    9d28:	4614      	mov	r4, r2
    9d2a:	460e      	mov	r6, r1
    9d2c:	b921      	cbnz	r1, 9d38 <_realloc_r+0x14>
    9d2e:	4611      	mov	r1, r2
    9d30:	e8bd 40f8 	ldmia.w	sp!, {r3, r4, r5, r6, r7, lr}
    9d34:	f7ff bc08 	b.w	9548 <_malloc_r>
    9d38:	b922      	cbnz	r2, 9d44 <_realloc_r+0x20>
    9d3a:	f7ff fbb7 	bl	94ac <_free_r>
    9d3e:	4625      	mov	r5, r4
    9d40:	4628      	mov	r0, r5
    9d42:	bdf8      	pop	{r3, r4, r5, r6, r7, pc}
    9d44:	f000 f814 	bl	9d70 <_malloc_usable_size_r>
    9d48:	4284      	cmp	r4, r0
    9d4a:	d90f      	bls.n	9d6c <_realloc_r+0x48>
    9d4c:	4621      	mov	r1, r4
    9d4e:	4638      	mov	r0, r7
    9d50:	f7ff fbfa 	bl	9548 <_malloc_r>
    9d54:	4605      	mov	r5, r0
    9d56:	2800      	cmp	r0, #0
    9d58:	d0f2      	beq.n	9d40 <_realloc_r+0x1c>
    9d5a:	4631      	mov	r1, r6
    9d5c:	4622      	mov	r2, r4
    9d5e:	f7ff fb91 	bl	9484 <memcpy>
    9d62:	4631      	mov	r1, r6
    9d64:	4638      	mov	r0, r7
    9d66:	f7ff fba1 	bl	94ac <_free_r>
    9d6a:	e7e9      	b.n	9d40 <_realloc_r+0x1c>
    9d6c:	4635      	mov	r5, r6
    9d6e:	e7e7      	b.n	9d40 <_realloc_r+0x1c>

00009d70 <_malloc_usable_size_r>:
    9d70:	f851 0c04 	ldr.w	r0, [r1, #-4]
    9d74:	2800      	cmp	r0, #0
    9d76:	f1a0 0004 	sub.w	r0, r0, #4
    9d7a:	bfbc      	itt	lt
    9d7c:	580b      	ldrlt	r3, [r1, r0]
    9d7e:	18c0      	addlt	r0, r0, r3
    9d80:	4770      	bx	lr

00009d82 <_adcs>:
    9d82:	0000 0100 000c 0003 1807 0004 0000 0000     ................
    9d92:	080b 0014 0000 0001 0100 000c 0003 1804     ................
    9da2:	0004 0000 0000 080b 0014 0000 0000          ..............

00009db0 <_cfgs>:
    9db0:	1300 0020 0000 1400 0000 0000 0000 0000     .. .............
	...
    9eb0:	3000 4000 3400 4000 2000 4101 4000 4101     .0.@.4.@. .A.@.A
    9ec0:	0000 4300 0400 4300 0800 4300 0c00 4300     ...C...C...C...C

00009ed0 <sercomspi_regs>:
    9ed0:	000c 0020 0000 0000 0000 0000 0006 01ff     .. .............
    9ee0:	0007 0000                                   ....

00009ee4 <_i2cms>:
    9ee4:	0005 0000 0014 0020 0100 0000 e6e5 0000     ...... .........
    9ef4:	0000 00d7 6c00 02dc                         .....l..

00009efc <_usarts>:
    9efc:	0000 0000 0004 4010 0000 0003 0002 0070     .......@......p.
    9f0c:	aaaa 0000 0000 0000 0001 0000 0004 4010     ...............@
    9f1c:	0000 0003 0002 0070 aaaa 0000 0000 0000     ......p.........
    9f2c:	0002 0000 0004 4010 0000 0003 0002 0070     .......@......p.
    9f3c:	f62b 0000 0000 0000 0004 0000 0004 4010     +..............@
    9f4c:	0000 0003 0002 0070 aaaa 0000 0000 0000     ......p.........
    9f5c:	0006 0000 0004 4010 0000 0003 0002 0070     .......@......p.
    9f6c:	aaaa 0000 0000 0000                         ........

00009f74 <_usb_ep_cfgs>:
    9f74:	0ad0 2000 0000 0000 0040 0000 0a90 2000     ... ....@...... 
    9f84:	0000 0000 0040 0000 0a50 2000 0000 0000     ....@...P.. ....
    9f94:	0040 0000                                   @...

00009f98 <grid_module_mux_lookup>:
    9f98:	0100 0504 0908 0d0c 0302 0706 0b0a 0f0e     ................
    9fa8:	4f4c 504f 4954 4b43 2520 0a78 4552 4c41     LOOPTICK %x.REAL
    9fb8:	4954 454d 2520 0a78 4154 4b53 2030 7825     TIME %x.TASK0 %x
    9fc8:	540a 5341 314b 2520 0a78 4154 4b53 2032     .TASK1 %x.TASK2 
    9fd8:	7825 540a 5341 334b 2520 0a78 4154 4b53     %x.TASK3 %x.TASK
    9fe8:	2034 7825 520a 4358 2045 7825 520a 4358     4 %x.RXCE %x.RXC
    9ff8:	2057 7825 540a 4358 2045 7825 540a 4358     W %x.TXCE %x.TXC
    a008:	2057 7825 000a 0000                              W %x...

0000a00f <grid_module_din_buffer_size>:
	...

0000a010 <grid_module_ain_buffer_size>:
    a010:	1010                                             .

0000a011 <grid_module_led_buffer_size>:
    a011:	4810 4357 4746 2520 0a78 4800 4357 4746     .HWCFG %x..HWCFG
    a021:	203a 3025 7838 550a 494e 5551 3a45 2520     : %08x.UNIQUE: %
    a031:	3830 2078 3025 7838 2520 3830 2078 3025     08x %08x %08x %0
    a041:	7838 2020 2020 0a20 4800 5845 4554 5453     8x     ..HEXTEST
    a051:	2520 0a78 4100 4e49 6425 2520 0a78 0000           %x..AIN%d %x..

0000a060 <__sf_fake_stderr>:
	...

0000a080 <__sf_fake_stdin>:
	...

0000a0a0 <__sf_fake_stdout>:
	...
    a0c0:	2d23 2b30 0020 6c68 004c 6665 4567 4746     #-0+ .hlL.efgEFG
    a0d0:	3000 3231 3433 3635 3837 4139 4342 4544     .0123456789ABCDE
    a0e0:	0046 3130 3332 3534 3736 3938 6261 6463     F.0123456789abcd
    a0f0:	6665 0000                                   ef..

0000a0f4 <_init>:
    a0f4:	b5f8      	push	{r3, r4, r5, r6, r7, lr}
    a0f6:	bf00      	nop
    a0f8:	bcf8      	pop	{r3, r4, r5, r6, r7}
    a0fa:	bc08      	pop	{r3}
    a0fc:	469e      	mov	lr, r3
    a0fe:	4770      	bx	lr

0000a100 <__init_array_start>:
    a100:	00004289 	.word	0x00004289

0000a104 <_fini>:
    a104:	b5f8      	push	{r3, r4, r5, r6, r7, lr}
    a106:	bf00      	nop
    a108:	bcf8      	pop	{r3, r4, r5, r6, r7}
    a10a:	bc08      	pop	{r3}
    a10c:	469e      	mov	lr, r3
    a10e:	4770      	bx	lr

0000a110 <__fini_array_start>:
    a110:	00004265 	.word	0x00004265
