Archive member included to satisfy reference by file (symbol)

c:/program files (x86)/atmel/studio/7.0/toolchain/arm/arm-gnu-toolchain/bin/../lib/gcc/arm-none-eabi/6.3.1/thumb/v7e-m\libgcc.a(_arm_addsubdf3.o)
                              hpl/sercom/hpl_sercom.o (__aeabi_dsub)
c:/program files (x86)/atmel/studio/7.0/toolchain/arm/arm-gnu-toolchain/bin/../lib/gcc/arm-none-eabi/6.3.1/thumb/v7e-m\libgcc.a(_arm_muldivdf3.o)
                              grid/grid_hardwaretest.o (__aeabi_dmul)
c:/program files (x86)/atmel/studio/7.0/toolchain/arm/arm-gnu-toolchain/bin/../lib/gcc/arm-none-eabi/6.3.1/thumb/v7e-m\libgcc.a(_arm_fixunsdfsi.o)
                              grid/grid_hardwaretest.o (__aeabi_d2uiz)
c:/program files (x86)/atmel/studio/7.0/toolchain/arm/arm-gnu-toolchain/bin/../lib/gcc/arm-none-eabi/6.3.1/thumb/v7e-m\libgcc.a(_aeabi_uldivmod.o)
                              hpl/sercom/hpl_sercom.o (__aeabi_uldivmod)
c:/program files (x86)/atmel/studio/7.0/toolchain/arm/arm-gnu-toolchain/bin/../lib/gcc/arm-none-eabi/6.3.1/thumb/v7e-m\libgcc.a(_udivmoddi4.o)
                              c:/program files (x86)/atmel/studio/7.0/toolchain/arm/arm-gnu-toolchain/bin/../lib/gcc/arm-none-eabi/6.3.1/thumb/v7e-m\libgcc.a(_aeabi_uldivmod.o) (__udivmoddi4)
c:/program files (x86)/atmel/studio/7.0/toolchain/arm/arm-gnu-toolchain/bin/../lib/gcc/arm-none-eabi/6.3.1/thumb/v7e-m\libgcc.a(_dvmd_tls.o)
                              c:/program files (x86)/atmel/studio/7.0/toolchain/arm/arm-gnu-toolchain/bin/../lib/gcc/arm-none-eabi/6.3.1/thumb/v7e-m\libgcc.a(_aeabi_uldivmod.o) (__aeabi_ldiv0)
c:/program files (x86)/atmel/studio/7.0/toolchain/arm/arm-gnu-toolchain/bin/../lib/gcc/arm-none-eabi/6.3.1/../../../../arm-none-eabi/lib/thumb/v7e-m\libc_nano.a(lib_a-exit.o)
                              c:/program files (x86)/atmel/studio/7.0/toolchain/arm/arm-gnu-toolchain/bin/../lib/gcc/arm-none-eabi/6.3.1/../../../../arm-none-eabi/lib/thumb/v7e-m/crt0.o (exit)
c:/program files (x86)/atmel/studio/7.0/toolchain/arm/arm-gnu-toolchain/bin/../lib/gcc/arm-none-eabi/6.3.1/../../../../arm-none-eabi/lib/thumb/v7e-m\libc_nano.a(lib_a-impure.o)
                              c:/program files (x86)/atmel/studio/7.0/toolchain/arm/arm-gnu-toolchain/bin/../lib/gcc/arm-none-eabi/6.3.1/../../../../arm-none-eabi/lib/thumb/v7e-m\libc_nano.a(lib_a-exit.o) (_global_impure_ptr)
c:/program files (x86)/atmel/studio/7.0/toolchain/arm/arm-gnu-toolchain/bin/../lib/gcc/arm-none-eabi/6.3.1/../../../../arm-none-eabi/lib/thumb/v7e-m\libc_nano.a(lib_a-init.o)
                              c:/program files (x86)/atmel/studio/7.0/toolchain/arm/arm-gnu-toolchain/bin/../lib/gcc/arm-none-eabi/6.3.1/../../../../arm-none-eabi/lib/thumb/v7e-m/crt0.o (__libc_init_array)
c:/program files (x86)/atmel/studio/7.0/toolchain/arm/arm-gnu-toolchain/bin/../lib/gcc/arm-none-eabi/6.3.1/../../../../arm-none-eabi/lib/thumb/v7e-m\libc_nano.a(lib_a-malloc.o)
                              grid/grid_ain.o (malloc)
c:/program files (x86)/atmel/studio/7.0/toolchain/arm/arm-gnu-toolchain/bin/../lib/gcc/arm-none-eabi/6.3.1/../../../../arm-none-eabi/lib/thumb/v7e-m\libc_nano.a(lib_a-memcpy-stub.o)
                              hpl/nvmctrl/hpl_nvmctrl.o (memcpy)
c:/program files (x86)/atmel/studio/7.0/toolchain/arm/arm-gnu-toolchain/bin/../lib/gcc/arm-none-eabi/6.3.1/../../../../arm-none-eabi/lib/thumb/v7e-m\libc_nano.a(lib_a-memset.o)
                              c:/program files (x86)/atmel/studio/7.0/toolchain/arm/arm-gnu-toolchain/bin/../lib/gcc/arm-none-eabi/6.3.1/../../../../arm-none-eabi/lib/thumb/v7e-m/crt0.o (memset)
c:/program files (x86)/atmel/studio/7.0/toolchain/arm/arm-gnu-toolchain/bin/../lib/gcc/arm-none-eabi/6.3.1/../../../../arm-none-eabi/lib/thumb/v7e-m\libc_nano.a(lib_a-nano-freer.o)
                              c:/program files (x86)/atmel/studio/7.0/toolchain/arm/arm-gnu-toolchain/bin/../lib/gcc/arm-none-eabi/6.3.1/../../../../arm-none-eabi/lib/thumb/v7e-m\libc_nano.a(lib_a-malloc.o) (_free_r)
c:/program files (x86)/atmel/studio/7.0/toolchain/arm/arm-gnu-toolchain/bin/../lib/gcc/arm-none-eabi/6.3.1/../../../../arm-none-eabi/lib/thumb/v7e-m\libc_nano.a(lib_a-nano-mallocr.o)
                              c:/program files (x86)/atmel/studio/7.0/toolchain/arm/arm-gnu-toolchain/bin/../lib/gcc/arm-none-eabi/6.3.1/../../../../arm-none-eabi/lib/thumb/v7e-m\libc_nano.a(lib_a-malloc.o) (_malloc_r)
c:/program files (x86)/atmel/studio/7.0/toolchain/arm/arm-gnu-toolchain/bin/../lib/gcc/arm-none-eabi/6.3.1/../../../../arm-none-eabi/lib/thumb/v7e-m\libc_nano.a(lib_a-printf.o)
                              grid/grid_d51.o (printf)
c:/program files (x86)/atmel/studio/7.0/toolchain/arm/arm-gnu-toolchain/bin/../lib/gcc/arm-none-eabi/6.3.1/../../../../arm-none-eabi/lib/thumb/v7e-m\libc_nano.a(lib_a-puts.o)
                              grid/grid_unittest.o (puts)
c:/program files (x86)/atmel/studio/7.0/toolchain/arm/arm-gnu-toolchain/bin/../lib/gcc/arm-none-eabi/6.3.1/../../../../arm-none-eabi/lib/thumb/v7e-m\libc_nano.a(lib_a-rand.o)
                              grid/grid_hardwaretest.o (rand)
c:/program files (x86)/atmel/studio/7.0/toolchain/arm/arm-gnu-toolchain/bin/../lib/gcc/arm-none-eabi/6.3.1/../../../../arm-none-eabi/lib/thumb/v7e-m\libc_nano.a(lib_a-sbrkr.o)
                              c:/program files (x86)/atmel/studio/7.0/toolchain/arm/arm-gnu-toolchain/bin/../lib/gcc/arm-none-eabi/6.3.1/../../../../arm-none-eabi/lib/thumb/v7e-m\libc_nano.a(lib_a-nano-mallocr.o) (_sbrk_r)
c:/program files (x86)/atmel/studio/7.0/toolchain/arm/arm-gnu-toolchain/bin/../lib/gcc/arm-none-eabi/6.3.1/../../../../arm-none-eabi/lib/thumb/v7e-m\libc_nano.a(lib_a-setbuf.o)
                              stdio_redirect/stdio_io.o (setbuf)
c:/program files (x86)/atmel/studio/7.0/toolchain/arm/arm-gnu-toolchain/bin/../lib/gcc/arm-none-eabi/6.3.1/../../../../arm-none-eabi/lib/thumb/v7e-m\libc_nano.a(lib_a-setvbuf.o)
                              c:/program files (x86)/atmel/studio/7.0/toolchain/arm/arm-gnu-toolchain/bin/../lib/gcc/arm-none-eabi/6.3.1/../../../../arm-none-eabi/lib/thumb/v7e-m\libc_nano.a(lib_a-setbuf.o) (setvbuf)
c:/program files (x86)/atmel/studio/7.0/toolchain/arm/arm-gnu-toolchain/bin/../lib/gcc/arm-none-eabi/6.3.1/../../../../arm-none-eabi/lib/thumb/v7e-m\libc_nano.a(lib_a-sprintf.o)
                              grid/grid_msg.o (sprintf)
c:/program files (x86)/atmel/studio/7.0/toolchain/arm/arm-gnu-toolchain/bin/../lib/gcc/arm-none-eabi/6.3.1/../../../../arm-none-eabi/lib/thumb/v7e-m\libc_nano.a(lib_a-strcpy.o)
                              grid/grid_module.o (strcpy)
c:/program files (x86)/atmel/studio/7.0/toolchain/arm/arm-gnu-toolchain/bin/../lib/gcc/arm-none-eabi/6.3.1/../../../../arm-none-eabi/lib/thumb/v7e-m\libc_nano.a(lib_a-strlen.o)
                              grid/grid_msg.o (strlen)
c:/program files (x86)/atmel/studio/7.0/toolchain/arm/arm-gnu-toolchain/bin/../lib/gcc/arm-none-eabi/6.3.1/../../../../arm-none-eabi/lib/thumb/v7e-m\libc_nano.a(lib_a-wbuf.o)
                              c:/program files (x86)/atmel/studio/7.0/toolchain/arm/arm-gnu-toolchain/bin/../lib/gcc/arm-none-eabi/6.3.1/../../../../arm-none-eabi/lib/thumb/v7e-m\libc_nano.a(lib_a-puts.o) (__swbuf_r)
c:/program files (x86)/atmel/studio/7.0/toolchain/arm/arm-gnu-toolchain/bin/../lib/gcc/arm-none-eabi/6.3.1/../../../../arm-none-eabi/lib/thumb/v7e-m\libc_nano.a(lib_a-wsetup.o)
                              c:/program files (x86)/atmel/studio/7.0/toolchain/arm/arm-gnu-toolchain/bin/../lib/gcc/arm-none-eabi/6.3.1/../../../../arm-none-eabi/lib/thumb/v7e-m\libc_nano.a(lib_a-puts.o) (__swsetup_r)
c:/program files (x86)/atmel/studio/7.0/toolchain/arm/arm-gnu-toolchain/bin/../lib/gcc/arm-none-eabi/6.3.1/../../../../arm-none-eabi/lib/thumb/v7e-m\libc_nano.a(lib_a-fflush.o)
                              c:/program files (x86)/atmel/studio/7.0/toolchain/arm/arm-gnu-toolchain/bin/../lib/gcc/arm-none-eabi/6.3.1/../../../../arm-none-eabi/lib/thumb/v7e-m\libc_nano.a(lib_a-setvbuf.o) (_fflush_r)
c:/program files (x86)/atmel/studio/7.0/toolchain/arm/arm-gnu-toolchain/bin/../lib/gcc/arm-none-eabi/6.3.1/../../../../arm-none-eabi/lib/thumb/v7e-m\libc_nano.a(lib_a-findfp.o)
                              c:/program files (x86)/atmel/studio/7.0/toolchain/arm/arm-gnu-toolchain/bin/../lib/gcc/arm-none-eabi/6.3.1/../../../../arm-none-eabi/lib/thumb/v7e-m\libc_nano.a(lib_a-printf.o) (__sinit)
c:/program files (x86)/atmel/studio/7.0/toolchain/arm/arm-gnu-toolchain/bin/../lib/gcc/arm-none-eabi/6.3.1/../../../../arm-none-eabi/lib/thumb/v7e-m\libc_nano.a(lib_a-fwalk.o)
                              c:/program files (x86)/atmel/studio/7.0/toolchain/arm/arm-gnu-toolchain/bin/../lib/gcc/arm-none-eabi/6.3.1/../../../../arm-none-eabi/lib/thumb/v7e-m\libc_nano.a(lib_a-findfp.o) (_fwalk)
c:/program files (x86)/atmel/studio/7.0/toolchain/arm/arm-gnu-toolchain/bin/../lib/gcc/arm-none-eabi/6.3.1/../../../../arm-none-eabi/lib/thumb/v7e-m\libc_nano.a(lib_a-makebuf.o)
                              c:/program files (x86)/atmel/studio/7.0/toolchain/arm/arm-gnu-toolchain/bin/../lib/gcc/arm-none-eabi/6.3.1/../../../../arm-none-eabi/lib/thumb/v7e-m\libc_nano.a(lib_a-setvbuf.o) (__swhatbuf_r)
c:/program files (x86)/atmel/studio/7.0/toolchain/arm/arm-gnu-toolchain/bin/../lib/gcc/arm-none-eabi/6.3.1/../../../../arm-none-eabi/lib/thumb/v7e-m\libc_nano.a(lib_a-mlock.o)
                              c:/program files (x86)/atmel/studio/7.0/toolchain/arm/arm-gnu-toolchain/bin/../lib/gcc/arm-none-eabi/6.3.1/../../../../arm-none-eabi/lib/thumb/v7e-m\libc_nano.a(lib_a-nano-freer.o) (__malloc_lock)
c:/program files (x86)/atmel/studio/7.0/toolchain/arm/arm-gnu-toolchain/bin/../lib/gcc/arm-none-eabi/6.3.1/../../../../arm-none-eabi/lib/thumb/v7e-m\libc_nano.a(lib_a-nano-svfprintf.o)
                              c:/program files (x86)/atmel/studio/7.0/toolchain/arm/arm-gnu-toolchain/bin/../lib/gcc/arm-none-eabi/6.3.1/../../../../arm-none-eabi/lib/thumb/v7e-m\libc_nano.a(lib_a-sprintf.o) (_svfprintf_r)
c:/program files (x86)/atmel/studio/7.0/toolchain/arm/arm-gnu-toolchain/bin/../lib/gcc/arm-none-eabi/6.3.1/../../../../arm-none-eabi/lib/thumb/v7e-m\libc_nano.a(lib_a-nano-vfprintf.o)
                              c:/program files (x86)/atmel/studio/7.0/toolchain/arm/arm-gnu-toolchain/bin/../lib/gcc/arm-none-eabi/6.3.1/../../../../arm-none-eabi/lib/thumb/v7e-m\libc_nano.a(lib_a-printf.o) (_vfprintf_r)
c:/program files (x86)/atmel/studio/7.0/toolchain/arm/arm-gnu-toolchain/bin/../lib/gcc/arm-none-eabi/6.3.1/../../../../arm-none-eabi/lib/thumb/v7e-m\libc_nano.a(lib_a-nano-vfprintf_i.o)
                              c:/program files (x86)/atmel/studio/7.0/toolchain/arm/arm-gnu-toolchain/bin/../lib/gcc/arm-none-eabi/6.3.1/../../../../arm-none-eabi/lib/thumb/v7e-m\libc_nano.a(lib_a-nano-svfprintf.o) (_printf_i)
c:/program files (x86)/atmel/studio/7.0/toolchain/arm/arm-gnu-toolchain/bin/../lib/gcc/arm-none-eabi/6.3.1/../../../../arm-none-eabi/lib/thumb/v7e-m\libc_nano.a(lib_a-reent.o)
                              c:/program files (x86)/atmel/studio/7.0/toolchain/arm/arm-gnu-toolchain/bin/../lib/gcc/arm-none-eabi/6.3.1/../../../../arm-none-eabi/lib/thumb/v7e-m\libc_nano.a(lib_a-sbrkr.o) (errno)
c:/program files (x86)/atmel/studio/7.0/toolchain/arm/arm-gnu-toolchain/bin/../lib/gcc/arm-none-eabi/6.3.1/../../../../arm-none-eabi/lib/thumb/v7e-m\libc_nano.a(lib_a-stdio.o)
                              c:/program files (x86)/atmel/studio/7.0/toolchain/arm/arm-gnu-toolchain/bin/../lib/gcc/arm-none-eabi/6.3.1/../../../../arm-none-eabi/lib/thumb/v7e-m\libc_nano.a(lib_a-findfp.o) (__sread)
c:/program files (x86)/atmel/studio/7.0/toolchain/arm/arm-gnu-toolchain/bin/../lib/gcc/arm-none-eabi/6.3.1/../../../../arm-none-eabi/lib/thumb/v7e-m\libc_nano.a(lib_a-writer.o)
                              c:/program files (x86)/atmel/studio/7.0/toolchain/arm/arm-gnu-toolchain/bin/../lib/gcc/arm-none-eabi/6.3.1/../../../../arm-none-eabi/lib/thumb/v7e-m\libc_nano.a(lib_a-stdio.o) (_write_r)
c:/program files (x86)/atmel/studio/7.0/toolchain/arm/arm-gnu-toolchain/bin/../lib/gcc/arm-none-eabi/6.3.1/../../../../arm-none-eabi/lib/thumb/v7e-m\libc_nano.a(lib_a-closer.o)
                              c:/program files (x86)/atmel/studio/7.0/toolchain/arm/arm-gnu-toolchain/bin/../lib/gcc/arm-none-eabi/6.3.1/../../../../arm-none-eabi/lib/thumb/v7e-m\libc_nano.a(lib_a-stdio.o) (_close_r)
c:/program files (x86)/atmel/studio/7.0/toolchain/arm/arm-gnu-toolchain/bin/../lib/gcc/arm-none-eabi/6.3.1/../../../../arm-none-eabi/lib/thumb/v7e-m\libc_nano.a(lib_a-fstatr.o)
                              c:/program files (x86)/atmel/studio/7.0/toolchain/arm/arm-gnu-toolchain/bin/../lib/gcc/arm-none-eabi/6.3.1/../../../../arm-none-eabi/lib/thumb/v7e-m\libc_nano.a(lib_a-makebuf.o) (_fstat_r)
c:/program files (x86)/atmel/studio/7.0/toolchain/arm/arm-gnu-toolchain/bin/../lib/gcc/arm-none-eabi/6.3.1/../../../../arm-none-eabi/lib/thumb/v7e-m\libc_nano.a(lib_a-fvwrite.o)
                              c:/program files (x86)/atmel/studio/7.0/toolchain/arm/arm-gnu-toolchain/bin/../lib/gcc/arm-none-eabi/6.3.1/../../../../arm-none-eabi/lib/thumb/v7e-m\libc_nano.a(lib_a-nano-vfprintf.o) (__sfvwrite_r)
c:/program files (x86)/atmel/studio/7.0/toolchain/arm/arm-gnu-toolchain/bin/../lib/gcc/arm-none-eabi/6.3.1/../../../../arm-none-eabi/lib/thumb/v7e-m\libc_nano.a(lib_a-isattyr.o)
                              c:/program files (x86)/atmel/studio/7.0/toolchain/arm/arm-gnu-toolchain/bin/../lib/gcc/arm-none-eabi/6.3.1/../../../../arm-none-eabi/lib/thumb/v7e-m\libc_nano.a(lib_a-makebuf.o) (_isatty_r)
c:/program files (x86)/atmel/studio/7.0/toolchain/arm/arm-gnu-toolchain/bin/../lib/gcc/arm-none-eabi/6.3.1/../../../../arm-none-eabi/lib/thumb/v7e-m\libc_nano.a(lib_a-lseekr.o)
                              c:/program files (x86)/atmel/studio/7.0/toolchain/arm/arm-gnu-toolchain/bin/../lib/gcc/arm-none-eabi/6.3.1/../../../../arm-none-eabi/lib/thumb/v7e-m\libc_nano.a(lib_a-stdio.o) (_lseek_r)
c:/program files (x86)/atmel/studio/7.0/toolchain/arm/arm-gnu-toolchain/bin/../lib/gcc/arm-none-eabi/6.3.1/../../../../arm-none-eabi/lib/thumb/v7e-m\libc_nano.a(lib_a-memchr.o)
                              c:/program files (x86)/atmel/studio/7.0/toolchain/arm/arm-gnu-toolchain/bin/../lib/gcc/arm-none-eabi/6.3.1/../../../../arm-none-eabi/lib/thumb/v7e-m\libc_nano.a(lib_a-nano-svfprintf.o) (memchr)
c:/program files (x86)/atmel/studio/7.0/toolchain/arm/arm-gnu-toolchain/bin/../lib/gcc/arm-none-eabi/6.3.1/../../../../arm-none-eabi/lib/thumb/v7e-m\libc_nano.a(lib_a-memmove.o)
                              c:/program files (x86)/atmel/studio/7.0/toolchain/arm/arm-gnu-toolchain/bin/../lib/gcc/arm-none-eabi/6.3.1/../../../../arm-none-eabi/lib/thumb/v7e-m\libc_nano.a(lib_a-nano-svfprintf.o) (memmove)
c:/program files (x86)/atmel/studio/7.0/toolchain/arm/arm-gnu-toolchain/bin/../lib/gcc/arm-none-eabi/6.3.1/../../../../arm-none-eabi/lib/thumb/v7e-m\libc_nano.a(lib_a-nano-reallocr.o)
                              c:/program files (x86)/atmel/studio/7.0/toolchain/arm/arm-gnu-toolchain/bin/../lib/gcc/arm-none-eabi/6.3.1/../../../../arm-none-eabi/lib/thumb/v7e-m\libc_nano.a(lib_a-nano-svfprintf.o) (_realloc_r)
c:/program files (x86)/atmel/studio/7.0/toolchain/arm/arm-gnu-toolchain/bin/../lib/gcc/arm-none-eabi/6.3.1/../../../../arm-none-eabi/lib/thumb/v7e-m\libc_nano.a(lib_a-readr.o)
                              c:/program files (x86)/atmel/studio/7.0/toolchain/arm/arm-gnu-toolchain/bin/../lib/gcc/arm-none-eabi/6.3.1/../../../../arm-none-eabi/lib/thumb/v7e-m\libc_nano.a(lib_a-stdio.o) (_read_r)
c:/program files (x86)/atmel/studio/7.0/toolchain/arm/arm-gnu-toolchain/bin/../lib/gcc/arm-none-eabi/6.3.1/../../../../arm-none-eabi/lib/thumb/v7e-m\libc_nano.a(lib_a-nano-msizer.o)
                              c:/program files (x86)/atmel/studio/7.0/toolchain/arm/arm-gnu-toolchain/bin/../lib/gcc/arm-none-eabi/6.3.1/../../../../arm-none-eabi/lib/thumb/v7e-m\libc_nano.a(lib_a-nano-reallocr.o) (_malloc_usable_size_r)

Allocating common symbols
Common symbol       size              file

UI_SPI              0x48              driver_init.o
grid_led_hardware_transfer_done
                    0x1               grid/grid_d51.o
RTC_Scheduler       0x20              driver_init.o
GRID_PORT_N         0x101c            grid/grid_d51.o
TIMER_2             0x20              driver_init.o
grid_buffer_error_count
                    0x1               grid/grid_d51.o
UI_SPI_DEBUG        0x1               grid/grid_d51.o
_descriptor_section
                    0x200             hpl/dmac/hpl_dmac.o
grid_unittest_succes_counter
                    0x1               grid/grid_d51.o
grid_module_en16_reva_hardware_io
                    0x4               grid/grid_d51.o
errno               0x4               c:/program files (x86)/atmel/studio/7.0/toolchain/arm/arm-gnu-toolchain/bin/../lib/gcc/arm-none-eabi/6.3.1/../../../../arm-none-eabi/lib/thumb/v7e-m\libc_nano.a(lib_a-reent.o)
FLASH_0             0x1c              driver_init.o
ain_channel_buffer  0x4               grid/grid_d51.o
grid_module_pbf4_reva_hardware_transfer_complete
                    0x1               grid/grid_d51.o
GRID_PORT_U         0x101c            grid/grid_d51.o
grid_ui_state       0x8               grid/grid_d51.o
grid_sys_north_io   0x4               grid/grid_d51.o
grid_sys_state      0xac              grid/grid_d51.o
CRC_0               0x4               driver_init.o
ADC_1_ch            0x18              driver_init.o
SYS_I2C             0x40              driver_init.o
_write_back_section
                    0x200             hpl/dmac/hpl_dmac.o
grid_nvm_state      0x43c             grid/grid_d51.o
GRID_AUX            0xc               driver_init.o
grid_led_color_code
                    0x400             grid/grid_d51.o
ADC_0               0x2c              driver_init.o
USART_EAST          0x50              driver_init.o
WDT_0               0x4               driver_init.o
grid_task_state     0x24              grid/grid_d51.o
GRID_PORT_W         0x101c            grid/grid_d51.o
USART_NORTH         0x50              driver_init.o
GRID_LED            0x2c              driver_init.o
ADC_0_ch            0x18              driver_init.o
TIMER_1             0x20              driver_init.o
_irq_table          0x224             hpl/core/hpl_core_m4.o
grid_sys_east_io    0x4               grid/grid_d51.o
GRID_PORT_S         0x101c            grid/grid_d51.o
grid_sys_south_io   0x4               grid/grid_d51.o
USART_WEST          0x50              driver_init.o
GRID_PORT_H         0x101c            grid/grid_d51.o
grid_ui_encoder_array
                    0x100             grid/grid_d51.o
GRID_PORT_E         0x101c            grid/grid_d51.o
grid_unittest_failure_counter
                    0x1               grid/grid_d51.o
USART_SOUTH         0x50              driver_init.o
grid_core_state     0x8               grid/grid_d51.o
grid_module_pbf4_reva_mux
                    0x1               grid/grid_d51.o
ADC_1               0x2c              driver_init.o
grid_unittest_state
                    0x68              grid/grid_d51.o
TIMER_3             0x20              driver_init.o
grid_led_state      0x18              grid/grid_d51.o
device              0x10              hpl/ramecc/hpl_ramecc.o
grid_sys_west_io    0x4               grid/grid_d51.o
grid_module_en16_reva_hardware_transfer_complete
                    0x1               grid/grid_d51.o
TIMER_0             0x20              driver_init.o
usb_debug2          0xa               usb/class/midi/device/audiodf_midi.o
QSPI_INSTANCE       0x10              driver_init.o

Discarded input sections

 .text          0x00000000        0x0 c:/program files (x86)/atmel/studio/7.0/toolchain/arm/arm-gnu-toolchain/bin/../lib/gcc/arm-none-eabi/6.3.1/thumb/v7e-m/crti.o
 .data          0x00000000        0x0 c:/program files (x86)/atmel/studio/7.0/toolchain/arm/arm-gnu-toolchain/bin/../lib/gcc/arm-none-eabi/6.3.1/thumb/v7e-m/crti.o
 .bss           0x00000000        0x0 c:/program files (x86)/atmel/studio/7.0/toolchain/arm/arm-gnu-toolchain/bin/../lib/gcc/arm-none-eabi/6.3.1/thumb/v7e-m/crti.o
 .data          0x00000000        0x4 c:/program files (x86)/atmel/studio/7.0/toolchain/arm/arm-gnu-toolchain/bin/../lib/gcc/arm-none-eabi/6.3.1/thumb/v7e-m/crtbegin.o
 .text          0x00000000       0x74 c:/program files (x86)/atmel/studio/7.0/toolchain/arm/arm-gnu-toolchain/bin/../lib/gcc/arm-none-eabi/6.3.1/../../../../arm-none-eabi/lib/thumb/v7e-m/crt0.o
 .data          0x00000000        0x0 c:/program files (x86)/atmel/studio/7.0/toolchain/arm/arm-gnu-toolchain/bin/../lib/gcc/arm-none-eabi/6.3.1/../../../../arm-none-eabi/lib/thumb/v7e-m/crt0.o
 .bss           0x00000000        0x0 c:/program files (x86)/atmel/studio/7.0/toolchain/arm/arm-gnu-toolchain/bin/../lib/gcc/arm-none-eabi/6.3.1/../../../../arm-none-eabi/lib/thumb/v7e-m/crt0.o
 .ARM.extab     0x00000000        0x0 c:/program files (x86)/atmel/studio/7.0/toolchain/arm/arm-gnu-toolchain/bin/../lib/gcc/arm-none-eabi/6.3.1/../../../../arm-none-eabi/lib/thumb/v7e-m/crt0.o
 .ARM.exidx     0x00000000        0x8 c:/program files (x86)/atmel/studio/7.0/toolchain/arm/arm-gnu-toolchain/bin/../lib/gcc/arm-none-eabi/6.3.1/../../../../arm-none-eabi/lib/thumb/v7e-m/crt0.o
 .ARM.attributes
                0x00000000       0x1c c:/program files (x86)/atmel/studio/7.0/toolchain/arm/arm-gnu-toolchain/bin/../lib/gcc/arm-none-eabi/6.3.1/../../../../arm-none-eabi/lib/thumb/v7e-m/crt0.o
 .text          0x00000000        0x0 atmel_start.o
 .data          0x00000000        0x0 atmel_start.o
 .bss           0x00000000        0x0 atmel_start.o
 .text          0x00000000        0x0 Device_Startup/startup_samd51.o
 .data          0x00000000        0x0 Device_Startup/startup_samd51.o
 .bss           0x00000000        0x0 Device_Startup/startup_samd51.o
 .text          0x00000000        0x0 Device_Startup/system_samd51.o
 .data          0x00000000        0x4 Device_Startup/system_samd51.o
 .bss           0x00000000        0x0 Device_Startup/system_samd51.o
 .text.SystemInit
                0x00000000       0x10 Device_Startup/system_samd51.o
 .text.SystemCoreClockUpdate
                0x00000000       0x10 Device_Startup/system_samd51.o
 .comment       0x00000000       0x5a Device_Startup/system_samd51.o
 .ARM.attributes
                0x00000000       0x37 Device_Startup/system_samd51.o
 .text          0x00000000        0x0 driver_init.o
 .data          0x00000000        0x0 driver_init.o
 .text          0x00000000        0x0 examples/driver_examples.o
 .data          0x00000000       0x54 examples/driver_examples.o
 .bss           0x00000000      0x4d8 examples/driver_examples.o
 .text.convert_cb_ADC_1
                0x00000000        0x2 examples/driver_examples.o
 .text.TIMER_3_task2_cb
                0x00000000        0x2 examples/driver_examples.o
 .text.TIMER_3_task1_cb
                0x00000000        0x2 examples/driver_examples.o
 .text.convert_cb_ADC_0
                0x00000000        0x2 examples/driver_examples.o
 .text.xfer_complete_cb_QSPI_INSTANCE
                0x00000000        0x2 examples/driver_examples.o
 .text.RTC_Scheduler_task1_cb
                0x00000000        0x2 examples/driver_examples.o
 .text.RTC_Scheduler_task2_cb
                0x00000000        0x2 examples/driver_examples.o
 .text.tx_cb_USART_EAST
                0x00000000        0x2 examples/driver_examples.o
 .text.tx_cb_USART_NORTH
                0x00000000        0x2 examples/driver_examples.o
 .text.complete_cb_UI_SPI
                0x00000000        0x2 examples/driver_examples.o
 .text.tx_cb_USART_WEST
                0x00000000        0x2 examples/driver_examples.o
 .text.SYS_I2C_tx_complete
                0x00000000        0x2 examples/driver_examples.o
 .text.tx_cb_USART_SOUTH
                0x00000000        0x2 examples/driver_examples.o
 .text.tx_complete_cb_GRID_LED
                0x00000000        0x2 examples/driver_examples.o
 .text.TIMER_0_task1_cb
                0x00000000        0x2 examples/driver_examples.o
 .text.TIMER_0_task2_cb
                0x00000000        0x2 examples/driver_examples.o
 .text.TIMER_1_task1_cb
                0x00000000        0x2 examples/driver_examples.o
 .text.TIMER_1_task2_cb
                0x00000000        0x2 examples/driver_examples.o
 .text.TIMER_2_task1_cb
                0x00000000        0x2 examples/driver_examples.o
 .text.TIMER_2_task2_cb
                0x00000000        0x2 examples/driver_examples.o
 .text.ADC_0_example
                0x00000000       0x38 examples/driver_examples.o
 .text.ADC_1_example
                0x00000000       0x38 examples/driver_examples.o
 .text.CRC_0_example
                0x00000000       0x68 examples/driver_examples.o
 .text.FLASH_0_example
                0x00000000       0x54 examples/driver_examples.o
 .text.QSPI_INSTANCE_example
                0x00000000       0x80 examples/driver_examples.o
 .text.RTC_Scheduler_example
                0x00000000       0x5c examples/driver_examples.o
 .text.USART_EAST_example
                0x00000000       0x48 examples/driver_examples.o
 .text.USART_NORTH_example
                0x00000000       0x48 examples/driver_examples.o
 .text.GRID_AUX_example
                0x00000000       0x34 examples/driver_examples.o
 .text.UI_SPI_example
                0x00000000       0x48 examples/driver_examples.o
 .text.USART_WEST_example
                0x00000000       0x48 examples/driver_examples.o
 .text.SYS_I2C_example
                0x00000000       0x58 examples/driver_examples.o
 .text.USART_SOUTH_example
                0x00000000       0x48 examples/driver_examples.o
 .text.GRID_LED_example
                0x00000000       0x48 examples/driver_examples.o
 .text.delay_example
                0x00000000        0xc examples/driver_examples.o
 .text.TIMER_0_example
                0x00000000       0x5c examples/driver_examples.o
 .text.TIMER_1_example
                0x00000000       0x5c examples/driver_examples.o
 .text.TIMER_2_example
                0x00000000       0x5c examples/driver_examples.o
 .text.TIMER_3_example
                0x00000000       0x5c examples/driver_examples.o
 .text.WDT_0_example
                0x00000000       0x28 examples/driver_examples.o
 .rodata        0x00000000       0x28 examples/driver_examples.o
 .rodata.str1.1
                0x00000000        0xd examples/driver_examples.o
 .comment       0x00000000       0x5a examples/driver_examples.o
 .ARM.attributes
                0x00000000       0x37 examples/driver_examples.o
 .text          0x00000000        0x0 flash/n25q256a.o
 .data          0x00000000        0x0 flash/n25q256a.o
 .bss           0x00000000        0x0 flash/n25q256a.o
 .text.n25q256a_read
                0x00000000       0x7c flash/n25q256a.o
 .text.wait_cs_is_low
                0x00000000       0x38 flash/n25q256a.o
 .text.n25q256a_xip_confirm
                0x00000000       0x8c flash/n25q256a.o
 .text.n25q256a_read_reg
                0x00000000       0x6c flash/n25q256a.o
 .text.n25q256a_disable_xip
                0x00000000       0x5c flash/n25q256a.o
 .text.n25q256a_write_reg
                0x00000000       0x74 flash/n25q256a.o
 .text.n25q256a_enable_xip
                0x00000000       0x54 flash/n25q256a.o
 .text.n25q256a_write_enable
                0x00000000       0x84 flash/n25q256a.o
 .text.n25q256a_write
                0x00000000       0xd8 flash/n25q256a.o
 .text.n25q256a_erase
                0x00000000      0x140 flash/n25q256a.o
 .text.n25q256a_switch_mode
                0x00000000       0x70 flash/n25q256a.o
 .text.n25q256a_construct
                0x00000000       0x30 flash/n25q256a.o
 .rodata        0x00000000       0x14 flash/n25q256a.o
 .comment       0x00000000       0x5a flash/n25q256a.o
 .ARM.attributes
                0x00000000       0x37 flash/n25q256a.o
 .text          0x00000000        0x0 flash/spi_nor_flash.o
 .data          0x00000000        0x0 flash/spi_nor_flash.o
 .bss           0x00000000        0x0 flash/spi_nor_flash.o
 .text.spi_nor_flash_construct
                0x00000000        0x6 flash/spi_nor_flash.o
 .text.spi_nor_flash_read
                0x00000000        0xe flash/spi_nor_flash.o
 .text.spi_nor_flash_write
                0x00000000        0xe flash/spi_nor_flash.o
 .text.spi_nor_flash_erase
                0x00000000        0x6 flash/spi_nor_flash.o
 .text.spi_nor_flash_enable_xip
                0x00000000        0x6 flash/spi_nor_flash.o
 .text.spi_nor_flash_disable_xip
                0x00000000        0x6 flash/spi_nor_flash.o
 .comment       0x00000000       0x5a flash/spi_nor_flash.o
 .ARM.attributes
                0x00000000       0x37 flash/spi_nor_flash.o
 .text          0x00000000        0x0 grid/grid_d51.o
 .data          0x00000000        0x0 grid/grid_d51.o
 .bss           0x00000000        0x0 grid/grid_d51.o
 .text          0x00000000        0x0 grid/grid_debug.o
 .data          0x00000000        0x0 grid/grid_debug.o
 .bss           0x00000000        0x0 grid/grid_debug.o
 .comment       0x00000000       0x5a grid/grid_debug.o
 .ARM.attributes
                0x00000000       0x37 grid/grid_debug.o
 .text          0x00000000        0x0 grid/grid_hardwaretest.o
 .data          0x00000000        0x0 grid/grid_hardwaretest.o
 .bss           0x00000000        0x0 grid/grid_hardwaretest.o
 .text.gpio_set_pin_direction.constprop.1
                0x00000000       0x28 grid/grid_hardwaretest.o
 .text.grid_hardwaretest_led_test_init
                0x00000000       0x44 grid/grid_hardwaretest.o
 .text.grid_hardwaretest_led_test
                0x00000000       0x84 grid/grid_hardwaretest.o
 .text.grid_hardwaretest_led_test_photo
                0x00000000      0x128 grid/grid_hardwaretest.o
 .text.grid_hardwaretest_port_test
                0x00000000      0x190 grid/grid_hardwaretest.o
 .text.grid_hardwaretest_main
                0x00000000       0xf0 grid/grid_hardwaretest.o
 .rodata.str1.1
                0x00000000       0x13 grid/grid_hardwaretest.o
 .comment       0x00000000       0x5a grid/grid_hardwaretest.o
 .ARM.attributes
                0x00000000       0x37 grid/grid_hardwaretest.o
 .text          0x00000000        0x0 grid/grid_msg.o
 .data          0x00000000        0x0 grid/grid_msg.o
 .bss           0x00000000        0x0 grid/grid_msg.o
 .text.grid_msg_header_get_len
                0x00000000       0x1c grid/grid_msg.o
 .text.grid_msg_header_get_id
                0x00000000       0x1c grid/grid_msg.o
 .text.grid_msg_header_get_rot
                0x00000000       0x1c grid/grid_msg.o
 .text.grid_msg_header_get_age
                0x00000000       0x1c grid/grid_msg.o
 .text.grid_msg_header_get_length
                0x00000000        0x6 grid/grid_msg.o
 .text.grid_msg_footer_get_length
                0x00000000        0x6 grid/grid_msg.o
 .text          0x00000000        0x0 grid/grid_nvm.o
 .data          0x00000000        0x0 grid/grid_nvm.o
 .bss           0x00000000        0x0 grid/grid_nvm.o
 .text.grid_nvm_ui_bulk_clear_init
                0x00000000        0xe grid/grid_nvm.o
 .text          0x00000000        0x0 grid/grid_unittest.o
 .data          0x00000000        0x0 grid/grid_unittest.o
 .bss           0x00000000        0x0 grid/grid_unittest.o
 .text.grid_unittest_init
                0x00000000       0x38 grid/grid_unittest.o
 .text.grid_unittest_group_init
                0x00000000       0x54 grid/grid_unittest.o
 .text.grid_unittest_group_done
                0x00000000       0x34 grid/grid_unittest.o
 .text.grid_unittest_case_init
                0x00000000       0x38 grid/grid_unittest.o
 .text.grid_unittest_case_pass
                0x00000000       0x34 grid/grid_unittest.o
 .text.grid_unittest_case_fail
                0x00000000       0x34 grid/grid_unittest.o
 .text.grid_unittest_start
                0x00000000       0x24 grid/grid_unittest.o
 .rodata.str1.1
                0x00000000       0x6d grid/grid_unittest.o
 .comment       0x00000000       0x5a grid/grid_unittest.o
 .ARM.attributes
                0x00000000       0x37 grid/grid_unittest.o
 .text          0x00000000        0x0 grid/grid_ain.o
 .data          0x00000000        0x0 grid/grid_ain.o
 .bss           0x00000000        0x0 grid/grid_ain.o
 .text.grid_ain_channel_deinit
                0x00000000        0x2 grid/grid_ain.o
 .text          0x00000000        0x0 grid/grid_buf.o
 .data          0x00000000        0x0 grid/grid_buf.o
 .bss           0x00000000        0x0 grid/grid_buf.o
 .text.grid_buffer_write_cancel
                0x00000000        0xa grid/grid_buf.o
 .text.grid_buffer_read_nacknowledge
                0x00000000        0x8 grid/grid_buf.o
 .text.grid_buffer_read_cancel
                0x00000000        0xa grid/grid_buf.o
 .text          0x00000000        0x0 grid/grid_led.o
 .bss           0x00000000        0x0 grid/grid_led.o
 .text.grid_led_lowlevel_get_frame_buffer_pointer
                0x00000000        0x4 grid/grid_led.o
 .text.grid_led_lowlevel_get_frame_buffer_size
                0x00000000        0x4 grid/grid_led.o
 .text.grid_led_startup_animation
                0x00000000        0x2 grid/grid_led.o
 .text.grid_led_get_phase
                0x00000000       0x12 grid/grid_led.o
 .text.grid_led_lowlevel_hardware_start_transfer_blocking
                0x00000000       0x34 grid/grid_led.o
 .text.grid_led_lowlevel_hardware_is_transfer_completed
                0x00000000        0xc grid/grid_led.o
 .text          0x00000000        0x0 grid/grid_module.o
 .data          0x00000000        0x0 grid/grid_module.o
 .bss           0x00000000       0x12 grid/grid_module.o
 .text.grid_sync_set_mode
                0x00000000       0xb0 grid/grid_module.o
 .text.grid_sync_get_mode
                0x00000000       0x1c grid/grid_module.o
 .text.grid_sync_set_level
                0x00000000       0x48 grid/grid_module.o
 .text.grid_adc_set_config
                0x00000000       0x20 grid/grid_module.o
 .text.grid_adc_set_config_default
                0x00000000       0x10 grid/grid_module.o
 .text.grid_adc_get_config
                0x00000000       0x14 grid/grid_module.o
 .text          0x00000000        0x0 grid/grid_module_bu16_revb.o
 .text          0x00000000        0x0 grid/grid_module_en16_reva.o
 .text          0x00000000        0x0 grid/grid_module_pbf4_reva.o
 .text          0x00000000        0x0 grid/grid_module_po16_revb.o
 .text          0x00000000        0x0 grid/grid_sys.o
 .bss           0x00000000        0x4 grid/grid_sys.o
 .text.grid_task_leave_task
                0x00000000        0x4 grid/grid_sys.o
 .text.rx_cb_USART_GRID
                0x00000000        0x2 grid/grid_sys.o
 .text.dma_transfer_complete
                0x00000000        0x8 grid/grid_sys.o
 .text.grid_sys_bank_get_color
                0x00000000        0xa grid/grid_sys.o
 .text.grid_sys_rtc_set_time
                0x00000000        0x4 grid/grid_sys.o
 .text.grid_sys_alert_set_color_changed_flag
                0x00000000        0x6 grid/grid_sys.o
 .text.grid_sys_alert_set_color
                0x00000000        0xe grid/grid_sys.o
 .text.grid_sys_get_id
                0x00000000       0x2c grid/grid_sys.o
 .text.grid_sys_ping_all
                0x00000000       0x30 grid/grid_sys.o
 .text.grid_msg_calculate_checksum_of_string
                0x00000000       0x14 grid/grid_sys.o
 .text.grid_sys_unittest
                0x00000000      0x17c grid/grid_sys.o
 .rodata        0x00000000        0x8 grid/grid_sys.o
 .text          0x00000000        0x0 grid/grid_ui.o
 .data          0x00000000        0x0 grid/grid_ui.o
 .bss           0x00000000        0x0 grid/grid_ui.o
 .text.grid_ui_nvm_load_all_configuration
                0x00000000       0xa8 grid/grid_ui.o
 .text.grid_ui_event_reset
                0x00000000        0x6 grid/grid_ui.o
 .text.grid_ui_event_istriggered
                0x00000000        0xa grid/grid_ui.o
 .text          0x00000000        0x0 grid/grid_usb.o
 .data          0x00000000        0x0 grid/grid_usb.o
 .bss           0x00000000        0x0 grid/grid_usb.o
 .text          0x00000000        0x0 hal/src/hal_adc_async.o
 .data          0x00000000        0x0 hal/src/hal_adc_async.o
 .bss           0x00000000        0x0 hal/src/hal_adc_async.o
 .text.adc_async_deinit
                0x00000000       0x10 hal/src/hal_adc_async.o
 .text.adc_async_disable_channel
                0x00000000       0x10 hal/src/hal_adc_async.o
 .text.adc_async_set_reference
                0x00000000       0x10 hal/src/hal_adc_async.o
 .text.adc_async_set_resolution
                0x00000000       0x10 hal/src/hal_adc_async.o
 .text.adc_async_set_inputs
                0x00000000       0x10 hal/src/hal_adc_async.o
 .text.adc_async_set_thresholds
                0x00000000       0x10 hal/src/hal_adc_async.o
 .text.adc_async_set_channel_gain
                0x00000000       0x10 hal/src/hal_adc_async.o
 .text.adc_async_set_conversion_mode
                0x00000000       0x10 hal/src/hal_adc_async.o
 .text.adc_async_set_channel_differential_mode
                0x00000000       0x10 hal/src/hal_adc_async.o
 .text.adc_async_set_window_mode
                0x00000000       0x10 hal/src/hal_adc_async.o
 .text.adc_async_get_threshold_state
                0x00000000       0x10 hal/src/hal_adc_async.o
 .text.adc_async_is_channel_conversion_complete
                0x00000000        0xc hal/src/hal_adc_async.o
 .text.adc_async_flush_rx_buffer
                0x00000000       0x18 hal/src/hal_adc_async.o
 .text.adc_async_get_version
                0x00000000        0x4 hal/src/hal_adc_async.o
 .text          0x00000000        0x0 hal/src/hal_atomic.o
 .data          0x00000000        0x0 hal/src/hal_atomic.o
 .bss           0x00000000        0x0 hal/src/hal_atomic.o
 .text.atomic_get_version
                0x00000000        0x4 hal/src/hal_atomic.o
 .text          0x00000000        0x0 hal/src/hal_cache.o
 .data          0x00000000        0x0 hal/src/hal_cache.o
 .bss           0x00000000        0x0 hal/src/hal_cache.o
 .text.cache_init
                0x00000000        0x8 hal/src/hal_cache.o
 .text.cache_enable
                0x00000000       0x20 hal/src/hal_cache.o
 .text.cache_disable
                0x00000000       0x10 hal/src/hal_cache.o
 .text.cache_configure
                0x00000000        0x8 hal/src/hal_cache.o
 .text.cache_invalidate_all
                0x00000000        0x8 hal/src/hal_cache.o
 .comment       0x00000000       0x5a hal/src/hal_cache.o
 .ARM.attributes
                0x00000000       0x37 hal/src/hal_cache.o
 .text          0x00000000        0x0 hal/src/hal_crc_sync.o
 .data          0x00000000        0x0 hal/src/hal_crc_sync.o
 .bss           0x00000000        0x0 hal/src/hal_crc_sync.o
 .text.crc_sync_deinit
                0x00000000        0x8 hal/src/hal_crc_sync.o
 .text.crc_sync_enable
                0x00000000        0x8 hal/src/hal_crc_sync.o
 .text.crc_sync_disable
                0x00000000        0x8 hal/src/hal_crc_sync.o
 .text.crc_sync_crc32
                0x00000000       0x10 hal/src/hal_crc_sync.o
 .text.crc_sync_crc16
                0x00000000       0x10 hal/src/hal_crc_sync.o
 .text.crc_sync_get_version
                0x00000000        0x4 hal/src/hal_crc_sync.o
 .text          0x00000000        0x0 hal/src/hal_delay.o
 .data          0x00000000        0x0 hal/src/hal_delay.o
 .text.delay_get_version
                0x00000000        0x4 hal/src/hal_delay.o
 .text          0x00000000        0x0 hal/src/hal_evsys.o
 .data          0x00000000        0x0 hal/src/hal_evsys.o
 .bss           0x00000000        0x0 hal/src/hal_evsys.o
 .text.event_system_deinit
                0x00000000        0x8 hal/src/hal_evsys.o
 .text.event_system_enable_user
                0x00000000        0xc hal/src/hal_evsys.o
 .text.event_system_disable_user
                0x00000000        0xc hal/src/hal_evsys.o
 .text.event_system_enable_generator
                0x00000000        0xc hal/src/hal_evsys.o
 .text.event_system_disable_generator
                0x00000000        0xc hal/src/hal_evsys.o
 .text.event_system_get_version
                0x00000000        0x4 hal/src/hal_evsys.o
 .text          0x00000000        0x0 hal/src/hal_flash.o
 .data          0x00000000        0x0 hal/src/hal_flash.o
 .bss           0x00000000        0x0 hal/src/hal_flash.o
 .text.flash_deinit
                0x00000000       0x10 hal/src/hal_flash.o
 .text.flash_append
                0x00000000       0x64 hal/src/hal_flash.o
 .text.flash_register_callback
                0x00000000       0x28 hal/src/hal_flash.o
 .text.flash_lock
                0x00000000       0x5c hal/src/hal_flash.o
 .text.flash_unlock
                0x00000000       0x5c hal/src/hal_flash.o
 .text.flash_get_page_size
                0x00000000        0x8 hal/src/hal_flash.o
 .text.flash_get_total_pages
                0x00000000        0x8 hal/src/hal_flash.o
 .text.flash_get_version
                0x00000000        0x4 hal/src/hal_flash.o
 .text          0x00000000        0x0 hal/src/hal_gpio.o
 .data          0x00000000        0x0 hal/src/hal_gpio.o
 .bss           0x00000000        0x0 hal/src/hal_gpio.o
 .text.gpio_get_version
                0x00000000        0x4 hal/src/hal_gpio.o
 .comment       0x00000000       0x5a hal/src/hal_gpio.o
 .ARM.attributes
                0x00000000       0x37 hal/src/hal_gpio.o
 .text          0x00000000        0x0 hal/src/hal_i2c_m_async.o
 .data          0x00000000        0x0 hal/src/hal_i2c_m_async.o
 .bss           0x00000000        0x0 hal/src/hal_i2c_m_async.o
 .text.i2c_m_async_deinit
                0x00000000       0x38 hal/src/hal_i2c_m_async.o
 .text.i2c_m_async_enable
                0x00000000       0x34 hal/src/hal_i2c_m_async.o
 .text.i2c_m_async_disable
                0x00000000       0x34 hal/src/hal_i2c_m_async.o
 .text.i2c_m_async_set_slaveaddr
                0x00000000       0x10 hal/src/hal_i2c_m_async.o
 .text.i2c_m_async_register_callback
                0x00000000       0x1e hal/src/hal_i2c_m_async.o
 .text.i2c_m_async_set_baudrate
                0x00000000        0x8 hal/src/hal_i2c_m_async.o
 .text.i2c_m_async_cmd_write
                0x00000000       0x60 hal/src/hal_i2c_m_async.o
 .text.i2c_m_async_cmd_read
                0x00000000       0x58 hal/src/hal_i2c_m_async.o
 .text.i2c_m_async_transfer
                0x00000000        0x8 hal/src/hal_i2c_m_async.o
 .text.i2c_m_async_send_stop
                0x00000000        0x8 hal/src/hal_i2c_m_async.o
 .text.i2c_m_async_get_status
                0x00000000       0x1c hal/src/hal_i2c_m_async.o
 .text.i2c_m_async_get_io_descriptor
                0x00000000        0x8 hal/src/hal_i2c_m_async.o
 .text.i2c_m_get_version
                0x00000000        0x4 hal/src/hal_i2c_m_async.o
 .text          0x00000000        0x0 hal/src/hal_init.o
 .data          0x00000000        0x0 hal/src/hal_init.o
 .bss           0x00000000        0x0 hal/src/hal_init.o
 .text.init_get_version
                0x00000000        0x4 hal/src/hal_init.o
 .comment       0x00000000       0x5a hal/src/hal_init.o
 .ARM.attributes
                0x00000000       0x37 hal/src/hal_init.o
 .text          0x00000000        0x0 hal/src/hal_io.o
 .data          0x00000000        0x0 hal/src/hal_io.o
 .bss           0x00000000        0x0 hal/src/hal_io.o
 .text.io_get_version
                0x00000000        0x4 hal/src/hal_io.o
 .text          0x00000000        0x0 hal/src/hal_qspi_dma.o
 .data          0x00000000        0x0 hal/src/hal_qspi_dma.o
 .bss           0x00000000        0x0 hal/src/hal_qspi_dma.o
 .text.qspi_dma_deinit
                0x00000000        0x8 hal/src/hal_qspi_dma.o
 .text.qspi_dma_enable
                0x00000000        0x8 hal/src/hal_qspi_dma.o
 .text.qspi_dma_disable
                0x00000000        0x8 hal/src/hal_qspi_dma.o
 .text.qspi_dma_serial_run_command
                0x00000000        0x8 hal/src/hal_qspi_dma.o
 .text.qspi_dma_register_callback
                0x00000000        0x8 hal/src/hal_qspi_dma.o
 .text.qspi_dma_get_version
                0x00000000        0x4 hal/src/hal_qspi_dma.o
 .text          0x00000000        0x0 hal/src/hal_sleep.o
 .data          0x00000000        0x0 hal/src/hal_sleep.o
 .bss           0x00000000        0x0 hal/src/hal_sleep.o
 .text.sleep    0x00000000       0x20 hal/src/hal_sleep.o
 .text.sleep_get_version
                0x00000000        0x4 hal/src/hal_sleep.o
 .comment       0x00000000       0x5a hal/src/hal_sleep.o
 .ARM.attributes
                0x00000000       0x37 hal/src/hal_sleep.o
 .text          0x00000000        0x0 hal/src/hal_spi_m_async.o
 .data          0x00000000        0x0 hal/src/hal_spi_m_async.o
 .bss           0x00000000        0x0 hal/src/hal_spi_m_async.o
 .text.spi_m_async_set_func_ptr
                0x00000000        0x4 hal/src/hal_spi_m_async.o
 .text.spi_m_async_deinit
                0x00000000       0x18 hal/src/hal_spi_m_async.o
 .text.spi_m_async_disable
                0x00000000       0x2c hal/src/hal_spi_m_async.o
 .text.spi_m_async_set_char_size
                0x00000000       0x18 hal/src/hal_spi_m_async.o
 .text.spi_m_async_set_data_order
                0x00000000       0x18 hal/src/hal_spi_m_async.o
 .text.spi_m_async_get_status
                0x00000000       0x24 hal/src/hal_spi_m_async.o
 .text.spi_m_async_get_version
                0x00000000        0x4 hal/src/hal_spi_m_async.o
 .text          0x00000000        0x0 hal/src/hal_spi_m_dma.o
 .data          0x00000000        0x0 hal/src/hal_spi_m_dma.o
 .bss           0x00000000        0x0 hal/src/hal_spi_m_dma.o
 .text.spi_m_dma_set_func_ptr
                0x00000000        0x4 hal/src/hal_spi_m_dma.o
 .text.spi_m_dma_deinit
                0x00000000        0xc hal/src/hal_spi_m_dma.o
 .text.spi_m_dma_disable
                0x00000000        0xc hal/src/hal_spi_m_dma.o
 .text.spi_m_dma_set_baudrate
                0x00000000        0xc hal/src/hal_spi_m_dma.o
 .text.spi_m_dma_set_mode
                0x00000000        0xc hal/src/hal_spi_m_dma.o
 .text.spi_m_dma_set_char_size
                0x00000000        0xc hal/src/hal_spi_m_dma.o
 .text.spi_m_dma_set_data_order
                0x00000000        0xc hal/src/hal_spi_m_dma.o
 .text.spi_m_dma_transfer
                0x00000000       0x14 hal/src/hal_spi_m_dma.o
 .text.spi_m_dma_get_version
                0x00000000        0x4 hal/src/hal_spi_m_dma.o
 .text          0x00000000        0x0 hal/src/hal_timer.o
 .data          0x00000000        0x0 hal/src/hal_timer.o
 .bss           0x00000000        0x0 hal/src/hal_timer.o
 .text.timer_deinit
                0x00000000        0xe hal/src/hal_timer.o
 .text.timer_stop
                0x00000000       0x22 hal/src/hal_timer.o
 .text.timer_set_clock_cycles_per_tick
                0x00000000        0xe hal/src/hal_timer.o
 .text.timer_remove_task
                0x00000000       0x74 hal/src/hal_timer.o
 .text.timer_get_clock_cycles_in_tick
                0x00000000       0x12 hal/src/hal_timer.o
 .text.timer_get_version
                0x00000000        0x4 hal/src/hal_timer.o
 .text          0x00000000        0x0 hal/src/hal_usart_async.o
 .data          0x00000000        0x0 hal/src/hal_usart_async.o
 .bss           0x00000000        0x0 hal/src/hal_usart_async.o
 .text.usart_async_deinit
                0x00000000       0x18 hal/src/hal_usart_async.o
 .text.usart_async_set_flow_control
                0x00000000       0x10 hal/src/hal_usart_async.o
 .text.usart_async_set_baud_rate
                0x00000000       0x10 hal/src/hal_usart_async.o
 .text.usart_async_set_data_order
                0x00000000       0x10 hal/src/hal_usart_async.o
 .text.usart_async_set_mode
                0x00000000       0x10 hal/src/hal_usart_async.o
 .text.usart_async_set_stopbits
                0x00000000       0x10 hal/src/hal_usart_async.o
 .text.usart_async_set_character_size
                0x00000000       0x10 hal/src/hal_usart_async.o
 .text.usart_async_flow_control_status
                0x00000000       0x14 hal/src/hal_usart_async.o
 .text.usart_async_is_tx_empty
                0x00000000       0x10 hal/src/hal_usart_async.o
 .text.usart_async_is_rx_not_empty
                0x00000000       0x14 hal/src/hal_usart_async.o
 .text.usart_async_get_status
                0x00000000       0x30 hal/src/hal_usart_async.o
 .text.usart_async_flush_rx_buffer
                0x00000000        0xc hal/src/hal_usart_async.o
 .text.usart_async_get_version
                0x00000000        0x4 hal/src/hal_usart_async.o
 .text          0x00000000        0x0 hal/src/hal_usart_sync.o
 .data          0x00000000        0x0 hal/src/hal_usart_sync.o
 .bss           0x00000000        0x0 hal/src/hal_usart_sync.o
 .text.usart_sync_deinit
                0x00000000       0x18 hal/src/hal_usart_sync.o
 .text.usart_sync_disable
                0x00000000       0x10 hal/src/hal_usart_sync.o
 .text.usart_sync_get_io_descriptor
                0x00000000        0x6 hal/src/hal_usart_sync.o
 .text.usart_sync_set_flow_control
                0x00000000       0x10 hal/src/hal_usart_sync.o
 .text.usart_sync_set_baud_rate
                0x00000000       0x10 hal/src/hal_usart_sync.o
 .text.usart_sync_set_data_order
                0x00000000       0x10 hal/src/hal_usart_sync.o
 .text.usart_sync_set_mode
                0x00000000       0x10 hal/src/hal_usart_sync.o
 .text.usart_sync_set_parity
                0x00000000       0x10 hal/src/hal_usart_sync.o
 .text.usart_sync_set_stopbits
                0x00000000       0x10 hal/src/hal_usart_sync.o
 .text.usart_sync_set_character_size
                0x00000000       0x10 hal/src/hal_usart_sync.o
 .text.usart_sync_flow_control_status
                0x00000000       0x14 hal/src/hal_usart_sync.o
 .text.usart_sync_is_tx_empty
                0x00000000       0x10 hal/src/hal_usart_sync.o
 .text.usart_sync_is_rx_not_empty
                0x00000000       0x10 hal/src/hal_usart_sync.o
 .text.usart_sync_get_version
                0x00000000        0x4 hal/src/hal_usart_sync.o
 .text          0x00000000        0x0 hal/src/hal_usb_device.o
 .data          0x00000000        0x0 hal/src/hal_usb_device.o
 .text.usb_d_deinit
                0x00000000        0x8 hal/src/hal_usb_device.o
 .text.usb_d_disable
                0x00000000        0x8 hal/src/hal_usb_device.o
 .text.usb_d_detach
                0x00000000        0x8 hal/src/hal_usb_device.o
 .text.usb_d_get_speed
                0x00000000        0x8 hal/src/hal_usb_device.o
 .text.usb_d_get_uframe_num
                0x00000000        0x8 hal/src/hal_usb_device.o
 .text.usb_d_send_remotewakeup
                0x00000000        0x8 hal/src/hal_usb_device.o
 .text.usb_d_ep_disable
                0x00000000       0x2c hal/src/hal_usb_device.o
 .text.usb_d_ep_get_req
                0x00000000       0x24 hal/src/hal_usb_device.o
 .text.usb_d_ep_abort
                0x00000000       0x30 hal/src/hal_usb_device.o
 .text.usb_d_ep_get_status
                0x00000000       0x70 hal/src/hal_usb_device.o
 .text.usb_d_get_version
                0x00000000        0x4 hal/src/hal_usb_device.o
 .text          0x00000000        0x0 hal/src/hal_wdt.o
 .data          0x00000000        0x0 hal/src/hal_wdt.o
 .bss           0x00000000        0x0 hal/src/hal_wdt.o
 .text.wdt_get_version
                0x00000000        0x4 hal/src/hal_wdt.o
 .comment       0x00000000       0x5a hal/src/hal_wdt.o
 .ARM.attributes
                0x00000000       0x37 hal/src/hal_wdt.o
 .text          0x00000000        0x0 hal/utils/src/utils_assert.o
 .data          0x00000000        0x0 hal/utils/src/utils_assert.o
 .bss           0x00000000        0x0 hal/utils/src/utils_assert.o
 .text.assert   0x00000000        0x6 hal/utils/src/utils_assert.o
 .comment       0x00000000       0x5a hal/utils/src/utils_assert.o
 .ARM.attributes
                0x00000000       0x37 hal/utils/src/utils_assert.o
 .text          0x00000000        0x0 hal/utils/src/utils_event.o
 .data          0x00000000        0x0 hal/utils/src/utils_event.o
 .bss           0x00000000        0x5 hal/utils/src/utils_event.o
 .text.event_subscribe
                0x00000000       0x60 hal/utils/src/utils_event.o
 .text.event_unsubscribe
                0x00000000       0x54 hal/utils/src/utils_event.o
 .text.event_post
                0x00000000       0x40 hal/utils/src/utils_event.o
 .comment       0x00000000       0x5a hal/utils/src/utils_event.o
 .ARM.attributes
                0x00000000       0x37 hal/utils/src/utils_event.o
 .text          0x00000000        0x0 hal/utils/src/utils_list.o
 .data          0x00000000        0x0 hal/utils/src/utils_list.o
 .bss           0x00000000        0x0 hal/utils/src/utils_list.o
 .text.list_delete_element
                0x00000000       0x28 hal/utils/src/utils_list.o
 .text          0x00000000        0x0 hal/utils/src/utils_ringbuffer.o
 .data          0x00000000        0x0 hal/utils/src/utils_ringbuffer.o
 .bss           0x00000000        0x0 hal/utils/src/utils_ringbuffer.o
 .text.ringbuffer_flush
                0x00000000        0x8 hal/utils/src/utils_ringbuffer.o
 .text          0x00000000        0x0 hal/utils/src/utils_syscalls.o
 .data          0x00000000        0x0 hal/utils/src/utils_syscalls.o
 .text.link     0x00000000        0x6 hal/utils/src/utils_syscalls.o
 .text._exit    0x00000000       0x14 hal/utils/src/utils_syscalls.o
 .text._kill    0x00000000        0x2 hal/utils/src/utils_syscalls.o
 .text._getpid  0x00000000        0x6 hal/utils/src/utils_syscalls.o
 .rodata.str1.1
                0x00000000       0x19 hal/utils/src/utils_syscalls.o
 .text          0x00000000        0x0 hpl/adc/hpl_adc.o
 .data          0x00000000        0x0 hpl/adc/hpl_adc.o
 .text.hri_adc_write_INPUTCTRL_MUXPOS_bf
                0x00000000       0x20 hpl/adc/hpl_adc.o
 .text.hri_adc_write_INPUTCTRL_MUXNEG_bf
                0x00000000       0x20 hpl/adc/hpl_adc.o
 .text.hri_adc_write_CTRLB_RESSEL_bf
                0x00000000       0x20 hpl/adc/hpl_adc.o
 .text.hri_adc_write_CTRLB_WINMODE_bf
                0x00000000       0x20 hpl/adc/hpl_adc.o
 .text._adc_set_reference_source
                0x00000000       0x44 hpl/adc/hpl_adc.o
 .text._adc_sync_init
                0x00000000       0x20 hpl/adc/hpl_adc.o
 .text._adc_dma_init
                0x00000000       0x20 hpl/adc/hpl_adc.o
 .text._adc_sync_deinit
                0x00000000       0x28 hpl/adc/hpl_adc.o
 .text._adc_async_deinit
                0x00000000       0x4c hpl/adc/hpl_adc.o
 .text._adc_dma_deinit
                0x00000000       0x28 hpl/adc/hpl_adc.o
 .text._adc_sync_enable_channel
                0x00000000        0xc hpl/adc/hpl_adc.o
 .text._adc_dma_enable_channel
                0x00000000        0xc hpl/adc/hpl_adc.o
 .text._adc_sync_disable_channel
                0x00000000        0xc hpl/adc/hpl_adc.o
 .text._adc_async_disable_channel
                0x00000000        0xc hpl/adc/hpl_adc.o
 .text._adc_dma_disable_channel
                0x00000000        0xc hpl/adc/hpl_adc.o
 .text._adc_get_source_for_dma
                0x00000000        0x6 hpl/adc/hpl_adc.o
 .text._adc_sync_get_data_size
                0x00000000       0x12 hpl/adc/hpl_adc.o
 .text._adc_dma_get_data_size
                0x00000000       0x12 hpl/adc/hpl_adc.o
 .text._adc_sync_is_channel_conversion_done
                0x00000000        0xc hpl/adc/hpl_adc.o
 .text._adc_async_is_channel_conversion_done
                0x00000000        0xc hpl/adc/hpl_adc.o
 .text._adc_dma_is_conversion_done
                0x00000000        0xc hpl/adc/hpl_adc.o
 .text._adc_sync_convert
                0x00000000       0x18 hpl/adc/hpl_adc.o
 .text._adc_dma_convert
                0x00000000       0x18 hpl/adc/hpl_adc.o
 .text._adc_sync_read_channel_data
                0x00000000        0xa hpl/adc/hpl_adc.o
 .text._adc_async_read_channel_data
                0x00000000        0xa hpl/adc/hpl_adc.o
 .text._adc_sync_set_reference_source
                0x00000000        0xc hpl/adc/hpl_adc.o
 .text._adc_async_set_reference_source
                0x00000000        0xc hpl/adc/hpl_adc.o
 .text._adc_dma_set_reference_source
                0x00000000        0xc hpl/adc/hpl_adc.o
 .text._adc_sync_set_resolution
                0x00000000        0xc hpl/adc/hpl_adc.o
 .text._adc_async_set_resolution
                0x00000000        0xc hpl/adc/hpl_adc.o
 .text._adc_dma_set_resolution
                0x00000000        0xc hpl/adc/hpl_adc.o
 .text._adc_sync_set_inputs
                0x00000000       0x20 hpl/adc/hpl_adc.o
 .text._adc_async_set_inputs
                0x00000000       0x20 hpl/adc/hpl_adc.o
 .text._adc_dma_set_inputs
                0x00000000       0x20 hpl/adc/hpl_adc.o
 .text._adc_sync_set_thresholds
                0x00000000       0x24 hpl/adc/hpl_adc.o
 .text._adc_async_set_thresholds
                0x00000000       0x24 hpl/adc/hpl_adc.o
 .text._adc_dma_set_thresholds
                0x00000000       0x24 hpl/adc/hpl_adc.o
 .text._adc_sync_set_channel_gain
                0x00000000        0x2 hpl/adc/hpl_adc.o
 .text._adc_async_set_channel_gain
                0x00000000        0x2 hpl/adc/hpl_adc.o
 .text._adc_dma_set_channel_gain
                0x00000000        0x2 hpl/adc/hpl_adc.o
 .text._adc_sync_set_conversion_mode
                0x00000000       0x28 hpl/adc/hpl_adc.o
 .text._adc_async_set_conversion_mode
                0x00000000       0x28 hpl/adc/hpl_adc.o
 .text._adc_dma_set_conversion_mode
                0x00000000       0x28 hpl/adc/hpl_adc.o
 .text._adc_sync_set_channel_differential_mode
                0x00000000       0x28 hpl/adc/hpl_adc.o
 .text._adc_async_set_channel_differential_mode
                0x00000000       0x28 hpl/adc/hpl_adc.o
 .text._adc_dma_set_channel_differential_mode
                0x00000000       0x28 hpl/adc/hpl_adc.o
 .text._adc_sync_set_window_mode
                0x00000000        0xc hpl/adc/hpl_adc.o
 .text._adc_async_set_window_mode
                0x00000000        0xc hpl/adc/hpl_adc.o
 .text._adc_dma_set_window_mode
                0x00000000        0xc hpl/adc/hpl_adc.o
 .text._adc_sync_get_threshold_state
                0x00000000        0xe hpl/adc/hpl_adc.o
 .text._adc_async_get_threshold_state
                0x00000000        0xe hpl/adc/hpl_adc.o
 .text._adc_dma_get_threshold_state
                0x00000000        0xe hpl/adc/hpl_adc.o
 .text._adc_get_adc_sync
                0x00000000        0x4 hpl/adc/hpl_adc.o
 .text._adc_get_adc_async
                0x00000000        0x4 hpl/adc/hpl_adc.o
 .text          0x00000000        0x0 hpl/cmcc/hpl_cmcc.o
 .data          0x00000000        0x0 hpl/cmcc/hpl_cmcc.o
 .bss           0x00000000        0x0 hpl/cmcc/hpl_cmcc.o
 .text._cmcc_enable
                0x00000000       0x20 hpl/cmcc/hpl_cmcc.o
 .text._cmcc_disable
                0x00000000       0x10 hpl/cmcc/hpl_cmcc.o
 .text._cmcc_init
                0x00000000       0x3c hpl/cmcc/hpl_cmcc.o
 .text._cmcc_configure
                0x00000000       0x38 hpl/cmcc/hpl_cmcc.o
 .text._cmcc_enable_data_cache
                0x00000000       0x2c hpl/cmcc/hpl_cmcc.o
 .text._cmcc_enable_inst_cache
                0x00000000       0x2c hpl/cmcc/hpl_cmcc.o
 .text._cmcc_enable_clock_gating
                0x00000000       0x20 hpl/cmcc/hpl_cmcc.o
 .text._cmcc_configure_cache_size
                0x00000000       0x28 hpl/cmcc/hpl_cmcc.o
 .text._cmcc_lock_way
                0x00000000       0x24 hpl/cmcc/hpl_cmcc.o
 .text._cmcc_unlock_way
                0x00000000       0x28 hpl/cmcc/hpl_cmcc.o
 .text._cmcc_invalidate_by_line
                0x00000000       0x2c hpl/cmcc/hpl_cmcc.o
 .text._cmcc_invalidate_all
                0x00000000       0x20 hpl/cmcc/hpl_cmcc.o
 .text._cmcc_configure_monitor
                0x00000000        0xa hpl/cmcc/hpl_cmcc.o
 .text._cmcc_enable_monitor
                0x00000000        0x8 hpl/cmcc/hpl_cmcc.o
 .text._cmcc_disable_monitor
                0x00000000        0x8 hpl/cmcc/hpl_cmcc.o
 .text._cmcc_reset_monitor
                0x00000000        0x8 hpl/cmcc/hpl_cmcc.o
 .text._cmcc_get_monitor_event_count
                0x00000000        0x4 hpl/cmcc/hpl_cmcc.o
 .comment       0x00000000       0x5a hpl/cmcc/hpl_cmcc.o
 .ARM.attributes
                0x00000000       0x37 hpl/cmcc/hpl_cmcc.o
 .text          0x00000000        0x0 hpl/core/hpl_core_m4.o
 .data          0x00000000        0x0 hpl/core/hpl_core_m4.o
 .bss           0x00000000        0x0 hpl/core/hpl_core_m4.o
 .text._reset_mcu
                0x00000000       0x24 hpl/core/hpl_core_m4.o
 .text._go_to_sleep
                0x00000000        0x8 hpl/core/hpl_core_m4.o
 .text._irq_get_current
                0x00000000        0xa hpl/core/hpl_core_m4.o
 .text._irq_disable
                0x00000000       0x24 hpl/core/hpl_core_m4.o
 .text._irq_clear
                0x00000000       0x1c hpl/core/hpl_core_m4.o
 .text._irq_enable
                0x00000000       0x18 hpl/core/hpl_core_m4.o
 .text._irq_register
                0x00000000        0xc hpl/core/hpl_core_m4.o
 .text.Default_Handler
                0x00000000        0x2 hpl/core/hpl_core_m4.o
 COMMON         0x00000000      0x224 hpl/core/hpl_core_m4.o
 .text          0x00000000        0x0 hpl/core/hpl_init.o
 .data          0x00000000        0x0 hpl/core/hpl_init.o
 .bss           0x00000000        0x0 hpl/core/hpl_init.o
 .text          0x00000000        0x0 hpl/dmac/hpl_dmac.o
 .data          0x00000000        0x0 hpl/dmac/hpl_dmac.o
 .text._dma_set_next_descriptor
                0x00000000       0x14 hpl/dmac/hpl_dmac.o
 .text._dma_dstinc_enable
                0x00000000       0x1c hpl/dmac/hpl_dmac.o
 .text          0x00000000        0x0 hpl/dsu/hpl_dsu.o
 .data          0x00000000        0x0 hpl/dsu/hpl_dsu.o
 .bss           0x00000000        0x0 hpl/dsu/hpl_dsu.o
 .text._crc_sync_deinit
                0x00000000        0x8 hpl/dsu/hpl_dsu.o
 .text._crc_sync_enable
                0x00000000        0x4 hpl/dsu/hpl_dsu.o
 .text._crc_sync_disable
                0x00000000        0x4 hpl/dsu/hpl_dsu.o
 .text._crc_sync_crc32
                0x00000000       0x7c hpl/dsu/hpl_dsu.o
 .text._crc_sync_crc16
                0x00000000        0x6 hpl/dsu/hpl_dsu.o
 .text          0x00000000        0x0 hpl/evsys/hpl_evsys.o
 .data          0x00000000        0x0 hpl/evsys/hpl_evsys.o
 .bss           0x00000000        0x0 hpl/evsys/hpl_evsys.o
 .text._event_system_deinit
                0x00000000       0x10 hpl/evsys/hpl_evsys.o
 .text._event_system_enable_user
                0x00000000       0x1c hpl/evsys/hpl_evsys.o
 .text._event_system_enable_generator
                0x00000000       0x24 hpl/evsys/hpl_evsys.o
 .text          0x00000000        0x0 hpl/gclk/hpl_gclk.o
 .data          0x00000000        0x0 hpl/gclk/hpl_gclk.o
 .bss           0x00000000        0x0 hpl/gclk/hpl_gclk.o
 .text._gclk_init_generators
                0x00000000       0x3c hpl/gclk/hpl_gclk.o
 .text          0x00000000        0x0 hpl/mclk/hpl_mclk.o
 .data          0x00000000        0x0 hpl/mclk/hpl_mclk.o
 .bss           0x00000000        0x0 hpl/mclk/hpl_mclk.o
 .text          0x00000000        0x0 hpl/nvmctrl/hpl_nvmctrl.o
 .data          0x00000000        0x0 hpl/nvmctrl/hpl_nvmctrl.o
 .text._flash_deinit
                0x00000000       0x2c hpl/nvmctrl/hpl_nvmctrl.o
 .text._flash_get_wait_state
                0x00000000        0x8 hpl/nvmctrl/hpl_nvmctrl.o
 .text._flash_set_wait_state
                0x00000000       0x18 hpl/nvmctrl/hpl_nvmctrl.o
 .text._flash_append
                0x00000000       0x68 hpl/nvmctrl/hpl_nvmctrl.o
 .text._flash_lock
                0x00000000       0x2a hpl/nvmctrl/hpl_nvmctrl.o
 .text._flash_unlock
                0x00000000       0x2a hpl/nvmctrl/hpl_nvmctrl.o
 .text._flash_set_irq_state
                0x00000000       0x28 hpl/nvmctrl/hpl_nvmctrl.o
 .text._user_area_read_bits
                0x00000000       0x4c hpl/nvmctrl/hpl_nvmctrl.o
 .text._user_area_write_bits
                0x00000000       0xd4 hpl/nvmctrl/hpl_nvmctrl.o
 .text          0x00000000        0x0 hpl/osc32kctrl/hpl_osc32kctrl.o
 .data          0x00000000        0x0 hpl/osc32kctrl/hpl_osc32kctrl.o
 .bss           0x00000000        0x0 hpl/osc32kctrl/hpl_osc32kctrl.o
 .text          0x00000000        0x0 hpl/oscctrl/hpl_oscctrl.o
 .data          0x00000000        0x0 hpl/oscctrl/hpl_oscctrl.o
 .bss           0x00000000        0x0 hpl/oscctrl/hpl_oscctrl.o
 .text          0x00000000        0x0 hpl/pac/hpl_pac.o
 .data          0x00000000        0x0 hpl/pac/hpl_pac.o
 .bss           0x00000000        0x0 hpl/pac/hpl_pac.o
 .text._pac_get_peripheral_id
                0x00000000       0x24 hpl/pac/hpl_pac.o
 .text._periph_get_lock_state
                0x00000000       0x48 hpl/pac/hpl_pac.o
 .text._periph_lock
                0x00000000       0x40 hpl/pac/hpl_pac.o
 .text._periph_unlock
                0x00000000       0x3c hpl/pac/hpl_pac.o
 .comment       0x00000000       0x5a hpl/pac/hpl_pac.o
 .ARM.attributes
                0x00000000       0x37 hpl/pac/hpl_pac.o
 .text          0x00000000        0x0 hpl/pm/hpl_pm.o
 .data          0x00000000        0x0 hpl/pm/hpl_pm.o
 .bss           0x00000000        0x0 hpl/pm/hpl_pm.o
 .text._set_sleep_mode
                0x00000000       0x30 hpl/pm/hpl_pm.o
 .comment       0x00000000       0x5a hpl/pm/hpl_pm.o
 .ARM.attributes
                0x00000000       0x37 hpl/pm/hpl_pm.o
 .text          0x00000000        0x0 hpl/qspi/hpl_qspi.o
 .data          0x00000000        0x0 hpl/qspi/hpl_qspi.o
 .bss           0x00000000        0x0 hpl/qspi/hpl_qspi.o
 .text._qspi_sync_init
                0x00000000       0x1c hpl/qspi/hpl_qspi.o
 .text._qspi_sync_deinit
                0x00000000        0xa hpl/qspi/hpl_qspi.o
 .text._qspi_sync_enable
                0x00000000        0xa hpl/qspi/hpl_qspi.o
 .text._qspi_sync_disable
                0x00000000        0x8 hpl/qspi/hpl_qspi.o
 .text._qspi_sync_serial_run_command
                0x00000000       0x98 hpl/qspi/hpl_qspi.o
 .text._qspi_dma_deinit
                0x00000000        0xa hpl/qspi/hpl_qspi.o
 .text._qspi_dma_enable
                0x00000000        0xa hpl/qspi/hpl_qspi.o
 .text._qspi_dma_disable
                0x00000000        0x8 hpl/qspi/hpl_qspi.o
 .text._qspi_dma_serial_run_command
                0x00000000       0xb4 hpl/qspi/hpl_qspi.o
 .text._qspi_dma_register_callback
                0x00000000       0x34 hpl/qspi/hpl_qspi.o
 .text          0x00000000        0x0 hpl/ramecc/hpl_ramecc.o
 .data          0x00000000        0x0 hpl/ramecc/hpl_ramecc.o
 .bss           0x00000000        0x0 hpl/ramecc/hpl_ramecc.o
 .text._ramecc_init
                0x00000000       0x34 hpl/ramecc/hpl_ramecc.o
 .text._ramecc_register_callback
                0x00000000       0x30 hpl/ramecc/hpl_ramecc.o
 .text          0x00000000        0x0 hpl/rtc/hpl_rtc.o
 .text          0x00000000        0x0 hpl/sercom/hpl_sercom.o
 .data          0x00000000        0x0 hpl/sercom/hpl_sercom.o
 .text.hri_sercomi2cs_wait_for_sync
                0x00000000        0x8 hpl/sercom/hpl_sercom.o
 .text.hri_sercomi2cs_clear_CTRLA_ENABLE_bit
                0x00000000       0x14 hpl/sercom/hpl_sercom.o
 .text._spi_deinit
                0x00000000       0x20 hpl/sercom/hpl_sercom.o
 .text._spi_sync_disable
                0x00000000       0x1c hpl/sercom/hpl_sercom.o
 .text._spi_set_char_size
                0x00000000       0x40 hpl/sercom/hpl_sercom.o
 .text._usart_set_baud_rate
                0x00000000       0x50 hpl/sercom/hpl_sercom.o
 .text._usart_set_data_order
                0x00000000       0x64 hpl/sercom/hpl_sercom.o
 .text._usart_set_mode
                0x00000000       0x64 hpl/sercom/hpl_sercom.o
 .text._usart_set_stop_bits
                0x00000000       0x64 hpl/sercom/hpl_sercom.o
 .text._usart_set_character_size
                0x00000000       0x64 hpl/sercom/hpl_sercom.o
 .text._i2c_s_set_address
                0x00000000       0x60 hpl/sercom/hpl_sercom.o
 .text._i2c_m_enable_implementation
                0x00000000       0x4c hpl/sercom/hpl_sercom.o
 .text._spi_set_data_order
                0x00000000       0x34 hpl/sercom/hpl_sercom.o
 .text._i2c_s_init
                0x00000000       0x60 hpl/sercom/hpl_sercom.o
 .text._usart_sync_deinit
                0x00000000       0x28 hpl/sercom/hpl_sercom.o
 .text._usart_async_deinit
                0x00000000       0x3c hpl/sercom/hpl_sercom.o
 .text._usart_sync_calculate_baud_rate
                0x00000000       0x48 hpl/sercom/hpl_sercom.o
 .text._usart_async_calculate_baud_rate
                0x00000000       0x48 hpl/sercom/hpl_sercom.o
 .text._usart_sync_disable
                0x00000000        0xc hpl/sercom/hpl_sercom.o
 .text._usart_sync_set_baud_rate
                0x00000000        0xc hpl/sercom/hpl_sercom.o
 .text._usart_async_set_baud_rate
                0x00000000        0xc hpl/sercom/hpl_sercom.o
 .text._usart_sync_set_data_order
                0x00000000        0xc hpl/sercom/hpl_sercom.o
 .text._usart_async_set_data_order
                0x00000000        0xc hpl/sercom/hpl_sercom.o
 .text._usart_sync_set_mode
                0x00000000        0xc hpl/sercom/hpl_sercom.o
 .text._usart_async_set_mode
                0x00000000        0xc hpl/sercom/hpl_sercom.o
 .text._usart_sync_set_parity
                0x00000000        0xc hpl/sercom/hpl_sercom.o
 .text._usart_sync_set_stop_bits
                0x00000000        0xc hpl/sercom/hpl_sercom.o
 .text._usart_async_set_stop_bits
                0x00000000        0xc hpl/sercom/hpl_sercom.o
 .text._usart_sync_set_character_size
                0x00000000        0xc hpl/sercom/hpl_sercom.o
 .text._usart_async_set_character_size
                0x00000000        0xc hpl/sercom/hpl_sercom.o
 .text._usart_sync_get_status
                0x00000000        0x8 hpl/sercom/hpl_sercom.o
 .text._usart_async_get_status
                0x00000000        0x8 hpl/sercom/hpl_sercom.o
 .text._usart_async_is_byte_sent
                0x00000000        0xa hpl/sercom/hpl_sercom.o
 .text._usart_sync_set_flow_control_state
                0x00000000        0x2 hpl/sercom/hpl_sercom.o
 .text._usart_async_set_flow_control_state
                0x00000000        0x2 hpl/sercom/hpl_sercom.o
 .text._usart_async_get_flow_control_state
                0x00000000        0x6 hpl/sercom/hpl_sercom.o
 .text._usart_sync_get_flow_control_state
                0x00000000        0x8 hpl/sercom/hpl_sercom.o
 .text._usart_sync_get_hardware_index
                0x00000000        0xc hpl/sercom/hpl_sercom.o
 .text._usart_async_get_hardware_index
                0x00000000        0xc hpl/sercom/hpl_sercom.o
 .text._i2c_m_async_enable
                0x00000000        0xc hpl/sercom/hpl_sercom.o
 .text._i2c_m_async_disable
                0x00000000       0x28 hpl/sercom/hpl_sercom.o
 .text._i2c_m_async_set_baudrate
                0x00000000      0x16c hpl/sercom/hpl_sercom.o
 .text._i2c_m_async_deinit
                0x00000000       0x28 hpl/sercom/hpl_sercom.o
 .text._i2c_m_async_send_stop
                0x00000000       0x1c hpl/sercom/hpl_sercom.o
 .text._i2c_m_async_get_bytes_left
                0x00000000        0xe hpl/sercom/hpl_sercom.o
 .text._i2c_m_sync_init
                0x00000000        0xc hpl/sercom/hpl_sercom.o
 .text._i2c_m_sync_deinit
                0x00000000       0x28 hpl/sercom/hpl_sercom.o
 .text._i2c_m_sync_enable
                0x00000000        0xc hpl/sercom/hpl_sercom.o
 .text._i2c_m_sync_disable
                0x00000000       0x10 hpl/sercom/hpl_sercom.o
 .text._i2c_m_sync_set_baudrate
                0x00000000      0x16c hpl/sercom/hpl_sercom.o
 .text._i2c_m_async_set_irq_state
                0x00000000       0x28 hpl/sercom/hpl_sercom.o
 .text._i2c_m_sync_transfer
                0x00000000      0x140 hpl/sercom/hpl_sercom.o
 .text._i2c_m_sync_send_stop
                0x00000000       0x1c hpl/sercom/hpl_sercom.o
 .text._i2c_s_sync_init
                0x00000000       0x18 hpl/sercom/hpl_sercom.o
 .text._i2c_s_async_init
                0x00000000       0x64 hpl/sercom/hpl_sercom.o
 .text._i2c_s_sync_deinit
                0x00000000       0x28 hpl/sercom/hpl_sercom.o
 .text._i2c_s_async_deinit
                0x00000000       0x3c hpl/sercom/hpl_sercom.o
 .text._i2c_s_sync_enable
                0x00000000       0x1c hpl/sercom/hpl_sercom.o
 .text._i2c_s_async_enable
                0x00000000       0x1c hpl/sercom/hpl_sercom.o
 .text._i2c_s_sync_disable
                0x00000000       0x10 hpl/sercom/hpl_sercom.o
 .text._i2c_s_async_disable
                0x00000000       0x10 hpl/sercom/hpl_sercom.o
 .text._i2c_s_sync_is_10bit_addressing_on
                0x00000000        0xa hpl/sercom/hpl_sercom.o
 .text._i2c_s_async_is_10bit_addressing_on
                0x00000000        0xa hpl/sercom/hpl_sercom.o
 .text._i2c_s_sync_set_address
                0x00000000        0xc hpl/sercom/hpl_sercom.o
 .text._i2c_s_async_set_address
                0x00000000        0xc hpl/sercom/hpl_sercom.o
 .text._i2c_s_sync_write_byte
                0x00000000        0x6 hpl/sercom/hpl_sercom.o
 .text._i2c_s_async_write_byte
                0x00000000        0x6 hpl/sercom/hpl_sercom.o
 .text._i2c_s_sync_read_byte
                0x00000000        0x8 hpl/sercom/hpl_sercom.o
 .text._i2c_s_sync_is_byte_received
                0x00000000        0xa hpl/sercom/hpl_sercom.o
 .text._i2c_s_sync_is_byte_sent
                0x00000000        0x8 hpl/sercom/hpl_sercom.o
 .text._i2c_s_sync_get_status
                0x00000000        0x8 hpl/sercom/hpl_sercom.o
 .text._i2c_s_sync_clear_data_ready_flag
                0x00000000        0xa hpl/sercom/hpl_sercom.o
 .text._i2c_s_async_get_status
                0x00000000        0x8 hpl/sercom/hpl_sercom.o
 .text._i2c_s_async_abort_transmission
                0x00000000        0xa hpl/sercom/hpl_sercom.o
 .text._i2c_s_async_set_irq_state
                0x00000000       0x20 hpl/sercom/hpl_sercom.o
 .text._spi_s_sync_init
                0x00000000        0x8 hpl/sercom/hpl_sercom.o
 .text._spi_s_async_init
                0x00000000        0x8 hpl/sercom/hpl_sercom.o
 .text._spi_s_async_deinit
                0x00000000       0x34 hpl/sercom/hpl_sercom.o
 .text._spi_m_async_deinit
                0x00000000        0x8 hpl/sercom/hpl_sercom.o
 .text._spi_s_sync_deinit
                0x00000000        0xc hpl/sercom/hpl_sercom.o
 .text._spi_m_sync_deinit
                0x00000000        0x8 hpl/sercom/hpl_sercom.o
 .text._spi_s_sync_enable
                0x00000000        0xc hpl/sercom/hpl_sercom.o
 .text._spi_m_sync_enable
                0x00000000        0x8 hpl/sercom/hpl_sercom.o
 .text._spi_s_sync_disable
                0x00000000        0xc hpl/sercom/hpl_sercom.o
 .text._spi_m_sync_disable
                0x00000000        0x8 hpl/sercom/hpl_sercom.o
 .text._spi_s_async_disable
                0x00000000       0x38 hpl/sercom/hpl_sercom.o
 .text._spi_m_async_disable
                0x00000000        0x8 hpl/sercom/hpl_sercom.o
 .text._spi_s_sync_set_mode
                0x00000000        0xc hpl/sercom/hpl_sercom.o
 .text._spi_m_sync_set_mode
                0x00000000        0x8 hpl/sercom/hpl_sercom.o
 .text._spi_calc_baud_val
                0x00000000       0x1e hpl/sercom/hpl_sercom.o
 .text._spi_m_sync_set_baudrate
                0x00000000       0x14 hpl/sercom/hpl_sercom.o
 .text._spi_s_async_set_char_size
                0x00000000        0xc hpl/sercom/hpl_sercom.o
 .text._spi_m_async_set_char_size
                0x00000000        0x8 hpl/sercom/hpl_sercom.o
 .text._spi_s_sync_set_char_size
                0x00000000        0xc hpl/sercom/hpl_sercom.o
 .text._spi_m_sync_set_char_size
                0x00000000        0x8 hpl/sercom/hpl_sercom.o
 .text._spi_s_async_set_data_order
                0x00000000        0xc hpl/sercom/hpl_sercom.o
 .text._spi_m_async_set_data_order
                0x00000000        0x8 hpl/sercom/hpl_sercom.o
 .text._spi_s_sync_set_data_order
                0x00000000        0xc hpl/sercom/hpl_sercom.o
 .text._spi_m_sync_set_data_order
                0x00000000        0x8 hpl/sercom/hpl_sercom.o
 .text._spi_m_sync_trans
                0x00000000       0xac hpl/sercom/hpl_sercom.o
 .text._spi_s_async_enable_tx
                0x00000000        0x8 hpl/sercom/hpl_sercom.o
 .text._spi_s_async_enable_rx
                0x00000000        0x8 hpl/sercom/hpl_sercom.o
 .text._spi_s_async_enable_ss_detect
                0x00000000        0x8 hpl/sercom/hpl_sercom.o
 .text._spi_s_async_write_one
                0x00000000        0x8 hpl/sercom/hpl_sercom.o
 .text._spi_s_sync_write_one
                0x00000000        0x8 hpl/sercom/hpl_sercom.o
 .text._spi_s_async_read_one
                0x00000000        0x8 hpl/sercom/hpl_sercom.o
 .text._spi_s_sync_read_one
                0x00000000        0x8 hpl/sercom/hpl_sercom.o
 .text._spi_s_async_register_callback
                0x00000000        0xa hpl/sercom/hpl_sercom.o
 .text._spi_s_sync_is_tx_ready
                0x00000000        0xa hpl/sercom/hpl_sercom.o
 .text._spi_s_sync_is_rx_ready
                0x00000000        0xa hpl/sercom/hpl_sercom.o
 .text._spi_s_sync_is_ss_deactivated
                0x00000000       0x12 hpl/sercom/hpl_sercom.o
 .text._spi_s_sync_is_error
                0x00000000       0x18 hpl/sercom/hpl_sercom.o
 .text._spi_s_async_set_irq_state
                0x00000000        0x8 hpl/sercom/hpl_sercom.o
 .text._spi_m_dma_deinit
                0x00000000        0xc hpl/sercom/hpl_sercom.o
 .text._spi_m_dma_disable
                0x00000000        0xc hpl/sercom/hpl_sercom.o
 .text._spi_m_dma_set_mode
                0x00000000        0xc hpl/sercom/hpl_sercom.o
 .text._spi_m_dma_set_baudrate
                0x00000000       0x14 hpl/sercom/hpl_sercom.o
 .text._spi_m_dma_set_data_order
                0x00000000        0xc hpl/sercom/hpl_sercom.o
 .text._spi_m_dma_set_char_size
                0x00000000       0x1c hpl/sercom/hpl_sercom.o
 .text          0x00000000        0x0 hpl/systick/hpl_systick.o
 .data          0x00000000        0x0 hpl/systick/hpl_systick.o
 .bss           0x00000000        0x0 hpl/systick/hpl_systick.o
 .text._system_time_init
                0x00000000       0x14 hpl/systick/hpl_systick.o
 .text._system_time_deinit
                0x00000000       0x10 hpl/systick/hpl_systick.o
 .text._system_time_get
                0x00000000        0xc hpl/systick/hpl_systick.o
 .text._system_time_get_max_time_value
                0x00000000        0x6 hpl/systick/hpl_systick.o
 .text          0x00000000        0x0 hpl/tc/hpl_tc.o
 .text._tc_get_pwm
                0x00000000        0x4 hpl/tc/hpl_tc.o
 .text          0x00000000        0x0 hpl/usb/hpl_usb.o
 .data          0x00000000        0x0 hpl/usb/hpl_usb.o
 .text._usb_d_dev_disable
                0x00000000       0x84 hpl/usb/hpl_usb.o
 .text._usb_d_dev_deinit
                0x00000000       0x74 hpl/usb/hpl_usb.o
 .text._usb_d_dev_detach
                0x00000000       0x10 hpl/usb/hpl_usb.o
 .text._usb_d_dev_send_remotewakeup
                0x00000000       0x2c hpl/usb/hpl_usb.o
 .text._usb_d_dev_get_speed
                0x00000000       0x24 hpl/usb/hpl_usb.o
 .text._usb_d_dev_get_address
                0x00000000        0xc hpl/usb/hpl_usb.o
 .text._usb_d_dev_get_uframe_n
                0x00000000        0xc hpl/usb/hpl_usb.o
 .text._usb_d_dev_ep0_init
                0x00000000       0x10 hpl/usb/hpl_usb.o
 .text._usb_d_dev_ep_disable
                0x00000000       0x3c hpl/usb/hpl_usb.o
 .text._usb_d_dev_ep_abort
                0x00000000       0x2c hpl/usb/hpl_usb.o
 .text._usb_d_dev_ep_get_status
                0x00000000       0x78 hpl/usb/hpl_usb.o
 .text          0x00000000        0x0 hpl/wdt/hpl_wdt.o
 .data          0x00000000        0x0 hpl/wdt/hpl_wdt.o
 .bss           0x00000000        0x0 hpl/wdt/hpl_wdt.o
 .text._wdt_set_timeout_period
                0x00000000       0xc4 hpl/wdt/hpl_wdt.o
 .text._wdt_get_timeout_period
                0x00000000       0x6a hpl/wdt/hpl_wdt.o
 .text._wdt_enable
                0x00000000       0x14 hpl/wdt/hpl_wdt.o
 .text._wdt_disable
                0x00000000       0x28 hpl/wdt/hpl_wdt.o
 .text._wdt_deinit
                0x00000000        0x8 hpl/wdt/hpl_wdt.o
 .text._wdt_feed
                0x00000000       0x10 hpl/wdt/hpl_wdt.o
 .text          0x00000000        0x0 main.o
 .data          0x00000000        0x0 main.o
 .text          0x00000000        0x0 stdio_redirect/gcc/read.o
 .data          0x00000000        0x0 stdio_redirect/gcc/read.o
 .bss           0x00000000        0x0 stdio_redirect/gcc/read.o
 .text          0x00000000        0x0 stdio_redirect/gcc/write.o
 .data          0x00000000        0x0 stdio_redirect/gcc/write.o
 .bss           0x00000000        0x0 stdio_redirect/gcc/write.o
 .text          0x00000000        0x0 stdio_redirect/stdio_io.o
 .data          0x00000000        0x0 stdio_redirect/stdio_io.o
 .text.stdio_io_set_io
                0x00000000        0xc stdio_redirect/stdio_io.o
 .text          0x00000000        0x0 stdio_start.o
 .data          0x00000000        0x0 stdio_start.o
 .bss           0x00000000        0x0 stdio_start.o
 .text.STDIO_REDIRECT_0_example
                0x00000000       0x10 stdio_start.o
 .rodata.str1.1
                0x00000000       0x16 stdio_start.o
 .text          0x00000000        0x0 usb/class/cdc/device/cdcdf_acm.o
 .text.cdcdf_acm_deinit
                0x00000000       0x20 usb/class/cdc/device/cdcdf_acm.o
 .text.cdcdf_acm_stop_xfer
                0x00000000       0x1c usb/class/cdc/device/cdcdf_acm.o
 .text.cdcdf_acm_is_enabled
                0x00000000        0xc usb/class/cdc/device/cdcdf_acm.o
 .text.cdcdf_acm_get_line_coding
                0x00000000        0x8 usb/class/cdc/device/cdcdf_acm.o
 .text.cdcdf_acm_get_version
                0x00000000        0x4 usb/class/cdc/device/cdcdf_acm.o
 .text          0x00000000        0x0 usb/class/hid/device/hiddf_generic.o
 .data          0x00000000        0x8 usb/class/hid/device/hiddf_generic.o
 .bss           0x00000000       0x24 usb/class/hid/device/hiddf_generic.o
 .text.hid_generic_req
                0x00000000       0xbc usb/class/hid/device/hiddf_generic.o
 .text.hid_generic_ctrl
                0x00000000      0x110 usb/class/hid/device/hiddf_generic.o
 .text.hiddf_generic_init
                0x00000000       0x54 usb/class/hid/device/hiddf_generic.o
 .text.hiddf_generic_deinit
                0x00000000       0x40 usb/class/hid/device/hiddf_generic.o
 .text.hiddf_generic_is_enabled
                0x00000000        0xc usb/class/hid/device/hiddf_generic.o
 .text.hiddf_generic_read
                0x00000000       0x2c usb/class/hid/device/hiddf_generic.o
 .text.hiddf_generic_write
                0x00000000       0x2c usb/class/hid/device/hiddf_generic.o
 .text.hiddf_generic_register_callback
                0x00000000       0x40 usb/class/hid/device/hiddf_generic.o
 .text.hiddf_generic_get_version
                0x00000000        0x4 usb/class/hid/device/hiddf_generic.o
 .comment       0x00000000       0x5a usb/class/hid/device/hiddf_generic.o
 .ARM.attributes
                0x00000000       0x37 usb/class/hid/device/hiddf_generic.o
 .text          0x00000000        0x0 usb/class/hid/device/hiddf_keyboard.o
 .text.hiddf_keyboard_deinit
                0x00000000       0x40 usb/class/hid/device/hiddf_keyboard.o
 .text.hiddf_keyboard_is_enabled
                0x00000000        0xc usb/class/hid/device/hiddf_keyboard.o
 .text.hiddf_keyboard_get_version
                0x00000000        0x4 usb/class/hid/device/hiddf_keyboard.o
 .text          0x00000000        0x0 usb/class/hid/device/hiddf_mouse.o
 .text.hiddf_mouse_deinit
                0x00000000       0x40 usb/class/hid/device/hiddf_mouse.o
 .text.hiddf_mouse_is_enabled
                0x00000000        0xc usb/class/hid/device/hiddf_mouse.o
 .text.hiddf_mouse_button_change
                0x00000000       0x30 usb/class/hid/device/hiddf_mouse.o
 .text.hiddf_mouse_get_version
                0x00000000        0x4 usb/class/hid/device/hiddf_mouse.o
 .text          0x00000000        0x0 usb/class/midi/device/audiodf_midi.o
 .text.audiodf_midi_deinit
                0x00000000       0x40 usb/class/midi/device/audiodf_midi.o
 .text.audiodf_midi_is_enabled
                0x00000000        0x4 usb/class/midi/device/audiodf_midi.o
 .text.audiodf_midi_get_version
                0x00000000        0x4 usb/class/midi/device/audiodf_midi.o
 .text          0x00000000        0x0 usb/class/midi/usb_protocol_midi.o
 .data          0x00000000        0x0 usb/class/midi/usb_protocol_midi.o
 .bss           0x00000000        0x0 usb/class/midi/usb_protocol_midi.o
 .comment       0x00000000       0x5a usb/class/midi/usb_protocol_midi.o
 .ARM.attributes
                0x00000000       0x37 usb/class/midi/usb_protocol_midi.o
 .text          0x00000000        0x0 usb/class/msc/device/mscdf.o
 .data          0x00000000       0x50 usb/class/msc/device/mscdf.o
 .bss           0x00000000       0x5c usb/class/msc/device/mscdf.o
 .text.mscdf_request_sense
                0x00000000       0x48 usb/class/msc/device/mscdf.o
 .text.mscdf_send_csw
                0x00000000       0x28 usb/class/msc/device/mscdf.o
 .text.mscdf_wait_cbw
                0x00000000       0x24 usb/class/msc/device/mscdf.o
 .text.mscdf_req
                0x00000000       0x88 usb/class/msc/device/mscdf.o
 .text.mscdf_ctrl
                0x00000000      0x12c usb/class/msc/device/mscdf.o
 .text.mscdf_invalid_cmd
                0x00000000       0x5c usb/class/msc/device/mscdf.o
 .text.mscdf_cmd_error
                0x00000000       0x28 usb/class/msc/device/mscdf.o
 .text.mscdf_read_write
                0x00000000      0x10c usb/class/msc/device/mscdf.o
 .text.mscdf_cb_ep_bulk_in
                0x00000000       0x5c usb/class/msc/device/mscdf.o
 .text.mscdf_cb_ep_bulk_out
                0x00000000      0x238 usb/class/msc/device/mscdf.o
 .text.mscdf_init
                0x00000000       0x48 usb/class/msc/device/mscdf.o
 .text.mscdf_deinit
                0x00000000       0x40 usb/class/msc/device/mscdf.o
 .text.mscdf_register_callback
                0x00000000       0x48 usb/class/msc/device/mscdf.o
 .text.mscdf_is_enabled
                0x00000000        0xc usb/class/msc/device/mscdf.o
 .text.mscdf_xfer_blocks
                0x00000000       0x60 usb/class/msc/device/mscdf.o
 .text.mscdf_get_version
                0x00000000        0x4 usb/class/msc/device/mscdf.o
 .comment       0x00000000       0x5a usb/class/msc/device/mscdf.o
 .ARM.attributes
                0x00000000       0x37 usb/class/msc/device/mscdf.o
 .text          0x00000000        0x0 usb/device/usbdc.o
 .data          0x00000000        0x0 usb/device/usbdc.o
 .text.usbdc_unregister_handler
                0x00000000       0x2c usb/device/usbdc.o
 .text.usbdc_deinit
                0x00000000       0x10 usb/device/usbdc.o
 .text.usbdc_unregister_function
                0x00000000       0x10 usb/device/usbdc.o
 .text.usbdc_validate_desces
                0x00000000       0x44 usb/device/usbdc.o
 .text.usbdc_check_desces
                0x00000000        0xc usb/device/usbdc.o
 .text.usbdc_stop
                0x00000000       0x18 usb/device/usbdc.o
 .text.usbdc_detach
                0x00000000        0x8 usb/device/usbdc.o
 .text.usbdc_remotewakeup
                0x00000000       0x18 usb/device/usbdc.o
 .text.usbdc_get_version
                0x00000000        0x4 usb/device/usbdc.o
 .text          0x00000000        0x0 usb/usb_protocol.o
 .data          0x00000000        0x0 usb/usb_protocol.o
 .bss           0x00000000        0x0 usb/usb_protocol.o
 .text.usb_find_iface_after
                0x00000000       0x24 usb/usb_protocol.o
 .text.usb_find_othspdcfg_desc
                0x00000000       0x3c usb/usb_protocol.o
 .text          0x00000000        0x0 usb_start.o
 .text.cdcdf_demo_cb_bulk_in
                0x00000000       0x1c usb_start.o
 .text.cdcdf_demo_cb_bulk_out
                0x00000000       0x18 usb_start.o
 .text.cdcdf_demo_cb_state_c
                0x00000000       0x40 usb_start.o
 .text.cdcdf_acm_demo_init
                0x00000000       0x18 usb_start.o
 .text.hiddf_demo_init
                0x00000000       0x1c usb_start.o
 .text.composite_device_example
                0x00000000       0x2c usb_start.o
 .data          0x00000000        0x0 c:/program files (x86)/atmel/studio/7.0/toolchain/arm/arm-gnu-toolchain/bin/../lib/gcc/arm-none-eabi/6.3.1/thumb/v7e-m\libgcc.a(_arm_addsubdf3.o)
 .bss           0x00000000        0x0 c:/program files (x86)/atmel/studio/7.0/toolchain/arm/arm-gnu-toolchain/bin/../lib/gcc/arm-none-eabi/6.3.1/thumb/v7e-m\libgcc.a(_arm_addsubdf3.o)
 .data          0x00000000        0x0 c:/program files (x86)/atmel/studio/7.0/toolchain/arm/arm-gnu-toolchain/bin/../lib/gcc/arm-none-eabi/6.3.1/thumb/v7e-m\libgcc.a(_arm_muldivdf3.o)
 .bss           0x00000000        0x0 c:/program files (x86)/atmel/studio/7.0/toolchain/arm/arm-gnu-toolchain/bin/../lib/gcc/arm-none-eabi/6.3.1/thumb/v7e-m\libgcc.a(_arm_muldivdf3.o)
 .data          0x00000000        0x0 c:/program files (x86)/atmel/studio/7.0/toolchain/arm/arm-gnu-toolchain/bin/../lib/gcc/arm-none-eabi/6.3.1/thumb/v7e-m\libgcc.a(_arm_fixunsdfsi.o)
 .bss           0x00000000        0x0 c:/program files (x86)/atmel/studio/7.0/toolchain/arm/arm-gnu-toolchain/bin/../lib/gcc/arm-none-eabi/6.3.1/thumb/v7e-m\libgcc.a(_arm_fixunsdfsi.o)
 .text          0x00000000       0x30 c:/program files (x86)/atmel/studio/7.0/toolchain/arm/arm-gnu-toolchain/bin/../lib/gcc/arm-none-eabi/6.3.1/thumb/v7e-m\libgcc.a(_aeabi_uldivmod.o)
 .data          0x00000000        0x0 c:/program files (x86)/atmel/studio/7.0/toolchain/arm/arm-gnu-toolchain/bin/../lib/gcc/arm-none-eabi/6.3.1/thumb/v7e-m\libgcc.a(_aeabi_uldivmod.o)
 .bss           0x00000000        0x0 c:/program files (x86)/atmel/studio/7.0/toolchain/arm/arm-gnu-toolchain/bin/../lib/gcc/arm-none-eabi/6.3.1/thumb/v7e-m\libgcc.a(_aeabi_uldivmod.o)
 .debug_frame   0x00000000       0x2c c:/program files (x86)/atmel/studio/7.0/toolchain/arm/arm-gnu-toolchain/bin/../lib/gcc/arm-none-eabi/6.3.1/thumb/v7e-m\libgcc.a(_aeabi_uldivmod.o)
 .ARM.attributes
                0x00000000       0x1e c:/program files (x86)/atmel/studio/7.0/toolchain/arm/arm-gnu-toolchain/bin/../lib/gcc/arm-none-eabi/6.3.1/thumb/v7e-m\libgcc.a(_aeabi_uldivmod.o)
 .text          0x00000000      0x2dc c:/program files (x86)/atmel/studio/7.0/toolchain/arm/arm-gnu-toolchain/bin/../lib/gcc/arm-none-eabi/6.3.1/thumb/v7e-m\libgcc.a(_udivmoddi4.o)
 .data          0x00000000        0x0 c:/program files (x86)/atmel/studio/7.0/toolchain/arm/arm-gnu-toolchain/bin/../lib/gcc/arm-none-eabi/6.3.1/thumb/v7e-m\libgcc.a(_udivmoddi4.o)
 .bss           0x00000000        0x0 c:/program files (x86)/atmel/studio/7.0/toolchain/arm/arm-gnu-toolchain/bin/../lib/gcc/arm-none-eabi/6.3.1/thumb/v7e-m\libgcc.a(_udivmoddi4.o)
 .ARM.extab     0x00000000        0x0 c:/program files (x86)/atmel/studio/7.0/toolchain/arm/arm-gnu-toolchain/bin/../lib/gcc/arm-none-eabi/6.3.1/thumb/v7e-m\libgcc.a(_udivmoddi4.o)
 .ARM.exidx     0x00000000        0x8 c:/program files (x86)/atmel/studio/7.0/toolchain/arm/arm-gnu-toolchain/bin/../lib/gcc/arm-none-eabi/6.3.1/thumb/v7e-m\libgcc.a(_udivmoddi4.o)
 .debug_frame   0x00000000       0x34 c:/program files (x86)/atmel/studio/7.0/toolchain/arm/arm-gnu-toolchain/bin/../lib/gcc/arm-none-eabi/6.3.1/thumb/v7e-m\libgcc.a(_udivmoddi4.o)
 .ARM.attributes
                0x00000000       0x2e c:/program files (x86)/atmel/studio/7.0/toolchain/arm/arm-gnu-toolchain/bin/../lib/gcc/arm-none-eabi/6.3.1/thumb/v7e-m\libgcc.a(_udivmoddi4.o)
 .text          0x00000000        0x4 c:/program files (x86)/atmel/studio/7.0/toolchain/arm/arm-gnu-toolchain/bin/../lib/gcc/arm-none-eabi/6.3.1/thumb/v7e-m\libgcc.a(_dvmd_tls.o)
 .data          0x00000000        0x0 c:/program files (x86)/atmel/studio/7.0/toolchain/arm/arm-gnu-toolchain/bin/../lib/gcc/arm-none-eabi/6.3.1/thumb/v7e-m\libgcc.a(_dvmd_tls.o)
 .bss           0x00000000        0x0 c:/program files (x86)/atmel/studio/7.0/toolchain/arm/arm-gnu-toolchain/bin/../lib/gcc/arm-none-eabi/6.3.1/thumb/v7e-m\libgcc.a(_dvmd_tls.o)
 .ARM.attributes
                0x00000000       0x1e c:/program files (x86)/atmel/studio/7.0/toolchain/arm/arm-gnu-toolchain/bin/../lib/gcc/arm-none-eabi/6.3.1/thumb/v7e-m\libgcc.a(_dvmd_tls.o)
 .text          0x00000000        0x0 c:/program files (x86)/atmel/studio/7.0/toolchain/arm/arm-gnu-toolchain/bin/../lib/gcc/arm-none-eabi/6.3.1/../../../../arm-none-eabi/lib/thumb/v7e-m\libc_nano.a(lib_a-exit.o)
 .data          0x00000000        0x0 c:/program files (x86)/atmel/studio/7.0/toolchain/arm/arm-gnu-toolchain/bin/../lib/gcc/arm-none-eabi/6.3.1/../../../../arm-none-eabi/lib/thumb/v7e-m\libc_nano.a(lib_a-exit.o)
 .bss           0x00000000        0x0 c:/program files (x86)/atmel/studio/7.0/toolchain/arm/arm-gnu-toolchain/bin/../lib/gcc/arm-none-eabi/6.3.1/../../../../arm-none-eabi/lib/thumb/v7e-m\libc_nano.a(lib_a-exit.o)
 .text.exit     0x00000000       0x28 c:/program files (x86)/atmel/studio/7.0/toolchain/arm/arm-gnu-toolchain/bin/../lib/gcc/arm-none-eabi/6.3.1/../../../../arm-none-eabi/lib/thumb/v7e-m\libc_nano.a(lib_a-exit.o)
 .debug_frame   0x00000000       0x28 c:/program files (x86)/atmel/studio/7.0/toolchain/arm/arm-gnu-toolchain/bin/../lib/gcc/arm-none-eabi/6.3.1/../../../../arm-none-eabi/lib/thumb/v7e-m\libc_nano.a(lib_a-exit.o)
 .ARM.attributes
                0x00000000       0x2e c:/program files (x86)/atmel/studio/7.0/toolchain/arm/arm-gnu-toolchain/bin/../lib/gcc/arm-none-eabi/6.3.1/../../../../arm-none-eabi/lib/thumb/v7e-m\libc_nano.a(lib_a-exit.o)
 .text          0x00000000        0x0 c:/program files (x86)/atmel/studio/7.0/toolchain/arm/arm-gnu-toolchain/bin/../lib/gcc/arm-none-eabi/6.3.1/../../../../arm-none-eabi/lib/thumb/v7e-m\libc_nano.a(lib_a-impure.o)
 .data          0x00000000        0x0 c:/program files (x86)/atmel/studio/7.0/toolchain/arm/arm-gnu-toolchain/bin/../lib/gcc/arm-none-eabi/6.3.1/../../../../arm-none-eabi/lib/thumb/v7e-m\libc_nano.a(lib_a-impure.o)
 .bss           0x00000000        0x0 c:/program files (x86)/atmel/studio/7.0/toolchain/arm/arm-gnu-toolchain/bin/../lib/gcc/arm-none-eabi/6.3.1/../../../../arm-none-eabi/lib/thumb/v7e-m\libc_nano.a(lib_a-impure.o)
 .text          0x00000000        0x0 c:/program files (x86)/atmel/studio/7.0/toolchain/arm/arm-gnu-toolchain/bin/../lib/gcc/arm-none-eabi/6.3.1/../../../../arm-none-eabi/lib/thumb/v7e-m\libc_nano.a(lib_a-init.o)
 .data          0x00000000        0x0 c:/program files (x86)/atmel/studio/7.0/toolchain/arm/arm-gnu-toolchain/bin/../lib/gcc/arm-none-eabi/6.3.1/../../../../arm-none-eabi/lib/thumb/v7e-m\libc_nano.a(lib_a-init.o)
 .bss           0x00000000        0x0 c:/program files (x86)/atmel/studio/7.0/toolchain/arm/arm-gnu-toolchain/bin/../lib/gcc/arm-none-eabi/6.3.1/../../../../arm-none-eabi/lib/thumb/v7e-m\libc_nano.a(lib_a-init.o)
 .text          0x00000000        0x0 c:/program files (x86)/atmel/studio/7.0/toolchain/arm/arm-gnu-toolchain/bin/../lib/gcc/arm-none-eabi/6.3.1/../../../../arm-none-eabi/lib/thumb/v7e-m\libc_nano.a(lib_a-malloc.o)
 .data          0x00000000        0x0 c:/program files (x86)/atmel/studio/7.0/toolchain/arm/arm-gnu-toolchain/bin/../lib/gcc/arm-none-eabi/6.3.1/../../../../arm-none-eabi/lib/thumb/v7e-m\libc_nano.a(lib_a-malloc.o)
 .bss           0x00000000        0x0 c:/program files (x86)/atmel/studio/7.0/toolchain/arm/arm-gnu-toolchain/bin/../lib/gcc/arm-none-eabi/6.3.1/../../../../arm-none-eabi/lib/thumb/v7e-m\libc_nano.a(lib_a-malloc.o)
 .text.free     0x00000000       0x10 c:/program files (x86)/atmel/studio/7.0/toolchain/arm/arm-gnu-toolchain/bin/../lib/gcc/arm-none-eabi/6.3.1/../../../../arm-none-eabi/lib/thumb/v7e-m\libc_nano.a(lib_a-malloc.o)
 .text          0x00000000        0x0 c:/program files (x86)/atmel/studio/7.0/toolchain/arm/arm-gnu-toolchain/bin/../lib/gcc/arm-none-eabi/6.3.1/../../../../arm-none-eabi/lib/thumb/v7e-m\libc_nano.a(lib_a-memcpy-stub.o)
 .data          0x00000000        0x0 c:/program files (x86)/atmel/studio/7.0/toolchain/arm/arm-gnu-toolchain/bin/../lib/gcc/arm-none-eabi/6.3.1/../../../../arm-none-eabi/lib/thumb/v7e-m\libc_nano.a(lib_a-memcpy-stub.o)
 .bss           0x00000000        0x0 c:/program files (x86)/atmel/studio/7.0/toolchain/arm/arm-gnu-toolchain/bin/../lib/gcc/arm-none-eabi/6.3.1/../../../../arm-none-eabi/lib/thumb/v7e-m\libc_nano.a(lib_a-memcpy-stub.o)
 .text          0x00000000        0x0 c:/program files (x86)/atmel/studio/7.0/toolchain/arm/arm-gnu-toolchain/bin/../lib/gcc/arm-none-eabi/6.3.1/../../../../arm-none-eabi/lib/thumb/v7e-m\libc_nano.a(lib_a-memset.o)
 .data          0x00000000        0x0 c:/program files (x86)/atmel/studio/7.0/toolchain/arm/arm-gnu-toolchain/bin/../lib/gcc/arm-none-eabi/6.3.1/../../../../arm-none-eabi/lib/thumb/v7e-m\libc_nano.a(lib_a-memset.o)
 .bss           0x00000000        0x0 c:/program files (x86)/atmel/studio/7.0/toolchain/arm/arm-gnu-toolchain/bin/../lib/gcc/arm-none-eabi/6.3.1/../../../../arm-none-eabi/lib/thumb/v7e-m\libc_nano.a(lib_a-memset.o)
 .text          0x00000000        0x0 c:/program files (x86)/atmel/studio/7.0/toolchain/arm/arm-gnu-toolchain/bin/../lib/gcc/arm-none-eabi/6.3.1/../../../../arm-none-eabi/lib/thumb/v7e-m\libc_nano.a(lib_a-nano-freer.o)
 .data          0x00000000        0x0 c:/program files (x86)/atmel/studio/7.0/toolchain/arm/arm-gnu-toolchain/bin/../lib/gcc/arm-none-eabi/6.3.1/../../../../arm-none-eabi/lib/thumb/v7e-m\libc_nano.a(lib_a-nano-freer.o)
 .bss           0x00000000        0x0 c:/program files (x86)/atmel/studio/7.0/toolchain/arm/arm-gnu-toolchain/bin/../lib/gcc/arm-none-eabi/6.3.1/../../../../arm-none-eabi/lib/thumb/v7e-m\libc_nano.a(lib_a-nano-freer.o)
 .text          0x00000000        0x0 c:/program files (x86)/atmel/studio/7.0/toolchain/arm/arm-gnu-toolchain/bin/../lib/gcc/arm-none-eabi/6.3.1/../../../../arm-none-eabi/lib/thumb/v7e-m\libc_nano.a(lib_a-nano-mallocr.o)
 .data          0x00000000        0x0 c:/program files (x86)/atmel/studio/7.0/toolchain/arm/arm-gnu-toolchain/bin/../lib/gcc/arm-none-eabi/6.3.1/../../../../arm-none-eabi/lib/thumb/v7e-m\libc_nano.a(lib_a-nano-mallocr.o)
 .bss           0x00000000        0x0 c:/program files (x86)/atmel/studio/7.0/toolchain/arm/arm-gnu-toolchain/bin/../lib/gcc/arm-none-eabi/6.3.1/../../../../arm-none-eabi/lib/thumb/v7e-m\libc_nano.a(lib_a-nano-mallocr.o)
 .text          0x00000000        0x0 c:/program files (x86)/atmel/studio/7.0/toolchain/arm/arm-gnu-toolchain/bin/../lib/gcc/arm-none-eabi/6.3.1/../../../../arm-none-eabi/lib/thumb/v7e-m\libc_nano.a(lib_a-printf.o)
 .data          0x00000000        0x0 c:/program files (x86)/atmel/studio/7.0/toolchain/arm/arm-gnu-toolchain/bin/../lib/gcc/arm-none-eabi/6.3.1/../../../../arm-none-eabi/lib/thumb/v7e-m\libc_nano.a(lib_a-printf.o)
 .bss           0x00000000        0x0 c:/program files (x86)/atmel/studio/7.0/toolchain/arm/arm-gnu-toolchain/bin/../lib/gcc/arm-none-eabi/6.3.1/../../../../arm-none-eabi/lib/thumb/v7e-m\libc_nano.a(lib_a-printf.o)
 .text._printf_r
                0x00000000       0x28 c:/program files (x86)/atmel/studio/7.0/toolchain/arm/arm-gnu-toolchain/bin/../lib/gcc/arm-none-eabi/6.3.1/../../../../arm-none-eabi/lib/thumb/v7e-m\libc_nano.a(lib_a-printf.o)
 .text          0x00000000        0x0 c:/program files (x86)/atmel/studio/7.0/toolchain/arm/arm-gnu-toolchain/bin/../lib/gcc/arm-none-eabi/6.3.1/../../../../arm-none-eabi/lib/thumb/v7e-m\libc_nano.a(lib_a-puts.o)
 .data          0x00000000        0x0 c:/program files (x86)/atmel/studio/7.0/toolchain/arm/arm-gnu-toolchain/bin/../lib/gcc/arm-none-eabi/6.3.1/../../../../arm-none-eabi/lib/thumb/v7e-m\libc_nano.a(lib_a-puts.o)
 .bss           0x00000000        0x0 c:/program files (x86)/atmel/studio/7.0/toolchain/arm/arm-gnu-toolchain/bin/../lib/gcc/arm-none-eabi/6.3.1/../../../../arm-none-eabi/lib/thumb/v7e-m\libc_nano.a(lib_a-puts.o)
 .text          0x00000000        0x0 c:/program files (x86)/atmel/studio/7.0/toolchain/arm/arm-gnu-toolchain/bin/../lib/gcc/arm-none-eabi/6.3.1/../../../../arm-none-eabi/lib/thumb/v7e-m\libc_nano.a(lib_a-rand.o)
 .data          0x00000000        0x0 c:/program files (x86)/atmel/studio/7.0/toolchain/arm/arm-gnu-toolchain/bin/../lib/gcc/arm-none-eabi/6.3.1/../../../../arm-none-eabi/lib/thumb/v7e-m\libc_nano.a(lib_a-rand.o)
 .bss           0x00000000        0x0 c:/program files (x86)/atmel/studio/7.0/toolchain/arm/arm-gnu-toolchain/bin/../lib/gcc/arm-none-eabi/6.3.1/../../../../arm-none-eabi/lib/thumb/v7e-m\libc_nano.a(lib_a-rand.o)
 .text.srand    0x00000000       0x50 c:/program files (x86)/atmel/studio/7.0/toolchain/arm/arm-gnu-toolchain/bin/../lib/gcc/arm-none-eabi/6.3.1/../../../../arm-none-eabi/lib/thumb/v7e-m\libc_nano.a(lib_a-rand.o)
 .text.rand     0x00000000       0x74 c:/program files (x86)/atmel/studio/7.0/toolchain/arm/arm-gnu-toolchain/bin/../lib/gcc/arm-none-eabi/6.3.1/../../../../arm-none-eabi/lib/thumb/v7e-m\libc_nano.a(lib_a-rand.o)
 .debug_frame   0x00000000       0x44 c:/program files (x86)/atmel/studio/7.0/toolchain/arm/arm-gnu-toolchain/bin/../lib/gcc/arm-none-eabi/6.3.1/../../../../arm-none-eabi/lib/thumb/v7e-m\libc_nano.a(lib_a-rand.o)
 .ARM.attributes
                0x00000000       0x2e c:/program files (x86)/atmel/studio/7.0/toolchain/arm/arm-gnu-toolchain/bin/../lib/gcc/arm-none-eabi/6.3.1/../../../../arm-none-eabi/lib/thumb/v7e-m\libc_nano.a(lib_a-rand.o)
 .text          0x00000000        0x0 c:/program files (x86)/atmel/studio/7.0/toolchain/arm/arm-gnu-toolchain/bin/../lib/gcc/arm-none-eabi/6.3.1/../../../../arm-none-eabi/lib/thumb/v7e-m\libc_nano.a(lib_a-sbrkr.o)
 .data          0x00000000        0x0 c:/program files (x86)/atmel/studio/7.0/toolchain/arm/arm-gnu-toolchain/bin/../lib/gcc/arm-none-eabi/6.3.1/../../../../arm-none-eabi/lib/thumb/v7e-m\libc_nano.a(lib_a-sbrkr.o)
 .bss           0x00000000        0x0 c:/program files (x86)/atmel/studio/7.0/toolchain/arm/arm-gnu-toolchain/bin/../lib/gcc/arm-none-eabi/6.3.1/../../../../arm-none-eabi/lib/thumb/v7e-m\libc_nano.a(lib_a-sbrkr.o)
 .text          0x00000000        0x0 c:/program files (x86)/atmel/studio/7.0/toolchain/arm/arm-gnu-toolchain/bin/../lib/gcc/arm-none-eabi/6.3.1/../../../../arm-none-eabi/lib/thumb/v7e-m\libc_nano.a(lib_a-setbuf.o)
 .data          0x00000000        0x0 c:/program files (x86)/atmel/studio/7.0/toolchain/arm/arm-gnu-toolchain/bin/../lib/gcc/arm-none-eabi/6.3.1/../../../../arm-none-eabi/lib/thumb/v7e-m\libc_nano.a(lib_a-setbuf.o)
 .bss           0x00000000        0x0 c:/program files (x86)/atmel/studio/7.0/toolchain/arm/arm-gnu-toolchain/bin/../lib/gcc/arm-none-eabi/6.3.1/../../../../arm-none-eabi/lib/thumb/v7e-m\libc_nano.a(lib_a-setbuf.o)
 .text          0x00000000        0x0 c:/program files (x86)/atmel/studio/7.0/toolchain/arm/arm-gnu-toolchain/bin/../lib/gcc/arm-none-eabi/6.3.1/../../../../arm-none-eabi/lib/thumb/v7e-m\libc_nano.a(lib_a-setvbuf.o)
 .data          0x00000000        0x0 c:/program files (x86)/atmel/studio/7.0/toolchain/arm/arm-gnu-toolchain/bin/../lib/gcc/arm-none-eabi/6.3.1/../../../../arm-none-eabi/lib/thumb/v7e-m\libc_nano.a(lib_a-setvbuf.o)
 .bss           0x00000000        0x0 c:/program files (x86)/atmel/studio/7.0/toolchain/arm/arm-gnu-toolchain/bin/../lib/gcc/arm-none-eabi/6.3.1/../../../../arm-none-eabi/lib/thumb/v7e-m\libc_nano.a(lib_a-setvbuf.o)
 .text          0x00000000        0x0 c:/program files (x86)/atmel/studio/7.0/toolchain/arm/arm-gnu-toolchain/bin/../lib/gcc/arm-none-eabi/6.3.1/../../../../arm-none-eabi/lib/thumb/v7e-m\libc_nano.a(lib_a-sprintf.o)
 .data          0x00000000        0x0 c:/program files (x86)/atmel/studio/7.0/toolchain/arm/arm-gnu-toolchain/bin/../lib/gcc/arm-none-eabi/6.3.1/../../../../arm-none-eabi/lib/thumb/v7e-m\libc_nano.a(lib_a-sprintf.o)
 .bss           0x00000000        0x0 c:/program files (x86)/atmel/studio/7.0/toolchain/arm/arm-gnu-toolchain/bin/../lib/gcc/arm-none-eabi/6.3.1/../../../../arm-none-eabi/lib/thumb/v7e-m\libc_nano.a(lib_a-sprintf.o)
 .text._sprintf_r
                0x00000000       0x40 c:/program files (x86)/atmel/studio/7.0/toolchain/arm/arm-gnu-toolchain/bin/../lib/gcc/arm-none-eabi/6.3.1/../../../../arm-none-eabi/lib/thumb/v7e-m\libc_nano.a(lib_a-sprintf.o)
 .text          0x00000000        0x0 c:/program files (x86)/atmel/studio/7.0/toolchain/arm/arm-gnu-toolchain/bin/../lib/gcc/arm-none-eabi/6.3.1/../../../../arm-none-eabi/lib/thumb/v7e-m\libc_nano.a(lib_a-strcpy.o)
 .data          0x00000000        0x0 c:/program files (x86)/atmel/studio/7.0/toolchain/arm/arm-gnu-toolchain/bin/../lib/gcc/arm-none-eabi/6.3.1/../../../../arm-none-eabi/lib/thumb/v7e-m\libc_nano.a(lib_a-strcpy.o)
 .bss           0x00000000        0x0 c:/program files (x86)/atmel/studio/7.0/toolchain/arm/arm-gnu-toolchain/bin/../lib/gcc/arm-none-eabi/6.3.1/../../../../arm-none-eabi/lib/thumb/v7e-m\libc_nano.a(lib_a-strcpy.o)
 .data          0x00000000        0x0 c:/program files (x86)/atmel/studio/7.0/toolchain/arm/arm-gnu-toolchain/bin/../lib/gcc/arm-none-eabi/6.3.1/../../../../arm-none-eabi/lib/thumb/v7e-m\libc_nano.a(lib_a-strlen.o)
 .bss           0x00000000        0x0 c:/program files (x86)/atmel/studio/7.0/toolchain/arm/arm-gnu-toolchain/bin/../lib/gcc/arm-none-eabi/6.3.1/../../../../arm-none-eabi/lib/thumb/v7e-m\libc_nano.a(lib_a-strlen.o)
 .text          0x00000000        0x0 c:/program files (x86)/atmel/studio/7.0/toolchain/arm/arm-gnu-toolchain/bin/../lib/gcc/arm-none-eabi/6.3.1/../../../../arm-none-eabi/lib/thumb/v7e-m\libc_nano.a(lib_a-wbuf.o)
 .data          0x00000000        0x0 c:/program files (x86)/atmel/studio/7.0/toolchain/arm/arm-gnu-toolchain/bin/../lib/gcc/arm-none-eabi/6.3.1/../../../../arm-none-eabi/lib/thumb/v7e-m\libc_nano.a(lib_a-wbuf.o)
 .bss           0x00000000        0x0 c:/program files (x86)/atmel/studio/7.0/toolchain/arm/arm-gnu-toolchain/bin/../lib/gcc/arm-none-eabi/6.3.1/../../../../arm-none-eabi/lib/thumb/v7e-m\libc_nano.a(lib_a-wbuf.o)
 .text.__swbuf  0x00000000       0x10 c:/program files (x86)/atmel/studio/7.0/toolchain/arm/arm-gnu-toolchain/bin/../lib/gcc/arm-none-eabi/6.3.1/../../../../arm-none-eabi/lib/thumb/v7e-m\libc_nano.a(lib_a-wbuf.o)
 .text          0x00000000        0x0 c:/program files (x86)/atmel/studio/7.0/toolchain/arm/arm-gnu-toolchain/bin/../lib/gcc/arm-none-eabi/6.3.1/../../../../arm-none-eabi/lib/thumb/v7e-m\libc_nano.a(lib_a-wsetup.o)
 .data          0x00000000        0x0 c:/program files (x86)/atmel/studio/7.0/toolchain/arm/arm-gnu-toolchain/bin/../lib/gcc/arm-none-eabi/6.3.1/../../../../arm-none-eabi/lib/thumb/v7e-m\libc_nano.a(lib_a-wsetup.o)
 .bss           0x00000000        0x0 c:/program files (x86)/atmel/studio/7.0/toolchain/arm/arm-gnu-toolchain/bin/../lib/gcc/arm-none-eabi/6.3.1/../../../../arm-none-eabi/lib/thumb/v7e-m\libc_nano.a(lib_a-wsetup.o)
 .text          0x00000000        0x0 c:/program files (x86)/atmel/studio/7.0/toolchain/arm/arm-gnu-toolchain/bin/../lib/gcc/arm-none-eabi/6.3.1/../../../../arm-none-eabi/lib/thumb/v7e-m\libc_nano.a(lib_a-fflush.o)
 .data          0x00000000        0x0 c:/program files (x86)/atmel/studio/7.0/toolchain/arm/arm-gnu-toolchain/bin/../lib/gcc/arm-none-eabi/6.3.1/../../../../arm-none-eabi/lib/thumb/v7e-m\libc_nano.a(lib_a-fflush.o)
 .bss           0x00000000        0x0 c:/program files (x86)/atmel/studio/7.0/toolchain/arm/arm-gnu-toolchain/bin/../lib/gcc/arm-none-eabi/6.3.1/../../../../arm-none-eabi/lib/thumb/v7e-m\libc_nano.a(lib_a-fflush.o)
 .text.fflush   0x00000000       0x24 c:/program files (x86)/atmel/studio/7.0/toolchain/arm/arm-gnu-toolchain/bin/../lib/gcc/arm-none-eabi/6.3.1/../../../../arm-none-eabi/lib/thumb/v7e-m\libc_nano.a(lib_a-fflush.o)
 .text          0x00000000        0x0 c:/program files (x86)/atmel/studio/7.0/toolchain/arm/arm-gnu-toolchain/bin/../lib/gcc/arm-none-eabi/6.3.1/../../../../arm-none-eabi/lib/thumb/v7e-m\libc_nano.a(lib_a-findfp.o)
 .data          0x00000000        0x0 c:/program files (x86)/atmel/studio/7.0/toolchain/arm/arm-gnu-toolchain/bin/../lib/gcc/arm-none-eabi/6.3.1/../../../../arm-none-eabi/lib/thumb/v7e-m\libc_nano.a(lib_a-findfp.o)
 .bss           0x00000000        0x0 c:/program files (x86)/atmel/studio/7.0/toolchain/arm/arm-gnu-toolchain/bin/../lib/gcc/arm-none-eabi/6.3.1/../../../../arm-none-eabi/lib/thumb/v7e-m\libc_nano.a(lib_a-findfp.o)
 .text.__fp_unlock
                0x00000000        0x4 c:/program files (x86)/atmel/studio/7.0/toolchain/arm/arm-gnu-toolchain/bin/../lib/gcc/arm-none-eabi/6.3.1/../../../../arm-none-eabi/lib/thumb/v7e-m\libc_nano.a(lib_a-findfp.o)
 .text.__fp_lock
                0x00000000        0x4 c:/program files (x86)/atmel/studio/7.0/toolchain/arm/arm-gnu-toolchain/bin/../lib/gcc/arm-none-eabi/6.3.1/../../../../arm-none-eabi/lib/thumb/v7e-m\libc_nano.a(lib_a-findfp.o)
 .text._cleanup
                0x00000000        0xc c:/program files (x86)/atmel/studio/7.0/toolchain/arm/arm-gnu-toolchain/bin/../lib/gcc/arm-none-eabi/6.3.1/../../../../arm-none-eabi/lib/thumb/v7e-m\libc_nano.a(lib_a-findfp.o)
 .text.__sfp_lock_acquire
                0x00000000        0x2 c:/program files (x86)/atmel/studio/7.0/toolchain/arm/arm-gnu-toolchain/bin/../lib/gcc/arm-none-eabi/6.3.1/../../../../arm-none-eabi/lib/thumb/v7e-m\libc_nano.a(lib_a-findfp.o)
 .text.__sfp_lock_release
                0x00000000        0x2 c:/program files (x86)/atmel/studio/7.0/toolchain/arm/arm-gnu-toolchain/bin/../lib/gcc/arm-none-eabi/6.3.1/../../../../arm-none-eabi/lib/thumb/v7e-m\libc_nano.a(lib_a-findfp.o)
 .text.__sinit_lock_acquire
                0x00000000        0x2 c:/program files (x86)/atmel/studio/7.0/toolchain/arm/arm-gnu-toolchain/bin/../lib/gcc/arm-none-eabi/6.3.1/../../../../arm-none-eabi/lib/thumb/v7e-m\libc_nano.a(lib_a-findfp.o)
 .text.__sinit_lock_release
                0x00000000        0x2 c:/program files (x86)/atmel/studio/7.0/toolchain/arm/arm-gnu-toolchain/bin/../lib/gcc/arm-none-eabi/6.3.1/../../../../arm-none-eabi/lib/thumb/v7e-m\libc_nano.a(lib_a-findfp.o)
 .text.__fp_lock_all
                0x00000000       0x14 c:/program files (x86)/atmel/studio/7.0/toolchain/arm/arm-gnu-toolchain/bin/../lib/gcc/arm-none-eabi/6.3.1/../../../../arm-none-eabi/lib/thumb/v7e-m\libc_nano.a(lib_a-findfp.o)
 .text.__fp_unlock_all
                0x00000000       0x14 c:/program files (x86)/atmel/studio/7.0/toolchain/arm/arm-gnu-toolchain/bin/../lib/gcc/arm-none-eabi/6.3.1/../../../../arm-none-eabi/lib/thumb/v7e-m\libc_nano.a(lib_a-findfp.o)
 .text          0x00000000        0x0 c:/program files (x86)/atmel/studio/7.0/toolchain/arm/arm-gnu-toolchain/bin/../lib/gcc/arm-none-eabi/6.3.1/../../../../arm-none-eabi/lib/thumb/v7e-m\libc_nano.a(lib_a-fwalk.o)
 .data          0x00000000        0x0 c:/program files (x86)/atmel/studio/7.0/toolchain/arm/arm-gnu-toolchain/bin/../lib/gcc/arm-none-eabi/6.3.1/../../../../arm-none-eabi/lib/thumb/v7e-m\libc_nano.a(lib_a-fwalk.o)
 .bss           0x00000000        0x0 c:/program files (x86)/atmel/studio/7.0/toolchain/arm/arm-gnu-toolchain/bin/../lib/gcc/arm-none-eabi/6.3.1/../../../../arm-none-eabi/lib/thumb/v7e-m\libc_nano.a(lib_a-fwalk.o)
 .text._fwalk   0x00000000       0x38 c:/program files (x86)/atmel/studio/7.0/toolchain/arm/arm-gnu-toolchain/bin/../lib/gcc/arm-none-eabi/6.3.1/../../../../arm-none-eabi/lib/thumb/v7e-m\libc_nano.a(lib_a-fwalk.o)
 .text          0x00000000        0x0 c:/program files (x86)/atmel/studio/7.0/toolchain/arm/arm-gnu-toolchain/bin/../lib/gcc/arm-none-eabi/6.3.1/../../../../arm-none-eabi/lib/thumb/v7e-m\libc_nano.a(lib_a-makebuf.o)
 .data          0x00000000        0x0 c:/program files (x86)/atmel/studio/7.0/toolchain/arm/arm-gnu-toolchain/bin/../lib/gcc/arm-none-eabi/6.3.1/../../../../arm-none-eabi/lib/thumb/v7e-m\libc_nano.a(lib_a-makebuf.o)
 .bss           0x00000000        0x0 c:/program files (x86)/atmel/studio/7.0/toolchain/arm/arm-gnu-toolchain/bin/../lib/gcc/arm-none-eabi/6.3.1/../../../../arm-none-eabi/lib/thumb/v7e-m\libc_nano.a(lib_a-makebuf.o)
 .text          0x00000000        0x0 c:/program files (x86)/atmel/studio/7.0/toolchain/arm/arm-gnu-toolchain/bin/../lib/gcc/arm-none-eabi/6.3.1/../../../../arm-none-eabi/lib/thumb/v7e-m\libc_nano.a(lib_a-mlock.o)
 .data          0x00000000        0x0 c:/program files (x86)/atmel/studio/7.0/toolchain/arm/arm-gnu-toolchain/bin/../lib/gcc/arm-none-eabi/6.3.1/../../../../arm-none-eabi/lib/thumb/v7e-m\libc_nano.a(lib_a-mlock.o)
 .bss           0x00000000        0x0 c:/program files (x86)/atmel/studio/7.0/toolchain/arm/arm-gnu-toolchain/bin/../lib/gcc/arm-none-eabi/6.3.1/../../../../arm-none-eabi/lib/thumb/v7e-m\libc_nano.a(lib_a-mlock.o)
 .text          0x00000000        0x0 c:/program files (x86)/atmel/studio/7.0/toolchain/arm/arm-gnu-toolchain/bin/../lib/gcc/arm-none-eabi/6.3.1/../../../../arm-none-eabi/lib/thumb/v7e-m\libc_nano.a(lib_a-nano-svfprintf.o)
 .data          0x00000000        0x0 c:/program files (x86)/atmel/studio/7.0/toolchain/arm/arm-gnu-toolchain/bin/../lib/gcc/arm-none-eabi/6.3.1/../../../../arm-none-eabi/lib/thumb/v7e-m\libc_nano.a(lib_a-nano-svfprintf.o)
 .bss           0x00000000        0x0 c:/program files (x86)/atmel/studio/7.0/toolchain/arm/arm-gnu-toolchain/bin/../lib/gcc/arm-none-eabi/6.3.1/../../../../arm-none-eabi/lib/thumb/v7e-m\libc_nano.a(lib_a-nano-svfprintf.o)
 .text.__ssprint_r
                0x00000000       0xf4 c:/program files (x86)/atmel/studio/7.0/toolchain/arm/arm-gnu-toolchain/bin/../lib/gcc/arm-none-eabi/6.3.1/../../../../arm-none-eabi/lib/thumb/v7e-m\libc_nano.a(lib_a-nano-svfprintf.o)
 .text          0x00000000        0x0 c:/program files (x86)/atmel/studio/7.0/toolchain/arm/arm-gnu-toolchain/bin/../lib/gcc/arm-none-eabi/6.3.1/../../../../arm-none-eabi/lib/thumb/v7e-m\libc_nano.a(lib_a-nano-vfprintf.o)
 .data          0x00000000        0x0 c:/program files (x86)/atmel/studio/7.0/toolchain/arm/arm-gnu-toolchain/bin/../lib/gcc/arm-none-eabi/6.3.1/../../../../arm-none-eabi/lib/thumb/v7e-m\libc_nano.a(lib_a-nano-vfprintf.o)
 .bss           0x00000000        0x0 c:/program files (x86)/atmel/studio/7.0/toolchain/arm/arm-gnu-toolchain/bin/../lib/gcc/arm-none-eabi/6.3.1/../../../../arm-none-eabi/lib/thumb/v7e-m\libc_nano.a(lib_a-nano-vfprintf.o)
 .text.__sprint_r
                0x00000000       0x1a c:/program files (x86)/atmel/studio/7.0/toolchain/arm/arm-gnu-toolchain/bin/../lib/gcc/arm-none-eabi/6.3.1/../../../../arm-none-eabi/lib/thumb/v7e-m\libc_nano.a(lib_a-nano-vfprintf.o)
 .text.vfprintf
                0x00000000       0x14 c:/program files (x86)/atmel/studio/7.0/toolchain/arm/arm-gnu-toolchain/bin/../lib/gcc/arm-none-eabi/6.3.1/../../../../arm-none-eabi/lib/thumb/v7e-m\libc_nano.a(lib_a-nano-vfprintf.o)
 .text          0x00000000        0x0 c:/program files (x86)/atmel/studio/7.0/toolchain/arm/arm-gnu-toolchain/bin/../lib/gcc/arm-none-eabi/6.3.1/../../../../arm-none-eabi/lib/thumb/v7e-m\libc_nano.a(lib_a-nano-vfprintf_i.o)
 .data          0x00000000        0x0 c:/program files (x86)/atmel/studio/7.0/toolchain/arm/arm-gnu-toolchain/bin/../lib/gcc/arm-none-eabi/6.3.1/../../../../arm-none-eabi/lib/thumb/v7e-m\libc_nano.a(lib_a-nano-vfprintf_i.o)
 .bss           0x00000000        0x0 c:/program files (x86)/atmel/studio/7.0/toolchain/arm/arm-gnu-toolchain/bin/../lib/gcc/arm-none-eabi/6.3.1/../../../../arm-none-eabi/lib/thumb/v7e-m\libc_nano.a(lib_a-nano-vfprintf_i.o)
 .text          0x00000000        0x0 c:/program files (x86)/atmel/studio/7.0/toolchain/arm/arm-gnu-toolchain/bin/../lib/gcc/arm-none-eabi/6.3.1/../../../../arm-none-eabi/lib/thumb/v7e-m\libc_nano.a(lib_a-reent.o)
 .data          0x00000000        0x0 c:/program files (x86)/atmel/studio/7.0/toolchain/arm/arm-gnu-toolchain/bin/../lib/gcc/arm-none-eabi/6.3.1/../../../../arm-none-eabi/lib/thumb/v7e-m\libc_nano.a(lib_a-reent.o)
 .bss           0x00000000        0x0 c:/program files (x86)/atmel/studio/7.0/toolchain/arm/arm-gnu-toolchain/bin/../lib/gcc/arm-none-eabi/6.3.1/../../../../arm-none-eabi/lib/thumb/v7e-m\libc_nano.a(lib_a-reent.o)
 .text.cleanup_glue
                0x00000000       0x1a c:/program files (x86)/atmel/studio/7.0/toolchain/arm/arm-gnu-toolchain/bin/../lib/gcc/arm-none-eabi/6.3.1/../../../../arm-none-eabi/lib/thumb/v7e-m\libc_nano.a(lib_a-reent.o)
 .text._reclaim_reent
                0x00000000       0xb8 c:/program files (x86)/atmel/studio/7.0/toolchain/arm/arm-gnu-toolchain/bin/../lib/gcc/arm-none-eabi/6.3.1/../../../../arm-none-eabi/lib/thumb/v7e-m\libc_nano.a(lib_a-reent.o)
 .text          0x00000000        0x0 c:/program files (x86)/atmel/studio/7.0/toolchain/arm/arm-gnu-toolchain/bin/../lib/gcc/arm-none-eabi/6.3.1/../../../../arm-none-eabi/lib/thumb/v7e-m\libc_nano.a(lib_a-stdio.o)
 .data          0x00000000        0x0 c:/program files (x86)/atmel/studio/7.0/toolchain/arm/arm-gnu-toolchain/bin/../lib/gcc/arm-none-eabi/6.3.1/../../../../arm-none-eabi/lib/thumb/v7e-m\libc_nano.a(lib_a-stdio.o)
 .bss           0x00000000        0x0 c:/program files (x86)/atmel/studio/7.0/toolchain/arm/arm-gnu-toolchain/bin/../lib/gcc/arm-none-eabi/6.3.1/../../../../arm-none-eabi/lib/thumb/v7e-m\libc_nano.a(lib_a-stdio.o)
 .text.__seofread
                0x00000000        0x4 c:/program files (x86)/atmel/studio/7.0/toolchain/arm/arm-gnu-toolchain/bin/../lib/gcc/arm-none-eabi/6.3.1/../../../../arm-none-eabi/lib/thumb/v7e-m\libc_nano.a(lib_a-stdio.o)
 .text          0x00000000        0x0 c:/program files (x86)/atmel/studio/7.0/toolchain/arm/arm-gnu-toolchain/bin/../lib/gcc/arm-none-eabi/6.3.1/../../../../arm-none-eabi/lib/thumb/v7e-m\libc_nano.a(lib_a-writer.o)
 .data          0x00000000        0x0 c:/program files (x86)/atmel/studio/7.0/toolchain/arm/arm-gnu-toolchain/bin/../lib/gcc/arm-none-eabi/6.3.1/../../../../arm-none-eabi/lib/thumb/v7e-m\libc_nano.a(lib_a-writer.o)
 .bss           0x00000000        0x0 c:/program files (x86)/atmel/studio/7.0/toolchain/arm/arm-gnu-toolchain/bin/../lib/gcc/arm-none-eabi/6.3.1/../../../../arm-none-eabi/lib/thumb/v7e-m\libc_nano.a(lib_a-writer.o)
 .text          0x00000000        0x0 c:/program files (x86)/atmel/studio/7.0/toolchain/arm/arm-gnu-toolchain/bin/../lib/gcc/arm-none-eabi/6.3.1/../../../../arm-none-eabi/lib/thumb/v7e-m\libc_nano.a(lib_a-closer.o)
 .data          0x00000000        0x0 c:/program files (x86)/atmel/studio/7.0/toolchain/arm/arm-gnu-toolchain/bin/../lib/gcc/arm-none-eabi/6.3.1/../../../../arm-none-eabi/lib/thumb/v7e-m\libc_nano.a(lib_a-closer.o)
 .bss           0x00000000        0x0 c:/program files (x86)/atmel/studio/7.0/toolchain/arm/arm-gnu-toolchain/bin/../lib/gcc/arm-none-eabi/6.3.1/../../../../arm-none-eabi/lib/thumb/v7e-m\libc_nano.a(lib_a-closer.o)
 .text          0x00000000        0x0 c:/program files (x86)/atmel/studio/7.0/toolchain/arm/arm-gnu-toolchain/bin/../lib/gcc/arm-none-eabi/6.3.1/../../../../arm-none-eabi/lib/thumb/v7e-m\libc_nano.a(lib_a-fstatr.o)
 .data          0x00000000        0x0 c:/program files (x86)/atmel/studio/7.0/toolchain/arm/arm-gnu-toolchain/bin/../lib/gcc/arm-none-eabi/6.3.1/../../../../arm-none-eabi/lib/thumb/v7e-m\libc_nano.a(lib_a-fstatr.o)
 .bss           0x00000000        0x0 c:/program files (x86)/atmel/studio/7.0/toolchain/arm/arm-gnu-toolchain/bin/../lib/gcc/arm-none-eabi/6.3.1/../../../../arm-none-eabi/lib/thumb/v7e-m\libc_nano.a(lib_a-fstatr.o)
 .text          0x00000000        0x0 c:/program files (x86)/atmel/studio/7.0/toolchain/arm/arm-gnu-toolchain/bin/../lib/gcc/arm-none-eabi/6.3.1/../../../../arm-none-eabi/lib/thumb/v7e-m\libc_nano.a(lib_a-fvwrite.o)
 .data          0x00000000        0x0 c:/program files (x86)/atmel/studio/7.0/toolchain/arm/arm-gnu-toolchain/bin/../lib/gcc/arm-none-eabi/6.3.1/../../../../arm-none-eabi/lib/thumb/v7e-m\libc_nano.a(lib_a-fvwrite.o)
 .bss           0x00000000        0x0 c:/program files (x86)/atmel/studio/7.0/toolchain/arm/arm-gnu-toolchain/bin/../lib/gcc/arm-none-eabi/6.3.1/../../../../arm-none-eabi/lib/thumb/v7e-m\libc_nano.a(lib_a-fvwrite.o)
 .text.__sfvwrite_r
                0x00000000      0x29c c:/program files (x86)/atmel/studio/7.0/toolchain/arm/arm-gnu-toolchain/bin/../lib/gcc/arm-none-eabi/6.3.1/../../../../arm-none-eabi/lib/thumb/v7e-m\libc_nano.a(lib_a-fvwrite.o)
 .debug_frame   0x00000000       0x3c c:/program files (x86)/atmel/studio/7.0/toolchain/arm/arm-gnu-toolchain/bin/../lib/gcc/arm-none-eabi/6.3.1/../../../../arm-none-eabi/lib/thumb/v7e-m\libc_nano.a(lib_a-fvwrite.o)
 .ARM.attributes
                0x00000000       0x2e c:/program files (x86)/atmel/studio/7.0/toolchain/arm/arm-gnu-toolchain/bin/../lib/gcc/arm-none-eabi/6.3.1/../../../../arm-none-eabi/lib/thumb/v7e-m\libc_nano.a(lib_a-fvwrite.o)
 .text          0x00000000        0x0 c:/program files (x86)/atmel/studio/7.0/toolchain/arm/arm-gnu-toolchain/bin/../lib/gcc/arm-none-eabi/6.3.1/../../../../arm-none-eabi/lib/thumb/v7e-m\libc_nano.a(lib_a-isattyr.o)
 .data          0x00000000        0x0 c:/program files (x86)/atmel/studio/7.0/toolchain/arm/arm-gnu-toolchain/bin/../lib/gcc/arm-none-eabi/6.3.1/../../../../arm-none-eabi/lib/thumb/v7e-m\libc_nano.a(lib_a-isattyr.o)
 .bss           0x00000000        0x0 c:/program files (x86)/atmel/studio/7.0/toolchain/arm/arm-gnu-toolchain/bin/../lib/gcc/arm-none-eabi/6.3.1/../../../../arm-none-eabi/lib/thumb/v7e-m\libc_nano.a(lib_a-isattyr.o)
 .text          0x00000000        0x0 c:/program files (x86)/atmel/studio/7.0/toolchain/arm/arm-gnu-toolchain/bin/../lib/gcc/arm-none-eabi/6.3.1/../../../../arm-none-eabi/lib/thumb/v7e-m\libc_nano.a(lib_a-lseekr.o)
 .data          0x00000000        0x0 c:/program files (x86)/atmel/studio/7.0/toolchain/arm/arm-gnu-toolchain/bin/../lib/gcc/arm-none-eabi/6.3.1/../../../../arm-none-eabi/lib/thumb/v7e-m\libc_nano.a(lib_a-lseekr.o)
 .bss           0x00000000        0x0 c:/program files (x86)/atmel/studio/7.0/toolchain/arm/arm-gnu-toolchain/bin/../lib/gcc/arm-none-eabi/6.3.1/../../../../arm-none-eabi/lib/thumb/v7e-m\libc_nano.a(lib_a-lseekr.o)
 .data          0x00000000        0x0 c:/program files (x86)/atmel/studio/7.0/toolchain/arm/arm-gnu-toolchain/bin/../lib/gcc/arm-none-eabi/6.3.1/../../../../arm-none-eabi/lib/thumb/v7e-m\libc_nano.a(lib_a-memchr.o)
 .bss           0x00000000        0x0 c:/program files (x86)/atmel/studio/7.0/toolchain/arm/arm-gnu-toolchain/bin/../lib/gcc/arm-none-eabi/6.3.1/../../../../arm-none-eabi/lib/thumb/v7e-m\libc_nano.a(lib_a-memchr.o)
 .text          0x00000000        0x0 c:/program files (x86)/atmel/studio/7.0/toolchain/arm/arm-gnu-toolchain/bin/../lib/gcc/arm-none-eabi/6.3.1/../../../../arm-none-eabi/lib/thumb/v7e-m\libc_nano.a(lib_a-memmove.o)
 .data          0x00000000        0x0 c:/program files (x86)/atmel/studio/7.0/toolchain/arm/arm-gnu-toolchain/bin/../lib/gcc/arm-none-eabi/6.3.1/../../../../arm-none-eabi/lib/thumb/v7e-m\libc_nano.a(lib_a-memmove.o)
 .bss           0x00000000        0x0 c:/program files (x86)/atmel/studio/7.0/toolchain/arm/arm-gnu-toolchain/bin/../lib/gcc/arm-none-eabi/6.3.1/../../../../arm-none-eabi/lib/thumb/v7e-m\libc_nano.a(lib_a-memmove.o)
 .text          0x00000000        0x0 c:/program files (x86)/atmel/studio/7.0/toolchain/arm/arm-gnu-toolchain/bin/../lib/gcc/arm-none-eabi/6.3.1/../../../../arm-none-eabi/lib/thumb/v7e-m\libc_nano.a(lib_a-nano-reallocr.o)
 .data          0x00000000        0x0 c:/program files (x86)/atmel/studio/7.0/toolchain/arm/arm-gnu-toolchain/bin/../lib/gcc/arm-none-eabi/6.3.1/../../../../arm-none-eabi/lib/thumb/v7e-m\libc_nano.a(lib_a-nano-reallocr.o)
 .bss           0x00000000        0x0 c:/program files (x86)/atmel/studio/7.0/toolchain/arm/arm-gnu-toolchain/bin/../lib/gcc/arm-none-eabi/6.3.1/../../../../arm-none-eabi/lib/thumb/v7e-m\libc_nano.a(lib_a-nano-reallocr.o)
 .text          0x00000000        0x0 c:/program files (x86)/atmel/studio/7.0/toolchain/arm/arm-gnu-toolchain/bin/../lib/gcc/arm-none-eabi/6.3.1/../../../../arm-none-eabi/lib/thumb/v7e-m\libc_nano.a(lib_a-readr.o)
 .data          0x00000000        0x0 c:/program files (x86)/atmel/studio/7.0/toolchain/arm/arm-gnu-toolchain/bin/../lib/gcc/arm-none-eabi/6.3.1/../../../../arm-none-eabi/lib/thumb/v7e-m\libc_nano.a(lib_a-readr.o)
 .bss           0x00000000        0x0 c:/program files (x86)/atmel/studio/7.0/toolchain/arm/arm-gnu-toolchain/bin/../lib/gcc/arm-none-eabi/6.3.1/../../../../arm-none-eabi/lib/thumb/v7e-m\libc_nano.a(lib_a-readr.o)
 .text          0x00000000        0x0 c:/program files (x86)/atmel/studio/7.0/toolchain/arm/arm-gnu-toolchain/bin/../lib/gcc/arm-none-eabi/6.3.1/../../../../arm-none-eabi/lib/thumb/v7e-m\libc_nano.a(lib_a-nano-msizer.o)
 .data          0x00000000        0x0 c:/program files (x86)/atmel/studio/7.0/toolchain/arm/arm-gnu-toolchain/bin/../lib/gcc/arm-none-eabi/6.3.1/../../../../arm-none-eabi/lib/thumb/v7e-m\libc_nano.a(lib_a-nano-msizer.o)
 .bss           0x00000000        0x0 c:/program files (x86)/atmel/studio/7.0/toolchain/arm/arm-gnu-toolchain/bin/../lib/gcc/arm-none-eabi/6.3.1/../../../../arm-none-eabi/lib/thumb/v7e-m\libc_nano.a(lib_a-nano-msizer.o)
 .text          0x00000000        0x0 c:/program files (x86)/atmel/studio/7.0/toolchain/arm/arm-gnu-toolchain/bin/../lib/gcc/arm-none-eabi/6.3.1/thumb/v7e-m/crtend.o
 .data          0x00000000        0x0 c:/program files (x86)/atmel/studio/7.0/toolchain/arm/arm-gnu-toolchain/bin/../lib/gcc/arm-none-eabi/6.3.1/thumb/v7e-m/crtend.o
 .bss           0x00000000        0x0 c:/program files (x86)/atmel/studio/7.0/toolchain/arm/arm-gnu-toolchain/bin/../lib/gcc/arm-none-eabi/6.3.1/thumb/v7e-m/crtend.o
 .eh_frame      0x00000000        0x4 c:/program files (x86)/atmel/studio/7.0/toolchain/arm/arm-gnu-toolchain/bin/../lib/gcc/arm-none-eabi/6.3.1/thumb/v7e-m/crtend.o
 .jcr           0x00000000        0x4 c:/program files (x86)/atmel/studio/7.0/toolchain/arm/arm-gnu-toolchain/bin/../lib/gcc/arm-none-eabi/6.3.1/thumb/v7e-m/crtend.o
 .ARM.attributes
                0x00000000       0x2e c:/program files (x86)/atmel/studio/7.0/toolchain/arm/arm-gnu-toolchain/bin/../lib/gcc/arm-none-eabi/6.3.1/thumb/v7e-m/crtend.o
 .text          0x00000000        0x0 c:/program files (x86)/atmel/studio/7.0/toolchain/arm/arm-gnu-toolchain/bin/../lib/gcc/arm-none-eabi/6.3.1/thumb/v7e-m/crtn.o
 .data          0x00000000        0x0 c:/program files (x86)/atmel/studio/7.0/toolchain/arm/arm-gnu-toolchain/bin/../lib/gcc/arm-none-eabi/6.3.1/thumb/v7e-m/crtn.o
 .bss           0x00000000        0x0 c:/program files (x86)/atmel/studio/7.0/toolchain/arm/arm-gnu-toolchain/bin/../lib/gcc/arm-none-eabi/6.3.1/thumb/v7e-m/crtn.o

Memory Configuration

Name             Origin             Length             Attributes
rom              0x00004000         0x0007a000         xr
ram              0x20000000         0x00040000         xrw
bkupram          0x47000000         0x00002000         xrw
qspi             0x04000000         0x01000000         xrw
*default*        0x00000000         0xffffffff

Linker script and memory map

LOAD c:/program files (x86)/atmel/studio/7.0/toolchain/arm/arm-gnu-toolchain/bin/../lib/gcc/arm-none-eabi/6.3.1/thumb/v7e-m/crti.o
LOAD c:/program files (x86)/atmel/studio/7.0/toolchain/arm/arm-gnu-toolchain/bin/../lib/gcc/arm-none-eabi/6.3.1/thumb/v7e-m/crtbegin.o
LOAD c:/program files (x86)/atmel/studio/7.0/toolchain/arm/arm-gnu-toolchain/bin/../lib/gcc/arm-none-eabi/6.3.1/../../../../arm-none-eabi/lib/thumb/v7e-m/crt0.o
LOAD atmel_start.o
LOAD Device_Startup/startup_samd51.o
LOAD Device_Startup/system_samd51.o
LOAD driver_init.o
LOAD examples/driver_examples.o
LOAD flash/n25q256a.o
LOAD flash/spi_nor_flash.o
LOAD grid/grid_d51.o
LOAD grid/grid_debug.o
LOAD grid/grid_hardwaretest.o
LOAD grid/grid_msg.o
LOAD grid/grid_nvm.o
LOAD grid/grid_unittest.o
LOAD grid/grid_ain.o
LOAD grid/grid_buf.o
LOAD grid/grid_led.o
LOAD grid/grid_module.o
LOAD grid/grid_module_bu16_revb.o
LOAD grid/grid_module_en16_reva.o
LOAD grid/grid_module_pbf4_reva.o
LOAD grid/grid_module_po16_revb.o
LOAD grid/grid_sys.o
LOAD grid/grid_ui.o
LOAD grid/grid_usb.o
LOAD hal/src/hal_adc_async.o
LOAD hal/src/hal_atomic.o
LOAD hal/src/hal_cache.o
LOAD hal/src/hal_crc_sync.o
LOAD hal/src/hal_delay.o
LOAD hal/src/hal_evsys.o
LOAD hal/src/hal_flash.o
LOAD hal/src/hal_gpio.o
LOAD hal/src/hal_i2c_m_async.o
LOAD hal/src/hal_init.o
LOAD hal/src/hal_io.o
LOAD hal/src/hal_qspi_dma.o
LOAD hal/src/hal_sleep.o
LOAD hal/src/hal_spi_m_async.o
LOAD hal/src/hal_spi_m_dma.o
LOAD hal/src/hal_timer.o
LOAD hal/src/hal_usart_async.o
LOAD hal/src/hal_usart_sync.o
LOAD hal/src/hal_usb_device.o
LOAD hal/src/hal_wdt.o
LOAD hal/utils/src/utils_assert.o
LOAD hal/utils/src/utils_event.o
LOAD hal/utils/src/utils_list.o
LOAD hal/utils/src/utils_ringbuffer.o
LOAD hal/utils/src/utils_syscalls.o
LOAD hpl/adc/hpl_adc.o
LOAD hpl/cmcc/hpl_cmcc.o
LOAD hpl/core/hpl_core_m4.o
LOAD hpl/core/hpl_init.o
LOAD hpl/dmac/hpl_dmac.o
LOAD hpl/dsu/hpl_dsu.o
LOAD hpl/evsys/hpl_evsys.o
LOAD hpl/gclk/hpl_gclk.o
LOAD hpl/mclk/hpl_mclk.o
LOAD hpl/nvmctrl/hpl_nvmctrl.o
LOAD hpl/osc32kctrl/hpl_osc32kctrl.o
LOAD hpl/oscctrl/hpl_oscctrl.o
LOAD hpl/pac/hpl_pac.o
LOAD hpl/pm/hpl_pm.o
LOAD hpl/qspi/hpl_qspi.o
LOAD hpl/ramecc/hpl_ramecc.o
LOAD hpl/rtc/hpl_rtc.o
LOAD hpl/sercom/hpl_sercom.o
LOAD hpl/systick/hpl_systick.o
LOAD hpl/tc/hpl_tc.o
LOAD hpl/usb/hpl_usb.o
LOAD hpl/wdt/hpl_wdt.o
LOAD main.o
LOAD stdio_redirect/gcc/read.o
LOAD stdio_redirect/gcc/write.o
LOAD stdio_redirect/stdio_io.o
LOAD stdio_start.o
LOAD usb/class/cdc/device/cdcdf_acm.o
LOAD usb/class/hid/device/hiddf_generic.o
LOAD usb/class/hid/device/hiddf_keyboard.o
LOAD usb/class/hid/device/hiddf_mouse.o
LOAD usb/class/midi/device/audiodf_midi.o
LOAD usb/class/midi/usb_protocol_midi.o
LOAD usb/class/msc/device/mscdf.o
LOAD usb/device/usbdc.o
LOAD usb/usb_protocol.o
LOAD usb_start.o
START GROUP
LOAD c:/program files (x86)/atmel/studio/7.0/toolchain/arm/arm-gnu-toolchain/bin/../lib/gcc/arm-none-eabi/6.3.1/../../../../arm-none-eabi/lib/thumb/v7e-m\libm.a
END GROUP
START GROUP
LOAD c:/program files (x86)/atmel/studio/7.0/toolchain/arm/arm-gnu-toolchain/bin/../lib/gcc/arm-none-eabi/6.3.1/thumb/v7e-m\libgcc.a
LOAD c:/program files (x86)/atmel/studio/7.0/toolchain/arm/arm-gnu-toolchain/bin/../lib/gcc/arm-none-eabi/6.3.1/../../../../arm-none-eabi/lib/thumb/v7e-m\libc_nano.a
END GROUP
START GROUP
LOAD c:/program files (x86)/atmel/studio/7.0/toolchain/arm/arm-gnu-toolchain/bin/../lib/gcc/arm-none-eabi/6.3.1/thumb/v7e-m\libgcc.a
LOAD c:/program files (x86)/atmel/studio/7.0/toolchain/arm/arm-gnu-toolchain/bin/../lib/gcc/arm-none-eabi/6.3.1/../../../../arm-none-eabi/lib/thumb/v7e-m\libc_nano.a
END GROUP
LOAD c:/program files (x86)/atmel/studio/7.0/toolchain/arm/arm-gnu-toolchain/bin/../lib/gcc/arm-none-eabi/6.3.1/thumb/v7e-m/crtend.o
LOAD c:/program files (x86)/atmel/studio/7.0/toolchain/arm/arm-gnu-toolchain/bin/../lib/gcc/arm-none-eabi/6.3.1/thumb/v7e-m/crtn.o
                0x00010000                STACK_SIZE = DEFINED (STACK_SIZE)?STACK_SIZE:DEFINED (__stack_size__)?__stack_size__:0x10000

.text           0x00004000     0xe174
                0x00004000                . = ALIGN (0x4)
                0x00004000                _sfixed = .
 *(.vectors .vectors.*)
 .vectors       0x00004000      0x264 Device_Startup/startup_samd51.o
                0x00004000                exception_table
 *(.text .text.* .gnu.linkonce.t.*)
 .text          0x00004264       0x6c c:/program files (x86)/atmel/studio/7.0/toolchain/arm/arm-gnu-toolchain/bin/../lib/gcc/arm-none-eabi/6.3.1/thumb/v7e-m/crtbegin.o
 .text.atmel_start_init
                0x000042d0       0x20 atmel_start.o
                0x000042d0                atmel_start_init
 .text.Dummy_Handler
                0x000042f0        0x2 Device_Startup/startup_samd51.o
                0x000042f0                EIC_5_Handler
                0x000042f0                SVCall_Handler
                0x000042f0                EIC_13_Handler
                0x000042f0                EVSYS_0_Handler
                0x000042f0                TCC1_3_Handler
                0x000042f0                DAC_3_Handler
                0x000042f0                TRNG_Handler
                0x000042f0                HardFault_Handler
                0x000042f0                PDEC_2_Handler
                0x000042f0                EIC_4_Handler
                0x000042f0                AC_Handler
                0x000042f0                SysTick_Handler
                0x000042f0                TCC2_3_Handler
                0x000042f0                PendSV_Handler
                0x000042f0                TC7_Handler
                0x000042f0                EVSYS_3_Handler
                0x000042f0                PDEC_0_Handler
                0x000042f0                QSPI_Handler
                0x000042f0                NonMaskableInt_Handler
                0x000042f0                TCC0_0_Handler
                0x000042f0                EIC_3_Handler
                0x000042f0                MemManagement_Handler
                0x000042f0                DAC_2_Handler
                0x000042f0                UsageFault_Handler
                0x000042f0                EIC_10_Handler
                0x000042f0                EIC_11_Handler
                0x000042f0                EIC_9_Handler
                0x000042f0                OSC32KCTRL_Handler
                0x000042f0                TCC2_1_Handler
                0x000042f0                SUPC_1_Handler
                0x000042f0                TCC0_5_Handler
                0x000042f0                TCC0_6_Handler
                0x000042f0                EVSYS_1_Handler
                0x000042f0                TCC1_4_Handler
                0x000042f0                TC6_Handler
                0x000042f0                WDT_Handler
                0x000042f0                EIC_8_Handler
                0x000042f0                EIC_15_Handler
                0x000042f0                TC4_Handler
                0x000042f0                OSCCTRL_4_Handler
                0x000042f0                EIC_12_Handler
                0x000042f0                TCC4_2_Handler
                0x000042f0                PAC_Handler
                0x000042f0                TCC1_0_Handler
                0x000042f0                OSCCTRL_0_Handler
                0x000042f0                EIC_0_Handler
                0x000042f0                OSCCTRL_3_Handler
                0x000042f0                Dummy_Handler
                0x000042f0                TCC3_0_Handler
                0x000042f0                TCC2_2_Handler
                0x000042f0                TCC1_1_Handler
                0x000042f0                OSCCTRL_2_Handler
                0x000042f0                TCC1_2_Handler
                0x000042f0                SERCOM7_1_Handler
                0x000042f0                PM_Handler
                0x000042f0                SERCOM2_3_Handler
                0x000042f0                DAC_4_Handler
                0x000042f0                TCC3_2_Handler
                0x000042f0                SERCOM7_0_Handler
                0x000042f0                TCC0_2_Handler
                0x000042f0                TCC4_0_Handler
                0x000042f0                SERCOM7_3_Handler
                0x000042f0                SDHC1_Handler
                0x000042f0                SERCOM7_2_Handler
                0x000042f0                TCC2_0_Handler
                0x000042f0                PDEC_1_Handler
                0x000042f0                TCC4_1_Handler
                0x000042f0                SDHC0_Handler
                0x000042f0                I2S_Handler
                0x000042f0                EIC_2_Handler
                0x000042f0                PCC_Handler
                0x000042f0                DAC_0_Handler
                0x000042f0                TCC0_1_Handler
                0x000042f0                EIC_6_Handler
                0x000042f0                OSCCTRL_1_Handler
                0x000042f0                PUKCC_Handler
                0x000042f0                SERCOM2_1_Handler
                0x000042f0                EIC_1_Handler
                0x000042f0                EVSYS_4_Handler
                0x000042f0                EIC_7_Handler
                0x000042f0                SERCOM2_2_Handler
                0x000042f0                TCC3_1_Handler
                0x000042f0                EIC_14_Handler
                0x000042f0                DAC_1_Handler
                0x000042f0                MCLK_Handler
                0x000042f0                EVSYS_2_Handler
                0x000042f0                SUPC_0_Handler
                0x000042f0                BusFault_Handler
                0x000042f0                FREQM_Handler
                0x000042f0                TCC0_3_Handler
                0x000042f0                DebugMonitor_Handler
                0x000042f0                TCC0_4_Handler
                0x000042f0                TC5_Handler
                0x000042f0                SERCOM2_0_Handler
                0x000042f0                AES_Handler
                0x000042f0                ICM_Handler
 *fill*         0x000042f2        0x2 
 .text.Reset_Handler
                0x000042f4       0x78 Device_Startup/startup_samd51.o
                0x000042f4                Reset_Handler
 .text._gpio_set_pin_function
                0x0000436c       0x68 driver_init.o
 .text.gpio_set_pin_direction
                0x000043d4       0x68 driver_init.o
 .text.ADC_0_init
                0x0000443c       0x80 driver_init.o
                0x0000443c                ADC_0_init
 .text.ADC_1_init
                0x000044bc       0x84 driver_init.o
                0x000044bc                ADC_1_init
 .text.CRC_0_init
                0x00004540       0x24 driver_init.o
                0x00004540                CRC_0_init
 .text.EVENT_SYSTEM_0_init
                0x00004564       0x30 driver_init.o
                0x00004564                EVENT_SYSTEM_0_init
 .text.FLASH_0_CLOCK_init
                0x00004594       0x10 driver_init.o
                0x00004594                FLASH_0_CLOCK_init
 .text.FLASH_0_init
                0x000045a4       0x24 driver_init.o
                0x000045a4                FLASH_0_init
 .text.QSPI_INSTANCE_PORT_init
                0x000045c8       0xdc driver_init.o
                0x000045c8                QSPI_INSTANCE_PORT_init
 .text.QSPI_INSTANCE_CLOCK_init
                0x000046a4       0x20 driver_init.o
                0x000046a4                QSPI_INSTANCE_CLOCK_init
 .text.QSPI_INSTANCE_init
                0x000046c4       0x2c driver_init.o
                0x000046c4                QSPI_INSTANCE_init
 .text.USART_EAST_CLOCK_init
                0x000046f0       0x24 driver_init.o
                0x000046f0                USART_EAST_CLOCK_init
 .text.USART_EAST_PORT_init
                0x00004714       0x24 driver_init.o
                0x00004714                USART_EAST_PORT_init
 .text.USART_EAST_init
                0x00004738       0x38 driver_init.o
                0x00004738                USART_EAST_init
 .text.USART_NORTH_CLOCK_init
                0x00004770       0x24 driver_init.o
                0x00004770                USART_NORTH_CLOCK_init
 .text.USART_NORTH_PORT_init
                0x00004794       0x24 driver_init.o
                0x00004794                USART_NORTH_PORT_init
 .text.USART_NORTH_init
                0x000047b8       0x38 driver_init.o
                0x000047b8                USART_NORTH_init
 .text.GRID_AUX_PORT_init
                0x000047f0       0x24 driver_init.o
                0x000047f0                GRID_AUX_PORT_init
 .text.GRID_AUX_CLOCK_init
                0x00004814       0x24 driver_init.o
                0x00004814                GRID_AUX_CLOCK_init
 .text.GRID_AUX_init
                0x00004838       0x2c driver_init.o
                0x00004838                GRID_AUX_init
 .text.UI_SPI_PORT_init
                0x00004864       0x68 driver_init.o
                0x00004864                UI_SPI_PORT_init
 .text.UI_SPI_CLOCK_init
                0x000048cc       0x24 driver_init.o
                0x000048cc                UI_SPI_CLOCK_init
 .text.UI_SPI_init
                0x000048f0       0x2c driver_init.o
                0x000048f0                UI_SPI_init
 .text.USART_WEST_CLOCK_init
                0x0000491c       0x24 driver_init.o
                0x0000491c                USART_WEST_CLOCK_init
 .text.USART_WEST_PORT_init
                0x00004940       0x24 driver_init.o
                0x00004940                USART_WEST_PORT_init
 .text.USART_WEST_init
                0x00004964       0x38 driver_init.o
                0x00004964                USART_WEST_init
 .text.SYS_I2C_PORT_init
                0x0000499c       0x40 driver_init.o
                0x0000499c                SYS_I2C_PORT_init
 .text.SYS_I2C_CLOCK_init
                0x000049dc       0x24 driver_init.o
                0x000049dc                SYS_I2C_CLOCK_init
 .text.SYS_I2C_init
                0x00004a00       0x2c driver_init.o
                0x00004a00                SYS_I2C_init
 .text.USART_SOUTH_CLOCK_init
                0x00004a2c       0x24 driver_init.o
                0x00004a2c                USART_SOUTH_CLOCK_init
 .text.USART_SOUTH_PORT_init
                0x00004a50       0x24 driver_init.o
                0x00004a50                USART_SOUTH_PORT_init
 .text.USART_SOUTH_init
                0x00004a74       0x38 driver_init.o
                0x00004a74                USART_SOUTH_init
 .text.GRID_LED_PORT_init
                0x00004aac       0x68 driver_init.o
                0x00004aac                GRID_LED_PORT_init
 .text.GRID_LED_CLOCK_init
                0x00004b14       0x24 driver_init.o
                0x00004b14                GRID_LED_CLOCK_init
 .text.GRID_LED_init
                0x00004b38       0x2c driver_init.o
                0x00004b38                GRID_LED_init
 .text.delay_driver_init
                0x00004b64       0x10 driver_init.o
                0x00004b64                delay_driver_init
 .text.USB_DEVICE_INSTANCE_PORT_init
                0x00004b74       0x60 driver_init.o
                0x00004b74                USB_DEVICE_INSTANCE_PORT_init
 .text.USB_DEVICE_INSTANCE_CLOCK_init
                0x00004bd4       0x24 driver_init.o
                0x00004bd4                USB_DEVICE_INSTANCE_CLOCK_init
 .text.USB_DEVICE_INSTANCE_init
                0x00004bf8       0x20 driver_init.o
                0x00004bf8                USB_DEVICE_INSTANCE_init
 .text.WDT_0_CLOCK_init
                0x00004c18       0x10 driver_init.o
                0x00004c18                WDT_0_CLOCK_init
 .text.WDT_0_init
                0x00004c28       0x24 driver_init.o
                0x00004c28                WDT_0_init
 .text.system_init
                0x00004c4c      0x2a8 driver_init.o
                0x00004c4c                system_init
 .text.grid_d51_bitmap_write_bit
                0x00004ef4       0x3a grid/grid_d51.o
                0x00004ef4                grid_d51_bitmap_write_bit
 *fill*         0x00004f2e        0x2 
 .text.grid_d51_verify_user_row
                0x00004f30      0x198 grid/grid_d51.o
                0x00004f30                grid_d51_verify_user_row
 .text.grid_d51_init
                0x000050c8       0x4c grid/grid_d51.o
                0x000050c8                grid_d51_init
 .text.grid_msg_header_set_len
                0x00005114       0x20 grid/grid_msg.o
                0x00005114                grid_msg_header_set_len
 .text.grid_msg_header_set_id
                0x00005134       0x20 grid/grid_msg.o
                0x00005134                grid_msg_header_set_id
 .text.grid_msg_header_set_dx
                0x00005154       0x20 grid/grid_msg.o
                0x00005154                grid_msg_header_set_dx
 .text.grid_msg_header_get_dx
                0x00005174       0x1c grid/grid_msg.o
                0x00005174                grid_msg_header_get_dx
 .text.grid_msg_header_set_dy
                0x00005190       0x20 grid/grid_msg.o
                0x00005190                grid_msg_header_set_dy
 .text.grid_msg_header_get_dy
                0x000051b0       0x1c grid/grid_msg.o
                0x000051b0                grid_msg_header_get_dy
 .text.grid_msg_header_set_rot
                0x000051cc       0x20 grid/grid_msg.o
                0x000051cc                grid_msg_header_set_rot
 .text.grid_msg_header_set_age
                0x000051ec       0x20 grid/grid_msg.o
                0x000051ec                grid_msg_header_set_age
 .text.grid_msg_packet_get_length
                0x0000520c       0x12 grid/grid_msg.o
                0x0000520c                grid_msg_packet_get_length
 .text.grid_msg_body_get_length
                0x0000521e        0x6 grid/grid_msg.o
                0x0000521e                grid_msg_body_get_length
 .text.grid_msg_body_append_text
                0x00005224       0x20 grid/grid_msg.o
                0x00005224                grid_msg_body_append_text
 .text.grid_msg_body_append_text_escaped
                0x00005244       0x30 grid/grid_msg.o
                0x00005244                grid_msg_body_append_text_escaped
 .text.grid_msg_text_get_parameter
                0x00005274       0x18 grid/grid_msg.o
                0x00005274                grid_msg_text_get_parameter
 .text.grid_msg_text_set_parameter
                0x0000528c       0x18 grid/grid_msg.o
                0x0000528c                grid_msg_text_set_parameter
 .text.grid_msg_init
                0x000052a4       0x44 grid/grid_msg.o
                0x000052a4                grid_msg_init
 .text.grid_msg_init_header
                0x000052e8       0x6c grid/grid_msg.o
                0x000052e8                grid_msg_init_header
 .text.grid_msg_packet_receive_char
                0x00005354       0x4e grid/grid_msg.o
                0x00005354                grid_msg_packet_receive_char
 .text.grid_msg_packet_send_char
                0x000053a2       0x3a grid/grid_msg.o
                0x000053a2                grid_msg_packet_send_char
 .text.grid_msg_packet_close
                0x000053dc       0xd4 grid/grid_msg.o
                0x000053dc                grid_msg_packet_close
 .text.grid_nvm_ui_bulk_read_init
                0x000054b0        0xe grid/grid_nvm.o
                0x000054b0                grid_nvm_ui_bulk_read_init
 .text.grid_nvm_ui_bulk_read_is_in_progress
                0x000054be        0x6 grid/grid_nvm.o
                0x000054be                grid_nvm_ui_bulk_read_is_in_progress
 .text.grid_nvm_ui_bulk_read_next
                0x000054c4       0xc4 grid/grid_nvm.o
                0x000054c4                grid_nvm_ui_bulk_read_next
 .text.grid_nvm_ui_bulk_clear_is_in_progress
                0x00005588        0x6 grid/grid_nvm.o
                0x00005588                grid_nvm_ui_bulk_clear_is_in_progress
 *fill*         0x0000558e        0x2 
 .text.grid_nvm_ui_bulk_clear_next
                0x00005590       0x6c grid/grid_nvm.o
                0x00005590                grid_nvm_ui_bulk_clear_next
 .text.grid_nvm_clear_read_buffer
                0x000055fc       0x20 grid/grid_nvm.o
                0x000055fc                grid_nvm_clear_read_buffer
 .text.grid_nvm_clear_write_buffer
                0x0000561c       0x28 grid/grid_nvm.o
                0x0000561c                grid_nvm_clear_write_buffer
 .text.grid_nvm_init
                0x00005644       0x44 grid/grid_nvm.o
                0x00005644                grid_nvm_init
 .text.grid_nvm_calculate_event_page_offset
                0x00005688       0x10 grid/grid_nvm.o
                0x00005688                grid_nvm_calculate_event_page_offset
 .text.grid_ain_channel_init
                0x00005698       0x34 grid/grid_ain.o
                0x00005698                grid_ain_channel_init
 .text.grid_ain_init
                0x000056cc       0x44 grid/grid_ain.o
                0x000056cc                grid_ain_init
 .text.grid_ain_add_sample
                0x00005710       0xd0 grid/grid_ain.o
                0x00005710                grid_ain_add_sample
 .text.grid_ain_get_changed
                0x000057e0       0x10 grid/grid_ain.o
                0x000057e0                grid_ain_get_changed
 .text.grid_ain_get_average
                0x000057f0       0x28 grid/grid_ain.o
                0x000057f0                grid_ain_get_average
 .text.grid_port_reset_receiver
                0x00005818       0x90 grid/grid_buf.o
                0x00005818                grid_port_reset_receiver
 .text.grid_buffer_init
                0x000058a8       0x4c grid/grid_buf.o
                0x000058a8                grid_buffer_init
 .text.grid_buffer_write_size
                0x000058f4       0x14 grid/grid_buf.o
                0x000058f4                grid_buffer_write_size
 .text.grid_buffer_write_init
                0x00005908       0x3c grid/grid_buf.o
                0x00005908                grid_buffer_write_init
 .text.grid_buffer_write_character
                0x00005944       0x1c grid/grid_buf.o
                0x00005944                grid_buffer_write_character
 .text.grid_buffer_write_acknowledge
                0x00005960       0x20 grid/grid_buf.o
                0x00005960                grid_buffer_write_acknowledge
 .text.grid_port_receive_decode
                0x00005980      0x51c grid/grid_buf.o
                0x00005980                grid_port_receive_decode
 .text.grid_port_receive_task
                0x00005e9c      0x168 grid/grid_buf.o
                0x00005e9c                grid_port_receive_task
 .text.grid_buffer_read_size
                0x00006004       0x4c grid/grid_buf.o
                0x00006004                grid_buffer_read_size
 .text.grid_buffer_read_init
                0x00006050       0x5c grid/grid_buf.o
                0x00006050                grid_buffer_read_init
 .text.grid_buffer_read_character
                0x000060ac       0x24 grid/grid_buf.o
                0x000060ac                grid_buffer_read_character
 .text.grid_buffer_read_acknowledge
                0x000060d0       0x10 grid/grid_buf.o
                0x000060d0                grid_buffer_read_acknowledge
 .text.grid_port_init
                0x000060e0      0x158 grid/grid_buf.o
                0x000060e0                grid_port_init
 .text.grid_port_init_all
                0x00006238       0xd4 grid/grid_buf.o
                0x00006238                grid_port_init_all
 .text.grid_port_process_inbound
                0x0000630c      0x1ac grid/grid_buf.o
                0x0000630c                grid_port_process_inbound
 .text.grid_port_process_outbound_usb
                0x000064b8      0x1ec grid/grid_buf.o
                0x000064b8                grid_port_process_outbound_usb
 .text.grid_port_process_outbound_ui
                0x000066a4      0x660 grid/grid_buf.o
                0x000066a4                grid_port_process_outbound_ui
 .text.grid_port_process_outbound_usart
                0x00006d04       0x6c grid/grid_buf.o
                0x00006d04                grid_port_process_outbound_usart
 .text.grid_led_lowlevel_hardware_transfer_complete_cb
                0x00006d70        0xc grid/grid_led.o
                0x00006d70                grid_led_lowlevel_hardware_transfer_complete_cb
 .text.grid_led_lowlevel_set_color
                0x00006d7c       0x4c grid/grid_led.o
                0x00006d7c                grid_led_lowlevel_set_color
 .text.grid_led_hardware_init
                0x00006dc8       0x2c grid/grid_led.o
                0x00006dc8                grid_led_hardware_init
 .text.grid_led_get_led_number
                0x00006df4        0x4 grid/grid_led.o
                0x00006df4                grid_led_get_led_number
 .text.grid_led_tick
                0x00006df8       0x34 grid/grid_led.o
                0x00006df8                grid_led_tick
 .text.grid_led_set_min
                0x00006e2c       0x20 grid/grid_led.o
                0x00006e2c                grid_led_set_min
 .text.grid_led_set_mid
                0x00006e4c       0x20 grid/grid_led.o
                0x00006e4c                grid_led_set_mid
 .text.grid_led_set_max
                0x00006e6c       0x20 grid/grid_led.o
                0x00006e6c                grid_led_set_max
 .text.grid_led_set_color
                0x00006e8c       0x6c grid/grid_led.o
                0x00006e8c                grid_led_set_color
 .text.grid_led_set_phase
                0x00006ef8       0x14 grid/grid_led.o
                0x00006ef8                grid_led_set_phase
 .text.grid_led_set_frequency
                0x00006f0c       0x14 grid/grid_led.o
                0x00006f0c                grid_led_set_frequency
 .text.grid_led_buffer_init
                0x00006f20      0x16c grid/grid_led.o
                0x00006f20                grid_led_buffer_init
 .text.grid_led_lowlevel_init
                0x0000708c       0xb0 grid/grid_led.o
                0x0000708c                grid_led_lowlevel_init
 .text.grid_led_lowlevel_render
                0x0000713c       0xb0 grid/grid_led.o
                0x0000713c                grid_led_lowlevel_render
 .text.grid_led_lowlevel_render_all
                0x000071ec       0x20 grid/grid_led.o
                0x000071ec                grid_led_lowlevel_render_all
 .text.grid_led_lowlevel_hardware_start_transfer
                0x0000720c       0x30 grid/grid_led.o
                0x0000720c                grid_led_lowlevel_hardware_start_transfer
 .text.grid_module_common_init
                0x0000723c      0x25c grid/grid_module.o
                0x0000723c                grid_module_common_init
 .text.grid_module_bu16_revb_hardware_start_transfer
                0x00007498       0x20 grid/grid_module_bu16_revb.o
                0x00007498                grid_module_bu16_revb_hardware_start_transfer
 .text.grid_module_bu16_revb_hardware_transfer_complete_cb
                0x000074b8      0x200 grid/grid_module_bu16_revb.o
 .text.grid_module_bu16_revb_hardware_init
                0x000076b8       0x48 grid/grid_module_bu16_revb.o
                0x000076b8                grid_module_bu16_revb_hardware_init
 .text.grid_module_bu16_revb_init
                0x00007700       0x70 grid/grid_module_bu16_revb.o
                0x00007700                grid_module_bu16_revb_init
 .text.grid_module_en16_reva_hardware_start_transfer
                0x00007770       0x3c grid/grid_module_en16_reva.o
                0x00007770                grid_module_en16_reva_hardware_start_transfer
 *fill*         0x000077ac        0x4 
 .text.grid_module_en16_reva_hardware_transfer_complete_cb
                0x000077b0      0x320 grid/grid_module_en16_reva.o
                0x000077b0                grid_module_en16_reva_hardware_transfer_complete_cb
 .text.grid_module_en16_reva_hardware_init
                0x00007ad0       0x68 grid/grid_module_en16_reva.o
                0x00007ad0                grid_module_en16_reva_hardware_init
 .text.grid_module_en16_reva_init
                0x00007b38       0x9c grid/grid_module_en16_reva.o
                0x00007b38                grid_module_en16_reva_init
 .text.grid_module_pbf4_reva_hardware_start_transfer
                0x00007bd4       0x20 grid/grid_module_pbf4_reva.o
                0x00007bd4                grid_module_pbf4_reva_hardware_start_transfer
 *fill*         0x00007bf4        0x4 
 .text.grid_module_pbf4_reva_hardware_transfer_complete_cb
                0x00007bf8      0x320 grid/grid_module_pbf4_reva.o
                0x00007bf8                grid_module_pbf4_reva_hardware_transfer_complete_cb
 .text.grid_module_pbf4_reva_hardware_init
                0x00007f18       0x48 grid/grid_module_pbf4_reva.o
                0x00007f18                grid_module_pbf4_reva_hardware_init
 .text.grid_module_pbf4_reva_init
                0x00007f60       0x84 grid/grid_module_pbf4_reva.o
                0x00007f60                grid_module_pbf4_reva_init
 .text.grid_module_po16_revb_hardware_start_transfer
                0x00007fe4       0x20 grid/grid_module_po16_revb.o
                0x00007fe4                grid_module_po16_revb_hardware_start_transfer
 *fill*         0x00008004        0x4 
 .text.grid_module_po16_revb_hardware_transfer_complete_cb
                0x00008008      0x248 grid/grid_module_po16_revb.o
 .text.grid_module_po16_revb_hardware_init
                0x00008250       0x48 grid/grid_module_po16_revb.o
                0x00008250                grid_module_po16_revb_hardware_init
 .text.grid_module_po16_revb_init
                0x00008298       0x80 grid/grid_module_po16_revb.o
                0x00008298                grid_module_po16_revb_init
 .text.gpio_set_pin_pull_mode.constprop.3
                0x00008318       0x28 grid/grid_sys.o
 .text.grid_task_enter_task
                0x00008340        0x8 grid/grid_sys.o
                0x00008340                grid_task_enter_task
 .text.grid_task_timer_tick
                0x00008348        0xe grid/grid_sys.o
                0x00008348                grid_task_timer_tick
 .text.grid_task_timer_reset
                0x00008356       0x10 grid/grid_sys.o
                0x00008356                grid_task_timer_reset
 .text.grid_task_timer_read
                0x00008366        0x8 grid/grid_sys.o
                0x00008366                grid_task_timer_read
 *fill*         0x0000836e        0x2 
 .text.grid_sys_nvm_store_configuration
                0x00008370      0x198 grid/grid_sys.o
                0x00008370                grid_sys_nvm_store_configuration
 .text.grid_sys_nvm_load_configuration
                0x00008508       0x6c grid/grid_sys.o
                0x00008508                grid_sys_nvm_load_configuration
 .text.grid_sys_nvm_clear_configuration
                0x00008574       0x18 grid/grid_sys.o
                0x00008574                grid_sys_nvm_clear_configuration
 .text.grid_debug_print_text
                0x0000858c      0x130 grid/grid_sys.o
                0x0000858c                grid_debug_print_text
 .text.tx_cb_USART_GRID
                0x000086bc       0x1a grid/grid_sys.o
                0x000086bc                tx_cb_USART_GRID
 *fill*         0x000086d6        0x2 
 .text.tx_cb_USART_GRID_W
                0x000086d8       0x10 grid/grid_sys.o
 .text.tx_cb_USART_GRID_S
                0x000086e8       0x10 grid/grid_sys.o
 .text.tx_cb_USART_GRID_E
                0x000086f8       0x10 grid/grid_sys.o
 .text.tx_cb_USART_GRID_N
                0x00008708       0x10 grid/grid_sys.o
 .text.err_cb_USART_GRID
                0x00008718       0x10 grid/grid_sys.o
                0x00008718                err_cb_USART_GRID
 .text.err_cb_USART_GRID_W
                0x00008728       0x10 grid/grid_sys.o
 .text.err_cb_USART_GRID_S
                0x00008738       0x10 grid/grid_sys.o
 .text.err_cb_USART_GRID_E
                0x00008748       0x10 grid/grid_sys.o
 .text.err_cb_USART_GRID_N
                0x00008758       0x10 grid/grid_sys.o
 .text.grid_sys_port_reset_dma
                0x00008768       0x20 grid/grid_sys.o
                0x00008768                grid_sys_port_reset_dma
 .text.dma_transfer_complete_n_cb
                0x00008788       0x10 grid/grid_sys.o
                0x00008788                dma_transfer_complete_n_cb
 .text.dma_transfer_complete_e_cb
                0x00008798       0x10 grid/grid_sys.o
                0x00008798                dma_transfer_complete_e_cb
 .text.dma_transfer_complete_s_cb
                0x000087a8       0x10 grid/grid_sys.o
                0x000087a8                dma_transfer_complete_s_cb
 .text.dma_transfer_complete_w_cb
                0x000087b8       0x10 grid/grid_sys.o
                0x000087b8                dma_transfer_complete_w_cb
 .text.grid_sys_uart_init
                0x000087c8      0x104 grid/grid_sys.o
                0x000087c8                grid_sys_uart_init
 .text.grid_sys_dma_rx_init_one
                0x000088cc       0x64 grid/grid_sys.o
                0x000088cc                grid_sys_dma_rx_init_one
 .text.grid_sys_dma_rx_init
                0x00008930       0x6c grid/grid_sys.o
                0x00008930                grid_sys_dma_rx_init
 .text.grid_sys_init
                0x0000899c       0x70 grid/grid_sys.o
                0x0000899c                grid_sys_init
 .text.grid_sys_bank_enable
                0x00008a0c        0xc grid/grid_sys.o
                0x00008a0c                grid_sys_bank_enable
 .text.grid_sys_bank_disable
                0x00008a18        0xc grid/grid_sys.o
                0x00008a18                grid_sys_bank_disable
 .text.grid_sys_bank_set_color
                0x00008a24       0x16 grid/grid_sys.o
                0x00008a24                grid_sys_bank_set_color
 .text.grid_sys_get_bank_num
                0x00008a3a        0x4 grid/grid_sys.o
                0x00008a3a                grid_sys_get_bank_num
 .text.grid_sys_get_bank_valid
                0x00008a3e        0x4 grid/grid_sys.o
                0x00008a3e                grid_sys_get_bank_valid
 .text.grid_sys_get_bank_red
                0x00008a42        0x4 grid/grid_sys.o
                0x00008a42                grid_sys_get_bank_red
 .text.grid_sys_get_bank_gre
                0x00008a46        0x4 grid/grid_sys.o
                0x00008a46                grid_sys_get_bank_gre
 .text.grid_sys_get_bank_blu
                0x00008a4a        0x6 grid/grid_sys.o
                0x00008a4a                grid_sys_get_bank_blu
 .text.grid_sys_get_bank_next
                0x00008a50       0x24 grid/grid_sys.o
                0x00008a50                grid_sys_get_bank_next
 .text.grid_sys_get_bank_number_of_first_valid
                0x00008a74       0x1a grid/grid_sys.o
                0x00008a74                grid_sys_get_bank_number_of_first_valid
 .text.grid_sys_set_bank
                0x00008a8e       0x3c grid/grid_sys.o
                0x00008a8e                grid_sys_set_bank
 .text.grid_sys_rtc_get_time
                0x00008aca        0x4 grid/grid_sys.o
                0x00008aca                grid_sys_rtc_get_time
 .text.grid_sys_rtc_get_elapsed_time
                0x00008ace        0x6 grid/grid_sys.o
                0x00008ace                grid_sys_rtc_get_elapsed_time
 .text.grid_sys_rtc_tick_time
                0x00008ad4        0x8 grid/grid_sys.o
                0x00008ad4                grid_sys_rtc_tick_time
 .text.grid_sys_alert_read_color_changed_flag
                0x00008adc        0x4 grid/grid_sys.o
                0x00008adc                grid_sys_alert_read_color_changed_flag
 .text.grid_sys_alert_clear_color_changed_flag
                0x00008ae0        0x6 grid/grid_sys.o
                0x00008ae0                grid_sys_alert_clear_color_changed_flag
 .text.grid_sys_alert_get_color_intensity
                0x00008ae6       0x42 grid/grid_sys.o
                0x00008ae6                grid_sys_alert_get_color_intensity
 .text.grid_sys_alert_set_alert
                0x00008b28       0x1a grid/grid_sys.o
                0x00008b28                grid_sys_alert_set_alert
 .text.grid_sys_alert_get_color_r
                0x00008b42        0x4 grid/grid_sys.o
                0x00008b42                grid_sys_alert_get_color_r
 .text.grid_sys_alert_get_color_g
                0x00008b46        0x4 grid/grid_sys.o
                0x00008b46                grid_sys_alert_get_color_g
 .text.grid_sys_alert_get_color_b
                0x00008b4a        0x4 grid/grid_sys.o
                0x00008b4a                grid_sys_alert_get_color_b
 .text.grid_sys_read_hex_char_value
                0x00008b4e       0x28 grid/grid_sys.o
                0x00008b4e                grid_sys_read_hex_char_value
 *fill*         0x00008b76        0x2 
 .text.grid_sys_read_hex_string_value
                0x00008b78       0x30 grid/grid_sys.o
                0x00008b78                grid_sys_read_hex_string_value
 .text.grid_sys_write_hex_string_value
                0x00008ba8       0x34 grid/grid_sys.o
                0x00008ba8                grid_sys_write_hex_string_value
 .text.grid_sys_get_hwcfg
                0x00008bdc       0xe4 grid/grid_sys.o
                0x00008bdc                grid_sys_get_hwcfg
 .text.grid_msg_calculate_checksum_of_packet_string
                0x00008cc0       0x1a grid/grid_sys.o
                0x00008cc0                grid_msg_calculate_checksum_of_packet_string
 *fill*         0x00008cda        0x2 
 .text.grid_msg_checksum_read
                0x00008cdc       0x1c grid/grid_sys.o
                0x00008cdc                grid_msg_checksum_read
 .text.grid_msg_checksum_write
                0x00008cf8       0x10 grid/grid_sys.o
                0x00008cf8                grid_msg_checksum_write
 .text.grid_msg_get_parameter
                0x00008d08       0x18 grid/grid_sys.o
                0x00008d08                grid_msg_get_parameter
 .text.grid_msg_set_parameter
                0x00008d20       0x14 grid/grid_sys.o
                0x00008d20                grid_msg_set_parameter
 .text.grid_msg_find_recent
                0x00008d34       0x1a grid/grid_sys.o
                0x00008d34                grid_msg_find_recent
 .text.grid_msg_push_recent
                0x00008d4e       0x16 grid/grid_sys.o
                0x00008d4e                grid_msg_push_recent
 .text.grid_ui_model_init
                0x00008d64       0x34 grid/grid_ui.o
                0x00008d64                grid_ui_model_init
 .text.grid_ui_bank_init
                0x00008d98       0x40 grid/grid_ui.o
                0x00008d98                grid_ui_bank_init
 .text.grid_ui_nvm_clear_all_configuration
                0x00008dd8       0x14 grid/grid_ui.o
                0x00008dd8                grid_ui_nvm_clear_all_configuration
 .text.grid_ui_nvm_store_event_configuration
                0x00008dec      0x248 grid/grid_ui.o
                0x00008dec                grid_ui_nvm_store_event_configuration
 .text.grid_ui_nvm_store_all_configuration
                0x00009034       0x78 grid/grid_ui.o
                0x00009034                grid_ui_nvm_store_all_configuration
 .text.grid_ui_nvm_load_event_configuration
                0x000090ac       0x84 grid/grid_ui.o
                0x000090ac                grid_ui_nvm_load_event_configuration
 .text.grid_ui_nvm_clear_event_configuration
                0x00009130       0x34 grid/grid_ui.o
                0x00009130                grid_ui_nvm_clear_event_configuration
 .text.grid_ui_event_find
                0x00009164       0x2a grid/grid_ui.o
                0x00009164                grid_ui_event_find
 .text.grid_ui_event_trigger
                0x0000918e       0x14 grid/grid_ui.o
                0x0000918e                grid_ui_event_trigger
 .text.grid_ui_event_render_action
                0x000091a2       0x3a grid/grid_ui.o
                0x000091a2                grid_ui_event_render_action
 .text.grid_port_process_ui
                0x000091dc      0x55c grid/grid_ui.o
                0x000091dc                grid_port_process_ui
 .text.grid_ui_event_template_action
                0x00009738      0x1f4 grid/grid_ui.o
                0x00009738                grid_ui_event_template_action
 .text.grid_ui_smart_trigger
                0x0000992c       0x50 grid/grid_ui.o
                0x0000992c                grid_ui_smart_trigger
 .text.grid_ui_event_register_eventstring
                0x0000997c      0x164 grid/grid_ui.o
                0x0000997c                grid_ui_event_register_eventstring
 .text.grid_ui_event_generate_eventstring
                0x00009ae0       0xe0 grid/grid_ui.o
                0x00009ae0                grid_ui_event_generate_eventstring
 .text.grid_ui_event_register_actionstring
                0x00009bc0      0x10c grid/grid_ui.o
                0x00009bc0                grid_ui_event_register_actionstring
 .text.grid_ui_event_generate_actionstring
                0x00009ccc       0xe4 grid/grid_ui.o
                0x00009ccc                grid_ui_event_generate_actionstring
 .text.grid_ui_event_init
                0x00009db0       0xb0 grid/grid_ui.o
                0x00009db0                grid_ui_event_init
 .text.grid_ui_element_init
                0x00009e60      0x108 grid/grid_ui.o
                0x00009e60                grid_ui_element_init
 .text.grid_usb_serial_bulkin_cb
                0x00009f68        0x4 grid/grid_usb.o
 .text.grid_usb_serial_statechange_cb
                0x00009f6c       0x28 grid/grid_usb.o
 .text.grid_usb_midi_bulkin_cb
                0x00009f94       0x28 grid/grid_usb.o
 .text.grid_usb_midi_bulkout_cb
                0x00009fbc       0x28 grid/grid_usb.o
 .text.grid_usb_serial_bulkout_cb
                0x00009fe4        0x4 grid/grid_usb.o
 .text.grid_usb_serial_init
                0x00009fe8       0x10 grid/grid_usb.o
                0x00009fe8                grid_usb_serial_init
 .text.grid_usb_midi_init
                0x00009ff8       0x24 grid/grid_usb.o
                0x00009ff8                grid_usb_midi_init
 .text.adc_async_window_threshold_reached
                0x0000a01c        0x8 hal/src/hal_adc_async.o
 .text.adc_async_error_occured
                0x0000a024        0x8 hal/src/hal_adc_async.o
 .text.adc_async_channel_conversion_done
                0x0000a02c       0x68 hal/src/hal_adc_async.o
 .text.adc_async_init
                0x0000a094       0x4c hal/src/hal_adc_async.o
                0x0000a094                adc_async_init
 .text.adc_async_register_channel_buffer
                0x0000a0e0       0x6c hal/src/hal_adc_async.o
                0x0000a0e0                adc_async_register_channel_buffer
 .text.adc_async_enable_channel
                0x0000a14c       0x10 hal/src/hal_adc_async.o
                0x0000a14c                adc_async_enable_channel
 .text.adc_async_register_callback
                0x0000a15c       0x3c hal/src/hal_adc_async.o
                0x0000a15c                adc_async_register_callback
 .text.adc_async_read_channel
                0x0000a198       0x74 hal/src/hal_adc_async.o
                0x0000a198                adc_async_read_channel
 .text.adc_async_start_conversion
                0x0000a20c       0x10 hal/src/hal_adc_async.o
                0x0000a20c                adc_async_start_conversion
 .text.atomic_enter_critical
                0x0000a21c        0xe hal/src/hal_atomic.o
                0x0000a21c                atomic_enter_critical
 .text.atomic_leave_critical
                0x0000a22a        0xc hal/src/hal_atomic.o
                0x0000a22a                atomic_leave_critical
 *fill*         0x0000a236        0x2 
 .text.crc_sync_init
                0x0000a238        0x8 hal/src/hal_crc_sync.o
                0x0000a238                crc_sync_init
 .text.delay_init
                0x0000a240       0x10 hal/src/hal_delay.o
                0x0000a240                delay_init
 .text.delay_us
                0x0000a250       0x24 hal/src/hal_delay.o
                0x0000a250                delay_us
 .text.delay_ms
                0x0000a274       0x24 hal/src/hal_delay.o
                0x0000a274                delay_ms
 .text.event_system_init
                0x0000a298        0x8 hal/src/hal_evsys.o
                0x0000a298                event_system_init
 .text.flash_ready
                0x0000a2a0        0x8 hal/src/hal_flash.o
 .text.flash_error
                0x0000a2a8        0x8 hal/src/hal_flash.o
 .text.flash_init
                0x0000a2b0       0x20 hal/src/hal_flash.o
                0x0000a2b0                flash_init
 .text.flash_read
                0x0000a2d0       0x4c hal/src/hal_flash.o
                0x0000a2d0                flash_read
 .text.flash_write
                0x0000a31c       0x64 hal/src/hal_flash.o
                0x0000a31c                flash_write
 .text.flash_erase
                0x0000a380       0x60 hal/src/hal_flash.o
                0x0000a380                flash_erase
 .text.i2c_m_async_write
                0x0000a3e0       0x2c hal/src/hal_i2c_m_async.o
 .text.i2c_m_async_read
                0x0000a40c       0x2c hal/src/hal_i2c_m_async.o
 .text.i2c_tx_complete
                0x0000a438        0xe hal/src/hal_i2c_m_async.o
 .text.i2c_rx_complete
                0x0000a446        0xe hal/src/hal_i2c_m_async.o
 .text.i2c_error
                0x0000a454        0xe hal/src/hal_i2c_m_async.o
 *fill*         0x0000a462        0x2 
 .text.i2c_m_async_init
                0x0000a464       0x50 hal/src/hal_i2c_m_async.o
                0x0000a464                i2c_m_async_init
 .text.io_write
                0x0000a4b4        0x4 hal/src/hal_io.o
                0x0000a4b4                io_write
 .text.io_read  0x0000a4b8        0x4 hal/src/hal_io.o
                0x0000a4b8                io_read
 .text.qspi_dma_init
                0x0000a4bc        0x8 hal/src/hal_qspi_dma.o
                0x0000a4bc                qspi_dma_init
 .text._spi_m_async_io_write
                0x0000a4c4       0x20 hal/src/hal_spi_m_async.o
 .text._spi_m_async_io_read
                0x0000a4e4       0x34 hal/src/hal_spi_m_async.o
 .text._spi_dev_error
                0x0000a518       0x40 hal/src/hal_spi_m_async.o
 .text._spi_dev_complete
                0x0000a558       0x2c hal/src/hal_spi_m_async.o
 .text._spi_dev_rx
                0x0000a584       0x7c hal/src/hal_spi_m_async.o
 .text._spi_dev_tx
                0x0000a600       0x48 hal/src/hal_spi_m_async.o
 .text.spi_m_async_init
                0x0000a648       0x64 hal/src/hal_spi_m_async.o
                0x0000a648                spi_m_async_init
 .text.spi_m_async_enable
                0x0000a6ac        0xc hal/src/hal_spi_m_async.o
                0x0000a6ac                spi_m_async_enable
 .text.spi_m_async_set_baudrate
                0x0000a6b8       0x18 hal/src/hal_spi_m_async.o
                0x0000a6b8                spi_m_async_set_baudrate
 .text.spi_m_async_set_mode
                0x0000a6d0       0x18 hal/src/hal_spi_m_async.o
                0x0000a6d0                spi_m_async_set_mode
 .text.spi_m_async_transfer
                0x0000a6e8       0x48 hal/src/hal_spi_m_async.o
                0x0000a6e8                spi_m_async_transfer
 .text.spi_m_async_register_callback
                0x0000a730       0x1c hal/src/hal_spi_m_async.o
                0x0000a730                spi_m_async_register_callback
 .text.spi_m_async_get_io_descriptor
                0x0000a74c        0x8 hal/src/hal_spi_m_async.o
                0x0000a74c                spi_m_async_get_io_descriptor
 .text._spi_m_dma_io_write
                0x0000a754       0x18 hal/src/hal_spi_m_dma.o
 .text._spi_m_dma_io_read
                0x0000a76c       0x18 hal/src/hal_spi_m_dma.o
 .text.spi_m_dma_init
                0x0000a784       0x24 hal/src/hal_spi_m_dma.o
                0x0000a784                spi_m_dma_init
 .text.spi_m_dma_enable
                0x0000a7a8        0xc hal/src/hal_spi_m_dma.o
                0x0000a7a8                spi_m_dma_enable
 .text.spi_m_dma_register_callback
                0x0000a7b4        0xc hal/src/hal_spi_m_dma.o
                0x0000a7b4                spi_m_dma_register_callback
 .text.spi_m_dma_get_io_descriptor
                0x0000a7c0        0x8 hal/src/hal_spi_m_dma.o
                0x0000a7c0                spi_m_dma_get_io_descriptor
 .text.timer_add_timer_task
                0x0000a7c8       0x4c hal/src/hal_timer.o
 .text.timer_process_counted
                0x0000a814       0x6c hal/src/hal_timer.o
 .text.timer_init
                0x0000a880       0x1c hal/src/hal_timer.o
                0x0000a880                timer_init
 .text.timer_start
                0x0000a89c       0x24 hal/src/hal_timer.o
                0x0000a89c                timer_start
 .text.timer_add_task
                0x0000a8c0       0x78 hal/src/hal_timer.o
                0x0000a8c0                timer_add_task
 .text.usart_transmission_complete
                0x0000a938       0x10 hal/src/hal_usart_async.o
 .text.usart_error
                0x0000a948       0x10 hal/src/hal_usart_async.o
 .text.usart_fill_rx_buffer
                0x0000a958       0x20 hal/src/hal_usart_async.o
 .text.usart_async_write
                0x0000a978       0x34 hal/src/hal_usart_async.o
 .text.usart_process_byte_sent
                0x0000a9ac       0x34 hal/src/hal_usart_async.o
 .text.usart_async_read
                0x0000a9e0       0x54 hal/src/hal_usart_async.o
 .text.usart_async_init
                0x0000aa34       0x60 hal/src/hal_usart_async.o
                0x0000aa34                usart_async_init
 .text.usart_async_enable
                0x0000aa94       0x10 hal/src/hal_usart_async.o
                0x0000aa94                usart_async_enable
 .text.usart_async_disable
                0x0000aaa4       0x10 hal/src/hal_usart_async.o
                0x0000aaa4                usart_async_disable
 .text.usart_async_get_io_descriptor
                0x0000aab4        0x6 hal/src/hal_usart_async.o
                0x0000aab4                usart_async_get_io_descriptor
 *fill*         0x0000aaba        0x2 
 .text.usart_async_register_callback
                0x0000aabc       0x44 hal/src/hal_usart_async.o
                0x0000aabc                usart_async_register_callback
 .text.usart_async_set_parity
                0x0000ab00       0x10 hal/src/hal_usart_async.o
                0x0000ab00                usart_async_set_parity
 .text.usart_sync_write
                0x0000ab10       0x50 hal/src/hal_usart_sync.o
 .text.usart_sync_read
                0x0000ab60       0x38 hal/src/hal_usart_sync.o
 .text.usart_sync_init
                0x0000ab98       0x24 hal/src/hal_usart_sync.o
                0x0000ab98                usart_sync_init
 .text.usart_sync_enable
                0x0000abbc       0x10 hal/src/hal_usart_sync.o
                0x0000abbc                usart_sync_enable
 .text._usb_d_find_ep
                0x0000abcc       0x30 hal/src/hal_usb_device.o
 .text.usb_d_dummy_cb_false
                0x0000abfc        0x4 hal/src/hal_usb_device.o
 .text.usb_d_cb_trans_more
                0x0000ac00       0x30 hal/src/hal_usb_device.o
 .text._usb_d_cb_trans_done
                0x0000ac30      0x108 hal/src/hal_usb_device.o
 .text.usb_d_cb_trans_setup
                0x0000ad38       0x8c hal/src/hal_usb_device.o
 .text.usb_d_init
                0x0000adc4       0x68 hal/src/hal_usb_device.o
                0x0000adc4                usb_d_init
 .text.usb_d_register_callback
                0x0000ae2c        0x8 hal/src/hal_usb_device.o
                0x0000ae2c                usb_d_register_callback
 .text.usb_d_enable
                0x0000ae34        0x8 hal/src/hal_usb_device.o
                0x0000ae34                usb_d_enable
 .text.usb_d_attach
                0x0000ae3c        0x8 hal/src/hal_usb_device.o
                0x0000ae3c                usb_d_attach
 .text.usb_d_get_frame_num
                0x0000ae44        0x8 hal/src/hal_usb_device.o
                0x0000ae44                usb_d_get_frame_num
 .text.usb_d_set_address
                0x0000ae4c        0x8 hal/src/hal_usb_device.o
                0x0000ae4c                usb_d_set_address
 .text.usb_d_ep_init
                0x0000ae54       0x50 hal/src/hal_usb_device.o
                0x0000ae54                usb_d_ep_init
 .text.usb_d_ep0_init
                0x0000aea4       0x10 hal/src/hal_usb_device.o
                0x0000aea4                usb_d_ep0_init
 .text.usb_d_ep_deinit
                0x0000aeb4       0x2c hal/src/hal_usb_device.o
                0x0000aeb4                usb_d_ep_deinit
 .text.usb_d_ep_enable
                0x0000aee0       0x40 hal/src/hal_usb_device.o
                0x0000aee0                usb_d_ep_enable
 .text.usb_d_ep_transfer
                0x0000af20       0xf8 hal/src/hal_usb_device.o
                0x0000af20                usb_d_ep_transfer
 .text.usb_d_ep_halt
                0x0000b018       0x64 hal/src/hal_usb_device.o
                0x0000b018                usb_d_ep_halt
 .text.usb_d_ep_register_callback
                0x0000b07c       0x4c hal/src/hal_usb_device.o
                0x0000b07c                usb_d_ep_register_callback
 .text.is_list_element
                0x0000b0c8        0xe hal/utils/src/utils_list.o
                0x0000b0c8                is_list_element
 .text.list_insert_as_head
                0x0000b0d6        0x8 hal/utils/src/utils_list.o
                0x0000b0d6                list_insert_as_head
 .text.list_insert_after
                0x0000b0de        0x8 hal/utils/src/utils_list.o
                0x0000b0de                list_insert_after
 .text.list_insert_at_end
                0x0000b0e6       0x18 hal/utils/src/utils_list.o
                0x0000b0e6                list_insert_at_end
 .text.list_remove_head
                0x0000b0fe        0xc hal/utils/src/utils_list.o
                0x0000b0fe                list_remove_head
 .text.ringbuffer_init
                0x0000b10a       0x18 hal/utils/src/utils_ringbuffer.o
                0x0000b10a                ringbuffer_init
 .text.ringbuffer_get
                0x0000b122       0x22 hal/utils/src/utils_ringbuffer.o
                0x0000b122                ringbuffer_get
 .text.ringbuffer_put
                0x0000b144       0x26 hal/utils/src/utils_ringbuffer.o
                0x0000b144                ringbuffer_put
 .text.ringbuffer_num
                0x0000b16a        0x8 hal/utils/src/utils_ringbuffer.o
                0x0000b16a                ringbuffer_num
 *fill*         0x0000b172        0x2 
 .text._sbrk    0x0000b174       0x1c hal/utils/src/utils_syscalls.o
                0x0000b174                _sbrk
 .text._close   0x0000b190        0x6 hal/utils/src/utils_syscalls.o
                0x0000b190                _close
 .text._fstat   0x0000b196        0xa hal/utils/src/utils_syscalls.o
                0x0000b196                _fstat
 .text._isatty  0x0000b1a0        0x4 hal/utils/src/utils_syscalls.o
                0x0000b1a0                _isatty
 .text._lseek   0x0000b1a4        0x4 hal/utils/src/utils_syscalls.o
                0x0000b1a4                _lseek
 .text.__NVIC_DisableIRQ
                0x0000b1a8       0x28 hpl/adc/hpl_adc.o
 .text.__NVIC_ClearPendingIRQ
                0x0000b1d0       0x20 hpl/adc/hpl_adc.o
 .text.hri_adc_wait_for_sync
                0x0000b1f0        0x8 hpl/adc/hpl_adc.o
 .text.hri_adc_set_CTRLA_ENABLE_bit
                0x0000b1f8       0x14 hpl/adc/hpl_adc.o
 .text.hri_adc_clear_CTRLA_ENABLE_bit
                0x0000b20c       0x18 hpl/adc/hpl_adc.o
 .text._adc_get_regs
                0x0000b224       0x14 hpl/adc/hpl_adc.o
 .text._adc_interrupt_handler
                0x0000b238       0x4e hpl/adc/hpl_adc.o
 .text._adc_get_irq_num.isra.0
                0x0000b286       0x14 hpl/adc/hpl_adc.o
 *fill*         0x0000b29a        0x2 
 .text._adc_init
                0x0000b29c       0xc8 hpl/adc/hpl_adc.o
 .text._adc_async_init
                0x0000b364       0xb4 hpl/adc/hpl_adc.o
                0x0000b364                _adc_async_init
 .text._adc_async_enable_channel
                0x0000b418        0xc hpl/adc/hpl_adc.o
                0x0000b418                _adc_async_enable_channel
 .text._adc_async_get_data_size
                0x0000b424       0x12 hpl/adc/hpl_adc.o
                0x0000b424                _adc_async_get_data_size
 *fill*         0x0000b436        0x2 
 .text._adc_async_convert
                0x0000b438       0x18 hpl/adc/hpl_adc.o
                0x0000b438                _adc_async_convert
 .text._adc_async_set_irq_state
                0x0000b450       0x20 hpl/adc/hpl_adc.o
                0x0000b450                _adc_async_set_irq_state
 .text.ADC0_1_Handler
                0x0000b470       0x10 hpl/adc/hpl_adc.o
                0x0000b470                ADC0_1_Handler
 .text.ADC0_0_Handler
                0x0000b480        0x8 hpl/adc/hpl_adc.o
                0x0000b480                ADC0_0_Handler
 .text.ADC1_1_Handler
                0x0000b488       0x10 hpl/adc/hpl_adc.o
                0x0000b488                ADC1_1_Handler
 .text.ADC1_0_Handler
                0x0000b498        0x8 hpl/adc/hpl_adc.o
                0x0000b498                ADC1_0_Handler
 .text._irq_set
                0x0000b4a0       0x1c hpl/core/hpl_core_m4.o
                0x0000b4a0                _irq_set
 .text._get_cycles_for_us
                0x0000b4bc        0x6 hpl/core/hpl_core_m4.o
                0x0000b4bc                _get_cycles_for_us
 *fill*         0x0000b4c2        0x2 
 .text._get_cycles_for_ms
                0x0000b4c4        0xc hpl/core/hpl_core_m4.o
                0x0000b4c4                _get_cycles_for_ms
 .text._init_chip
                0x0000b4d0       0x5c hpl/core/hpl_init.o
                0x0000b4d0                _init_chip
 .text._dmac_handler
                0x0000b52c       0x50 hpl/dmac/hpl_dmac.o
 .text._dma_init
                0x0000b57c       0xd0 hpl/dmac/hpl_dmac.o
                0x0000b57c                _dma_init
 .text._dma_set_irq_state
                0x0000b64c       0x28 hpl/dmac/hpl_dmac.o
                0x0000b64c                _dma_set_irq_state
 .text._dma_set_destination_address
                0x0000b674       0x10 hpl/dmac/hpl_dmac.o
                0x0000b674                _dma_set_destination_address
 .text._dma_set_source_address
                0x0000b684       0x10 hpl/dmac/hpl_dmac.o
                0x0000b684                _dma_set_source_address
 .text._dma_srcinc_enable
                0x0000b694       0x1c hpl/dmac/hpl_dmac.o
                0x0000b694                _dma_srcinc_enable
 .text._dma_set_data_amount
                0x0000b6b0       0x44 hpl/dmac/hpl_dmac.o
                0x0000b6b0                _dma_set_data_amount
 .text._dma_enable_transaction
                0x0000b6f4       0x3c hpl/dmac/hpl_dmac.o
                0x0000b6f4                _dma_enable_transaction
 .text._dma_get_channel_resource
                0x0000b730       0x14 hpl/dmac/hpl_dmac.o
                0x0000b730                _dma_get_channel_resource
 .text.DMAC_0_Handler
                0x0000b744        0x8 hpl/dmac/hpl_dmac.o
                0x0000b744                DMAC_0_Handler
 .text.DMAC_1_Handler
                0x0000b74c        0x8 hpl/dmac/hpl_dmac.o
                0x0000b74c                DMAC_1_Handler
 .text.DMAC_2_Handler
                0x0000b754        0x8 hpl/dmac/hpl_dmac.o
                0x0000b754                DMAC_2_Handler
 .text.DMAC_3_Handler
                0x0000b75c        0x8 hpl/dmac/hpl_dmac.o
                0x0000b75c                DMAC_3_Handler
 .text.DMAC_4_Handler
                0x0000b764        0x8 hpl/dmac/hpl_dmac.o
                0x0000b764                DMAC_4_Handler
 .text._crc_sync_init
                0x0000b76c        0x6 hpl/dsu/hpl_dsu.o
                0x0000b76c                _crc_sync_init
 *fill*         0x0000b772        0x2 
 .text._event_system_init
                0x0000b774       0x58 hpl/evsys/hpl_evsys.o
                0x0000b774                _event_system_init
 .text.hri_gclk_wait_for_sync.constprop.0
                0x0000b7cc       0x14 hpl/gclk/hpl_gclk.o
 .text._gclk_init_generators_by_fref
                0x0000b7e0       0x58 hpl/gclk/hpl_gclk.o
                0x0000b7e0                _gclk_init_generators_by_fref
 .text._mclk_init
                0x0000b838        0xc hpl/mclk/hpl_mclk.o
                0x0000b838                _mclk_init
 .text._flash_program
                0x0000b844       0x3c hpl/nvmctrl/hpl_nvmctrl.o
 .text._user_row_write_exec
                0x0000b880       0x88 hpl/nvmctrl/hpl_nvmctrl.o
 .text._flash_init
                0x0000b908       0x4c hpl/nvmctrl/hpl_nvmctrl.o
                0x0000b908                _flash_init
 .text._flash_get_page_size
                0x0000b954        0x6 hpl/nvmctrl/hpl_nvmctrl.o
                0x0000b954                _flash_get_page_size
 .text._flash_get_total_pages
                0x0000b95a        0x8 hpl/nvmctrl/hpl_nvmctrl.o
                0x0000b95a                _flash_get_total_pages
 .text._flash_read
                0x0000b962       0x1e hpl/nvmctrl/hpl_nvmctrl.o
                0x0000b962                _flash_read
 .text._flash_write
                0x0000b980       0xd0 hpl/nvmctrl/hpl_nvmctrl.o
                0x0000b980                _flash_write
 .text._flash_erase
                0x0000ba50       0xa8 hpl/nvmctrl/hpl_nvmctrl.o
                0x0000ba50                _flash_erase
 .text._flash_is_locked
                0x0000baf8       0x18 hpl/nvmctrl/hpl_nvmctrl.o
                0x0000baf8                _flash_is_locked
 .text.NVMCTRL_1_Handler
                0x0000bb10       0x2c hpl/nvmctrl/hpl_nvmctrl.o
                0x0000bb10                NVMCTRL_1_Handler
 .text.NVMCTRL_0_Handler
                0x0000bb3c        0x8 hpl/nvmctrl/hpl_nvmctrl.o
                0x0000bb3c                NVMCTRL_0_Handler
 .text._user_area_read
                0x0000bb44       0x60 hpl/nvmctrl/hpl_nvmctrl.o
                0x0000bb44                _user_area_read
 .text._user_area_write
                0x0000bba4       0x78 hpl/nvmctrl/hpl_nvmctrl.o
                0x0000bba4                _user_area_write
 .text._osc32kctrl_init_sources
                0x0000bc1c       0x14 hpl/osc32kctrl/hpl_osc32kctrl.o
                0x0000bc1c                _osc32kctrl_init_sources
 .text._oscctrl_init_sources
                0x0000bc30        0x2 hpl/oscctrl/hpl_oscctrl.o
                0x0000bc30                _oscctrl_init_sources
 *fill*         0x0000bc32        0x2 
 .text._oscctrl_init_referenced_generators
                0x0000bc34       0xfc hpl/oscctrl/hpl_oscctrl.o
                0x0000bc34                _oscctrl_init_referenced_generators
 .text._qspi_dma_tx_complete
                0x0000bd30       0x14 hpl/qspi/hpl_qspi.o
 .text._qspi_dma_rx_complete
                0x0000bd44        0x8 hpl/qspi/hpl_qspi.o
 .text._qspi_dma_error_occured
                0x0000bd4c        0xa hpl/qspi/hpl_qspi.o
 *fill*         0x0000bd56        0x2 
 .text._qspi_dma_init
                0x0000bd58       0x58 hpl/qspi/hpl_qspi.o
                0x0000bd58                _qspi_dma_init
 .text.RAMECC_Handler
                0x0000bdb0       0x3c hpl/ramecc/hpl_ramecc.o
                0x0000bdb0                RAMECC_Handler
 .text.hri_rtcmode0_wait_for_sync
                0x0000bdec        0x8 hpl/rtc/hpl_rtc.o
 .text._rtc_timer_stop
                0x0000bdf4       0x1c hpl/rtc/hpl_rtc.o
                0x0000bdf4                _rtc_timer_stop
 .text._rtc_timer_set_period
                0x0000be10       0x10 hpl/rtc/hpl_rtc.o
                0x0000be10                _rtc_timer_set_period
 .text._rtc_timer_get_period
                0x0000be20       0x14 hpl/rtc/hpl_rtc.o
                0x0000be20                _rtc_timer_get_period
 .text._rtc_timer_is_started
                0x0000be34       0x1c hpl/rtc/hpl_rtc.o
                0x0000be34                _rtc_timer_is_started
 .text._rtc_timer_set_irq
                0x0000be50        0x2 hpl/rtc/hpl_rtc.o
                0x0000be50                _rtc_timer_set_irq
 *fill*         0x0000be52        0x2 
 .text._rtc_timer_start
                0x0000be54       0x3c hpl/rtc/hpl_rtc.o
                0x0000be54                _rtc_timer_start
 .text._rtc_timer_deinit
                0x0000be90       0x28 hpl/rtc/hpl_rtc.o
                0x0000be90                _rtc_timer_deinit
 .text._rtc_timer_init
                0x0000beb8       0x48 hpl/rtc/hpl_rtc.o
                0x0000beb8                _rtc_timer_init
 .text._rtc_get_timer
                0x0000bf00        0x8 hpl/rtc/hpl_rtc.o
                0x0000bf00                _rtc_get_timer
 .text.RTC_Handler
                0x0000bf08       0x24 hpl/rtc/hpl_rtc.o
                0x0000bf08                RTC_Handler
 .text.__NVIC_EnableIRQ
                0x0000bf2c       0x1c hpl/sercom/hpl_sercom.o
 .text.__NVIC_DisableIRQ
                0x0000bf48       0x28 hpl/sercom/hpl_sercom.o
 .text.__NVIC_ClearPendingIRQ
                0x0000bf70       0x20 hpl/sercom/hpl_sercom.o
 .text.hri_sercomi2cm_wait_for_sync
                0x0000bf90        0x8 hpl/sercom/hpl_sercom.o
 .text.hri_sercomspi_wait_for_sync
                0x0000bf98        0x8 hpl/sercom/hpl_sercom.o
 .text.hri_sercomusart_wait_for_sync
                0x0000bfa0        0x8 hpl/sercom/hpl_sercom.o
 .text.hri_sercomi2cm_clear_CTRLA_ENABLE_bit
                0x0000bfa8       0x14 hpl/sercom/hpl_sercom.o
 .text.hri_sercomspi_clear_CTRLA_ENABLE_bit
                0x0000bfbc       0x14 hpl/sercom/hpl_sercom.o
 .text.hri_sercomusart_get_CTRLA_ENABLE_bit
                0x0000bfd0       0x14 hpl/sercom/hpl_sercom.o
 .text.hri_sercomusart_write_CTRLA_ENABLE_bit
                0x0000bfe4       0x18 hpl/sercom/hpl_sercom.o
 .text.hri_sercomusart_clear_CTRLA_ENABLE_bit
                0x0000bffc       0x14 hpl/sercom/hpl_sercom.o
 .text._sercom_get_hardware_index
                0x0000c010       0x34 hpl/sercom/hpl_sercom.o
 .text._sercom_usart_interrupt_handler
                0x0000c044       0x70 hpl/sercom/hpl_sercom.o
 .text._sercom_init_irq_param
                0x0000c0b4       0x60 hpl/sercom/hpl_sercom.o
 .text._get_i2cm_index
                0x0000c114       0x14 hpl/sercom/hpl_sercom.o
 .text._sercom_get_irq_num
                0x0000c128       0x14 hpl/sercom/hpl_sercom.o
 .text._spi_sync_enable
                0x0000c13c       0x28 hpl/sercom/hpl_sercom.o
 .text._spi_get_regs
                0x0000c164       0x2c hpl/sercom/hpl_sercom.o
 .text._spi_get_tx_dma_channel
                0x0000c190       0x14 hpl/sercom/hpl_sercom.o
 .text._spi_get_rx_dma_channel
                0x0000c1a4       0x14 hpl/sercom/hpl_sercom.o
 .text._spi_dma_rx_complete
                0x0000c1b8        0xa hpl/sercom/hpl_sercom.o
 .text._spi_dma_tx_complete
                0x0000c1c2        0xa hpl/sercom/hpl_sercom.o
 .text._spi_dma_error_occured
                0x0000c1cc        0xa hpl/sercom/hpl_sercom.o
 *fill*         0x0000c1d6        0x2 
 .text._usart_set_parity
                0x0000c1d8       0x78 hpl/sercom/hpl_sercom.o
 .text._sercom_i2c_send_stop
                0x0000c250       0x14 hpl/sercom/hpl_sercom.o
 .text._sercom_i2c_sync_analyse_flags
                0x0000c264      0x16c hpl/sercom/hpl_sercom.o
 .text._spi_load_regs_master
                0x0000c3d0       0x3c hpl/sercom/hpl_sercom.o
 .text._spi_set_mode
                0x0000c40c       0x34 hpl/sercom/hpl_sercom.o
 .text._i2c_m_sync_init_impl
                0x0000c440       0xb0 hpl/sercom/hpl_sercom.o
 .text._usart_init
                0x0000c4f0       0xdc hpl/sercom/hpl_sercom.o
 .text._usart_sync_init
                0x0000c5cc        0xc hpl/sercom/hpl_sercom.o
                0x0000c5cc                _usart_sync_init
 .text._usart_async_init
                0x0000c5d8       0x64 hpl/sercom/hpl_sercom.o
                0x0000c5d8                _usart_async_init
 .text._usart_sync_enable
                0x0000c63c       0x14 hpl/sercom/hpl_sercom.o
                0x0000c63c                _usart_sync_enable
 .text._usart_async_enable
                0x0000c650       0x14 hpl/sercom/hpl_sercom.o
                0x0000c650                _usart_async_enable
 .text._usart_async_disable
                0x0000c664        0xc hpl/sercom/hpl_sercom.o
                0x0000c664                _usart_async_disable
 .text._usart_async_set_parity
                0x0000c670        0xc hpl/sercom/hpl_sercom.o
                0x0000c670                _usart_async_set_parity
 .text._usart_sync_write_byte
                0x0000c67c        0x6 hpl/sercom/hpl_sercom.o
                0x0000c67c                _usart_sync_write_byte
 .text._usart_async_write_byte
                0x0000c682        0x6 hpl/sercom/hpl_sercom.o
                0x0000c682                _usart_async_write_byte
 .text._usart_sync_read_byte
                0x0000c688        0x8 hpl/sercom/hpl_sercom.o
                0x0000c688                _usart_sync_read_byte
 .text._usart_sync_is_ready_to_send
                0x0000c690        0xa hpl/sercom/hpl_sercom.o
                0x0000c690                _usart_sync_is_ready_to_send
 .text._usart_sync_is_transmit_done
                0x0000c69a        0xa hpl/sercom/hpl_sercom.o
                0x0000c69a                _usart_sync_is_transmit_done
 .text._usart_sync_is_byte_received
                0x0000c6a4        0xa hpl/sercom/hpl_sercom.o
                0x0000c6a4                _usart_sync_is_byte_received
 .text._usart_async_enable_byte_sent_irq
                0x0000c6ae        0x8 hpl/sercom/hpl_sercom.o
                0x0000c6ae                _usart_async_enable_byte_sent_irq
 .text._usart_async_enable_tx_done_irq
                0x0000c6b6        0x8 hpl/sercom/hpl_sercom.o
                0x0000c6b6                _usart_async_enable_tx_done_irq
 .text._usart_async_set_irq_state
                0x0000c6be       0x32 hpl/sercom/hpl_sercom.o
                0x0000c6be                _usart_async_set_irq_state
 .text._i2c_m_async_init
                0x0000c6f0       0x64 hpl/sercom/hpl_sercom.o
                0x0000c6f0                _i2c_m_async_init
 .text._i2c_m_async_transfer
                0x0000c754       0xc0 hpl/sercom/hpl_sercom.o
                0x0000c754                _i2c_m_async_transfer
 .text._i2c_m_async_register_callback
                0x0000c814       0x1a hpl/sercom/hpl_sercom.o
                0x0000c814                _i2c_m_async_register_callback
 *fill*         0x0000c82e        0x2 
 .text.SERCOM0_3_Handler
                0x0000c830       0x10 hpl/sercom/hpl_sercom.o
                0x0000c830                SERCOM0_3_Handler
 .text.SERCOM0_2_Handler
                0x0000c840        0x8 hpl/sercom/hpl_sercom.o
                0x0000c840                SERCOM0_2_Handler
 .text.SERCOM0_1_Handler
                0x0000c848        0x8 hpl/sercom/hpl_sercom.o
                0x0000c848                SERCOM0_1_Handler
 .text.SERCOM0_0_Handler
                0x0000c850        0x8 hpl/sercom/hpl_sercom.o
                0x0000c850                SERCOM0_0_Handler
 .text.SERCOM1_3_Handler
                0x0000c858       0x10 hpl/sercom/hpl_sercom.o
                0x0000c858                SERCOM1_3_Handler
 .text.SERCOM1_2_Handler
                0x0000c868        0x8 hpl/sercom/hpl_sercom.o
                0x0000c868                SERCOM1_2_Handler
 .text.SERCOM1_1_Handler
                0x0000c870        0x8 hpl/sercom/hpl_sercom.o
                0x0000c870                SERCOM1_1_Handler
 .text.SERCOM1_0_Handler
                0x0000c878        0x8 hpl/sercom/hpl_sercom.o
                0x0000c878                SERCOM1_0_Handler
 .text.SERCOM3_3_Handler
                0x0000c880       0x44 hpl/sercom/hpl_sercom.o
                0x0000c880                SERCOM3_3_Handler
 .text.SERCOM3_2_Handler
                0x0000c8c4        0x8 hpl/sercom/hpl_sercom.o
                0x0000c8c4                SERCOM3_2_Handler
 .text.SERCOM3_1_Handler
                0x0000c8cc        0x8 hpl/sercom/hpl_sercom.o
                0x0000c8cc                SERCOM3_1_Handler
 .text.SERCOM3_0_Handler
                0x0000c8d4        0x8 hpl/sercom/hpl_sercom.o
                0x0000c8d4                SERCOM3_0_Handler
 .text.SERCOM4_3_Handler
                0x0000c8dc       0x10 hpl/sercom/hpl_sercom.o
                0x0000c8dc                SERCOM4_3_Handler
 .text.SERCOM4_2_Handler
                0x0000c8ec        0x8 hpl/sercom/hpl_sercom.o
                0x0000c8ec                SERCOM4_2_Handler
 .text.SERCOM4_1_Handler
                0x0000c8f4        0x8 hpl/sercom/hpl_sercom.o
                0x0000c8f4                SERCOM4_1_Handler
 .text.SERCOM4_0_Handler
                0x0000c8fc        0x8 hpl/sercom/hpl_sercom.o
                0x0000c8fc                SERCOM4_0_Handler
 .text.SERCOM5_3_Handler
                0x0000c904       0x64 hpl/sercom/hpl_sercom.o
                0x0000c904                SERCOM5_3_Handler
 .text.SERCOM5_2_Handler
                0x0000c968        0x8 hpl/sercom/hpl_sercom.o
                0x0000c968                SERCOM5_2_Handler
 .text.SERCOM5_1_Handler
                0x0000c970        0x8 hpl/sercom/hpl_sercom.o
                0x0000c970                SERCOM5_1_Handler
 .text.SERCOM5_0_Handler
                0x0000c978        0x8 hpl/sercom/hpl_sercom.o
                0x0000c978                SERCOM5_0_Handler
 .text.SERCOM6_3_Handler
                0x0000c980       0x10 hpl/sercom/hpl_sercom.o
                0x0000c980                SERCOM6_3_Handler
 .text.SERCOM6_2_Handler
                0x0000c990        0x8 hpl/sercom/hpl_sercom.o
                0x0000c990                SERCOM6_2_Handler
 .text.SERCOM6_1_Handler
                0x0000c998        0x8 hpl/sercom/hpl_sercom.o
                0x0000c998                SERCOM6_1_Handler
 .text.SERCOM6_0_Handler
                0x0000c9a0        0x8 hpl/sercom/hpl_sercom.o
                0x0000c9a0                SERCOM6_0_Handler
 .text._spi_m_sync_init
                0x0000c9a8       0xd0 hpl/sercom/hpl_sercom.o
                0x0000c9a8                _spi_m_sync_init
 .text._spi_m_async_init
                0x0000ca78       0x58 hpl/sercom/hpl_sercom.o
                0x0000ca78                _spi_m_async_init
 .text._spi_s_async_enable
                0x0000cad0       0x34 hpl/sercom/hpl_sercom.o
                0x0000cad0                _spi_s_async_enable
 .text._spi_m_async_enable
                0x0000cb04        0x8 hpl/sercom/hpl_sercom.o
                0x0000cb04                _spi_m_async_enable
 .text._spi_s_async_set_mode
                0x0000cb0c        0xc hpl/sercom/hpl_sercom.o
                0x0000cb0c                _spi_s_async_set_mode
 .text._spi_m_async_set_mode
                0x0000cb18        0x8 hpl/sercom/hpl_sercom.o
                0x0000cb18                _spi_m_async_set_mode
 .text._spi_m_async_set_baudrate
                0x0000cb20       0x14 hpl/sercom/hpl_sercom.o
                0x0000cb20                _spi_m_async_set_baudrate
 .text._spi_m_async_enable_tx
                0x0000cb34       0x10 hpl/sercom/hpl_sercom.o
                0x0000cb34                _spi_m_async_enable_tx
 .text._spi_m_async_enable_rx
                0x0000cb44       0x10 hpl/sercom/hpl_sercom.o
                0x0000cb44                _spi_m_async_enable_rx
 .text._spi_m_async_enable_tx_complete
                0x0000cb54       0x10 hpl/sercom/hpl_sercom.o
                0x0000cb54                _spi_m_async_enable_tx_complete
 .text._spi_m_async_write_one
                0x0000cb64        0x8 hpl/sercom/hpl_sercom.o
                0x0000cb64                _spi_m_async_write_one
 .text._spi_m_async_read_one
                0x0000cb6c        0x8 hpl/sercom/hpl_sercom.o
                0x0000cb6c                _spi_m_async_read_one
 .text._spi_m_async_register_callback
                0x0000cb74        0xa hpl/sercom/hpl_sercom.o
                0x0000cb74                _spi_m_async_register_callback
 .text._spi_m_async_set_irq_state
                0x0000cb7e       0x12 hpl/sercom/hpl_sercom.o
                0x0000cb7e                _spi_m_async_set_irq_state
 .text._spi_m_dma_init
                0x0000cb90       0xc4 hpl/sercom/hpl_sercom.o
                0x0000cb90                _spi_m_dma_init
 .text._spi_m_dma_enable
                0x0000cc54        0xc hpl/sercom/hpl_sercom.o
                0x0000cc54                _spi_m_dma_enable
 .text._spi_m_dma_register_callback
                0x0000cc60       0x64 hpl/sercom/hpl_sercom.o
                0x0000cc60                _spi_m_dma_register_callback
 .text._spi_m_dma_transfer
                0x0000ccc4       0xf8 hpl/sercom/hpl_sercom.o
                0x0000ccc4                _spi_m_dma_transfer
 .text._delay_init
                0x0000cdbc       0x14 hpl/systick/hpl_systick.o
                0x0000cdbc                _delay_init
 .text._delay_cycles
                0x0000cdd0       0x38 hpl/systick/hpl_systick.o
                0x0000cdd0                _delay_cycles
 .text.__NVIC_DisableIRQ
                0x0000ce08       0x28 hpl/tc/hpl_tc.o
 .text.hri_tc_wait_for_sync
                0x0000ce30        0x8 hpl/tc/hpl_tc.o
 .text._tc_timer_start
                0x0000ce38       0x14 hpl/tc/hpl_tc.o
                0x0000ce38                _tc_timer_start
 .text._tc_timer_get_period
                0x0000ce4c       0x50 hpl/tc/hpl_tc.o
                0x0000ce4c                _tc_timer_get_period
 .text._tc_timer_is_started
                0x0000ce9c       0x18 hpl/tc/hpl_tc.o
                0x0000ce9c                _tc_timer_is_started
 .text.tc_interrupt_handler
                0x0000ceb4       0x12 hpl/tc/hpl_tc.o
 *fill*         0x0000cec6        0x2 
 .text.get_tc_index
                0x0000cec8       0x50 hpl/tc/hpl_tc.o
 .text._tc_timer_set_irq
                0x0000cf18       0x28 hpl/tc/hpl_tc.o
                0x0000cf18                _tc_timer_set_irq
 .text._tc_timer_stop
                0x0000cf40       0x14 hpl/tc/hpl_tc.o
                0x0000cf40                _tc_timer_stop
 .text._tc_timer_deinit
                0x0000cf54       0x4c hpl/tc/hpl_tc.o
                0x0000cf54                _tc_timer_deinit
 .text._tc_timer_init
                0x0000cfa0      0x150 hpl/tc/hpl_tc.o
                0x0000cfa0                _tc_timer_init
 .text._tc_timer_set_period
                0x0000d0f0       0x3c hpl/tc/hpl_tc.o
                0x0000d0f0                _tc_timer_set_period
 .text._tc_get_timer
                0x0000d12c        0x8 hpl/tc/hpl_tc.o
                0x0000d12c                _tc_get_timer
 .text.TC0_Handler
                0x0000d134       0x10 hpl/tc/hpl_tc.o
                0x0000d134                TC0_Handler
 .text.TC1_Handler
                0x0000d144       0x10 hpl/tc/hpl_tc.o
                0x0000d144                TC1_Handler
 .text.TC2_Handler
                0x0000d154       0x10 hpl/tc/hpl_tc.o
                0x0000d154                TC2_Handler
 .text.TC3_Handler
                0x0000d164       0x10 hpl/tc/hpl_tc.o
                0x0000d164                TC3_Handler
 .text._dummy_func_no_return
                0x0000d174        0x4 hpl/usb/hpl_usb.o
 .text._usb_d_dev_wait_dfll_rdy
                0x0000d178       0x24 hpl/usb/hpl_usb.o
 .text._usb_d_dev_ept
                0x0000d19c       0x18 hpl/usb/hpl_usb.o
 .text._usb_d_dev_handle_setup
                0x0000d1b4       0x84 hpl/usb/hpl_usb.o
 .text._usb_d_dev_handle_stall
                0x0000d238       0x28 hpl/usb/hpl_usb.o
 .text._usb_d_dev_trans_done
                0x0000d260       0x24 hpl/usb/hpl_usb.o
 .text._usb_d_dev_trans_stop
                0x0000d284       0x64 hpl/usb/hpl_usb.o
 .text._usb_d_dev_handle_trfail
                0x0000d2e8       0xec hpl/usb/hpl_usb.o
 .text._usb_d_dev_reset_epts
                0x0000d3d4       0x3c hpl/usb/hpl_usb.o
 .text._usb_d_dev_in_next
                0x0000d410      0x158 hpl/usb/hpl_usb.o
 .text._usb_d_dev_out_next
                0x0000d568      0x1ac hpl/usb/hpl_usb.o
 .text._usb_d_dev_handler
                0x0000d714      0x1dc hpl/usb/hpl_usb.o
 .text._usbd_ep_pcksize_size
                0x0000d8f0       0x3e hpl/usb/hpl_usb.o
 *fill*         0x0000d92e        0x2 
 .text._usb_d_dev_init
                0x0000d930       0xe8 hpl/usb/hpl_usb.o
                0x0000d930                _usb_d_dev_init
 .text._usb_d_dev_enable
                0x0000da18       0x5c hpl/usb/hpl_usb.o
                0x0000da18                _usb_d_dev_enable
 .text._usb_d_dev_attach
                0x0000da74       0x12 hpl/usb/hpl_usb.o
                0x0000da74                _usb_d_dev_attach
 .text._usb_d_dev_set_address
                0x0000da86        0xc hpl/usb/hpl_usb.o
                0x0000da86                _usb_d_dev_set_address
 .text._usb_d_dev_get_frame_n
                0x0000da92        0xc hpl/usb/hpl_usb.o
                0x0000da92                _usb_d_dev_get_frame_n
 *fill*         0x0000da9e        0x2 
 .text._usb_d_dev_ep_init
                0x0000daa0       0xc0 hpl/usb/hpl_usb.o
                0x0000daa0                _usb_d_dev_ep_init
 .text._usb_d_dev_ep_deinit
                0x0000db60       0x84 hpl/usb/hpl_usb.o
                0x0000db60                _usb_d_dev_ep_deinit
 .text._usb_d_dev_ep_enable
                0x0000dbe4      0x17c hpl/usb/hpl_usb.o
                0x0000dbe4                _usb_d_dev_ep_enable
 .text._usb_d_dev_ep_stall
                0x0000dd60       0xe4 hpl/usb/hpl_usb.o
                0x0000dd60                _usb_d_dev_ep_stall
 .text._usb_d_dev_ep_read_req
                0x0000de44       0x54 hpl/usb/hpl_usb.o
                0x0000de44                _usb_d_dev_ep_read_req
 .text._usb_d_dev_ep_trans
                0x0000de98      0x108 hpl/usb/hpl_usb.o
                0x0000de98                _usb_d_dev_ep_trans
 .text._usb_d_dev_register_callback
                0x0000dfa0       0x24 hpl/usb/hpl_usb.o
                0x0000dfa0                _usb_d_dev_register_callback
 .text._usb_d_dev_register_ep_callback
                0x0000dfc4       0x2c hpl/usb/hpl_usb.o
                0x0000dfc4                _usb_d_dev_register_ep_callback
 .text.USB_0_Handler
                0x0000dff0        0x8 hpl/usb/hpl_usb.o
                0x0000dff0                USB_0_Handler
 .text.USB_1_Handler
                0x0000dff8        0x8 hpl/usb/hpl_usb.o
                0x0000dff8                USB_1_Handler
 .text.USB_2_Handler
                0x0000e000        0x8 hpl/usb/hpl_usb.o
                0x0000e000                USB_2_Handler
 .text.USB_3_Handler
                0x0000e008        0x8 hpl/usb/hpl_usb.o
                0x0000e008                USB_3_Handler
 .text._wdt_init
                0x0000e010       0x42 hpl/wdt/hpl_wdt.o
                0x0000e010                _wdt_init
 *fill*         0x0000e052        0x2 
 .text.RTC_Scheduler_ping_cb
                0x0000e054       0x50 main.o
 .text.RTC_Scheduler_report_cb
                0x0000e0a4        0xc main.o
 .text.RTC_Scheduler_heartbeat_cb
                0x0000e0b0       0x1c main.o
 .text.RTC_Scheduler_realtime_cb
                0x0000e0cc       0x80 main.o
 .text.init_timer
                0x0000e14c       0x84 main.o
                0x0000e14c                init_timer
 .text.startup.main
                0x0000e1d0      0x500 main.o
                0x0000e1d0                main
 .text._read    0x0000e6d0       0x20 stdio_redirect/gcc/read.o
                0x0000e6d0                _read
 .text._write   0x0000e6f0       0x24 stdio_redirect/gcc/write.o
                0x0000e6f0                _write
 .text.stdio_io_init
                0x0000e714       0x2c stdio_redirect/stdio_io.o
                0x0000e714                stdio_io_init
 .text.stdio_io_read
                0x0000e740       0x1c stdio_redirect/stdio_io.o
                0x0000e740                stdio_io_read
 .text.stdio_io_write
                0x0000e75c       0x1c stdio_redirect/stdio_io.o
                0x0000e75c                stdio_io_write
 .text.stdio_redirect_init
                0x0000e778       0x20 stdio_start.o
                0x0000e778                stdio_redirect_init
 .text.cdcdf_acm_req
                0x0000e798       0xdc usb/class/cdc/device/cdcdf_acm.o
 .text.cdcdf_acm_ctrl
                0x0000e874      0x138 usb/class/cdc/device/cdcdf_acm.o
 .text.cdcdf_acm_init
                0x0000e9ac       0x44 usb/class/cdc/device/cdcdf_acm.o
                0x0000e9ac                cdcdf_acm_init
 .text.cdcdf_acm_read
                0x0000e9f0       0x2c usb/class/cdc/device/cdcdf_acm.o
                0x0000e9f0                cdcdf_acm_read
 .text.cdcdf_acm_write
                0x0000ea1c       0x2c usb/class/cdc/device/cdcdf_acm.o
                0x0000ea1c                cdcdf_acm_write
 .text.cdcdf_acm_register_callback
                0x0000ea48       0x40 usb/class/cdc/device/cdcdf_acm.o
                0x0000ea48                cdcdf_acm_register_callback
 .text.hid_keyboard_req
                0x0000ea88       0x88 usb/class/hid/device/hiddf_keyboard.o
 .text.hid_keyboard_ctrl
                0x0000eb10      0x110 usb/class/hid/device/hiddf_keyboard.o
 .text.hiddf_keyboard_init
                0x0000ec20       0x44 usb/class/hid/device/hiddf_keyboard.o
                0x0000ec20                hiddf_keyboard_init
 .text.hiddf_keyboard_keys_state_change
                0x0000ec64       0x8c usb/class/hid/device/hiddf_keyboard.o
                0x0000ec64                hiddf_keyboard_keys_state_change
 .text.hid_mouse_req
                0x0000ecf0       0x88 usb/class/hid/device/hiddf_mouse.o
 .text.hid_mouse_ctrl
                0x0000ed78       0xe4 usb/class/hid/device/hiddf_mouse.o
 .text.hiddf_mouse_init
                0x0000ee5c       0x44 usb/class/hid/device/hiddf_mouse.o
                0x0000ee5c                hiddf_mouse_init
 .text.hiddf_mouse_move
                0x0000eea0       0x48 usb/class/hid/device/hiddf_mouse.o
                0x0000eea0                hiddf_mouse_move
 .text.audio_midi_req
                0x0000eee8       0x78 usb/class/midi/device/audiodf_midi.o
 .text.audio_midi_ctrl
                0x0000ef60      0x180 usb/class/midi/device/audiodf_midi.o
 .text.audiodf_midi_init
                0x0000f0e0       0x44 usb/class/midi/device/audiodf_midi.o
                0x0000f0e0                audiodf_midi_init
 .text.audiodf_midi_write
                0x0000f124       0x28 usb/class/midi/device/audiodf_midi.o
                0x0000f124                audiodf_midi_write
 .text.audiodf_midi_read
                0x0000f14c       0x20 usb/class/midi/device/audiodf_midi.o
                0x0000f14c                audiodf_midi_read
 .text.audiodf_midi_register_callback
                0x0000f16c       0x30 usb/class/midi/device/audiodf_midi.o
                0x0000f16c                audiodf_midi_register_callback
 .text.usbdc_unconfig
                0x0000f19c       0x1c usb/device/usbdc.o
 .text.usbdc_change_notify
                0x0000f1b8       0x20 usb/device/usbdc.o
 .text.usbdc_request_handler
                0x0000f1d8       0x38 usb/device/usbdc.o
 .text.usbd_sof_cb
                0x0000f210       0x18 usb/device/usbdc.o
 .text.usbdc_cb_ctl_done
                0x0000f228       0x68 usb/device/usbdc.o
 .text.usbdc_reset
                0x0000f290       0x5c usb/device/usbdc.o
                0x0000f290                usbdc_reset
 .text.usbd_event_cb
                0x0000f2ec       0x18 usb/device/usbdc.o
 .text.usbdc_xfer
                0x0000f304       0x20 usb/device/usbdc.o
                0x0000f304                usbdc_xfer
 .text.usbdc_cb_ctl_req
                0x0000f324      0x328 usb/device/usbdc.o
 .text.usbdc_register_handler
                0x0000f64c       0x2c usb/device/usbdc.o
                0x0000f64c                usbdc_register_handler
 .text.usbdc_init
                0x0000f678       0x44 usb/device/usbdc.o
                0x0000f678                usbdc_init
 .text.usbdc_register_function
                0x0000f6bc       0x10 usb/device/usbdc.o
                0x0000f6bc                usbdc_register_function
 .text.usbdc_start
                0x0000f6cc       0x34 usb/device/usbdc.o
                0x0000f6cc                usbdc_start
 .text.usbdc_attach
                0x0000f700        0x8 usb/device/usbdc.o
                0x0000f700                usbdc_attach
 .text.usbdc_get_ctrl_buffer
                0x0000f708        0xc usb/device/usbdc.o
                0x0000f708                usbdc_get_ctrl_buffer
 .text.usbdc_get_state
                0x0000f714       0x14 usb/device/usbdc.o
                0x0000f714                usbdc_get_state
 .text.usb_find_desc
                0x0000f728       0x1a usb/usb_protocol.o
                0x0000f728                usb_find_desc
 .text.usb_find_ep_desc
                0x0000f742       0x1c usb/usb_protocol.o
                0x0000f742                usb_find_ep_desc
 *fill*         0x0000f75e        0x2 
 .text.usb_find_cfg_desc
                0x0000f760       0x3c usb/usb_protocol.o
                0x0000f760                usb_find_cfg_desc
 .text.usb_find_str_desc
                0x0000f79c       0x30 usb/usb_protocol.o
                0x0000f79c                usb_find_str_desc
 .text.gpio_get_pin_level
                0x0000f7cc       0x48 usb_start.o
 .text.hiddf_demo_sof_event
                0x0000f814       0x78 usb_start.o
 .text.composite_device_init
                0x0000f88c       0x2c usb_start.o
                0x0000f88c                composite_device_init
 .text.composite_device_start
                0x0000f8b8       0x1c usb_start.o
                0x0000f8b8                composite_device_start
 .text.usb_init
                0x0000f8d4        0x8 usb_start.o
                0x0000f8d4                usb_init
 .text          0x0000f8dc      0x370 c:/program files (x86)/atmel/studio/7.0/toolchain/arm/arm-gnu-toolchain/bin/../lib/gcc/arm-none-eabi/6.3.1/thumb/v7e-m\libgcc.a(_arm_addsubdf3.o)
                0x0000f8dc                __aeabi_drsub
                0x0000f8e4                __aeabi_dsub
                0x0000f8e4                __subdf3
                0x0000f8e8                __aeabi_dadd
                0x0000f8e8                __adddf3
                0x0000fb60                __floatunsidf
                0x0000fb60                __aeabi_ui2d
                0x0000fb80                __floatsidf
                0x0000fb80                __aeabi_i2d
                0x0000fba4                __aeabi_f2d
                0x0000fba4                __extendsfdf2
                0x0000fbe0                __floatundidf
                0x0000fbe0                __aeabi_ul2d
                0x0000fbf0                __floatdidf
                0x0000fbf0                __aeabi_l2d
 .text          0x0000fc4c      0x424 c:/program files (x86)/atmel/studio/7.0/toolchain/arm/arm-gnu-toolchain/bin/../lib/gcc/arm-none-eabi/6.3.1/thumb/v7e-m\libgcc.a(_arm_muldivdf3.o)
                0x0000fc4c                __aeabi_dmul
                0x0000fc4c                __muldf3
                0x0000fea0                __divdf3
                0x0000fea0                __aeabi_ddiv
 .text          0x00010070       0x40 c:/program files (x86)/atmel/studio/7.0/toolchain/arm/arm-gnu-toolchain/bin/../lib/gcc/arm-none-eabi/6.3.1/thumb/v7e-m\libgcc.a(_arm_fixunsdfsi.o)
                0x00010070                __aeabi_d2uiz
                0x00010070                __fixunsdfsi
 .text.__libc_init_array
                0x000100b0       0x48 c:/program files (x86)/atmel/studio/7.0/toolchain/arm/arm-gnu-toolchain/bin/../lib/gcc/arm-none-eabi/6.3.1/../../../../arm-none-eabi/lib/thumb/v7e-m\libc_nano.a(lib_a-init.o)
                0x000100b0                __libc_init_array
 .text.malloc   0x000100f8       0x10 c:/program files (x86)/atmel/studio/7.0/toolchain/arm/arm-gnu-toolchain/bin/../lib/gcc/arm-none-eabi/6.3.1/../../../../arm-none-eabi/lib/thumb/v7e-m\libc_nano.a(lib_a-malloc.o)
                0x000100f8                malloc
 .text.memcpy   0x00010108       0x16 c:/program files (x86)/atmel/studio/7.0/toolchain/arm/arm-gnu-toolchain/bin/../lib/gcc/arm-none-eabi/6.3.1/../../../../arm-none-eabi/lib/thumb/v7e-m\libc_nano.a(lib_a-memcpy-stub.o)
                0x00010108                memcpy
 .text.memset   0x0001011e       0x10 c:/program files (x86)/atmel/studio/7.0/toolchain/arm/arm-gnu-toolchain/bin/../lib/gcc/arm-none-eabi/6.3.1/../../../../arm-none-eabi/lib/thumb/v7e-m\libc_nano.a(lib_a-memset.o)
                0x0001011e                memset
 *fill*         0x0001012e        0x2 
 .text._free_r  0x00010130       0x9c c:/program files (x86)/atmel/studio/7.0/toolchain/arm/arm-gnu-toolchain/bin/../lib/gcc/arm-none-eabi/6.3.1/../../../../arm-none-eabi/lib/thumb/v7e-m\libc_nano.a(lib_a-nano-freer.o)
                0x00010130                _free_r
 .text._malloc_r
                0x000101cc       0xbc c:/program files (x86)/atmel/studio/7.0/toolchain/arm/arm-gnu-toolchain/bin/../lib/gcc/arm-none-eabi/6.3.1/../../../../arm-none-eabi/lib/thumb/v7e-m\libc_nano.a(lib_a-nano-mallocr.o)
                0x000101cc                _malloc_r
 .text.printf   0x00010288       0x30 c:/program files (x86)/atmel/studio/7.0/toolchain/arm/arm-gnu-toolchain/bin/../lib/gcc/arm-none-eabi/6.3.1/../../../../arm-none-eabi/lib/thumb/v7e-m\libc_nano.a(lib_a-printf.o)
                0x00010288                iprintf
                0x00010288                printf
 .text._puts_r  0x000102b8       0xb8 c:/program files (x86)/atmel/studio/7.0/toolchain/arm/arm-gnu-toolchain/bin/../lib/gcc/arm-none-eabi/6.3.1/../../../../arm-none-eabi/lib/thumb/v7e-m\libc_nano.a(lib_a-puts.o)
                0x000102b8                _puts_r
 .text.puts     0x00010370       0x10 c:/program files (x86)/atmel/studio/7.0/toolchain/arm/arm-gnu-toolchain/bin/../lib/gcc/arm-none-eabi/6.3.1/../../../../arm-none-eabi/lib/thumb/v7e-m\libc_nano.a(lib_a-puts.o)
                0x00010370                puts
 .text._sbrk_r  0x00010380       0x20 c:/program files (x86)/atmel/studio/7.0/toolchain/arm/arm-gnu-toolchain/bin/../lib/gcc/arm-none-eabi/6.3.1/../../../../arm-none-eabi/lib/thumb/v7e-m\libc_nano.a(lib_a-sbrkr.o)
                0x00010380                _sbrk_r
 .text.setbuf   0x000103a0       0x10 c:/program files (x86)/atmel/studio/7.0/toolchain/arm/arm-gnu-toolchain/bin/../lib/gcc/arm-none-eabi/6.3.1/../../../../arm-none-eabi/lib/thumb/v7e-m\libc_nano.a(lib_a-setbuf.o)
                0x000103a0                setbuf
 .text.setvbuf  0x000103b0      0x15c c:/program files (x86)/atmel/studio/7.0/toolchain/arm/arm-gnu-toolchain/bin/../lib/gcc/arm-none-eabi/6.3.1/../../../../arm-none-eabi/lib/thumb/v7e-m\libc_nano.a(lib_a-setvbuf.o)
                0x000103b0                setvbuf
 .text.sprintf  0x0001050c       0x48 c:/program files (x86)/atmel/studio/7.0/toolchain/arm/arm-gnu-toolchain/bin/../lib/gcc/arm-none-eabi/6.3.1/../../../../arm-none-eabi/lib/thumb/v7e-m\libc_nano.a(lib_a-sprintf.o)
                0x0001050c                siprintf
                0x0001050c                sprintf
 .text.strcpy   0x00010554       0x10 c:/program files (x86)/atmel/studio/7.0/toolchain/arm/arm-gnu-toolchain/bin/../lib/gcc/arm-none-eabi/6.3.1/../../../../arm-none-eabi/lib/thumb/v7e-m\libc_nano.a(lib_a-strcpy.o)
                0x00010554                strcpy
 .text          0x00010564       0x10 c:/program files (x86)/atmel/studio/7.0/toolchain/arm/arm-gnu-toolchain/bin/../lib/gcc/arm-none-eabi/6.3.1/../../../../arm-none-eabi/lib/thumb/v7e-m\libc_nano.a(lib_a-strlen.o)
                0x00010564                strlen
 .text.__swbuf_r
                0x00010574       0xa4 c:/program files (x86)/atmel/studio/7.0/toolchain/arm/arm-gnu-toolchain/bin/../lib/gcc/arm-none-eabi/6.3.1/../../../../arm-none-eabi/lib/thumb/v7e-m\libc_nano.a(lib_a-wbuf.o)
                0x00010574                __swbuf_r
 .text.__swsetup_r
                0x00010618       0xdc c:/program files (x86)/atmel/studio/7.0/toolchain/arm/arm-gnu-toolchain/bin/../lib/gcc/arm-none-eabi/6.3.1/../../../../arm-none-eabi/lib/thumb/v7e-m\libc_nano.a(lib_a-wsetup.o)
                0x00010618                __swsetup_r
 .text.__sflush_r
                0x000106f4      0x110 c:/program files (x86)/atmel/studio/7.0/toolchain/arm/arm-gnu-toolchain/bin/../lib/gcc/arm-none-eabi/6.3.1/../../../../arm-none-eabi/lib/thumb/v7e-m\libc_nano.a(lib_a-fflush.o)
                0x000106f4                __sflush_r
 .text._fflush_r
                0x00010804       0x54 c:/program files (x86)/atmel/studio/7.0/toolchain/arm/arm-gnu-toolchain/bin/../lib/gcc/arm-none-eabi/6.3.1/../../../../arm-none-eabi/lib/thumb/v7e-m\libc_nano.a(lib_a-fflush.o)
                0x00010804                _fflush_r
 .text._cleanup_r
                0x00010858        0xc c:/program files (x86)/atmel/studio/7.0/toolchain/arm/arm-gnu-toolchain/bin/../lib/gcc/arm-none-eabi/6.3.1/../../../../arm-none-eabi/lib/thumb/v7e-m\libc_nano.a(lib_a-findfp.o)
                0x00010858                _cleanup_r
 .text.std.isra.0
                0x00010864       0x48 c:/program files (x86)/atmel/studio/7.0/toolchain/arm/arm-gnu-toolchain/bin/../lib/gcc/arm-none-eabi/6.3.1/../../../../arm-none-eabi/lib/thumb/v7e-m\libc_nano.a(lib_a-findfp.o)
 .text.__sfmoreglue
                0x000108ac       0x2c c:/program files (x86)/atmel/studio/7.0/toolchain/arm/arm-gnu-toolchain/bin/../lib/gcc/arm-none-eabi/6.3.1/../../../../arm-none-eabi/lib/thumb/v7e-m\libc_nano.a(lib_a-findfp.o)
                0x000108ac                __sfmoreglue
 .text.__sinit  0x000108d8       0x60 c:/program files (x86)/atmel/studio/7.0/toolchain/arm/arm-gnu-toolchain/bin/../lib/gcc/arm-none-eabi/6.3.1/../../../../arm-none-eabi/lib/thumb/v7e-m\libc_nano.a(lib_a-findfp.o)
                0x000108d8                __sinit
 .text.__sfp    0x00010938       0x78 c:/program files (x86)/atmel/studio/7.0/toolchain/arm/arm-gnu-toolchain/bin/../lib/gcc/arm-none-eabi/6.3.1/../../../../arm-none-eabi/lib/thumb/v7e-m\libc_nano.a(lib_a-findfp.o)
                0x00010938                __sfp
 .text._fwalk_reent
                0x000109b0       0x3c c:/program files (x86)/atmel/studio/7.0/toolchain/arm/arm-gnu-toolchain/bin/../lib/gcc/arm-none-eabi/6.3.1/../../../../arm-none-eabi/lib/thumb/v7e-m\libc_nano.a(lib_a-fwalk.o)
                0x000109b0                _fwalk_reent
 .text.__swhatbuf_r
                0x000109ec       0x48 c:/program files (x86)/atmel/studio/7.0/toolchain/arm/arm-gnu-toolchain/bin/../lib/gcc/arm-none-eabi/6.3.1/../../../../arm-none-eabi/lib/thumb/v7e-m\libc_nano.a(lib_a-makebuf.o)
                0x000109ec                __swhatbuf_r
 .text.__smakebuf_r
                0x00010a34       0x80 c:/program files (x86)/atmel/studio/7.0/toolchain/arm/arm-gnu-toolchain/bin/../lib/gcc/arm-none-eabi/6.3.1/../../../../arm-none-eabi/lib/thumb/v7e-m\libc_nano.a(lib_a-makebuf.o)
                0x00010a34                __smakebuf_r
 .text.__malloc_lock
                0x00010ab4        0x2 c:/program files (x86)/atmel/studio/7.0/toolchain/arm/arm-gnu-toolchain/bin/../lib/gcc/arm-none-eabi/6.3.1/../../../../arm-none-eabi/lib/thumb/v7e-m\libc_nano.a(lib_a-mlock.o)
                0x00010ab4                __malloc_lock
 .text.__malloc_unlock
                0x00010ab6        0x2 c:/program files (x86)/atmel/studio/7.0/toolchain/arm/arm-gnu-toolchain/bin/../lib/gcc/arm-none-eabi/6.3.1/../../../../arm-none-eabi/lib/thumb/v7e-m\libc_nano.a(lib_a-mlock.o)
                0x00010ab6                __malloc_unlock
 .text.__ssputs_r
                0x00010ab8       0xb6 c:/program files (x86)/atmel/studio/7.0/toolchain/arm/arm-gnu-toolchain/bin/../lib/gcc/arm-none-eabi/6.3.1/../../../../arm-none-eabi/lib/thumb/v7e-m\libc_nano.a(lib_a-nano-svfprintf.o)
                0x00010ab8                __ssputs_r
 *fill*         0x00010b6e        0x2 
 .text._svfprintf_r
                0x00010b70      0x1e8 c:/program files (x86)/atmel/studio/7.0/toolchain/arm/arm-gnu-toolchain/bin/../lib/gcc/arm-none-eabi/6.3.1/../../../../arm-none-eabi/lib/thumb/v7e-m\libc_nano.a(lib_a-nano-svfprintf.o)
                0x00010b70                _svfiprintf_r
                0x00010b70                _svfprintf_r
 .text.__sfputc_r
                0x00010d58       0x2c c:/program files (x86)/atmel/studio/7.0/toolchain/arm/arm-gnu-toolchain/bin/../lib/gcc/arm-none-eabi/6.3.1/../../../../arm-none-eabi/lib/thumb/v7e-m\libc_nano.a(lib_a-nano-vfprintf.o)
 .text.__sfputs_r
                0x00010d84       0x24 c:/program files (x86)/atmel/studio/7.0/toolchain/arm/arm-gnu-toolchain/bin/../lib/gcc/arm-none-eabi/6.3.1/../../../../arm-none-eabi/lib/thumb/v7e-m\libc_nano.a(lib_a-nano-vfprintf.o)
                0x00010d84                __sfputs_r
 .text._vfprintf_r
                0x00010da8      0x22c c:/program files (x86)/atmel/studio/7.0/toolchain/arm/arm-gnu-toolchain/bin/../lib/gcc/arm-none-eabi/6.3.1/../../../../arm-none-eabi/lib/thumb/v7e-m\libc_nano.a(lib_a-nano-vfprintf.o)
                0x00010da8                _vfprintf_r
                0x00010da8                _vfiprintf_r
 .text._printf_common
                0x00010fd4       0xec c:/program files (x86)/atmel/studio/7.0/toolchain/arm/arm-gnu-toolchain/bin/../lib/gcc/arm-none-eabi/6.3.1/../../../../arm-none-eabi/lib/thumb/v7e-m\libc_nano.a(lib_a-nano-vfprintf_i.o)
                0x00010fd4                _printf_common
 .text._printf_i
                0x000110c0      0x240 c:/program files (x86)/atmel/studio/7.0/toolchain/arm/arm-gnu-toolchain/bin/../lib/gcc/arm-none-eabi/6.3.1/../../../../arm-none-eabi/lib/thumb/v7e-m\libc_nano.a(lib_a-nano-vfprintf_i.o)
                0x000110c0                _printf_i
 .text.__sread  0x00011300       0x22 c:/program files (x86)/atmel/studio/7.0/toolchain/arm/arm-gnu-toolchain/bin/../lib/gcc/arm-none-eabi/6.3.1/../../../../arm-none-eabi/lib/thumb/v7e-m\libc_nano.a(lib_a-stdio.o)
                0x00011300                __sread
 .text.__swrite
                0x00011322       0x38 c:/program files (x86)/atmel/studio/7.0/toolchain/arm/arm-gnu-toolchain/bin/../lib/gcc/arm-none-eabi/6.3.1/../../../../arm-none-eabi/lib/thumb/v7e-m\libc_nano.a(lib_a-stdio.o)
                0x00011322                __swrite
 .text.__sseek  0x0001135a       0x24 c:/program files (x86)/atmel/studio/7.0/toolchain/arm/arm-gnu-toolchain/bin/../lib/gcc/arm-none-eabi/6.3.1/../../../../arm-none-eabi/lib/thumb/v7e-m\libc_nano.a(lib_a-stdio.o)
                0x0001135a                __sseek
 .text.__sclose
                0x0001137e        0x8 c:/program files (x86)/atmel/studio/7.0/toolchain/arm/arm-gnu-toolchain/bin/../lib/gcc/arm-none-eabi/6.3.1/../../../../arm-none-eabi/lib/thumb/v7e-m\libc_nano.a(lib_a-stdio.o)
                0x0001137e                __sclose
 *fill*         0x00011386        0x2 
 .text._write_r
                0x00011388       0x24 c:/program files (x86)/atmel/studio/7.0/toolchain/arm/arm-gnu-toolchain/bin/../lib/gcc/arm-none-eabi/6.3.1/../../../../arm-none-eabi/lib/thumb/v7e-m\libc_nano.a(lib_a-writer.o)
                0x00011388                _write_r
 .text._close_r
                0x000113ac       0x20 c:/program files (x86)/atmel/studio/7.0/toolchain/arm/arm-gnu-toolchain/bin/../lib/gcc/arm-none-eabi/6.3.1/../../../../arm-none-eabi/lib/thumb/v7e-m\libc_nano.a(lib_a-closer.o)
                0x000113ac                _close_r
 .text._fstat_r
                0x000113cc       0x24 c:/program files (x86)/atmel/studio/7.0/toolchain/arm/arm-gnu-toolchain/bin/../lib/gcc/arm-none-eabi/6.3.1/../../../../arm-none-eabi/lib/thumb/v7e-m\libc_nano.a(lib_a-fstatr.o)
                0x000113cc                _fstat_r
 .text._isatty_r
                0x000113f0       0x20 c:/program files (x86)/atmel/studio/7.0/toolchain/arm/arm-gnu-toolchain/bin/../lib/gcc/arm-none-eabi/6.3.1/../../../../arm-none-eabi/lib/thumb/v7e-m\libc_nano.a(lib_a-isattyr.o)
                0x000113f0                _isatty_r
 .text._lseek_r
                0x00011410       0x24 c:/program files (x86)/atmel/studio/7.0/toolchain/arm/arm-gnu-toolchain/bin/../lib/gcc/arm-none-eabi/6.3.1/../../../../arm-none-eabi/lib/thumb/v7e-m\libc_nano.a(lib_a-lseekr.o)
                0x00011410                _lseek_r
 *fill*         0x00011434        0xc 
 .text          0x00011440       0xa0 c:/program files (x86)/atmel/studio/7.0/toolchain/arm/arm-gnu-toolchain/bin/../lib/gcc/arm-none-eabi/6.3.1/../../../../arm-none-eabi/lib/thumb/v7e-m\libc_nano.a(lib_a-memchr.o)
                0x00011440                memchr
 .text.memmove  0x000114e0       0x34 c:/program files (x86)/atmel/studio/7.0/toolchain/arm/arm-gnu-toolchain/bin/../lib/gcc/arm-none-eabi/6.3.1/../../../../arm-none-eabi/lib/thumb/v7e-m\libc_nano.a(lib_a-memmove.o)
                0x000114e0                memmove
 .text._realloc_r
                0x00011514       0x4c c:/program files (x86)/atmel/studio/7.0/toolchain/arm/arm-gnu-toolchain/bin/../lib/gcc/arm-none-eabi/6.3.1/../../../../arm-none-eabi/lib/thumb/v7e-m\libc_nano.a(lib_a-nano-reallocr.o)
                0x00011514                _realloc_r
 .text._read_r  0x00011560       0x24 c:/program files (x86)/atmel/studio/7.0/toolchain/arm/arm-gnu-toolchain/bin/../lib/gcc/arm-none-eabi/6.3.1/../../../../arm-none-eabi/lib/thumb/v7e-m\libc_nano.a(lib_a-readr.o)
                0x00011560                _read_r
 .text._malloc_usable_size_r
                0x00011584       0x12 c:/program files (x86)/atmel/studio/7.0/toolchain/arm/arm-gnu-toolchain/bin/../lib/gcc/arm-none-eabi/6.3.1/../../../../arm-none-eabi/lib/thumb/v7e-m\libc_nano.a(lib_a-nano-msizer.o)
                0x00011584                _malloc_usable_size_r
 *(.glue_7t)
 .glue_7t       0x00011596        0x0 linker stubs
 *(.glue_7)
 .glue_7        0x00011596        0x0 linker stubs
 *(.rodata .rodata* .gnu.linkonce.r.*)
 .rodata.str1.1
                0x00011596       0xeb grid/grid_d51.o
 .rodata.str1.1
                0x00011681       0x19 grid/grid_msg.o
                                 0x1c (size before relaxing)
 .rodata.str1.1
                0x0001169a       0x46 grid/grid_nvm.o
 .rodata.str1.1
                0x000116e0      0x1a2 grid/grid_buf.o
                                0x1c7 (size before relaxing)
 .rodata.str1.1
                0x00011882       0xf8 grid/grid_module.o
                                0x119 (size before relaxing)
 .rodata        0x0001197a       0x10 grid/grid_module_bu16_revb.o
 .rodata        0x0001198a       0x10 grid/grid_module_en16_reva.o
 .rodata        0x0001199a       0x10 grid/grid_module_pbf4_reva.o
 .rodata        0x000119aa       0x10 grid/grid_module_po16_revb.o
 .rodata.str1.1
                0x000119ba       0xc4 grid/grid_sys.o
                                 0xd9 (size before relaxing)
 *fill*         0x00011a7e        0x2 
 .rodata        0x00011a80       0x10 grid/grid_ui.o
 .rodata.str1.1
                0x00011a90      0x180 grid/grid_ui.o
                                0x196 (size before relaxing)
 .rodata        0x00011c10       0x2c hpl/adc/hpl_adc.o
 .rodata        0x00011c3c      0x100 hpl/dmac/hpl_dmac.o
 .rodata        0x00011d3c      0x104 hpl/evsys/hpl_evsys.o
 .rodata        0x00011e40       0xd4 hpl/sercom/hpl_sercom.o
 .rodata        0x00011f14       0x70 hpl/tc/hpl_tc.o
 .rodata        0x00011f84       0x48 hpl/usb/hpl_usb.o
 .rodata.str1.1
                0x00011fcc       0x7e main.o
                                 0x9f (size before relaxing)
 .rodata        0x0001204a       0x3b usb/class/hid/device/hiddf_keyboard.o
                0x0001204a                keyboard_report_desc
 .rodata        0x00012085       0x34 usb/class/hid/device/hiddf_mouse.o
                0x00012085                mouse_report_desc
 *fill*         0x000120b9        0x3 
 .rodata._global_impure_ptr
                0x000120bc        0x4 c:/program files (x86)/atmel/studio/7.0/toolchain/arm/arm-gnu-toolchain/bin/../lib/gcc/arm-none-eabi/6.3.1/../../../../arm-none-eabi/lib/thumb/v7e-m\libc_nano.a(lib_a-impure.o)
                0x000120bc                _global_impure_ptr
 .rodata.__sf_fake_stderr
                0x000120c0       0x20 c:/program files (x86)/atmel/studio/7.0/toolchain/arm/arm-gnu-toolchain/bin/../lib/gcc/arm-none-eabi/6.3.1/../../../../arm-none-eabi/lib/thumb/v7e-m\libc_nano.a(lib_a-findfp.o)
                0x000120c0                __sf_fake_stderr
 .rodata.__sf_fake_stdin
                0x000120e0       0x20 c:/program files (x86)/atmel/studio/7.0/toolchain/arm/arm-gnu-toolchain/bin/../lib/gcc/arm-none-eabi/6.3.1/../../../../arm-none-eabi/lib/thumb/v7e-m\libc_nano.a(lib_a-findfp.o)
                0x000120e0                __sf_fake_stdin
 .rodata.__sf_fake_stdout
                0x00012100       0x20 c:/program files (x86)/atmel/studio/7.0/toolchain/arm/arm-gnu-toolchain/bin/../lib/gcc/arm-none-eabi/6.3.1/../../../../arm-none-eabi/lib/thumb/v7e-m\libc_nano.a(lib_a-findfp.o)
                0x00012100                __sf_fake_stdout
 .rodata._svfprintf_r.str1.1
                0x00012120       0x11 c:/program files (x86)/atmel/studio/7.0/toolchain/arm/arm-gnu-toolchain/bin/../lib/gcc/arm-none-eabi/6.3.1/../../../../arm-none-eabi/lib/thumb/v7e-m\libc_nano.a(lib_a-nano-svfprintf.o)
 .rodata._vfprintf_r.str1.1
                0x00012131       0x11 c:/program files (x86)/atmel/studio/7.0/toolchain/arm/arm-gnu-toolchain/bin/../lib/gcc/arm-none-eabi/6.3.1/../../../../arm-none-eabi/lib/thumb/v7e-m\libc_nano.a(lib_a-nano-vfprintf.o)
 .rodata._printf_i.str1.1
                0x00012131       0x22 c:/program files (x86)/atmel/studio/7.0/toolchain/arm/arm-gnu-toolchain/bin/../lib/gcc/arm-none-eabi/6.3.1/../../../../arm-none-eabi/lib/thumb/v7e-m\libc_nano.a(lib_a-nano-vfprintf_i.o)
 *(.ARM.extab* .gnu.linkonce.armextab.*)
                0x00012154                . = ALIGN (0x4)
 *fill*         0x00012153        0x1 
 *(.init)
 .init          0x00012154        0x4 c:/program files (x86)/atmel/studio/7.0/toolchain/arm/arm-gnu-toolchain/bin/../lib/gcc/arm-none-eabi/6.3.1/thumb/v7e-m/crti.o
                0x00012154                _init
 .init          0x00012158        0x8 c:/program files (x86)/atmel/studio/7.0/toolchain/arm/arm-gnu-toolchain/bin/../lib/gcc/arm-none-eabi/6.3.1/thumb/v7e-m/crtn.o
                0x00012160                . = ALIGN (0x4)
                0x00012160                __preinit_array_start = .
 *(.preinit_array)
                0x00012160                __preinit_array_end = .
                0x00012160                . = ALIGN (0x4)
                0x00012160                __init_array_start = .
 *(SORT(.init_array.*))
 *(.init_array)
 .init_array    0x00012160        0x4 c:/program files (x86)/atmel/studio/7.0/toolchain/arm/arm-gnu-toolchain/bin/../lib/gcc/arm-none-eabi/6.3.1/thumb/v7e-m/crtbegin.o
                0x00012164                __init_array_end = .
                0x00012164                . = ALIGN (0x4)
 *crtbegin.o(.ctors)
 *(EXCLUDE_FILE(*crtend.o) .ctors)
 *(SORT(.ctors.*))
 *crtend.o(.ctors)
                0x00012164                . = ALIGN (0x4)
 *(.fini)
 .fini          0x00012164        0x4 c:/program files (x86)/atmel/studio/7.0/toolchain/arm/arm-gnu-toolchain/bin/../lib/gcc/arm-none-eabi/6.3.1/thumb/v7e-m/crti.o
                0x00012164                _fini
 .fini          0x00012168        0x8 c:/program files (x86)/atmel/studio/7.0/toolchain/arm/arm-gnu-toolchain/bin/../lib/gcc/arm-none-eabi/6.3.1/thumb/v7e-m/crtn.o
                0x00012170                . = ALIGN (0x4)
                0x00012170                __fini_array_start = .
 *(.fini_array)
 .fini_array    0x00012170        0x4 c:/program files (x86)/atmel/studio/7.0/toolchain/arm/arm-gnu-toolchain/bin/../lib/gcc/arm-none-eabi/6.3.1/thumb/v7e-m/crtbegin.o
 *(SORT(.fini_array.*))
                0x00012174                __fini_array_end = .
 *crtbegin.o(.dtors)
 *(EXCLUDE_FILE(*crtend.o) .dtors)
 *(SORT(.dtors.*))
 *crtend.o(.dtors)
                0x00012174                . = ALIGN (0x4)
                0x00012174                _efixed = .
                [!provide]                PROVIDE (__exidx_start, .)

.vfp11_veneer   0x00012174        0x0
 .vfp11_veneer  0x00012174        0x0 linker stubs

.v4_bx          0x00012174        0x0
 .v4_bx         0x00012174        0x0 linker stubs

.iplt           0x00012174        0x0
 .iplt          0x00012174        0x0 c:/program files (x86)/atmel/studio/7.0/toolchain/arm/arm-gnu-toolchain/bin/../lib/gcc/arm-none-eabi/6.3.1/thumb/v7e-m/crtbegin.o

.eh_frame       0x00012174        0x0
 .eh_frame      0x00012174        0x0 c:/program files (x86)/atmel/studio/7.0/toolchain/arm/arm-gnu-toolchain/bin/../lib/gcc/arm-none-eabi/6.3.1/thumb/v7e-m/crtbegin.o

.rel.dyn        0x00012174        0x0
 .rel.iplt      0x00012174        0x0 c:/program files (x86)/atmel/studio/7.0/toolchain/arm/arm-gnu-toolchain/bin/../lib/gcc/arm-none-eabi/6.3.1/thumb/v7e-m/crtbegin.o

.jcr            0x00012174        0x0
 .jcr           0x00012174        0x0 c:/program files (x86)/atmel/studio/7.0/toolchain/arm/arm-gnu-toolchain/bin/../lib/gcc/arm-none-eabi/6.3.1/thumb/v7e-m/crtbegin.o

.igot.plt       0x00012174        0x0
 .igot.plt      0x00012174        0x0 c:/program files (x86)/atmel/studio/7.0/toolchain/arm/arm-gnu-toolchain/bin/../lib/gcc/arm-none-eabi/6.3.1/thumb/v7e-m/crtbegin.o

.ARM.exidx
 *(.ARM.exidx* .gnu.linkonce.armexidx.*)
                [!provide]                PROVIDE (__exidx_end, .)
                0x00012174                . = ALIGN (0x4)
                0x00012174                _etext = .

.relocate       0x20000000      0x5ac load address 0x00012174
                0x20000000                . = ALIGN (0x4)
                0x20000000                _srelocate = .
 *(.ramfunc .ramfunc.*)
 *(.data .data.*)
 .data          0x20000000      0x300 grid/grid_led.o
                0x20000000                min_lookup
                0x20000100                mid_lookup
                0x20000200                max_lookup
 .data          0x20000300       0x10 grid/grid_module_bu16_revb.o
                0x20000300                grid_module_bu16_revb_mux_lookup
 .data          0x20000310       0x11 grid/grid_module_en16_reva.o
                0x20000310                UI_ENCODER_LOOKUP
                0x20000320                UI_SPI_TRANSFER_LENGTH
 .data          0x20000321       0x10 grid/grid_module_pbf4_reva.o
                0x20000321                grid_module_pbf4_reva_mux_lookup
 .data          0x20000331       0x10 grid/grid_module_po16_revb.o
                0x20000331                grid_module_po16_revb_mux_lookup
 *fill*         0x20000341        0x3 
 .data          0x20000344        0x4 grid/grid_sys.o
                0x20000344                grid_sys_hwfcg
 .data          0x20000348       0x20 hpl/rtc/hpl_rtc.o
 .data          0x20000368       0x20 hpl/tc/hpl_tc.o
 .data          0x20000388        0x8 usb/class/cdc/device/cdcdf_acm.o
 .data          0x20000390        0x8 usb/class/hid/device/hiddf_keyboard.o
 .data          0x20000398        0x8 usb/class/hid/device/hiddf_mouse.o
 .data          0x200003a0        0x8 usb/class/midi/device/audiodf_midi.o
 .data          0x200003a8      0x19e usb_start.o
 *fill*         0x20000546        0x2 
 .data._impure_ptr
                0x20000548        0x4 c:/program files (x86)/atmel/studio/7.0/toolchain/arm/arm-gnu-toolchain/bin/../lib/gcc/arm-none-eabi/6.3.1/../../../../arm-none-eabi/lib/thumb/v7e-m\libc_nano.a(lib_a-impure.o)
                0x20000548                _impure_ptr
 .data.impure_data
                0x2000054c       0x60 c:/program files (x86)/atmel/studio/7.0/toolchain/arm/arm-gnu-toolchain/bin/../lib/gcc/arm-none-eabi/6.3.1/../../../../arm-none-eabi/lib/thumb/v7e-m\libc_nano.a(lib_a-impure.o)
                0x200005ac                . = ALIGN (0x4)
                0x200005ac                _erelocate = .

.bkupram        0x47000000        0x0
                0x47000000                . = ALIGN (0x8)
                0x47000000                _sbkupram = .
 *(.bkupram .bkupram.*)
                0x47000000                . = ALIGN (0x8)
                0x47000000                _ebkupram = .

.qspi           0x04000000        0x0
                0x04000000                . = ALIGN (0x8)
                0x04000000                _sqspi = .
 *(.qspi .qspi.*)
                0x04000000                . = ALIGN (0x8)
                0x04000000                _eqspi = .

.bss            0x200005b0     0x7c80 load address 0x00012730
                0x200005b0                . = ALIGN (0x4)
                0x200005b0                _sbss = .
                0x200005b0                _szero = .
 *(.bss .bss.*)
 .bss           0x200005b0       0x1c c:/program files (x86)/atmel/studio/7.0/toolchain/arm/arm-gnu-toolchain/bin/../lib/gcc/arm-none-eabi/6.3.1/thumb/v7e-m/crtbegin.o
 .bss           0x200005cc       0x62 driver_init.o
 .bss           0x2000062e       0x12 grid/grid_module_bu16_revb.o
                0x2000062e                grid_module_bu16_revb_hardware_transfer_complete
                0x2000062f                grid_module_bu16_revb_mux
 .bss           0x20000640       0x6d grid/grid_module_en16_reva.o
                0x20000640                UI_SPI_RX_BUFFER
                0x2000064e                UI_SPI_TX_BUFFER
                0x2000065c                helper
                0x2000069c                UI_SPI_RX_BUFFER_LAST
                0x200006ac                UI_SPI_DONE
 .bss           0x200006ad       0x12 grid/grid_module_pbf4_reva.o
                0x200006bd                grid_module_pbf4_revb_mux
                0x200006be                grid_module_pbf4_revb_hardware_transfer_complete
 .bss           0x200006bf        0x2 grid/grid_module_po16_revb.o
                0x200006bf                grid_module_po16_revb_hardware_transfer_complete
                0x200006c0                grid_module_po16_revb_mux
 *fill*         0x200006c1        0x3 
 .bss           0x200006c4        0x4 hal/src/hal_delay.o
 .bss           0x200006c8      0x1a0 hal/src/hal_usb_device.o
 .bss           0x20000868        0x4 hal/utils/src/utils_syscalls.o
 .bss           0x2000086c        0x8 hpl/adc/hpl_adc.o
 .bss           0x20000874      0x180 hpl/dmac/hpl_dmac.o
 .bss           0x200009f4        0x4 hpl/nvmctrl/hpl_nvmctrl.o
 .bss           0x200009f8        0x4 hpl/rtc/hpl_rtc.o
 .bss           0x200009fc       0x18 hpl/sercom/hpl_sercom.o
 .bss           0x20000a14       0x10 hpl/tc/hpl_tc.o
 .bss           0x20000a24      0x3c0 hpl/usb/hpl_usb.o
 .bss           0x20000de4       0x55 main.o
                0x20000de4                pingflag
                0x20000de5                scheduler_report_flag
                0x20000e38                rxtimeoutselector
 *fill*         0x20000e39        0x3 
 .bss           0x20000e3c        0x4 stdio_redirect/stdio_io.o
 .bss           0x20000e40       0x24 usb/class/cdc/device/cdcdf_acm.o
 .bss           0x20000e64       0x20 usb/class/hid/device/hiddf_keyboard.o
 .bss           0x20000e84       0x18 usb/class/hid/device/hiddf_mouse.o
 .bss           0x20000e9c       0x1c usb/class/midi/device/audiodf_midi.o
 .bss           0x20000eb8       0x20 usb/device/usbdc.o
 .bss           0x20000ed8       0x55 usb_start.o
 *fill*         0x20000f2d        0x3 
 .bss.__malloc_free_list
                0x20000f30        0x4 c:/program files (x86)/atmel/studio/7.0/toolchain/arm/arm-gnu-toolchain/bin/../lib/gcc/arm-none-eabi/6.3.1/../../../../arm-none-eabi/lib/thumb/v7e-m\libc_nano.a(lib_a-nano-mallocr.o)
                0x20000f30                __malloc_free_list
 .bss.__malloc_sbrk_start
                0x20000f34        0x4 c:/program files (x86)/atmel/studio/7.0/toolchain/arm/arm-gnu-toolchain/bin/../lib/gcc/arm-none-eabi/6.3.1/../../../../arm-none-eabi/lib/thumb/v7e-m\libc_nano.a(lib_a-nano-mallocr.o)
                0x20000f34                __malloc_sbrk_start
 *(COMMON)
 COMMON         0x20000f38      0x35c driver_init.o
                0x20000f38                UI_SPI
                0x20000f80                RTC_Scheduler
                0x20000fa0                TIMER_2
                0x20000fc0                FLASH_0
                0x20000fdc                CRC_0
                0x20000fe0                ADC_1_ch
                0x20000ff8                SYS_I2C
                0x20001038                GRID_AUX
                0x20001044                ADC_0
                0x20001070                USART_EAST
                0x200010c0                WDT_0
                0x200010c4                USART_NORTH
                0x20001114                GRID_LED
                0x20001140                ADC_0_ch
                0x20001158                TIMER_1
                0x20001178                USART_WEST
                0x200011c8                USART_SOUTH
                0x20001218                ADC_1
                0x20001244                TIMER_3
                0x20001264                TIMER_0
                0x20001284                QSPI_INSTANCE
 COMMON         0x20001294     0x6b71 grid/grid_d51.o
                0x20001294                grid_led_hardware_transfer_done
                0x20001298                GRID_PORT_N
                0x200022b4                grid_buffer_error_count
                0x200022b5                UI_SPI_DEBUG
                0x200022b6                grid_unittest_succes_counter
                0x200022b8                grid_module_en16_reva_hardware_io
                0x200022bc                ain_channel_buffer
                0x200022c0                grid_module_pbf4_reva_hardware_transfer_complete
                0x200022c4                GRID_PORT_U
                0x200032e0                grid_ui_state
                0x200032e8                grid_sys_north_io
                0x200032ec                grid_sys_state
                0x20003398                grid_nvm_state
                0x200037d4                grid_led_color_code
                0x20003bd4                grid_task_state
                0x20003bf8                GRID_PORT_W
                0x20004c14                grid_sys_east_io
                0x20004c18                GRID_PORT_S
                0x20005c34                grid_sys_south_io
                0x20005c38                GRID_PORT_H
                0x20006c54                grid_ui_encoder_array
                0x20006d54                GRID_PORT_E
                0x20007d70                grid_unittest_failure_counter
                0x20007d74                grid_core_state
                0x20007d7c                grid_module_pbf4_reva_mux
                0x20007d80                grid_unittest_state
                0x20007de8                grid_led_state
                0x20007e00                grid_sys_west_io
                0x20007e04                grid_module_en16_reva_hardware_transfer_complete
 *fill*         0x20007e05        0xb 
 COMMON         0x20007e10      0x400 hpl/dmac/hpl_dmac.o
                0x20007e10                _descriptor_section
                0x20008010                _write_back_section
 COMMON         0x20008210       0x10 hpl/ramecc/hpl_ramecc.o
                0x20008210                device
 COMMON         0x20008220        0xa usb/class/midi/device/audiodf_midi.o
                0x20008220                usb_debug2
 *fill*         0x2000822a        0x2 
 COMMON         0x2000822c        0x4 c:/program files (x86)/atmel/studio/7.0/toolchain/arm/arm-gnu-toolchain/bin/../lib/gcc/arm-none-eabi/6.3.1/../../../../arm-none-eabi/lib/thumb/v7e-m\libc_nano.a(lib_a-reent.o)
                0x2000822c                errno
                0x20008230                . = ALIGN (0x4)
                0x20008230                _ebss = .
                0x20008230                _ezero = .

.stack          0x20008230    0x10000 load address 0x0001a3b0
                0x20008230                . = ALIGN (0x8)
                0x20008230                _sstack = .
                0x20018230                . = (. + STACK_SIZE)
 *fill*         0x20008230    0x10000 
                0x20018230                . = ALIGN (0x8)
                0x20018230                _estack = .
                0x20018230                . = ALIGN (0x4)
                0x20018230                _end = .
OUTPUT(grid_toplevel.elf elf32-littlearm)

.ARM.attributes
                0x00000000       0x2e
 .ARM.attributes
                0x00000000       0x1e c:/program files (x86)/atmel/studio/7.0/toolchain/arm/arm-gnu-toolchain/bin/../lib/gcc/arm-none-eabi/6.3.1/thumb/v7e-m/crti.o
 .ARM.attributes
                0x0000001e       0x2e c:/program files (x86)/atmel/studio/7.0/toolchain/arm/arm-gnu-toolchain/bin/../lib/gcc/arm-none-eabi/6.3.1/thumb/v7e-m/crtbegin.o
 .ARM.attributes
                0x0000004c       0x37 atmel_start.o
 .ARM.attributes
                0x00000083       0x37 Device_Startup/startup_samd51.o
 .ARM.attributes
                0x000000ba       0x37 driver_init.o
 .ARM.attributes
                0x000000f1       0x37 grid/grid_d51.o
 .ARM.attributes
                0x00000128       0x37 grid/grid_msg.o
 .ARM.attributes
                0x0000015f       0x37 grid/grid_nvm.o
 .ARM.attributes
                0x00000196       0x37 grid/grid_ain.o
 .ARM.attributes
                0x000001cd       0x37 grid/grid_buf.o
 .ARM.attributes
                0x00000204       0x37 grid/grid_led.o
 .ARM.attributes
                0x0000023b       0x37 grid/grid_module.o
 .ARM.attributes
                0x00000272       0x37 grid/grid_module_bu16_revb.o
 .ARM.attributes
                0x000002a9       0x37 grid/grid_module_en16_reva.o
 .ARM.attributes
                0x000002e0       0x37 grid/grid_module_pbf4_reva.o
 .ARM.attributes
                0x00000317       0x37 grid/grid_module_po16_revb.o
 .ARM.attributes
                0x0000034e       0x37 grid/grid_sys.o
 .ARM.attributes
                0x00000385       0x37 grid/grid_ui.o
 .ARM.attributes
                0x000003bc       0x37 grid/grid_usb.o
 .ARM.attributes
                0x000003f3       0x37 hal/src/hal_adc_async.o
 .ARM.attributes
                0x0000042a       0x37 hal/src/hal_atomic.o
 .ARM.attributes
                0x00000461       0x37 hal/src/hal_crc_sync.o
 .ARM.attributes
                0x00000498       0x37 hal/src/hal_delay.o
 .ARM.attributes
                0x000004cf       0x37 hal/src/hal_evsys.o
 .ARM.attributes
                0x00000506       0x37 hal/src/hal_flash.o
 .ARM.attributes
                0x0000053d       0x37 hal/src/hal_i2c_m_async.o
 .ARM.attributes
                0x00000574       0x37 hal/src/hal_io.o
 .ARM.attributes
                0x000005ab       0x37 hal/src/hal_qspi_dma.o
 .ARM.attributes
                0x000005e2       0x37 hal/src/hal_spi_m_async.o
 .ARM.attributes
                0x00000619       0x37 hal/src/hal_spi_m_dma.o
 .ARM.attributes
                0x00000650       0x37 hal/src/hal_timer.o
 .ARM.attributes
                0x00000687       0x37 hal/src/hal_usart_async.o
 .ARM.attributes
                0x000006be       0x37 hal/src/hal_usart_sync.o
 .ARM.attributes
                0x000006f5       0x37 hal/src/hal_usb_device.o
 .ARM.attributes
                0x0000072c       0x37 hal/utils/src/utils_list.o
 .ARM.attributes
                0x00000763       0x37 hal/utils/src/utils_ringbuffer.o
 .ARM.attributes
                0x0000079a       0x37 hal/utils/src/utils_syscalls.o
 .ARM.attributes
                0x000007d1       0x37 hpl/adc/hpl_adc.o
 .ARM.attributes
                0x00000808       0x37 hpl/core/hpl_core_m4.o
 .ARM.attributes
                0x0000083f       0x37 hpl/core/hpl_init.o
 .ARM.attributes
                0x00000876       0x37 hpl/dmac/hpl_dmac.o
 .ARM.attributes
                0x000008ad       0x37 hpl/dsu/hpl_dsu.o
 .ARM.attributes
                0x000008e4       0x37 hpl/evsys/hpl_evsys.o
 .ARM.attributes
                0x0000091b       0x37 hpl/gclk/hpl_gclk.o
 .ARM.attributes
                0x00000952       0x37 hpl/mclk/hpl_mclk.o
 .ARM.attributes
                0x00000989       0x37 hpl/nvmctrl/hpl_nvmctrl.o
 .ARM.attributes
                0x000009c0       0x37 hpl/osc32kctrl/hpl_osc32kctrl.o
 .ARM.attributes
                0x000009f7       0x37 hpl/oscctrl/hpl_oscctrl.o
 .ARM.attributes
                0x00000a2e       0x37 hpl/qspi/hpl_qspi.o
 .ARM.attributes
                0x00000a65       0x37 hpl/ramecc/hpl_ramecc.o
 .ARM.attributes
                0x00000a9c       0x37 hpl/rtc/hpl_rtc.o
 .ARM.attributes
                0x00000ad3       0x37 hpl/sercom/hpl_sercom.o
 .ARM.attributes
                0x00000b0a       0x37 hpl/systick/hpl_systick.o
 .ARM.attributes
                0x00000b41       0x37 hpl/tc/hpl_tc.o
 .ARM.attributes
                0x00000b78       0x37 hpl/usb/hpl_usb.o
 .ARM.attributes
                0x00000baf       0x37 hpl/wdt/hpl_wdt.o
 .ARM.attributes
                0x00000be6       0x37 main.o
 .ARM.attributes
                0x00000c1d       0x37 stdio_redirect/gcc/read.o
 .ARM.attributes
                0x00000c54       0x37 stdio_redirect/gcc/write.o
 .ARM.attributes
                0x00000c8b       0x37 stdio_redirect/stdio_io.o
 .ARM.attributes
                0x00000cc2       0x37 stdio_start.o
 .ARM.attributes
                0x00000cf9       0x37 usb/class/cdc/device/cdcdf_acm.o
 .ARM.attributes
                0x00000d30       0x37 usb/class/hid/device/hiddf_keyboard.o
 .ARM.attributes
                0x00000d67       0x37 usb/class/hid/device/hiddf_mouse.o
 .ARM.attributes
                0x00000d9e       0x37 usb/class/midi/device/audiodf_midi.o
 .ARM.attributes
                0x00000dd5       0x37 usb/device/usbdc.o
 .ARM.attributes
                0x00000e0c       0x37 usb/usb_protocol.o
 .ARM.attributes
                0x00000e43       0x37 usb_start.o
 .ARM.attributes
                0x00000e7a       0x1e c:/program files (x86)/atmel/studio/7.0/toolchain/arm/arm-gnu-toolchain/bin/../lib/gcc/arm-none-eabi/6.3.1/thumb/v7e-m\libgcc.a(_arm_addsubdf3.o)
 .ARM.attributes
                0x00000e98       0x1e c:/program files (x86)/atmel/studio/7.0/toolchain/arm/arm-gnu-toolchain/bin/../lib/gcc/arm-none-eabi/6.3.1/thumb/v7e-m\libgcc.a(_arm_muldivdf3.o)
 .ARM.attributes
                0x00000eb6       0x1e c:/program files (x86)/atmel/studio/7.0/toolchain/arm/arm-gnu-toolchain/bin/../lib/gcc/arm-none-eabi/6.3.1/thumb/v7e-m\libgcc.a(_arm_fixunsdfsi.o)
 .ARM.attributes
                0x00000ed4       0x2e c:/program files (x86)/atmel/studio/7.0/toolchain/arm/arm-gnu-toolchain/bin/../lib/gcc/arm-none-eabi/6.3.1/../../../../arm-none-eabi/lib/thumb/v7e-m\libc_nano.a(lib_a-impure.o)
 .ARM.attributes
                0x00000f02       0x2e c:/program files (x86)/atmel/studio/7.0/toolchain/arm/arm-gnu-toolchain/bin/../lib/gcc/arm-none-eabi/6.3.1/../../../../arm-none-eabi/lib/thumb/v7e-m\libc_nano.a(lib_a-init.o)
 .ARM.attributes
                0x00000f30       0x2e c:/program files (x86)/atmel/studio/7.0/toolchain/arm/arm-gnu-toolchain/bin/../lib/gcc/arm-none-eabi/6.3.1/../../../../arm-none-eabi/lib/thumb/v7e-m\libc_nano.a(lib_a-malloc.o)
 .ARM.attributes
                0x00000f5e       0x2e c:/program files (x86)/atmel/studio/7.0/toolchain/arm/arm-gnu-toolchain/bin/../lib/gcc/arm-none-eabi/6.3.1/../../../../arm-none-eabi/lib/thumb/v7e-m\libc_nano.a(lib_a-memcpy-stub.o)
 .ARM.attributes
                0x00000f8c       0x2e c:/program files (x86)/atmel/studio/7.0/toolchain/arm/arm-gnu-toolchain/bin/../lib/gcc/arm-none-eabi/6.3.1/../../../../arm-none-eabi/lib/thumb/v7e-m\libc_nano.a(lib_a-memset.o)
 .ARM.attributes
                0x00000fba       0x2e c:/program files (x86)/atmel/studio/7.0/toolchain/arm/arm-gnu-toolchain/bin/../lib/gcc/arm-none-eabi/6.3.1/../../../../arm-none-eabi/lib/thumb/v7e-m\libc_nano.a(lib_a-nano-freer.o)
 .ARM.attributes
                0x00000fe8       0x2e c:/program files (x86)/atmel/studio/7.0/toolchain/arm/arm-gnu-toolchain/bin/../lib/gcc/arm-none-eabi/6.3.1/../../../../arm-none-eabi/lib/thumb/v7e-m\libc_nano.a(lib_a-nano-mallocr.o)
 .ARM.attributes
                0x00001016       0x2e c:/program files (x86)/atmel/studio/7.0/toolchain/arm/arm-gnu-toolchain/bin/../lib/gcc/arm-none-eabi/6.3.1/../../../../arm-none-eabi/lib/thumb/v7e-m\libc_nano.a(lib_a-printf.o)
 .ARM.attributes
                0x00001044       0x2e c:/program files (x86)/atmel/studio/7.0/toolchain/arm/arm-gnu-toolchain/bin/../lib/gcc/arm-none-eabi/6.3.1/../../../../arm-none-eabi/lib/thumb/v7e-m\libc_nano.a(lib_a-puts.o)
 .ARM.attributes
                0x00001072       0x2e c:/program files (x86)/atmel/studio/7.0/toolchain/arm/arm-gnu-toolchain/bin/../lib/gcc/arm-none-eabi/6.3.1/../../../../arm-none-eabi/lib/thumb/v7e-m\libc_nano.a(lib_a-sbrkr.o)
 .ARM.attributes
                0x000010a0       0x2e c:/program files (x86)/atmel/studio/7.0/toolchain/arm/arm-gnu-toolchain/bin/../lib/gcc/arm-none-eabi/6.3.1/../../../../arm-none-eabi/lib/thumb/v7e-m\libc_nano.a(lib_a-setbuf.o)
 .ARM.attributes
                0x000010ce       0x2e c:/program files (x86)/atmel/studio/7.0/toolchain/arm/arm-gnu-toolchain/bin/../lib/gcc/arm-none-eabi/6.3.1/../../../../arm-none-eabi/lib/thumb/v7e-m\libc_nano.a(lib_a-setvbuf.o)
 .ARM.attributes
                0x000010fc       0x2e c:/program files (x86)/atmel/studio/7.0/toolchain/arm/arm-gnu-toolchain/bin/../lib/gcc/arm-none-eabi/6.3.1/../../../../arm-none-eabi/lib/thumb/v7e-m\libc_nano.a(lib_a-sprintf.o)
 .ARM.attributes
                0x0000112a       0x2e c:/program files (x86)/atmel/studio/7.0/toolchain/arm/arm-gnu-toolchain/bin/../lib/gcc/arm-none-eabi/6.3.1/../../../../arm-none-eabi/lib/thumb/v7e-m\libc_nano.a(lib_a-strcpy.o)
 .ARM.attributes
                0x00001158       0x17 c:/program files (x86)/atmel/studio/7.0/toolchain/arm/arm-gnu-toolchain/bin/../lib/gcc/arm-none-eabi/6.3.1/../../../../arm-none-eabi/lib/thumb/v7e-m\libc_nano.a(lib_a-strlen.o)
 .ARM.attributes
                0x0000116f       0x2e c:/program files (x86)/atmel/studio/7.0/toolchain/arm/arm-gnu-toolchain/bin/../lib/gcc/arm-none-eabi/6.3.1/../../../../arm-none-eabi/lib/thumb/v7e-m\libc_nano.a(lib_a-wbuf.o)
 .ARM.attributes
                0x0000119d       0x2e c:/program files (x86)/atmel/studio/7.0/toolchain/arm/arm-gnu-toolchain/bin/../lib/gcc/arm-none-eabi/6.3.1/../../../../arm-none-eabi/lib/thumb/v7e-m\libc_nano.a(lib_a-wsetup.o)
 .ARM.attributes
                0x000011cb       0x2e c:/program files (x86)/atmel/studio/7.0/toolchain/arm/arm-gnu-toolchain/bin/../lib/gcc/arm-none-eabi/6.3.1/../../../../arm-none-eabi/lib/thumb/v7e-m\libc_nano.a(lib_a-fflush.o)
 .ARM.attributes
                0x000011f9       0x2e c:/program files (x86)/atmel/studio/7.0/toolchain/arm/arm-gnu-toolchain/bin/../lib/gcc/arm-none-eabi/6.3.1/../../../../arm-none-eabi/lib/thumb/v7e-m\libc_nano.a(lib_a-findfp.o)
 .ARM.attributes
                0x00001227       0x2e c:/program files (x86)/atmel/studio/7.0/toolchain/arm/arm-gnu-toolchain/bin/../lib/gcc/arm-none-eabi/6.3.1/../../../../arm-none-eabi/lib/thumb/v7e-m\libc_nano.a(lib_a-fwalk.o)
 .ARM.attributes
                0x00001255       0x2e c:/program files (x86)/atmel/studio/7.0/toolchain/arm/arm-gnu-toolchain/bin/../lib/gcc/arm-none-eabi/6.3.1/../../../../arm-none-eabi/lib/thumb/v7e-m\libc_nano.a(lib_a-makebuf.o)
 .ARM.attributes
                0x00001283       0x2e c:/program files (x86)/atmel/studio/7.0/toolchain/arm/arm-gnu-toolchain/bin/../lib/gcc/arm-none-eabi/6.3.1/../../../../arm-none-eabi/lib/thumb/v7e-m\libc_nano.a(lib_a-mlock.o)
 .ARM.attributes
                0x000012b1       0x2e c:/program files (x86)/atmel/studio/7.0/toolchain/arm/arm-gnu-toolchain/bin/../lib/gcc/arm-none-eabi/6.3.1/../../../../arm-none-eabi/lib/thumb/v7e-m\libc_nano.a(lib_a-nano-svfprintf.o)
 .ARM.attributes
                0x000012df       0x2e c:/program files (x86)/atmel/studio/7.0/toolchain/arm/arm-gnu-toolchain/bin/../lib/gcc/arm-none-eabi/6.3.1/../../../../arm-none-eabi/lib/thumb/v7e-m\libc_nano.a(lib_a-nano-vfprintf.o)
 .ARM.attributes
                0x0000130d       0x2e c:/program files (x86)/atmel/studio/7.0/toolchain/arm/arm-gnu-toolchain/bin/../lib/gcc/arm-none-eabi/6.3.1/../../../../arm-none-eabi/lib/thumb/v7e-m\libc_nano.a(lib_a-nano-vfprintf_i.o)
 .ARM.attributes
                0x0000133b       0x2e c:/program files (x86)/atmel/studio/7.0/toolchain/arm/arm-gnu-toolchain/bin/../lib/gcc/arm-none-eabi/6.3.1/../../../../arm-none-eabi/lib/thumb/v7e-m\libc_nano.a(lib_a-reent.o)
 .ARM.attributes
                0x00001369       0x2e c:/program files (x86)/atmel/studio/7.0/toolchain/arm/arm-gnu-toolchain/bin/../lib/gcc/arm-none-eabi/6.3.1/../../../../arm-none-eabi/lib/thumb/v7e-m\libc_nano.a(lib_a-stdio.o)
 .ARM.attributes
                0x00001397       0x2e c:/program files (x86)/atmel/studio/7.0/toolchain/arm/arm-gnu-toolchain/bin/../lib/gcc/arm-none-eabi/6.3.1/../../../../arm-none-eabi/lib/thumb/v7e-m\libc_nano.a(lib_a-writer.o)
 .ARM.attributes
                0x000013c5       0x2e c:/program files (x86)/atmel/studio/7.0/toolchain/arm/arm-gnu-toolchain/bin/../lib/gcc/arm-none-eabi/6.3.1/../../../../arm-none-eabi/lib/thumb/v7e-m\libc_nano.a(lib_a-closer.o)
 .ARM.attributes
                0x000013f3       0x2e c:/program files (x86)/atmel/studio/7.0/toolchain/arm/arm-gnu-toolchain/bin/../lib/gcc/arm-none-eabi/6.3.1/../../../../arm-none-eabi/lib/thumb/v7e-m\libc_nano.a(lib_a-fstatr.o)
 .ARM.attributes
                0x00001421       0x2e c:/program files (x86)/atmel/studio/7.0/toolchain/arm/arm-gnu-toolchain/bin/../lib/gcc/arm-none-eabi/6.3.1/../../../../arm-none-eabi/lib/thumb/v7e-m\libc_nano.a(lib_a-isattyr.o)
 .ARM.attributes
                0x0000144f       0x2e c:/program files (x86)/atmel/studio/7.0/toolchain/arm/arm-gnu-toolchain/bin/../lib/gcc/arm-none-eabi/6.3.1/../../../../arm-none-eabi/lib/thumb/v7e-m\libc_nano.a(lib_a-lseekr.o)
 .ARM.attributes
                0x0000147d       0x1c c:/program files (x86)/atmel/studio/7.0/toolchain/arm/arm-gnu-toolchain/bin/../lib/gcc/arm-none-eabi/6.3.1/../../../../arm-none-eabi/lib/thumb/v7e-m\libc_nano.a(lib_a-memchr.o)
 .ARM.attributes
                0x00001499       0x2e c:/program files (x86)/atmel/studio/7.0/toolchain/arm/arm-gnu-toolchain/bin/../lib/gcc/arm-none-eabi/6.3.1/../../../../arm-none-eabi/lib/thumb/v7e-m\libc_nano.a(lib_a-memmove.o)
 .ARM.attributes
                0x000014c7       0x2e c:/program files (x86)/atmel/studio/7.0/toolchain/arm/arm-gnu-toolchain/bin/../lib/gcc/arm-none-eabi/6.3.1/../../../../arm-none-eabi/lib/thumb/v7e-m\libc_nano.a(lib_a-nano-reallocr.o)
 .ARM.attributes
                0x000014f5       0x2e c:/program files (x86)/atmel/studio/7.0/toolchain/arm/arm-gnu-toolchain/bin/../lib/gcc/arm-none-eabi/6.3.1/../../../../arm-none-eabi/lib/thumb/v7e-m\libc_nano.a(lib_a-readr.o)
 .ARM.attributes
                0x00001523       0x2e c:/program files (x86)/atmel/studio/7.0/toolchain/arm/arm-gnu-toolchain/bin/../lib/gcc/arm-none-eabi/6.3.1/../../../../arm-none-eabi/lib/thumb/v7e-m\libc_nano.a(lib_a-nano-msizer.o)
 .ARM.attributes
                0x00001551       0x1e c:/program files (x86)/atmel/studio/7.0/toolchain/arm/arm-gnu-toolchain/bin/../lib/gcc/arm-none-eabi/6.3.1/thumb/v7e-m/crtn.o

.comment        0x00000000       0x59
 .comment       0x00000000       0x59 atmel_start.o
                                 0x5a (size before relaxing)
 .comment       0x00000059       0x5a Device_Startup/startup_samd51.o
 .comment       0x00000059       0x5a driver_init.o
 .comment       0x00000059       0x5a grid/grid_d51.o
 .comment       0x00000059       0x5a grid/grid_msg.o
 .comment       0x00000059       0x5a grid/grid_nvm.o
 .comment       0x00000059       0x5a grid/grid_ain.o
 .comment       0x00000059       0x5a grid/grid_buf.o
 .comment       0x00000059       0x5a grid/grid_led.o
 .comment       0x00000059       0x5a grid/grid_module.o
 .comment       0x00000059       0x5a grid/grid_module_bu16_revb.o
 .comment       0x00000059       0x5a grid/grid_module_en16_reva.o
 .comment       0x00000059       0x5a grid/grid_module_pbf4_reva.o
 .comment       0x00000059       0x5a grid/grid_module_po16_revb.o
 .comment       0x00000059       0x5a grid/grid_sys.o
 .comment       0x00000059       0x5a grid/grid_ui.o
 .comment       0x00000059       0x5a grid/grid_usb.o
 .comment       0x00000059       0x5a hal/src/hal_adc_async.o
 .comment       0x00000059       0x5a hal/src/hal_atomic.o
 .comment       0x00000059       0x5a hal/src/hal_crc_sync.o
 .comment       0x00000059       0x5a hal/src/hal_delay.o
 .comment       0x00000059       0x5a hal/src/hal_evsys.o
 .comment       0x00000059       0x5a hal/src/hal_flash.o
 .comment       0x00000059       0x5a hal/src/hal_i2c_m_async.o
 .comment       0x00000059       0x5a hal/src/hal_io.o
 .comment       0x00000059       0x5a hal/src/hal_qspi_dma.o
 .comment       0x00000059       0x5a hal/src/hal_spi_m_async.o
 .comment       0x00000059       0x5a hal/src/hal_spi_m_dma.o
 .comment       0x00000059       0x5a hal/src/hal_timer.o
 .comment       0x00000059       0x5a hal/src/hal_usart_async.o
 .comment       0x00000059       0x5a hal/src/hal_usart_sync.o
 .comment       0x00000059       0x5a hal/src/hal_usb_device.o
 .comment       0x00000059       0x5a hal/utils/src/utils_list.o
 .comment       0x00000059       0x5a hal/utils/src/utils_ringbuffer.o
 .comment       0x00000059       0x5a hal/utils/src/utils_syscalls.o
 .comment       0x00000059       0x5a hpl/adc/hpl_adc.o
 .comment       0x00000059       0x5a hpl/core/hpl_core_m4.o
 .comment       0x00000059       0x5a hpl/core/hpl_init.o
 .comment       0x00000059       0x5a hpl/dmac/hpl_dmac.o
 .comment       0x00000059       0x5a hpl/dsu/hpl_dsu.o
 .comment       0x00000059       0x5a hpl/evsys/hpl_evsys.o
 .comment       0x00000059       0x5a hpl/gclk/hpl_gclk.o
 .comment       0x00000059       0x5a hpl/mclk/hpl_mclk.o
 .comment       0x00000059       0x5a hpl/nvmctrl/hpl_nvmctrl.o
 .comment       0x00000059       0x5a hpl/osc32kctrl/hpl_osc32kctrl.o
 .comment       0x00000059       0x5a hpl/oscctrl/hpl_oscctrl.o
 .comment       0x00000059       0x5a hpl/qspi/hpl_qspi.o
 .comment       0x00000059       0x5a hpl/ramecc/hpl_ramecc.o
 .comment       0x00000059       0x5a hpl/rtc/hpl_rtc.o
 .comment       0x00000059       0x5a hpl/sercom/hpl_sercom.o
 .comment       0x00000059       0x5a hpl/systick/hpl_systick.o
 .comment       0x00000059       0x5a hpl/tc/hpl_tc.o
 .comment       0x00000059       0x5a hpl/usb/hpl_usb.o
 .comment       0x00000059       0x5a hpl/wdt/hpl_wdt.o
 .comment       0x00000059       0x5a main.o
 .comment       0x00000059       0x5a stdio_redirect/gcc/read.o
 .comment       0x00000059       0x5a stdio_redirect/gcc/write.o
 .comment       0x00000059       0x5a stdio_redirect/stdio_io.o
 .comment       0x00000059       0x5a stdio_start.o
 .comment       0x00000059       0x5a usb/class/cdc/device/cdcdf_acm.o
 .comment       0x00000059       0x5a usb/class/hid/device/hiddf_keyboard.o
 .comment       0x00000059       0x5a usb/class/hid/device/hiddf_mouse.o
 .comment       0x00000059       0x5a usb/class/midi/device/audiodf_midi.o
 .comment       0x00000059       0x5a usb/device/usbdc.o
 .comment       0x00000059       0x5a usb/usb_protocol.o
 .comment       0x00000059       0x5a usb_start.o

.debug_frame    0x00000000      0xac4
 .debug_frame   0x00000000       0xac c:/program files (x86)/atmel/studio/7.0/toolchain/arm/arm-gnu-toolchain/bin/../lib/gcc/arm-none-eabi/6.3.1/thumb/v7e-m\libgcc.a(_arm_addsubdf3.o)
 .debug_frame   0x000000ac       0x50 c:/program files (x86)/atmel/studio/7.0/toolchain/arm/arm-gnu-toolchain/bin/../lib/gcc/arm-none-eabi/6.3.1/thumb/v7e-m\libgcc.a(_arm_muldivdf3.o)
 .debug_frame   0x000000fc       0x24 c:/program files (x86)/atmel/studio/7.0/toolchain/arm/arm-gnu-toolchain/bin/../lib/gcc/arm-none-eabi/6.3.1/thumb/v7e-m\libgcc.a(_arm_fixunsdfsi.o)
 .debug_frame   0x00000120       0x2c c:/program files (x86)/atmel/studio/7.0/toolchain/arm/arm-gnu-toolchain/bin/../lib/gcc/arm-none-eabi/6.3.1/../../../../arm-none-eabi/lib/thumb/v7e-m\libc_nano.a(lib_a-init.o)
 .debug_frame   0x0000014c       0x30 c:/program files (x86)/atmel/studio/7.0/toolchain/arm/arm-gnu-toolchain/bin/../lib/gcc/arm-none-eabi/6.3.1/../../../../arm-none-eabi/lib/thumb/v7e-m\libc_nano.a(lib_a-malloc.o)
 .debug_frame   0x0000017c       0x28 c:/program files (x86)/atmel/studio/7.0/toolchain/arm/arm-gnu-toolchain/bin/../lib/gcc/arm-none-eabi/6.3.1/../../../../arm-none-eabi/lib/thumb/v7e-m\libc_nano.a(lib_a-memcpy-stub.o)
 .debug_frame   0x000001a4       0x20 c:/program files (x86)/atmel/studio/7.0/toolchain/arm/arm-gnu-toolchain/bin/../lib/gcc/arm-none-eabi/6.3.1/../../../../arm-none-eabi/lib/thumb/v7e-m\libc_nano.a(lib_a-memset.o)
 .debug_frame   0x000001c4       0x38 c:/program files (x86)/atmel/studio/7.0/toolchain/arm/arm-gnu-toolchain/bin/../lib/gcc/arm-none-eabi/6.3.1/../../../../arm-none-eabi/lib/thumb/v7e-m\libc_nano.a(lib_a-nano-freer.o)
 .debug_frame   0x000001fc       0x2c c:/program files (x86)/atmel/studio/7.0/toolchain/arm/arm-gnu-toolchain/bin/../lib/gcc/arm-none-eabi/6.3.1/../../../../arm-none-eabi/lib/thumb/v7e-m\libc_nano.a(lib_a-nano-mallocr.o)
 .debug_frame   0x00000228       0x74 c:/program files (x86)/atmel/studio/7.0/toolchain/arm/arm-gnu-toolchain/bin/../lib/gcc/arm-none-eabi/6.3.1/../../../../arm-none-eabi/lib/thumb/v7e-m\libc_nano.a(lib_a-printf.o)
 .debug_frame   0x0000029c       0x3c c:/program files (x86)/atmel/studio/7.0/toolchain/arm/arm-gnu-toolchain/bin/../lib/gcc/arm-none-eabi/6.3.1/../../../../arm-none-eabi/lib/thumb/v7e-m\libc_nano.a(lib_a-puts.o)
 .debug_frame   0x000002d8       0x2c c:/program files (x86)/atmel/studio/7.0/toolchain/arm/arm-gnu-toolchain/bin/../lib/gcc/arm-none-eabi/6.3.1/../../../../arm-none-eabi/lib/thumb/v7e-m\libc_nano.a(lib_a-sbrkr.o)
 .debug_frame   0x00000304       0x20 c:/program files (x86)/atmel/studio/7.0/toolchain/arm/arm-gnu-toolchain/bin/../lib/gcc/arm-none-eabi/6.3.1/../../../../arm-none-eabi/lib/thumb/v7e-m\libc_nano.a(lib_a-setbuf.o)
 .debug_frame   0x00000324       0x38 c:/program files (x86)/atmel/studio/7.0/toolchain/arm/arm-gnu-toolchain/bin/../lib/gcc/arm-none-eabi/6.3.1/../../../../arm-none-eabi/lib/thumb/v7e-m\libc_nano.a(lib_a-setvbuf.o)
 .debug_frame   0x0000035c       0x70 c:/program files (x86)/atmel/studio/7.0/toolchain/arm/arm-gnu-toolchain/bin/../lib/gcc/arm-none-eabi/6.3.1/../../../../arm-none-eabi/lib/thumb/v7e-m\libc_nano.a(lib_a-sprintf.o)
 .debug_frame   0x000003cc       0x20 c:/program files (x86)/atmel/studio/7.0/toolchain/arm/arm-gnu-toolchain/bin/../lib/gcc/arm-none-eabi/6.3.1/../../../../arm-none-eabi/lib/thumb/v7e-m\libc_nano.a(lib_a-strcpy.o)
 .debug_frame   0x000003ec       0x40 c:/program files (x86)/atmel/studio/7.0/toolchain/arm/arm-gnu-toolchain/bin/../lib/gcc/arm-none-eabi/6.3.1/../../../../arm-none-eabi/lib/thumb/v7e-m\libc_nano.a(lib_a-wbuf.o)
 .debug_frame   0x0000042c       0x2c c:/program files (x86)/atmel/studio/7.0/toolchain/arm/arm-gnu-toolchain/bin/../lib/gcc/arm-none-eabi/6.3.1/../../../../arm-none-eabi/lib/thumb/v7e-m\libc_nano.a(lib_a-wsetup.o)
 .debug_frame   0x00000458       0x68 c:/program files (x86)/atmel/studio/7.0/toolchain/arm/arm-gnu-toolchain/bin/../lib/gcc/arm-none-eabi/6.3.1/../../../../arm-none-eabi/lib/thumb/v7e-m\libc_nano.a(lib_a-fflush.o)
 .debug_frame   0x000004c0      0x11c c:/program files (x86)/atmel/studio/7.0/toolchain/arm/arm-gnu-toolchain/bin/../lib/gcc/arm-none-eabi/6.3.1/../../../../arm-none-eabi/lib/thumb/v7e-m\libc_nano.a(lib_a-findfp.o)
 .debug_frame   0x000005dc       0x54 c:/program files (x86)/atmel/studio/7.0/toolchain/arm/arm-gnu-toolchain/bin/../lib/gcc/arm-none-eabi/6.3.1/../../../../arm-none-eabi/lib/thumb/v7e-m\libc_nano.a(lib_a-fwalk.o)
 .debug_frame   0x00000630       0x58 c:/program files (x86)/atmel/studio/7.0/toolchain/arm/arm-gnu-toolchain/bin/../lib/gcc/arm-none-eabi/6.3.1/../../../../arm-none-eabi/lib/thumb/v7e-m\libc_nano.a(lib_a-makebuf.o)
 .debug_frame   0x00000688       0x30 c:/program files (x86)/atmel/studio/7.0/toolchain/arm/arm-gnu-toolchain/bin/../lib/gcc/arm-none-eabi/6.3.1/../../../../arm-none-eabi/lib/thumb/v7e-m\libc_nano.a(lib_a-mlock.o)
 .debug_frame   0x000006b8       0x90 c:/program files (x86)/atmel/studio/7.0/toolchain/arm/arm-gnu-toolchain/bin/../lib/gcc/arm-none-eabi/6.3.1/../../../../arm-none-eabi/lib/thumb/v7e-m\libc_nano.a(lib_a-nano-svfprintf.o)
 .debug_frame   0x00000748       0xac c:/program files (x86)/atmel/studio/7.0/toolchain/arm/arm-gnu-toolchain/bin/../lib/gcc/arm-none-eabi/6.3.1/../../../../arm-none-eabi/lib/thumb/v7e-m\libc_nano.a(lib_a-nano-vfprintf.o)
 .debug_frame   0x000007f4       0x60 c:/program files (x86)/atmel/studio/7.0/toolchain/arm/arm-gnu-toolchain/bin/../lib/gcc/arm-none-eabi/6.3.1/../../../../arm-none-eabi/lib/thumb/v7e-m\libc_nano.a(lib_a-nano-vfprintf_i.o)
 .debug_frame   0x00000854       0x5c c:/program files (x86)/atmel/studio/7.0/toolchain/arm/arm-gnu-toolchain/bin/../lib/gcc/arm-none-eabi/6.3.1/../../../../arm-none-eabi/lib/thumb/v7e-m\libc_nano.a(lib_a-reent.o)
 .debug_frame   0x000008b0       0x88 c:/program files (x86)/atmel/studio/7.0/toolchain/arm/arm-gnu-toolchain/bin/../lib/gcc/arm-none-eabi/6.3.1/../../../../arm-none-eabi/lib/thumb/v7e-m\libc_nano.a(lib_a-stdio.o)
 .debug_frame   0x00000938       0x2c c:/program files (x86)/atmel/studio/7.0/toolchain/arm/arm-gnu-toolchain/bin/../lib/gcc/arm-none-eabi/6.3.1/../../../../arm-none-eabi/lib/thumb/v7e-m\libc_nano.a(lib_a-writer.o)
 .debug_frame   0x00000964       0x2c c:/program files (x86)/atmel/studio/7.0/toolchain/arm/arm-gnu-toolchain/bin/../lib/gcc/arm-none-eabi/6.3.1/../../../../arm-none-eabi/lib/thumb/v7e-m\libc_nano.a(lib_a-closer.o)
 .debug_frame   0x00000990       0x2c c:/program files (x86)/atmel/studio/7.0/toolchain/arm/arm-gnu-toolchain/bin/../lib/gcc/arm-none-eabi/6.3.1/../../../../arm-none-eabi/lib/thumb/v7e-m\libc_nano.a(lib_a-fstatr.o)
 .debug_frame   0x000009bc       0x2c c:/program files (x86)/atmel/studio/7.0/toolchain/arm/arm-gnu-toolchain/bin/../lib/gcc/arm-none-eabi/6.3.1/../../../../arm-none-eabi/lib/thumb/v7e-m\libc_nano.a(lib_a-isattyr.o)
 .debug_frame   0x000009e8       0x2c c:/program files (x86)/atmel/studio/7.0/toolchain/arm/arm-gnu-toolchain/bin/../lib/gcc/arm-none-eabi/6.3.1/../../../../arm-none-eabi/lib/thumb/v7e-m\libc_nano.a(lib_a-lseekr.o)
 .debug_frame   0x00000a14       0x28 c:/program files (x86)/atmel/studio/7.0/toolchain/arm/arm-gnu-toolchain/bin/../lib/gcc/arm-none-eabi/6.3.1/../../../../arm-none-eabi/lib/thumb/v7e-m\libc_nano.a(lib_a-memmove.o)
 .debug_frame   0x00000a3c       0x3c c:/program files (x86)/atmel/studio/7.0/toolchain/arm/arm-gnu-toolchain/bin/../lib/gcc/arm-none-eabi/6.3.1/../../../../arm-none-eabi/lib/thumb/v7e-m\libc_nano.a(lib_a-nano-reallocr.o)
 .debug_frame   0x00000a78       0x2c c:/program files (x86)/atmel/studio/7.0/toolchain/arm/arm-gnu-toolchain/bin/../lib/gcc/arm-none-eabi/6.3.1/../../../../arm-none-eabi/lib/thumb/v7e-m\libc_nano.a(lib_a-readr.o)
 .debug_frame   0x00000aa4       0x20 c:/program files (x86)/atmel/studio/7.0/toolchain/arm/arm-gnu-toolchain/bin/../lib/gcc/arm-none-eabi/6.3.1/../../../../arm-none-eabi/lib/thumb/v7e-m\libc_nano.a(lib_a-nano-msizer.o)
